///////////////////////////////////////////////////////////////////////////////
//
// IAR C/C++ Compiler V9.20.1.2476 for 8051               17/Feb/2016  12:57:22
// Copyright 2004-2015 IAR Systems AB.
// Standalone license - IAR Embedded Workbench for 8051
//
//    Core               =  plain
//    Code model         =  banked
//    Data model         =  large
//    Calling convention =  xdata reentrant
//    Constant location  =  data_rom
//    Dptr setup         =  1,16
//                          
//    Source file        =  
//        E:\Sensordinges\Z-Stack Mesh 1.0.0\Z-Stack Mesh
//        1.0.0\Components\mt\MT_AF.c
//    Command line       =  
//        -f "E:\Sensordinges\Z-Stack Mesh 1.0.0\Z-Stack Mesh
//        1.0.0\Projects\zstack\Samples\DemoApp\CC2530DB\..\..\..\Tools\CC2530DB\f8wCoord.cfg"
//        (-DCPU32MHZ -DROOT=__near_func -DMAC_CFG_APP_PENDING_QUEUE=TRUE
//        -DMAC_CFG_TX_DATA_MAX=5 -DMAC_CFG_TX_MAX=8 -DMAC_CFG_RX_MAX=5
//        -DZDO_COORDINATOR -DRTR_NWK) -f "E:\Sensordinges\Z-Stack Mesh
//        1.0.0\Z-Stack Mesh
//        1.0.0\Projects\zstack\Samples\DemoApp\CC2530DB\..\..\..\Tools\CC2530DB\f8wConfig.cfg"
//        (-DZIGBEEPRO -DSECURE=0 -DZG_SECURE_DYNAMIC=0 -DREFLECTOR
//        -DDEFAULT_CHANLIST=0x00008000 -DZDAPP_CONFIG_PAN_ID=0x0EEE
//        -DNWK_START_DELAY=100 -DEXTENDED_JOINING_RANDOM_MASK=0x007F
//        -DBEACON_REQUEST_DELAY=100 -DBEACON_REQ_DELAY_MASK=0x00FF
//        -DLINK_STATUS_JITTER_MASK=0x007F -DROUTE_EXPIRY_TIME=30
//        -DAPSC_ACK_WAIT_DURATION_POLLED=3000 -DNWK_INDIRECT_MSG_TIMEOUT=7
//        -DMAX_RREQ_ENTRIES=8 -DAPSC_MAX_FRAME_RETRIES=3
//        -DNWK_MAX_DATA_RETRIES=2 -DMAX_POLL_FAILURE_RETRIES=2 -DMAX_BCAST=9
//        -DAPS_MAX_GROUPS=16 -DMAX_RTG_ENTRIES=40 -DNWK_MAX_BINDING_ENTRIES=4
//        -DMAX_BINDING_CLUSTER_IDS=4 "-DDEFAULT_KEY={0x01, 0x03, 0x05, 0x07,
//        0x09, 0x0B, 0x0D, 0x0F, 0x00, 0x02, 0x04, 0x06, 0x08, 0x0A, 0x0C,
//        0x0D}" -DMAC_MAX_FRAME_SIZE=116 -DZDNWKMGR_MIN_TRANSMISSIONS=20
//        "-DCONST=const __code" -DGENERIC=__generic -DRFD_RCVC_ALWAYS_ON=FALSE
//        -DPOLL_RATE=1000 -DQUEUED_POLL_RATE=100 -DRESPONSE_POLL_RATE=100)
//        -DREJOIN_POLL_RATE=440 "E:\Sensordinges\Z-Stack Mesh 1.0.0\Z-Stack
//        Mesh 1.0.0\Components\mt\MT_AF.c" -D HOLD_AUTO_START -D
//        BUILD_ALL_DEVICES -D REFLECTOR -D NV_INIT -D xNV_RESTORE -D ZTOOL_P1
//        -lC "E:\Sensordinges\Z-Stack Mesh 1.0.0\Z-Stack Mesh
//        1.0.0\Projects\zstack\Samples\DemoApp\CC2530DB\CoordinatorEB\List\"
//        -lA "E:\Sensordinges\Z-Stack Mesh 1.0.0\Z-Stack Mesh
//        1.0.0\Projects\zstack\Samples\DemoApp\CC2530DB\CoordinatorEB\List\"
//        --diag_suppress Pe001,Pa010,Pe1665 -o "E:\Sensordinges\Z-Stack Mesh
//        1.0.0\Z-Stack Mesh
//        1.0.0\Projects\zstack\Samples\DemoApp\CC2530DB\CoordinatorEB\Obj\" -e
//        --debug --core=plain --dptr=16,1 --data_model=large
//        --code_model=banked --calling_convention=xdata_reentrant
//        --place_constants=data_rom --nr_virtual_regs 16 -I
//        "E:\Sensordinges\Z-Stack Mesh 1.0.0\Z-Stack Mesh
//        1.0.0\Projects\zstack\Samples\DemoApp\CC2530DB\" -I
//        "E:\Sensordinges\Z-Stack Mesh 1.0.0\Z-Stack Mesh
//        1.0.0\Projects\zstack\Samples\DemoApp\CC2530DB\..\Source\" -I
//        "E:\Sensordinges\Z-Stack Mesh 1.0.0\Z-Stack Mesh
//        1.0.0\Projects\zstack\Samples\DemoApp\CC2530DB\..\..\..\ZMain\TI2530DB\"
//        -I "E:\Sensordinges\Z-Stack Mesh 1.0.0\Z-Stack Mesh
//        1.0.0\Projects\zstack\Samples\DemoApp\CC2530DB\..\..\..\..\..\Components\hal\include\"
//        -I "E:\Sensordinges\Z-Stack Mesh 1.0.0\Z-Stack Mesh
//        1.0.0\Projects\zstack\Samples\DemoApp\CC2530DB\..\..\..\..\..\Components\hal\target\CC2530EB\"
//        -I "E:\Sensordinges\Z-Stack Mesh 1.0.0\Z-Stack Mesh
//        1.0.0\Projects\zstack\Samples\DemoApp\CC2530DB\..\..\..\..\..\Components\mac\include\"
//        -I "E:\Sensordinges\Z-Stack Mesh 1.0.0\Z-Stack Mesh
//        1.0.0\Projects\zstack\Samples\DemoApp\CC2530DB\..\..\..\..\..\Components\mac\high_level\"
//        -I "E:\Sensordinges\Z-Stack Mesh 1.0.0\Z-Stack Mesh
//        1.0.0\Projects\zstack\Samples\DemoApp\CC2530DB\..\..\..\..\..\Components\mac\low_level\srf04\"
//        -I "E:\Sensordinges\Z-Stack Mesh 1.0.0\Z-Stack Mesh
//        1.0.0\Projects\zstack\Samples\DemoApp\CC2530DB\..\..\..\..\..\Components\mac\low_level\srf04\single_chip\"
//        -I "E:\Sensordinges\Z-Stack Mesh 1.0.0\Z-Stack Mesh
//        1.0.0\Projects\zstack\Samples\DemoApp\CC2530DB\..\..\..\..\..\Components\mt\"
//        -I "E:\Sensordinges\Z-Stack Mesh 1.0.0\Z-Stack Mesh
//        1.0.0\Projects\zstack\Samples\DemoApp\CC2530DB\..\..\..\..\..\Components\osal\include\"
//        -I "E:\Sensordinges\Z-Stack Mesh 1.0.0\Z-Stack Mesh
//        1.0.0\Projects\zstack\Samples\DemoApp\CC2530DB\..\..\..\..\..\Components\services\saddr\"
//        -I "E:\Sensordinges\Z-Stack Mesh 1.0.0\Z-Stack Mesh
//        1.0.0\Projects\zstack\Samples\DemoApp\CC2530DB\..\..\..\..\..\Components\services\sdata\"
//        -I "E:\Sensordinges\Z-Stack Mesh 1.0.0\Z-Stack Mesh
//        1.0.0\Projects\zstack\Samples\DemoApp\CC2530DB\..\..\..\..\..\Components\stack\af\"
//        -I "E:\Sensordinges\Z-Stack Mesh 1.0.0\Z-Stack Mesh
//        1.0.0\Projects\zstack\Samples\DemoApp\CC2530DB\..\..\..\..\..\Components\stack\nwk\"
//        -I "E:\Sensordinges\Z-Stack Mesh 1.0.0\Z-Stack Mesh
//        1.0.0\Projects\zstack\Samples\DemoApp\CC2530DB\..\..\..\..\..\Components\stack\sapi\"
//        -I "E:\Sensordinges\Z-Stack Mesh 1.0.0\Z-Stack Mesh
//        1.0.0\Projects\zstack\Samples\DemoApp\CC2530DB\..\..\..\..\..\Components\stack\sec\"
//        -I "E:\Sensordinges\Z-Stack Mesh 1.0.0\Z-Stack Mesh
//        1.0.0\Projects\zstack\Samples\DemoApp\CC2530DB\..\..\..\..\..\Components\stack\sys\"
//        -I "E:\Sensordinges\Z-Stack Mesh 1.0.0\Z-Stack Mesh
//        1.0.0\Projects\zstack\Samples\DemoApp\CC2530DB\..\..\..\..\..\Components\stack\zdo\"
//        -I "E:\Sensordinges\Z-Stack Mesh 1.0.0\Z-Stack Mesh
//        1.0.0\Projects\zstack\Samples\DemoApp\CC2530DB\..\..\..\..\..\Components\zmac\"
//        -I "E:\Sensordinges\Z-Stack Mesh 1.0.0\Z-Stack Mesh
//        1.0.0\Projects\zstack\Samples\DemoApp\CC2530DB\..\..\..\..\..\Components\zmac\f8w\"
//        -Oh --require_prototypes
//    List file          =  
//        E:\Sensordinges\Z-Stack Mesh 1.0.0\Z-Stack Mesh
//        1.0.0\Projects\zstack\Samples\DemoApp\CC2530DB\CoordinatorEB\List\MT_AF.s51
//
///////////////////////////////////////////////////////////////////////////////

        NAME MT_AF

        RTMODEL "__SystemLibrary", "CLib"
        RTMODEL "__calling_convention", "xdata_reentrant"
        RTMODEL "__code_model", "banked"
        RTMODEL "__core", "plain"
        RTMODEL "__data_model", "large"
        RTMODEL "__dptr_size", "16"
        RTMODEL "__extended_stack", "disabled"
        RTMODEL "__location_for_constants", "data"
        RTMODEL "__number_of_dptrs", "1"
        RTMODEL "__rt_version", "1"

        RSEG DOVERLAY:DATA:NOROOT(0)
        RSEG IOVERLAY:IDATA:NOROOT(0)
        RSEG ISTACK:IDATA:NOROOT(0)
        RSEG PSTACK:XDATA:NOROOT(0)
        RSEG XSTACK:XDATA:NOROOT(0)

        EXTERN ?V0
        EXTERN ?V1
        EXTERN ?V2
        EXTERN ?V4
        EXTERN ?V5
        EXTERN ?V3
        EXTERN ?V6
        EXTERN ?V7
        EXTERN ?V8
        EXTERN ?V9
        EXTERN ?V10
        EXTERN ?V11
        EXTERN ?V12
        EXTERN ?V13
        EXTERN ?V14
        EXTERN ?V15
        EXTERN ?ALLOC_XSTACK8
        EXTERN ?BANKED_ENTER_XDATA
        EXTERN ?BANKED_LEAVE_XDATA
        EXTERN ?BDISPATCH
        EXTERN ?BRET
        EXTERN ?DEALLOC_XSTACK8
        EXTERN ?L_ADD
        EXTERN ?L_EQ_X
        EXTERN ?L_MOV_X
        EXTERN ?L_SHL
        EXTERN ?MOVE_LONG8_XDATA_XDATA
        EXTERN ?PUSH_XSTACK8_X_FOUR
        EXTERN ?PUSH_XSTACK8_X_TWO
        EXTERN ?PUSH_XSTACK_I_ONE
        EXTERN ?PUSH_XSTACK_I_THREE
        EXTERN ?PUSH_XSTACK_I_TWO
        EXTERN ?UL_SHR
        EXTERN ?XLOAD_R0123
        EXTERN ?XSP
        EXTERN ?XSTACK_DISP0_8
        EXTERN ?XSTACK_DISP100_8
        EXTERN ?XSTACK_DISP101_8
        EXTERN ?XSTACK_DISP102_8
        EXTERN ?XSTORE_R0123
        EXTERN __INIT_XDATA_Z

        PUBLIC `??MT_AfCommandProcessing::?relay`
        FUNCTION `??MT_AfCommandProcessing::?relay`,0203H
        PUBLIC `??MT_AfDataConfirm::?relay`
        FUNCTION `??MT_AfDataConfirm::?relay`,0203H
        PUBLIC `??MT_AfDataRequest::?relay`
        FUNCTION `??MT_AfDataRequest::?relay`,0203H
        PUBLIC `??MT_AfDataRequestSrcRtg::?relay`
        FUNCTION `??MT_AfDataRequestSrcRtg::?relay`,0203H
        FUNCTION `??MT_AfDataRetrieve::?relay`,0203H
        FUNCTION `??MT_AfDataStore::?relay`,0203H
        PUBLIC `??MT_AfDelete::?relay`
        FUNCTION `??MT_AfDelete::?relay`,0203H
        PUBLIC `??MT_AfExec::?relay`
        FUNCTION `??MT_AfExec::?relay`,0203H
        PUBLIC `??MT_AfIncomingMsg::?relay`
        FUNCTION `??MT_AfIncomingMsg::?relay`,0203H
        PUBLIC `??MT_AfReflectError::?relay`
        FUNCTION `??MT_AfReflectError::?relay`,0203H
        PUBLIC `??MT_AfRegister::?relay`
        FUNCTION `??MT_AfRegister::?relay`,0203H
        PUBLIC MT_AfCommandProcessing
        FUNCTION MT_AfCommandProcessing,021203H
        ARGFRAME XSTACK, 0, STACK
        LOCFRAME ISTACK, 1, STACK
        LOCFRAME XSTACK, 14, STACK
        PUBLIC MT_AfDataConfirm
        FUNCTION MT_AfDataConfirm,021203H
        ARGFRAME XSTACK, 0, STACK
        LOCFRAME ISTACK, 3, STACK
        LOCFRAME XSTACK, 3, STACK
        PUBLIC MT_AfDataRequest
        FUNCTION MT_AfDataRequest,0a1203H
        ARGFRAME XSTACK, 14, STACK
        ARGFRAME IOVERLAY, 0, STATIC
        ARGFRAME DOVERLAY, 0, STATIC
        LOCFRAME ISTACK, 1, STACK
        LOCFRAME XSTACK, 44, STACK
        PUBLIC MT_AfDataRequestSrcRtg
        FUNCTION MT_AfDataRequestSrcRtg,0a1203H
        ARGFRAME XSTACK, 14, STACK
        ARGFRAME IOVERLAY, 0, STATIC
        ARGFRAME DOVERLAY, 0, STATIC
        LOCFRAME ISTACK, 1, STACK
        LOCFRAME XSTACK, 47, STACK
        FUNCTION MT_AfDataRetrieve,0a1203H
        ARGFRAME XSTACK, 14, STACK
        ARGFRAME IOVERLAY, 0, STATIC
        ARGFRAME DOVERLAY, 0, STATIC
        LOCFRAME ISTACK, 1, STACK
        LOCFRAME XSTACK, 25, STACK
        FUNCTION MT_AfDataStore,0a1203H
        ARGFRAME XSTACK, 14, STACK
        ARGFRAME IOVERLAY, 0, STATIC
        ARGFRAME DOVERLAY, 0, STATIC
        LOCFRAME ISTACK, 1, STACK
        LOCFRAME XSTACK, 24, STACK
        PUBLIC MT_AfDelete
        FUNCTION MT_AfDelete,021203H
        ARGFRAME XSTACK, 0, STACK
        LOCFRAME ISTACK, 1, STACK
        LOCFRAME XSTACK, 10, STACK
        PUBLIC MT_AfExec
        FUNCTION MT_AfExec,021203H
        ARGFRAME XSTACK, 0, STACK
        LOCFRAME XSTACK, 13, STACK
        PUBLIC MT_AfIncomingMsg
        FUNCTION MT_AfIncomingMsg,0a1203H
        ARGFRAME XSTACK, 0, STACK
        LOCFRAME ISTACK, 1, STACK
        LOCFRAME XSTACK, 29, STACK
        PUBLIC MT_AfReflectError
        FUNCTION MT_AfReflectError,021203H
        ARGFRAME XSTACK, 0, STACK
        LOCFRAME ISTACK, 3, STACK
        LOCFRAME XSTACK, 6, STACK
        PUBLIC MT_AfRegister
        FUNCTION MT_AfRegister,0a1203H
        ARGFRAME XSTACK, 14, STACK
        ARGFRAME IOVERLAY, 0, STATIC
        ARGFRAME DOVERLAY, 0, STATIC
        LOCFRAME ISTACK, 1, STACK
        LOCFRAME XSTACK, 15, STACK
        PUBWEAK __Constant_3e8
        PUBLIC pMtAfDataReq
        PUBLIC pMtAfInMsgList
        
          CFI Names cfiNames0
          CFI StackFrame CFA_SP SP IDATA
          CFI StackFrame CFA_PSP16 PSP16 XDATA
          CFI StackFrame CFA_XSP16 XSP16 XDATA
          CFI StaticOverlayFrame CFA_IOVERLAY IOVERLAY
          CFI StaticOverlayFrame CFA_DOVERLAY DOVERLAY
          CFI Resource `PSW.CY`:1, `B.BR0`:1, `B.BR1`:1, `B.BR2`:1, `B.BR3`:1
          CFI Resource `B.BR4`:1, `B.BR5`:1, `B.BR6`:1, `B.BR7`:1, `VB.BR8`:1
          CFI Resource `VB.BR9`:1, `VB.BR10`:1, `VB.BR11`:1, `VB.BR12`:1
          CFI Resource `VB.BR13`:1, `VB.BR14`:1, `VB.BR15`:1, VB:8, B:8, A:8
          CFI Resource PSW:8, DPL0:8, DPH0:8, R0:8, R1:8, R2:8, R3:8, R4:8, R5:8
          CFI Resource R6:8, R7:8, V0:8, V1:8, V2:8, V3:8, V4:8, V5:8, V6:8, V7:8
          CFI Resource V8:8, V9:8, V10:8, V11:8, V12:8, V13:8, V14:8, V15:8, SP:8
          CFI Resource PSPH:8, PSPL:8, PSP16:16, XSPH:8, XSPL:8, XSP16:16
          CFI VirtualResource ?RET:24
          CFI Resource ?BRET_EXT:8
          CFI VirtualResource ?RET_HIGH:8, ?RET_LOW:8
          CFI ResourceParts PSP16 PSPH, PSPL
          CFI ResourceParts XSP16 XSPH, XSPL
          CFI ResourceParts ?RET ?BRET_EXT, ?RET_HIGH, ?RET_LOW
          CFI EndNames cfiNames0
        
          CFI Common cfiCommon0 Using cfiNames0
          CFI CodeAlign 1
          CFI DataAlign -1
          CFI ReturnAddress ?RET CODE
          CFI CFA_DOVERLAY Used
          CFI CFA_IOVERLAY Used
          CFI CFA_SP SP+-3
          CFI CFA_PSP16 PSP16+0
          CFI CFA_XSP16 XSP16+0
          CFI `PSW.CY` SameValue
          CFI `B.BR0` SameValue
          CFI `B.BR1` SameValue
          CFI `B.BR2` SameValue
          CFI `B.BR3` SameValue
          CFI `B.BR4` SameValue
          CFI `B.BR5` SameValue
          CFI `B.BR6` SameValue
          CFI `B.BR7` SameValue
          CFI `VB.BR8` SameValue
          CFI `VB.BR9` SameValue
          CFI `VB.BR10` SameValue
          CFI `VB.BR11` SameValue
          CFI `VB.BR12` SameValue
          CFI `VB.BR13` SameValue
          CFI `VB.BR14` SameValue
          CFI `VB.BR15` SameValue
          CFI VB SameValue
          CFI B Undefined
          CFI A Undefined
          CFI PSW SameValue
          CFI DPL0 SameValue
          CFI DPH0 SameValue
          CFI R0 Undefined
          CFI R1 Undefined
          CFI R2 Undefined
          CFI R3 Undefined
          CFI R4 Undefined
          CFI R5 Undefined
          CFI R6 SameValue
          CFI R7 SameValue
          CFI V0 SameValue
          CFI V1 SameValue
          CFI V2 SameValue
          CFI V3 SameValue
          CFI V4 SameValue
          CFI V5 SameValue
          CFI V6 SameValue
          CFI V7 SameValue
          CFI V8 SameValue
          CFI V9 SameValue
          CFI V10 SameValue
          CFI V11 SameValue
          CFI V12 SameValue
          CFI V13 SameValue
          CFI V14 SameValue
          CFI V15 SameValue
          CFI PSPH Undefined
          CFI PSPL Undefined
          CFI XSPH Undefined
          CFI XSPL Undefined
          CFI ?RET Concat
          CFI ?BRET_EXT Frame(CFA_SP, 3)
          CFI ?RET_HIGH Frame(CFA_SP, 2)
          CFI ?RET_LOW Frame(CFA_SP, 1)
          CFI EndCommon cfiCommon0
        
        
          CFI Common cfiCommon1 Using cfiNames0
          CFI CodeAlign 1
          CFI DataAlign -1
          CFI ReturnAddress ?RET CODE
          CFI CFA_DOVERLAY Used
          CFI CFA_IOVERLAY Used
          CFI CFA_SP SP+-2
          CFI CFA_PSP16 PSP16+0
          CFI CFA_XSP16 XSP16+0
          CFI `PSW.CY` SameValue
          CFI `B.BR0` SameValue
          CFI `B.BR1` SameValue
          CFI `B.BR2` SameValue
          CFI `B.BR3` SameValue
          CFI `B.BR4` SameValue
          CFI `B.BR5` SameValue
          CFI `B.BR6` SameValue
          CFI `B.BR7` SameValue
          CFI `VB.BR8` SameValue
          CFI `VB.BR9` SameValue
          CFI `VB.BR10` SameValue
          CFI `VB.BR11` SameValue
          CFI `VB.BR12` SameValue
          CFI `VB.BR13` SameValue
          CFI `VB.BR14` SameValue
          CFI `VB.BR15` SameValue
          CFI VB SameValue
          CFI B SameValue
          CFI A SameValue
          CFI PSW SameValue
          CFI DPL0 SameValue
          CFI DPH0 SameValue
          CFI R0 SameValue
          CFI R1 SameValue
          CFI R2 SameValue
          CFI R3 SameValue
          CFI R4 SameValue
          CFI R5 SameValue
          CFI R6 SameValue
          CFI R7 SameValue
          CFI V0 SameValue
          CFI V1 SameValue
          CFI V2 SameValue
          CFI V3 SameValue
          CFI V4 SameValue
          CFI V5 SameValue
          CFI V6 SameValue
          CFI V7 SameValue
          CFI V8 SameValue
          CFI V9 SameValue
          CFI V10 SameValue
          CFI V11 SameValue
          CFI V12 SameValue
          CFI V13 SameValue
          CFI V14 SameValue
          CFI V15 SameValue
          CFI PSPH Undefined
          CFI PSPL Undefined
          CFI XSPH Undefined
          CFI XSPL Undefined
          CFI ?RET Concat
          CFI ?BRET_EXT SameValue
          CFI ?RET_HIGH Frame(CFA_SP, 2)
          CFI ?RET_LOW Frame(CFA_SP, 1)
          CFI EndCommon cfiCommon1
        
AF_DataRequest      SYMBOL "AF_DataRequest"
`??AF_DataRequest::?relay` SYMBOL "?relay", AF_DataRequest
AF_DataRequestSrcRtg SYMBOL "AF_DataRequestSrcRtg"
`??AF_DataRequestSrcRtg::?relay` SYMBOL "?relay", AF_DataRequestSrcRtg
MT_BuildAndSendZToolResponse SYMBOL "MT_BuildAndSendZToolResponse"
`??MT_BuildAndSendZToolResponse::?relay` SYMBOL "?relay", MT_BuildAndSendZToolResponse
MT_BuildEndpointDesc SYMBOL "MT_BuildEndpointDesc"
`??MT_BuildEndpointDesc::?relay` SYMBOL "?relay", MT_BuildEndpointDesc
afAPSF_ConfigGet    SYMBOL "afAPSF_ConfigGet"
`??afAPSF_ConfigGet::?relay` SYMBOL "?relay", afAPSF_ConfigGet
afAPSF_ConfigSet    SYMBOL "afAPSF_ConfigSet"
`??afAPSF_ConfigSet::?relay` SYMBOL "?relay", afAPSF_ConfigSet
afDelete            SYMBOL "afDelete"
`??afDelete::?relay` SYMBOL "?relay", afDelete
afFindEndPointDesc  SYMBOL "afFindEndPointDesc"
`??afFindEndPointDesc::?relay` SYMBOL "?relay", afFindEndPointDesc
afRegister          SYMBOL "afRegister"
`??afRegister::?relay` SYMBOL "?relay", afRegister
osal_mem_alloc      SYMBOL "osal_mem_alloc"
`??osal_mem_alloc::?relay` SYMBOL "?relay", osal_mem_alloc
osal_mem_free       SYMBOL "osal_mem_free"
`??osal_mem_free::?relay` SYMBOL "?relay", osal_mem_free
osal_memcpy         SYMBOL "osal_memcpy"
`??osal_memcpy::?relay` SYMBOL "?relay", osal_memcpy
osal_memset         SYMBOL "osal_memset"
`??osal_memset::?relay` SYMBOL "?relay", osal_memset
osal_set_event      SYMBOL "osal_set_event"
`??osal_set_event::?relay` SYMBOL "?relay", osal_set_event
osal_start_timerEx  SYMBOL "osal_start_timerEx"
`??osal_start_timerEx::?relay` SYMBOL "?relay", osal_start_timerEx
MT_AfCommandProcessing SYMBOL "MT_AfCommandProcessing"
`??MT_AfCommandProcessing::?relay` SYMBOL "?relay", MT_AfCommandProcessing
MT_AfDataConfirm    SYMBOL "MT_AfDataConfirm"
`??MT_AfDataConfirm::?relay` SYMBOL "?relay", MT_AfDataConfirm
MT_AfDataRequest    SYMBOL "MT_AfDataRequest"
`??MT_AfDataRequest::?relay` SYMBOL "?relay", MT_AfDataRequest
MT_AfDataRequestSrcRtg SYMBOL "MT_AfDataRequestSrcRtg"
`??MT_AfDataRequestSrcRtg::?relay` SYMBOL "?relay", MT_AfDataRequestSrcRtg
MT_AfDelete         SYMBOL "MT_AfDelete"
`??MT_AfDelete::?relay` SYMBOL "?relay", MT_AfDelete
MT_AfExec           SYMBOL "MT_AfExec"
`??MT_AfExec::?relay` SYMBOL "?relay", MT_AfExec
MT_AfIncomingMsg    SYMBOL "MT_AfIncomingMsg"
`??MT_AfIncomingMsg::?relay` SYMBOL "?relay", MT_AfIncomingMsg
MT_AfReflectError   SYMBOL "MT_AfReflectError"
`??MT_AfReflectError::?relay` SYMBOL "?relay", MT_AfReflectError
MT_AfRegister       SYMBOL "MT_AfRegister"
`??MT_AfRegister::?relay` SYMBOL "?relay", MT_AfRegister

        EXTERN `??AF_DataRequest::?relay`
        FUNCTION `??AF_DataRequest::?relay`,00H
        EXTERN `??AF_DataRequestSrcRtg::?relay`
        FUNCTION `??AF_DataRequestSrcRtg::?relay`,00H
        EXTERN `??MT_BuildAndSendZToolResponse::?relay`
        FUNCTION `??MT_BuildAndSendZToolResponse::?relay`,00H
        EXTERN `??MT_BuildEndpointDesc::?relay`
        FUNCTION `??MT_BuildEndpointDesc::?relay`,00H
        EXTERN `??afAPSF_ConfigGet::?relay`
        FUNCTION `??afAPSF_ConfigGet::?relay`,00H
        EXTERN `??afAPSF_ConfigSet::?relay`
        FUNCTION `??afAPSF_ConfigSet::?relay`,00H
        EXTERN `??afDelete::?relay`
        FUNCTION `??afDelete::?relay`,00H
        EXTERN `??afFindEndPointDesc::?relay`
        FUNCTION `??afFindEndPointDesc::?relay`,00H
        EXTERN `??afRegister::?relay`
        FUNCTION `??afRegister::?relay`,00H
        EXTERN `??osal_mem_alloc::?relay`
        FUNCTION `??osal_mem_alloc::?relay`,00H
        EXTERN `??osal_mem_free::?relay`
        FUNCTION `??osal_mem_free::?relay`,00H
        EXTERN `??osal_memcpy::?relay`
        FUNCTION `??osal_memcpy::?relay`,00H
        EXTERN `??osal_memset::?relay`
        FUNCTION `??osal_memset::?relay`,00H
        EXTERN `??osal_set_event::?relay`
        FUNCTION `??osal_set_event::?relay`,00H
        EXTERN `??osal_start_timerEx::?relay`
        FUNCTION `??osal_start_timerEx::?relay`,00H
        EXTERN AF_DataRequest
        FUNCTION AF_DataRequest,0202H
        ARGFRAME ISTACK, 0, STACK
        ARGFRAME PSTACK, 0, STACK
        ARGFRAME XSTACK, 44, STACK
        ARGFRAME IOVERLAY, 0, STATIC
        ARGFRAME DOVERLAY, 0, STATIC
        EXTERN AF_DataRequestSrcRtg
        FUNCTION AF_DataRequestSrcRtg,0202H
        ARGFRAME ISTACK, 0, STACK
        ARGFRAME PSTACK, 0, STACK
        ARGFRAME XSTACK, 47, STACK
        ARGFRAME IOVERLAY, 0, STATIC
        ARGFRAME DOVERLAY, 0, STATIC
        EXTERN MT_BuildAndSendZToolResponse
        FUNCTION MT_BuildAndSendZToolResponse,0202H
        ARGFRAME ISTACK, 2, STACK
        ARGFRAME PSTACK, 0, STACK
        ARGFRAME XSTACK, 35, STACK
        ARGFRAME IOVERLAY, 0, STATIC
        ARGFRAME DOVERLAY, 0, STATIC
        EXTERN MT_BuildEndpointDesc
        FUNCTION MT_BuildEndpointDesc,0202H
        ARGFRAME ISTACK, 0, STACK
        ARGFRAME PSTACK, 0, STACK
        ARGFRAME XSTACK, 15, STACK
        ARGFRAME IOVERLAY, 0, STATIC
        ARGFRAME DOVERLAY, 0, STATIC
        EXTERN MT_TaskID
        EXTERN afAPSF_ConfigGet
        FUNCTION afAPSF_ConfigGet,0202H
        ARGFRAME ISTACK, 0, STACK
        ARGFRAME PSTACK, 0, STACK
        ARGFRAME XSTACK, 14, STACK
        ARGFRAME IOVERLAY, 0, STATIC
        ARGFRAME DOVERLAY, 0, STATIC
        EXTERN afAPSF_ConfigSet
        FUNCTION afAPSF_ConfigSet,0202H
        ARGFRAME ISTACK, 0, STACK
        ARGFRAME PSTACK, 0, STACK
        ARGFRAME XSTACK, 14, STACK
        ARGFRAME IOVERLAY, 0, STATIC
        ARGFRAME DOVERLAY, 0, STATIC
        EXTERN afDelete
        FUNCTION afDelete,0202H
        ARGFRAME ISTACK, 0, STACK
        ARGFRAME PSTACK, 0, STACK
        ARGFRAME XSTACK, 14, STACK
        ARGFRAME IOVERLAY, 0, STATIC
        ARGFRAME DOVERLAY, 0, STATIC
        EXTERN afFindEndPointDesc
        FUNCTION afFindEndPointDesc,0202H
        ARGFRAME ISTACK, 0, STACK
        ARGFRAME PSTACK, 0, STACK
        ARGFRAME XSTACK, 35, STACK
        ARGFRAME IOVERLAY, 0, STATIC
        ARGFRAME DOVERLAY, 0, STATIC
        EXTERN afRegister
        FUNCTION afRegister,0202H
        ARGFRAME ISTACK, 0, STACK
        ARGFRAME PSTACK, 0, STACK
        ARGFRAME XSTACK, 15, STACK
        ARGFRAME IOVERLAY, 0, STATIC
        ARGFRAME DOVERLAY, 0, STATIC
        EXTERN osal_mem_alloc
        FUNCTION osal_mem_alloc,0202H
        ARGFRAME ISTACK, 0, STACK
        ARGFRAME PSTACK, 0, STACK
        ARGFRAME XSTACK, 35, STACK
        ARGFRAME IOVERLAY, 0, STATIC
        ARGFRAME DOVERLAY, 0, STATIC
        EXTERN osal_mem_free
        FUNCTION osal_mem_free,0202H
        ARGFRAME ISTACK, 0, STACK
        ARGFRAME PSTACK, 0, STACK
        ARGFRAME XSTACK, 35, STACK
        ARGFRAME IOVERLAY, 0, STATIC
        ARGFRAME DOVERLAY, 0, STATIC
        EXTERN osal_memcpy
        FUNCTION osal_memcpy,0202H
        ARGFRAME ISTACK, 0, STACK
        ARGFRAME PSTACK, 0, STACK
        ARGFRAME XSTACK, 38, STACK
        ARGFRAME IOVERLAY, 0, STATIC
        ARGFRAME DOVERLAY, 0, STATIC
        EXTERN osal_memset
        FUNCTION osal_memset,0202H
        ARGFRAME ISTACK, 0, STACK
        ARGFRAME PSTACK, 0, STACK
        ARGFRAME XSTACK, 35, STACK
        ARGFRAME IOVERLAY, 0, STATIC
        ARGFRAME DOVERLAY, 0, STATIC
        EXTERN osal_set_event
        FUNCTION osal_set_event,0202H
        ARGFRAME ISTACK, 0, STACK
        ARGFRAME PSTACK, 0, STACK
        ARGFRAME XSTACK, 35, STACK
        ARGFRAME IOVERLAY, 0, STATIC
        ARGFRAME DOVERLAY, 0, STATIC
        EXTERN osal_start_timerEx
        FUNCTION osal_start_timerEx,0202H
        ARGFRAME ISTACK, 0, STACK
        ARGFRAME PSTACK, 0, STACK
        ARGFRAME XSTACK, 39, STACK
        ARGFRAME IOVERLAY, 0, STATIC
        ARGFRAME DOVERLAY, 0, STATIC

// E:\Sensordinges\Z-Stack Mesh 1.0.0\Z-Stack Mesh 1.0.0\Components\mt\MT_AF.c
//    1 /**************************************************************************************************
//    2   Filename:       MT_AF.c
//    3   Revised:        $Date: 2014-08-21 13:23:51 -0700 (Thu, 21 Aug 2014) $
//    4   Revision:       $Revision: 39843 $
//    5 
//    6 
//    7   Description:    MonitorTest functions for the AF layer.
//    8 
//    9 
//   10   Copyright 2007-2014 Texas Instruments Incorporated. All rights reserved.
//   11 
//   12   IMPORTANT: Your use of this Software is limited to those specific rights
//   13   granted under the terms of a software license agreement between the user
//   14   who downloaded the software, his/her employer (which must be your employer)
//   15   and Texas Instruments Incorporated (the "License").  You may not use this
//   16   Software unless you agree to abide by the terms of the License. The License
//   17   limits your use, and you acknowledge, that the Software may not be modified,
//   18   copied or distributed unless embedded on a Texas Instruments microcontroller
//   19   or used solely and exclusively in conjunction with a Texas Instruments radio
//   20   frequency transceiver, which is integrated into your product.  Other than for
//   21   the foregoing purpose, you may not use, reproduce, copy, prepare derivative
//   22   works of, modify, distribute, perform, display or sell this Software and/or
//   23   its documentation for any purpose.
//   24 
//   25   YOU FURTHER ACKNOWLEDGE AND AGREE THAT THE SOFTWARE AND DOCUMENTATION ARE
//   26   PROVIDED “AS IS” WITHOUT WARRANTY OF ANY KIND, EITHER EXPRESS OR IMPLIED,
//   27   INCLUDING WITHOUT LIMITATION, ANY WARRANTY OF MERCHANTABILITY, TITLE,
//   28   NON-INFRINGEMENT AND FITNESS FOR A PARTICULAR PURPOSE. IN NO EVENT SHALL
//   29   TEXAS INSTRUMENTS OR ITS LICENSORS BE LIABLE OR OBLIGATED UNDER CONTRACT,
//   30   NEGLIGENCE, STRICT LIABILITY, CONTRIBUTION, BREACH OF WARRANTY, OR OTHER
//   31   LEGAL EQUITABLE THEORY ANY DIRECT OR INDIRECT DAMAGES OR EXPENSES
//   32   INCLUDING BUT NOT LIMITED TO ANY INCIDENTAL, SPECIAL, INDIRECT, PUNITIVE
//   33   OR CONSEQUENTIAL DAMAGES, LOST PROFITS OR LOST DATA, COST OF PROCUREMENT
//   34   OF SUBSTITUTE GOODS, TECHNOLOGY, SERVICES, OR ANY CLAIMS BY THIRD PARTIES
//   35   (INCLUDING BUT NOT LIMITED TO ANY DEFENSE THEREOF), OR OTHER SIMILAR COSTS.
//   36 
//   37   Should you have any questions regarding your right to use this Software,
//   38   contact Texas Instruments Incorporated at www.TI.com.
//   39 
//   40 **************************************************************************************************/
//   41 
//   42 /* ------------------------------------------------------------------------------------------------
//   43  *                                          Includes
//   44  * ------------------------------------------------------------------------------------------------
//   45  */
//   46 #include "ZComDef.h"
//   47 #include "OSAL.h"
//   48 #include "MT.h"
//   49 #include "MT_AF.h"
//   50 #include "MT_ZDO.h"
//   51 #include "nwk.h"
//   52 #include "OnBoard.h"
//   53 #include "MT_UART.h"
//   54 
//   55 #if defined INTER_PAN
//   56 #include "stub_aps.h"
//   57 #endif
//   58 
//   59 #if defined ( MT_GP_FUNC )
//   60 #include "MT_GP.h"
//   61 #endif
//   62 
//   63 /* ------------------------------------------------------------------------------------------------
//   64  *                                          Constants
//   65  * ------------------------------------------------------------------------------------------------
//   66  */
//   67 
//   68 #if !defined MT_AF_EXEC_CNT
//   69 #define MT_AF_EXEC_CNT  15
//   70 #endif
//   71 
//   72 #if !defined MT_AF_EXEC_DLY
//   73 #define MT_AF_EXEC_DLY  1000
//   74 #endif
//   75 
//   76 /* ------------------------------------------------------------------------------------------------
//   77  *                                           Typedefs
//   78  * ------------------------------------------------------------------------------------------------
//   79  */
//   80 
//   81 typedef struct
//   82 {
//   83   uint8 *data;
//   84   afAddrType_t dstAddr;
//   85   endPointDesc_t *epDesc;
//   86   uint16 cId;
//   87   uint16 dataLen;
//   88   uint8 transId;
//   89   uint8 txOpts;
//   90   uint8 radius;
//   91   uint8 tick;
//   92 } mtAfDataReq_t;
//   93 
//   94 typedef struct _mtAfInMsgList_t
//   95 {
//   96   struct _mtAfInMsgList_t *next;
//   97   uint8 *data;
//   98   uint32 timestamp;         // Receipt timestamp from MAC.
//   99   uint8 tick;
//  100 } mtAfInMsgList_t;
//  101 
//  102 /* ------------------------------------------------------------------------------------------------
//  103  *                                        Local Variables
//  104  * ------------------------------------------------------------------------------------------------
//  105  */
//  106 

        RSEG XDATA_Z:XDATA:NOROOT(0)
        DATA16
//  107 mtAfInMsgList_t *pMtAfInMsgList = NULL;
pMtAfInMsgList:
        DS 2
        REQUIRE __INIT_XDATA_Z

        RSEG XDATA_Z:XDATA:NOROOT(0)
        DATA16
//  108 mtAfDataReq_t *pMtAfDataReq = NULL;
pMtAfDataReq:
        DS 2
        REQUIRE __INIT_XDATA_Z
//  109 
//  110 /* ------------------------------------------------------------------------------------------------
//  111  *                                        Global Variables
//  112  * ------------------------------------------------------------------------------------------------
//  113  */
//  114 
//  115 #if defined ( MT_AF_CB_FUNC )
//  116 uint16 _afCallbackSub;
//  117 #endif
//  118 
//  119 /* ------------------------------------------------------------------------------------------------
//  120  *                                        Local Functions
//  121  * ------------------------------------------------------------------------------------------------
//  122  */
//  123 
//  124 void MT_AfRegister(uint8 *pBuf);
//  125 void MT_AfDelete(uint8 *pBuf);
//  126 void MT_AfDataRequest(uint8 *pBuf);
//  127 
//  128 #if defined ( ZIGBEE_SOURCE_ROUTING )
//  129 void MT_AfDataRequestSrcRtg(uint8 *pBuf);
//  130 #endif
//  131 
//  132 #if defined INTER_PAN
//  133 static void MT_AfInterPanCtl(uint8 *pBuf);
//  134 #endif
//  135 
//  136 static void MT_AfDataRetrieve(uint8 *pBuf);
//  137 static void MT_AfDataStore(uint8 *pBuf);
//  138 static void MT_AfAPSF_ConfigSet(uint8 *pBuf);
//  139 static void MT_AfAPSF_ConfigGet(uint8 *pBuf);
//  140 
//  141 
//  142 /**************************************************************************************************
//  143  * @fn          MT_AfExec
//  144  *
//  145  * @brief       This function is invoked by an MT timer event.
//  146  *
//  147  * input parameters
//  148  *
//  149  * None.
//  150  *
//  151  * output parameters
//  152  *
//  153  * None.
//  154  *
//  155  * @return      None.
//  156  **************************************************************************************************
//  157  */

        RSEG BANKED_CODE:CODE:NOROOT(0)
//  158 void MT_AfExec(void)
MT_AfExec:
          CFI Block cfiBlock0 Using cfiCommon0
          CFI Function MT_AfExec
        CODE
//  159 {
        FUNCALL MT_AfExec, osal_mem_free
        LOCFRAME ISTACK, 0, STACK
        LOCFRAME PSTACK, 0, STACK
        LOCFRAME XSTACK, 9, STACK
        LOCFRAME IOVERLAY, 0, STATIC
        LOCFRAME DOVERLAY, 0, STATIC
        ARGFRAME ISTACK, 0, STACK
        ARGFRAME PSTACK, 0, STACK
        ARGFRAME XSTACK, 9, STACK
        ARGFRAME IOVERLAY, 0, STATIC
        ARGFRAME DOVERLAY, 0, STATIC
        FUNCALL MT_AfExec, osal_mem_free
        LOCFRAME ISTACK, 0, STACK
        LOCFRAME PSTACK, 0, STACK
        LOCFRAME XSTACK, 9, STACK
        LOCFRAME IOVERLAY, 0, STATIC
        LOCFRAME DOVERLAY, 0, STATIC
        ARGFRAME ISTACK, 0, STACK
        ARGFRAME PSTACK, 0, STACK
        ARGFRAME XSTACK, 9, STACK
        ARGFRAME IOVERLAY, 0, STATIC
        ARGFRAME DOVERLAY, 0, STATIC
        FUNCALL MT_AfExec, osal_mem_free
        LOCFRAME ISTACK, 0, STACK
        LOCFRAME PSTACK, 0, STACK
        LOCFRAME XSTACK, 9, STACK
        LOCFRAME IOVERLAY, 0, STATIC
        LOCFRAME DOVERLAY, 0, STATIC
        ARGFRAME ISTACK, 0, STACK
        ARGFRAME PSTACK, 0, STACK
        ARGFRAME XSTACK, 9, STACK
        ARGFRAME IOVERLAY, 0, STATIC
        ARGFRAME DOVERLAY, 0, STATIC
        FUNCALL MT_AfExec, osal_start_timerEx
        LOCFRAME ISTACK, 0, STACK
        LOCFRAME PSTACK, 0, STACK
        LOCFRAME XSTACK, 13, STACK
        LOCFRAME IOVERLAY, 0, STATIC
        LOCFRAME DOVERLAY, 0, STATIC
        ARGFRAME ISTACK, 0, STACK
        ARGFRAME PSTACK, 0, STACK
        ARGFRAME XSTACK, 13, STACK
        ARGFRAME IOVERLAY, 0, STATIC
        ARGFRAME DOVERLAY, 0, STATIC
        FUNCALL MT_AfExec, osal_set_event
        LOCFRAME ISTACK, 0, STACK
        LOCFRAME PSTACK, 0, STACK
        LOCFRAME XSTACK, 9, STACK
        LOCFRAME IOVERLAY, 0, STATIC
        LOCFRAME DOVERLAY, 0, STATIC
        ARGFRAME ISTACK, 0, STACK
        ARGFRAME PSTACK, 0, STACK
        ARGFRAME XSTACK, 9, STACK
        ARGFRAME IOVERLAY, 0, STATIC
        ARGFRAME DOVERLAY, 0, STATIC
        MOV     A,#-0x9
        LCALL   ?BANKED_ENTER_XDATA
          CFI R6 load(1, XDATA, add(CFA_XSP16, literal(-9)))
          CFI VB load(1, XDATA, add(CFA_XSP16, literal(-8)))
          CFI V0 load(1, XDATA, add(CFA_XSP16, literal(-7)))
          CFI R7 load(1, XDATA, add(CFA_XSP16, literal(-6)))
          CFI ?RET_LOW load(1, XDATA, add(CFA_XSP16, literal(-5)))
          CFI ?RET_HIGH load(1, XDATA, add(CFA_XSP16, literal(-4)))
          CFI ?BRET_EXT load(1, XDATA, add(CFA_XSP16, literal(-3)))
          CFI DPL0 load(1, XDATA, add(CFA_XSP16, literal(-2)))
          CFI DPH0 load(1, XDATA, add(CFA_XSP16, literal(-1)))
          CFI CFA_SP SP+0
          CFI CFA_XSP16 add(XSP16, 9)
        ; Saved register size: 9
        ; Auto size: 0
//  160   mtAfInMsgList_t *pPrev, *pItem = pMtAfInMsgList;
??MT_AfExec_0:
        MOV     DPTR,#pMtAfInMsgList
        SJMP    ??MT_AfExec_1
//  161 
//  162   while (pItem != NULL)
//  163   {
//  164     if (--(pItem->tick) == 0)
//  165     {
//  166       if (pMtAfInMsgList == pItem)
//  167       {
//  168         pMtAfInMsgList = pItem->next;
//  169         (void)osal_mem_free(pItem);
//  170         pItem = pMtAfInMsgList;
//  171       }
//  172       else
//  173       {
//  174         pPrev->next = pItem->next;
//  175         (void)osal_mem_free(pItem);
//  176         pItem = pPrev->next;
//  177       }
//  178     }
//  179     else
//  180     {
//  181       pPrev = pItem;
??MT_AfExec_2:
        MOV     A,R2
        MOV     R6,A
        MOV     A,R3
        MOV     R7,A
//  182       pItem = pItem->next;
        MOV     DPL,R2
        MOV     DPH,R3
//  183     }
??MT_AfExec_1:
        LCALL   ??Subroutine55_0 & 0xFFFF
??CrossCallReturnLabel_115:
        MOV     A,R2
        ORL     A,R3
        JZ      ??MT_AfExec_3
        MOV     A,R2
        ADD     A,#0x8
        MOV     DPL,A
        CLR     A
        ADDC    A,R3
        MOV     DPH,A
        MOVX    A,@DPTR
        DEC     A
        MOVX    @DPTR,A
        JNZ     ??MT_AfExec_2
        LCALL   ?Subroutine35 & 0xFFFF
??CrossCallReturnLabel_112:
        MOV     A,R2
        XRL     A,R0
        JNZ     ??MT_AfExec_4
        MOV     A,R3
        XRL     A,R1
??MT_AfExec_4:
        MOV     DPL,R2
        MOV     DPH,R3
        JNZ     ??MT_AfExec_5
        LCALL   ?Subroutine22 & 0xFFFF
??CrossCallReturnLabel_30:
        LCALL   ?Subroutine27 & 0xFFFF
??CrossCallReturnLabel_34:
        ; Setup parameters for call to function osal_mem_free
        LCALL   `??osal_mem_free::?relay`; Banked call to: osal_mem_free
        SJMP    ??MT_AfExec_0
??MT_AfExec_5:
        LCALL   ??Subroutine54_0 & 0xFFFF
??CrossCallReturnLabel_110:
        MOV     DPL,R6
        MOV     DPH,R7
        LCALL   ?Subroutine27 & 0xFFFF
??CrossCallReturnLabel_35:
        ; Setup parameters for call to function osal_mem_free
        LCALL   `??osal_mem_free::?relay`; Banked call to: osal_mem_free
        MOV     DPL,R6
        MOV     DPH,R7
        SJMP    ??MT_AfExec_1
//  184   }
//  185 
//  186   if (pMtAfDataReq != NULL)
??MT_AfExec_3:
        LCALL   ?Subroutine5 & 0xFFFF
??CrossCallReturnLabel_95:
        JZ      ??MT_AfExec_6
//  187   {
//  188     if (--(pMtAfDataReq->tick) == 0)
        MOVX    A,@DPTR
        XCH     A,R0
        LCALL   ?Subroutine44 & 0xFFFF
??CrossCallReturnLabel_74:
        MOVX    A,@DPTR
        DEC     A
        LCALL   ?Subroutine8 & 0xFFFF
??CrossCallReturnLabel_7:
        MOVX    A,@DPTR
        JNZ     ??MT_AfExec_6
//  189     {
//  190       (void)osal_mem_free(pMtAfDataReq);
        ; Setup parameters for call to function osal_mem_free
        LCALL   ?Subroutine14 & 0xFFFF
??CrossCallReturnLabel_118:
        LCALL   `??osal_mem_free::?relay`; Banked call to: osal_mem_free
//  191       pMtAfDataReq = NULL;
        MOV     DPTR,#pMtAfDataReq
        CLR     A
        MOVX    @DPTR,A
        INC     DPTR
        MOVX    @DPTR,A
//  192     }
//  193   }
//  194 
//  195   if ((pMtAfInMsgList != NULL) || (pMtAfDataReq != NULL))
??MT_AfExec_6:
        MOV     DPTR,#pMtAfInMsgList
        LCALL   ??Subroutine50_0 & 0xFFFF
??CrossCallReturnLabel_94:
        JNZ     ??MT_AfExec_7
        LCALL   ?Subroutine5 & 0xFFFF
??CrossCallReturnLabel_96:
        JZ      ??MT_AfExec_8
//  196   {
//  197     if (ZSuccess != osal_start_timerEx(MT_TaskID, MT_AF_EXEC_EVT, MT_AF_EXEC_DLY))
??MT_AfExec_7:
        ; Setup parameters for call to function osal_start_timerEx
        MOV     DPTR,#__Constant_3e8
        LCALL   ?PUSH_XSTACK8_X_FOUR
          CFI CFA_XSP16 add(XSP16, 13)
        MOV     R2,#0x8
        MOV     R3,#0x0
        MOV     DPTR,#MT_TaskID
        MOVX    A,@DPTR
        MOV     R1,A
        LCALL   `??osal_start_timerEx::?relay`; Banked call to: osal_start_timerEx
        MOV     A,#0x4
        LCALL   ?DEALLOC_XSTACK8
          CFI CFA_XSP16 add(XSP16, 9)
        MOV     A,R1
        JZ      ??MT_AfExec_8
//  198     {
//  199       osal_set_event(MT_TaskID, MT_AF_EXEC_EVT);
        ; Setup parameters for call to function osal_set_event
        MOV     R2,#0x8
        MOV     R3,#0x0
        MOV     DPTR,#MT_TaskID
        MOVX    A,@DPTR
        MOV     R1,A
        LCALL   `??osal_set_event::?relay`; Banked call to: osal_set_event
//  200     }
//  201   }
//  202 }
??MT_AfExec_8:
        LJMP    ??Subroutine47_0 & 0xFFFF
          CFI EndBlock cfiBlock0
//  203 
//  204 /***************************************************************************************************
//  205  * @fn      MT_AfCommandProcessing
//  206  *
//  207  * @brief   Process all the AF commands that are issued by test tool
//  208  *
//  209  * @param   pBuf - pointer to the received buffer
//  210  *
//  211  * @return  status
//  212  ***************************************************************************************************/

        RSEG BANKED_CODE:CODE:NOROOT(0)
//  213 uint8 MT_AfCommandProcessing(uint8 *pBuf)
MT_AfCommandProcessing:
          CFI Block cfiBlock1 Using cfiCommon0
          CFI Function MT_AfCommandProcessing
        CODE
//  214 {
        FUNCALL MT_AfCommandProcessing, MT_AfRegister
        LOCFRAME ISTACK, 0, STACK
        LOCFRAME PSTACK, 0, STACK
        LOCFRAME XSTACK, 14, STACK
        LOCFRAME IOVERLAY, 0, STATIC
        LOCFRAME DOVERLAY, 0, STATIC
        ARGFRAME ISTACK, 0, STACK
        ARGFRAME PSTACK, 0, STACK
        ARGFRAME XSTACK, 14, STACK
        ARGFRAME IOVERLAY, 0, STATIC
        ARGFRAME DOVERLAY, 0, STATIC
        FUNCALL MT_AfCommandProcessing, afDelete
        LOCFRAME ISTACK, 0, STACK
        LOCFRAME PSTACK, 0, STACK
        LOCFRAME XSTACK, 14, STACK
        LOCFRAME IOVERLAY, 0, STATIC
        LOCFRAME DOVERLAY, 0, STATIC
        ARGFRAME ISTACK, 0, STACK
        ARGFRAME PSTACK, 0, STACK
        ARGFRAME XSTACK, 14, STACK
        ARGFRAME IOVERLAY, 0, STATIC
        ARGFRAME DOVERLAY, 0, STATIC
        FUNCALL MT_AfCommandProcessing, MT_BuildAndSendZToolResponse
        LOCFRAME ISTACK, 0, STACK
        LOCFRAME PSTACK, 0, STACK
        LOCFRAME XSTACK, 14, STACK
        LOCFRAME IOVERLAY, 0, STATIC
        LOCFRAME DOVERLAY, 0, STATIC
        ARGFRAME ISTACK, 0, STACK
        ARGFRAME PSTACK, 0, STACK
        ARGFRAME XSTACK, 14, STACK
        ARGFRAME IOVERLAY, 0, STATIC
        ARGFRAME DOVERLAY, 0, STATIC
        FUNCALL MT_AfCommandProcessing, MT_AfDataRequest
        LOCFRAME ISTACK, 0, STACK
        LOCFRAME PSTACK, 0, STACK
        LOCFRAME XSTACK, 14, STACK
        LOCFRAME IOVERLAY, 0, STATIC
        LOCFRAME DOVERLAY, 0, STATIC
        ARGFRAME ISTACK, 0, STACK
        ARGFRAME PSTACK, 0, STACK
        ARGFRAME XSTACK, 14, STACK
        ARGFRAME IOVERLAY, 0, STATIC
        ARGFRAME DOVERLAY, 0, STATIC
        FUNCALL MT_AfCommandProcessing, MT_AfDataRequestSrcRtg
        LOCFRAME ISTACK, 0, STACK
        LOCFRAME PSTACK, 0, STACK
        LOCFRAME XSTACK, 14, STACK
        LOCFRAME IOVERLAY, 0, STATIC
        LOCFRAME DOVERLAY, 0, STATIC
        ARGFRAME ISTACK, 0, STACK
        ARGFRAME PSTACK, 0, STACK
        ARGFRAME XSTACK, 14, STACK
        ARGFRAME IOVERLAY, 0, STATIC
        ARGFRAME DOVERLAY, 0, STATIC
        FUNCALL MT_AfCommandProcessing, MT_AfDataRetrieve
        LOCFRAME ISTACK, 0, STACK
        LOCFRAME PSTACK, 0, STACK
        LOCFRAME XSTACK, 14, STACK
        LOCFRAME IOVERLAY, 0, STATIC
        LOCFRAME DOVERLAY, 0, STATIC
        ARGFRAME ISTACK, 0, STACK
        ARGFRAME PSTACK, 0, STACK
        ARGFRAME XSTACK, 14, STACK
        ARGFRAME IOVERLAY, 0, STATIC
        ARGFRAME DOVERLAY, 0, STATIC
        FUNCALL MT_AfCommandProcessing, MT_AfDataStore
        LOCFRAME ISTACK, 0, STACK
        LOCFRAME PSTACK, 0, STACK
        LOCFRAME XSTACK, 14, STACK
        LOCFRAME IOVERLAY, 0, STATIC
        LOCFRAME DOVERLAY, 0, STATIC
        ARGFRAME ISTACK, 0, STACK
        ARGFRAME PSTACK, 0, STACK
        ARGFRAME XSTACK, 14, STACK
        ARGFRAME IOVERLAY, 0, STATIC
        ARGFRAME DOVERLAY, 0, STATIC
        FUNCALL MT_AfCommandProcessing, afAPSF_ConfigSet
        LOCFRAME ISTACK, 0, STACK
        LOCFRAME PSTACK, 0, STACK
        LOCFRAME XSTACK, 14, STACK
        LOCFRAME IOVERLAY, 0, STATIC
        LOCFRAME DOVERLAY, 0, STATIC
        ARGFRAME ISTACK, 0, STACK
        ARGFRAME PSTACK, 0, STACK
        ARGFRAME XSTACK, 14, STACK
        ARGFRAME IOVERLAY, 0, STATIC
        ARGFRAME DOVERLAY, 0, STATIC
        FUNCALL MT_AfCommandProcessing, MT_BuildAndSendZToolResponse
        LOCFRAME ISTACK, 0, STACK
        LOCFRAME PSTACK, 0, STACK
        LOCFRAME XSTACK, 14, STACK
        LOCFRAME IOVERLAY, 0, STATIC
        LOCFRAME DOVERLAY, 0, STATIC
        ARGFRAME ISTACK, 0, STACK
        ARGFRAME PSTACK, 0, STACK
        ARGFRAME XSTACK, 14, STACK
        ARGFRAME IOVERLAY, 0, STATIC
        ARGFRAME DOVERLAY, 0, STATIC
        FUNCALL MT_AfCommandProcessing, afAPSF_ConfigGet
        LOCFRAME ISTACK, 0, STACK
        LOCFRAME PSTACK, 0, STACK
        LOCFRAME XSTACK, 14, STACK
        LOCFRAME IOVERLAY, 0, STATIC
        LOCFRAME DOVERLAY, 0, STATIC
        ARGFRAME ISTACK, 0, STACK
        ARGFRAME PSTACK, 0, STACK
        ARGFRAME XSTACK, 14, STACK
        ARGFRAME IOVERLAY, 0, STATIC
        ARGFRAME DOVERLAY, 0, STATIC
        FUNCALL MT_AfCommandProcessing, MT_BuildAndSendZToolResponse
        LOCFRAME ISTACK, 0, STACK
        LOCFRAME PSTACK, 0, STACK
        LOCFRAME XSTACK, 14, STACK
        LOCFRAME IOVERLAY, 0, STATIC
        LOCFRAME DOVERLAY, 0, STATIC
        ARGFRAME ISTACK, 0, STACK
        ARGFRAME PSTACK, 0, STACK
        ARGFRAME XSTACK, 14, STACK
        ARGFRAME IOVERLAY, 0, STATIC
        ARGFRAME DOVERLAY, 0, STATIC
        MOV     A,#-0x9
        LCALL   ?BANKED_ENTER_XDATA
          CFI DPH0 load(1, XDATA, add(CFA_XSP16, literal(-1)))
          CFI DPL0 load(1, XDATA, add(CFA_XSP16, literal(-2)))
          CFI ?BRET_EXT load(1, XDATA, add(CFA_XSP16, literal(-3)))
          CFI ?RET_HIGH load(1, XDATA, add(CFA_XSP16, literal(-4)))
          CFI ?RET_LOW load(1, XDATA, add(CFA_XSP16, literal(-5)))
          CFI R7 load(1, XDATA, add(CFA_XSP16, literal(-6)))
          CFI V0 load(1, XDATA, add(CFA_XSP16, literal(-7)))
          CFI VB load(1, XDATA, add(CFA_XSP16, literal(-8)))
          CFI R6 load(1, XDATA, add(CFA_XSP16, literal(-9)))
          CFI CFA_SP SP+0
          CFI CFA_XSP16 add(XSP16, 9)
        ; Saved register size: 9
        ; Auto size: 5
        MOV     A,#-0x5
        LCALL   ?ALLOC_XSTACK8
          CFI CFA_XSP16 add(XSP16, 14)
        MOV     A,R2
        MOV     R0,A
        MOV     A,R3
        MOV     R1,A
//  215   uint8 status = MT_RPC_SUCCESS;
        MOV     R6,#0x0
//  216 
//  217   switch (pBuf[MT_RPC_POS_CMD1])
        MOV     A,R0
        ADD     A,#0x2
        MOV     R2,A
        CLR     A
        ADDC    A,R1
        MOV     R3,A
        MOV     DPL,R2
        MOV     DPH,R3
        MOVX    A,@DPTR
        JZ      ??MT_AfCommandProcessing_0
        DEC     A
        JZ      ??MT_AfCommandProcessing_1
        DEC     A
        JZ      ??MT_AfCommandProcessing_1
        DEC     A
        JZ      ??MT_AfCommandProcessing_2
        DEC     A
        JZ      ??MT_AfCommandProcessing_3
        ADD     A,#-0xd
        JZ      ??MT_AfCommandProcessing_4
        DEC     A
        JZ      ??MT_AfCommandProcessing_5
        DEC     A
        JZ      ??MT_AfCommandProcessing_6
        DEC     A
        JNZ     $+5
        LJMP    ??MT_AfCommandProcessing_7 & 0xFFFF
        LJMP    ??MT_AfCommandProcessing_8 & 0xFFFF
//  218   {
//  219     case MT_AF_REGISTER:
//  220       MT_AfRegister(pBuf);
??MT_AfCommandProcessing_0:
        ; Setup parameters for call to function MT_AfRegister
        DEC     R2
        DEC     R2
        MOV     A,R1
        MOV     R3,A
        LCALL   `??MT_AfRegister::?relay`; Banked call to: MT_AfRegister
//  221       break;
        LJMP    ??MT_AfCommandProcessing_9 & 0xFFFF
//  222 
//  223     case MT_AF_DELETE:
//  224       MT_AfDelete( pBuf );
??MT_AfCommandProcessing_3:
        MOV     DPL,?XSP + 0
        MOV     DPH,?XSP + 1
        MOV     A,#0x10
        LCALL   ?Subroutine46 & 0xFFFF
??CrossCallReturnLabel_80:
        MOVX    A,@DPTR
        MOV     R7,A
        ; Setup parameters for call to function afDelete
        MOV     DPL,R0
        MOV     DPH,R1
        INC     DPTR
        INC     DPTR
        INC     DPTR
        MOVX    A,@DPTR
        MOV     R1,A
        LCALL   `??afDelete::?relay` ; Banked call to: afDelete
        LCALL   ?Subroutine24 & 0xFFFF
??CrossCallReturnLabel_84:
        MOV     A,R7
        MOV     R2,A
        LJMP    ??MT_AfCommandProcessing_10 & 0xFFFF
//  225       break;
//  226 
//  227     case MT_AF_DATA_REQUEST:
//  228     case MT_AF_DATA_REQUEST_EXT:
//  229       MT_AfDataRequest(pBuf);
??MT_AfCommandProcessing_1:
        ; Setup parameters for call to function MT_AfDataRequest
        DEC     R2
        DEC     R2
        MOV     A,R1
        MOV     R3,A
        LCALL   `??MT_AfDataRequest::?relay`; Banked call to: MT_AfDataRequest
//  230       break;
        LJMP    ??MT_AfCommandProcessing_9 & 0xFFFF
//  231 
//  232 #if defined ( ZIGBEE_SOURCE_ROUTING )
//  233     case MT_AF_DATA_REQUEST_SRCRTG:
//  234       MT_AfDataRequestSrcRtg(pBuf);
??MT_AfCommandProcessing_2:
        ; Setup parameters for call to function MT_AfDataRequestSrcRtg
        DEC     R2
        DEC     R2
        MOV     A,R1
        MOV     R3,A
        LCALL   `??MT_AfDataRequestSrcRtg::?relay`; Banked call to: MT_AfDataRequestSrcRtg
//  235       break;
        LJMP    ??MT_AfCommandProcessing_9 & 0xFFFF
//  236 #endif
//  237 
//  238 #if defined INTER_PAN
//  239     case MT_AF_INTER_PAN_CTL:
//  240       MT_AfInterPanCtl(pBuf);
//  241       break;
//  242 #endif
//  243 
//  244     case MT_AF_DATA_RETRIEVE:
//  245       MT_AfDataRetrieve(pBuf);
??MT_AfCommandProcessing_5:
        ; Setup parameters for call to function MT_AfDataRetrieve
        DEC     R2
        DEC     R2
        MOV     A,R1
        MOV     R3,A
        LCALL   `??MT_AfDataRetrieve::?relay`; Banked call to: MT_AfDataRetrieve
//  246       break;
        LJMP    ??MT_AfCommandProcessing_9 & 0xFFFF
//  247 
//  248     case MT_AF_DATA_STORE:
//  249       MT_AfDataStore(pBuf);
??MT_AfCommandProcessing_4:
        ; Setup parameters for call to function MT_AfDataStore
        DEC     R2
        DEC     R2
        MOV     A,R1
        MOV     R3,A
        LCALL   `??MT_AfDataStore::?relay`; Banked call to: MT_AfDataStore
//  250       break;
        LJMP    ??MT_AfCommandProcessing_9 & 0xFFFF
//  251 
//  252     case MT_AF_APSF_CONFIG_SET:
//  253       MT_AfAPSF_ConfigSet(pBuf);
??MT_AfCommandProcessing_6:
        MOV     DPL,R0
        MOV     DPH,R1
        INC     DPTR
        INC     DPTR
        INC     DPTR
        INC     DPTR
        MOVX    A,@DPTR
        PUSH    A
          CFI CFA_SP SP+-1
        MOV     A,#0x1
        LCALL   ?XSTACK_DISP0_8
        POP     A
          CFI CFA_SP SP+0
        LCALL   ?Subroutine29 & 0xFFFF
??CrossCallReturnLabel_43:
        INC     DPTR
        INC     DPTR
        INC     DPTR
        INC     DPTR
        MOVX    A,@DPTR
        PUSH    A
          CFI CFA_SP SP+-1
        MOV     A,#0x2
        LCALL   ?XSTACK_DISP0_8
        POP     A
          CFI CFA_SP SP+0
        MOVX    @DPTR,A
        ; Setup parameters for call to function afAPSF_ConfigSet
        MOV     A,#0x1
        LCALL   ?XSTACK_DISP101_8
        MOV     DPL,R0
        MOV     DPH,R1
        INC     DPTR
        INC     DPTR
        INC     DPTR
        MOVX    A,@DPTR
        MOV     R1,A
        LCALL   `??afAPSF_ConfigSet::?relay`; Banked call to: afAPSF_ConfigSet
        LCALL   ?Subroutine24 & 0xFFFF
??CrossCallReturnLabel_85:
        MOV     R2,#0x13
        SJMP    ??MT_AfCommandProcessing_10
//  254       break;
//  255 
//  256     case MT_AF_APSF_CONFIG_GET:
//  257       MT_AfAPSF_ConfigGet(pBuf);
??MT_AfCommandProcessing_7:
        MOV     DPTR,#`?<Constant {0, 0}>`
        MOV     A,#0x1
        LCALL   ?XSTACK_DISP102_8
        MOV     A,#0x2
        LCALL   ?MOVE_LONG8_XDATA_XDATA
        ; Setup parameters for call to function afAPSF_ConfigGet
        INC     A
        LCALL   ?XSTACK_DISP101_8
        MOV     DPL,R0
        MOV     DPH,R1
        INC     DPTR
        INC     DPTR
        INC     DPTR
        MOVX    A,@DPTR
        MOV     R1,A
        LCALL   `??afAPSF_ConfigGet::?relay`; Banked call to: afAPSF_ConfigGet
        MOV     A,#0x1
        LCALL   ?XSTACK_DISP0_8
        MOVX    A,@DPTR
        PUSH    A
          CFI CFA_SP SP+-1
        MOV     A,#0x3
        LCALL   ?XSTACK_DISP0_8
        POP     A
          CFI CFA_SP SP+0
        MOVX    @DPTR,A
        MOV     A,#0x2
        LCALL   ?XSTACK_DISP0_8
        MOVX    A,@DPTR
        PUSH    A
          CFI CFA_SP SP+-1
        MOV     A,#0x4
        LCALL   ?XSTACK_DISP0_8
        POP     A
          CFI CFA_SP SP+0
        MOVX    @DPTR,A
        ; Setup parameters for call to function MT_BuildAndSendZToolResponse
        MOV     A,#0x3
        LCALL   ?XSTACK_DISP102_8
        MOV     R3,#0x3
        MOV     R2,#0x14
??MT_AfCommandProcessing_10:
        MOV     R1,#0x64
        LCALL   `??MT_BuildAndSendZToolResponse::?relay`; Banked call to: MT_BuildAndSendZToolResponse
//  258       break;
        SJMP    ??MT_AfCommandProcessing_9
//  259 
//  260     default:
//  261       status = MT_RPC_ERR_COMMAND_ID;
??MT_AfCommandProcessing_8:
        MOV     R6,#0x2
//  262       break;
//  263   }
//  264 
//  265   return status;
??MT_AfCommandProcessing_9:
        MOV     A,R6
        MOV     R1,A
        MOV     A,#0x5
          CFI EndBlock cfiBlock1
        REQUIRE ?Subroutine0
        ; // Fall through to label ?Subroutine0
//  266 }

        RSEG BANKED_CODE:CODE:NOROOT(0)
?Subroutine0:
          CFI Block cfiBlock2 Using cfiCommon0
          CFI NoFunction
          CFI CFA_SP SP+0
          CFI CFA_XSP16 add(XSP16, 14)
          CFI VB load(1, XDATA, add(CFA_XSP16, literal(-8)))
          CFI DPL0 load(1, XDATA, add(CFA_XSP16, literal(-2)))
          CFI DPH0 load(1, XDATA, add(CFA_XSP16, literal(-1)))
          CFI R6 load(1, XDATA, add(CFA_XSP16, literal(-9)))
          CFI R7 load(1, XDATA, add(CFA_XSP16, literal(-6)))
          CFI V0 load(1, XDATA, add(CFA_XSP16, literal(-7)))
          CFI ?BRET_EXT load(1, XDATA, add(CFA_XSP16, literal(-3)))
          CFI ?RET_HIGH load(1, XDATA, add(CFA_XSP16, literal(-4)))
          CFI ?RET_LOW load(1, XDATA, add(CFA_XSP16, literal(-5)))
          CFI Invalid
        LCALL   ?DEALLOC_XSTACK8
          CFI CFA_XSP16 add(XSP16, 9)
          CFI Valid
          CFI EndBlock cfiBlock2
        REQUIRE ??Subroutine47_0
        ; // Fall through to label ??Subroutine47_0

        RSEG BANKED_CODE:CODE:NOROOT(0)
??Subroutine47_0:
          CFI Block cfiBlock3 Using cfiCommon0
          CFI NoFunction
          CFI CFA_SP SP+0
          CFI CFA_XSP16 add(XSP16, 9)
          CFI VB load(1, XDATA, add(CFA_XSP16, literal(-8)))
          CFI DPL0 load(1, XDATA, add(CFA_XSP16, literal(-2)))
          CFI DPH0 load(1, XDATA, add(CFA_XSP16, literal(-1)))
          CFI R6 load(1, XDATA, add(CFA_XSP16, literal(-9)))
          CFI R7 load(1, XDATA, add(CFA_XSP16, literal(-6)))
          CFI V0 load(1, XDATA, add(CFA_XSP16, literal(-7)))
          CFI ?BRET_EXT load(1, XDATA, add(CFA_XSP16, literal(-3)))
          CFI ?RET_HIGH load(1, XDATA, add(CFA_XSP16, literal(-4)))
          CFI ?RET_LOW load(1, XDATA, add(CFA_XSP16, literal(-5)))
        MOV     R7,#0x1
        LJMP    ?BANKED_LEAVE_XDATA
          CFI CFA_SP SP+-3
          CFI CFA_XSP16 XSP16+0
          CFI VB SameValue
          CFI DPL0 SameValue
          CFI DPH0 SameValue
          CFI R6 SameValue
          CFI R7 SameValue
          CFI V0 SameValue
          CFI ?BRET_EXT Frame(CFA_SP, 3)
          CFI ?RET_HIGH Frame(CFA_SP, 2)
          CFI ?RET_LOW Frame(CFA_SP, 1)
          CFI EndBlock cfiBlock3

        RSEG BANKED_CODE:CODE:NOROOT(0)
?Subroutine24:
          CFI Block cfiCond4 Using cfiCommon0
          CFI Function MT_AfCommandProcessing
          CFI Conditional ??CrossCallReturnLabel_84
          CFI R6 load(1, XDATA, add(CFA_XSP16, literal(-9)))
          CFI VB load(1, XDATA, add(CFA_XSP16, literal(-8)))
          CFI V0 load(1, XDATA, add(CFA_XSP16, literal(-7)))
          CFI R7 load(1, XDATA, add(CFA_XSP16, literal(-6)))
          CFI ?RET_LOW load(1, XDATA, add(CFA_XSP16, literal(-5)))
          CFI ?RET_HIGH load(1, XDATA, add(CFA_XSP16, literal(-4)))
          CFI ?BRET_EXT load(1, XDATA, add(CFA_XSP16, literal(-3)))
          CFI DPL0 load(1, XDATA, add(CFA_XSP16, literal(-2)))
          CFI DPH0 load(1, XDATA, add(CFA_XSP16, literal(-1)))
          CFI CFA_SP SP+-2
          CFI CFA_XSP16 add(XSP16, 14)
          CFI Block cfiCond5 Using cfiCommon0
          CFI (cfiCond5) Function MT_AfCommandProcessing
          CFI (cfiCond5) Conditional ??CrossCallReturnLabel_85
          CFI (cfiCond5) R6 load(1, XDATA, add(CFA_XSP16, literal(-9)))
          CFI (cfiCond5) VB load(1, XDATA, add(CFA_XSP16, literal(-8)))
          CFI (cfiCond5) V0 load(1, XDATA, add(CFA_XSP16, literal(-7)))
          CFI (cfiCond5) R7 load(1, XDATA, add(CFA_XSP16, literal(-6)))
          CFI (cfiCond5) ?RET_LOW load(1, XDATA, add(CFA_XSP16, literal(-5)))
          CFI (cfiCond5) ?RET_HIGH load(1, XDATA, add(CFA_XSP16, literal(-4)))
          CFI (cfiCond5) ?BRET_EXT load(1, XDATA, add(CFA_XSP16, literal(-3)))
          CFI (cfiCond5) DPL0 load(1, XDATA, add(CFA_XSP16, literal(-2)))
          CFI (cfiCond5) DPH0 load(1, XDATA, add(CFA_XSP16, literal(-1)))
          CFI (cfiCond5) CFA_SP SP+-2
          CFI (cfiCond5) CFA_XSP16 add(XSP16, 14)
          CFI Block cfiCond6 Using cfiCommon0
          CFI (cfiCond6) Function MT_AfDelete
          CFI (cfiCond6) Conditional ??CrossCallReturnLabel_86
          CFI (cfiCond6) R6 load(1, XDATA, add(CFA_XSP16, literal(-9)))
          CFI (cfiCond6) VB load(1, XDATA, add(CFA_XSP16, literal(-8)))
          CFI (cfiCond6) V0 load(1, XDATA, add(CFA_XSP16, literal(-7)))
          CFI (cfiCond6) R7 load(1, XDATA, add(CFA_XSP16, literal(-6)))
          CFI (cfiCond6) ?RET_LOW load(1, XDATA, add(CFA_XSP16, literal(-5)))
          CFI (cfiCond6) ?RET_HIGH load(1, XDATA, add(CFA_XSP16, literal(-4)))
          CFI (cfiCond6) ?BRET_EXT load(1, XDATA, add(CFA_XSP16, literal(-3)))
          CFI (cfiCond6) DPL0 load(1, XDATA, add(CFA_XSP16, literal(-2)))
          CFI (cfiCond6) DPH0 load(1, XDATA, add(CFA_XSP16, literal(-1)))
          CFI (cfiCond6) CFA_SP SP+-2
          CFI (cfiCond6) CFA_XSP16 add(XSP16, 10)
          CFI Block cfiPicker7 Using cfiCommon1
          CFI (cfiPicker7) NoFunction
          CFI (cfiPicker7) Picker
        MOV     A,R1
        MOV     DPL,?XSP + 0
        MOV     DPH,?XSP + 1
          CFI EndBlock cfiCond4
          CFI EndBlock cfiCond5
          CFI EndBlock cfiCond6
          CFI EndBlock cfiPicker7
        REQUIRE ??Subroutine48_0
        ; // Fall through to label ??Subroutine48_0

        RSEG BANKED_CODE:CODE:NOROOT(0)
??Subroutine48_0:
          CFI Block cfiCond8 Using cfiCommon0
          CFI Function MT_AfDataStore
          CFI Conditional ??CrossCallReturnLabel_87
          CFI R6 load(1, XDATA, add(CFA_XSP16, literal(-14)))
          CFI VB load(1, XDATA, add(CFA_XSP16, literal(-13)))
          CFI V0 load(1, XDATA, add(CFA_XSP16, literal(-12)))
          CFI V1 load(1, XDATA, add(CFA_XSP16, literal(-11)))
          CFI V2 load(1, XDATA, add(CFA_XSP16, literal(-10)))
          CFI V3 load(1, XDATA, add(CFA_XSP16, literal(-9)))
          CFI V4 load(1, XDATA, add(CFA_XSP16, literal(-8)))
          CFI V5 load(1, XDATA, add(CFA_XSP16, literal(-7)))
          CFI R7 load(1, XDATA, add(CFA_XSP16, literal(-6)))
          CFI ?RET_LOW load(1, XDATA, add(CFA_XSP16, literal(-5)))
          CFI ?RET_HIGH load(1, XDATA, add(CFA_XSP16, literal(-4)))
          CFI ?BRET_EXT load(1, XDATA, add(CFA_XSP16, literal(-3)))
          CFI DPL0 load(1, XDATA, add(CFA_XSP16, literal(-2)))
          CFI DPH0 load(1, XDATA, add(CFA_XSP16, literal(-1)))
          CFI CFA_SP SP+-2
          CFI CFA_XSP16 add(XSP16, 15)
          CFI Block cfiCond9 Using cfiCommon0
          CFI (cfiCond9) Function MT_AfCommandProcessing
          CFI (cfiCond9) Conditional ??CrossCallReturnLabel_84
          CFI (cfiCond9) R6 load(1, XDATA, add(CFA_XSP16, literal(-9)))
          CFI (cfiCond9) VB load(1, XDATA, add(CFA_XSP16, literal(-8)))
          CFI (cfiCond9) V0 load(1, XDATA, add(CFA_XSP16, literal(-7)))
          CFI (cfiCond9) R7 load(1, XDATA, add(CFA_XSP16, literal(-6)))
          CFI (cfiCond9) ?RET_LOW load(1, XDATA, add(CFA_XSP16, literal(-5)))
          CFI (cfiCond9) ?RET_HIGH load(1, XDATA, add(CFA_XSP16, literal(-4)))
          CFI (cfiCond9) ?BRET_EXT load(1, XDATA, add(CFA_XSP16, literal(-3)))
          CFI (cfiCond9) DPL0 load(1, XDATA, add(CFA_XSP16, literal(-2)))
          CFI (cfiCond9) DPH0 load(1, XDATA, add(CFA_XSP16, literal(-1)))
          CFI (cfiCond9) CFA_SP SP+-2
          CFI (cfiCond9) CFA_XSP16 add(XSP16, 14)
          CFI Block cfiCond10 Using cfiCommon0
          CFI (cfiCond10) Function MT_AfCommandProcessing
          CFI (cfiCond10) Conditional ??CrossCallReturnLabel_85
          CFI (cfiCond10) R6 load(1, XDATA, add(CFA_XSP16, literal(-9)))
          CFI (cfiCond10) VB load(1, XDATA, add(CFA_XSP16, literal(-8)))
          CFI (cfiCond10) V0 load(1, XDATA, add(CFA_XSP16, literal(-7)))
          CFI (cfiCond10) R7 load(1, XDATA, add(CFA_XSP16, literal(-6)))
          CFI (cfiCond10) ?RET_LOW load(1, XDATA, add(CFA_XSP16, literal(-5)))
          CFI (cfiCond10) ?RET_HIGH load(1, XDATA, add(CFA_XSP16, literal(-4)))
          CFI (cfiCond10) ?BRET_EXT load(1, XDATA, add(CFA_XSP16, literal(-3)))
          CFI (cfiCond10) DPL0 load(1, XDATA, add(CFA_XSP16, literal(-2)))
          CFI (cfiCond10) DPH0 load(1, XDATA, add(CFA_XSP16, literal(-1)))
          CFI (cfiCond10) CFA_SP SP+-2
          CFI (cfiCond10) CFA_XSP16 add(XSP16, 14)
          CFI Block cfiCond11 Using cfiCommon0
          CFI (cfiCond11) Function MT_AfDelete
          CFI (cfiCond11) Conditional ??CrossCallReturnLabel_86
          CFI (cfiCond11) R6 load(1, XDATA, add(CFA_XSP16, literal(-9)))
          CFI (cfiCond11) VB load(1, XDATA, add(CFA_XSP16, literal(-8)))
          CFI (cfiCond11) V0 load(1, XDATA, add(CFA_XSP16, literal(-7)))
          CFI (cfiCond11) R7 load(1, XDATA, add(CFA_XSP16, literal(-6)))
          CFI (cfiCond11) ?RET_LOW load(1, XDATA, add(CFA_XSP16, literal(-5)))
          CFI (cfiCond11) ?RET_HIGH load(1, XDATA, add(CFA_XSP16, literal(-4)))
          CFI (cfiCond11) ?BRET_EXT load(1, XDATA, add(CFA_XSP16, literal(-3)))
          CFI (cfiCond11) DPL0 load(1, XDATA, add(CFA_XSP16, literal(-2)))
          CFI (cfiCond11) DPH0 load(1, XDATA, add(CFA_XSP16, literal(-1)))
          CFI (cfiCond11) CFA_SP SP+-2
          CFI (cfiCond11) CFA_XSP16 add(XSP16, 10)
          CFI Block cfiPicker12 Using cfiCommon1
          CFI (cfiPicker12) NoFunction
          CFI (cfiPicker12) Picker
        MOVX    @DPTR,A
        ; Setup parameters for call to function MT_BuildAndSendZToolResponse
        ; Setup parameters for call to function MT_BuildAndSendZToolResponse
        ; Setup parameters for call to function MT_BuildAndSendZToolResponse
        ; Setup parameters for call to function MT_BuildAndSendZToolResponse
        MOV     R4,?XSP + 0
        MOV     R5,?XSP + 1
        MOV     R3,#0x1
        RET
          CFI (cfiCond8) CFA_SP SP+0
          CFI (cfiCond9) CFA_SP SP+0
          CFI (cfiCond10) CFA_SP SP+0
          CFI (cfiCond11) CFA_SP SP+0
          CFI (cfiPicker12) CFA_SP SP+0
          CFI EndBlock cfiCond8
          CFI EndBlock cfiCond9
          CFI EndBlock cfiCond10
          CFI EndBlock cfiCond11
          CFI EndBlock cfiPicker12
//  267 
//  268 /***************************************************************************************************
//  269  * @fn      MT_AfRegister
//  270  *
//  271  * @brief   Process AF Register command
//  272  *
//  273  * @param   pBuf - pointer to the received buffer
//  274  *
//  275  * @return  none
//  276  ***************************************************************************************************/

        RSEG BANKED_CODE:CODE:NOROOT(0)
//  277 void MT_AfRegister(uint8 *pBuf)
MT_AfRegister:
          CFI Block cfiBlock13 Using cfiCommon0
          CFI Function MT_AfRegister
        CODE
//  278 {
        FUNCALL MT_AfRegister, osal_mem_alloc
        LOCFRAME ISTACK, 0, STACK
        LOCFRAME PSTACK, 0, STACK
        LOCFRAME XSTACK, 15, STACK
        LOCFRAME IOVERLAY, 0, STATIC
        LOCFRAME DOVERLAY, 0, STATIC
        ARGFRAME ISTACK, 0, STACK
        ARGFRAME PSTACK, 0, STACK
        ARGFRAME XSTACK, 15, STACK
        ARGFRAME IOVERLAY, 0, STATIC
        ARGFRAME DOVERLAY, 0, STATIC
        FUNCALL MT_AfRegister, MT_BuildEndpointDesc
        LOCFRAME ISTACK, 0, STACK
        LOCFRAME PSTACK, 0, STACK
        LOCFRAME XSTACK, 15, STACK
        LOCFRAME IOVERLAY, 0, STATIC
        LOCFRAME DOVERLAY, 0, STATIC
        ARGFRAME ISTACK, 0, STACK
        ARGFRAME PSTACK, 0, STACK
        ARGFRAME XSTACK, 15, STACK
        ARGFRAME IOVERLAY, 0, STATIC
        ARGFRAME DOVERLAY, 0, STATIC
        FUNCALL MT_AfRegister, afRegister
        LOCFRAME ISTACK, 0, STACK
        LOCFRAME PSTACK, 0, STACK
        LOCFRAME XSTACK, 15, STACK
        LOCFRAME IOVERLAY, 0, STATIC
        LOCFRAME DOVERLAY, 0, STATIC
        ARGFRAME ISTACK, 0, STACK
        ARGFRAME PSTACK, 0, STACK
        ARGFRAME XSTACK, 15, STACK
        ARGFRAME IOVERLAY, 0, STATIC
        ARGFRAME DOVERLAY, 0, STATIC
        FUNCALL MT_AfRegister, osal_mem_free
        LOCFRAME ISTACK, 0, STACK
        LOCFRAME PSTACK, 0, STACK
        LOCFRAME XSTACK, 15, STACK
        LOCFRAME IOVERLAY, 0, STATIC
        LOCFRAME DOVERLAY, 0, STATIC
        ARGFRAME ISTACK, 0, STACK
        ARGFRAME PSTACK, 0, STACK
        ARGFRAME XSTACK, 15, STACK
        ARGFRAME IOVERLAY, 0, STATIC
        ARGFRAME DOVERLAY, 0, STATIC
        FUNCALL MT_AfRegister, MT_BuildAndSendZToolResponse
        LOCFRAME ISTACK, 0, STACK
        LOCFRAME PSTACK, 0, STACK
        LOCFRAME XSTACK, 15, STACK
        LOCFRAME IOVERLAY, 0, STATIC
        LOCFRAME DOVERLAY, 0, STATIC
        ARGFRAME ISTACK, 0, STACK
        ARGFRAME PSTACK, 0, STACK
        ARGFRAME XSTACK, 15, STACK
        ARGFRAME IOVERLAY, 0, STATIC
        ARGFRAME DOVERLAY, 0, STATIC
        REQUIRE ?V0
        REQUIRE ?V1
        REQUIRE ?V2
        REQUIRE ?V4
        REQUIRE ?V5
        MOV     A,#-0xe
        LCALL   ?BANKED_ENTER_XDATA
          CFI DPH0 load(1, XDATA, add(CFA_XSP16, literal(-1)))
          CFI DPL0 load(1, XDATA, add(CFA_XSP16, literal(-2)))
          CFI ?BRET_EXT load(1, XDATA, add(CFA_XSP16, literal(-3)))
          CFI ?RET_HIGH load(1, XDATA, add(CFA_XSP16, literal(-4)))
          CFI ?RET_LOW load(1, XDATA, add(CFA_XSP16, literal(-5)))
          CFI R7 load(1, XDATA, add(CFA_XSP16, literal(-6)))
          CFI V5 load(1, XDATA, add(CFA_XSP16, literal(-7)))
          CFI V4 load(1, XDATA, add(CFA_XSP16, literal(-8)))
          CFI V3 load(1, XDATA, add(CFA_XSP16, literal(-9)))
          CFI V2 load(1, XDATA, add(CFA_XSP16, literal(-10)))
          CFI V1 load(1, XDATA, add(CFA_XSP16, literal(-11)))
          CFI V0 load(1, XDATA, add(CFA_XSP16, literal(-12)))
          CFI VB load(1, XDATA, add(CFA_XSP16, literal(-13)))
          CFI R6 load(1, XDATA, add(CFA_XSP16, literal(-14)))
          CFI CFA_SP SP+0
          CFI CFA_XSP16 add(XSP16, 14)
        ; Saved register size: 14
        ; Auto size: 1
        MOV     A,#-0x1
        LCALL   ?ALLOC_XSTACK8
          CFI CFA_XSP16 add(XSP16, 15)
        MOV     ?V0,R2
        MOV     ?V1,R3
//  279   uint8 cmdId;
//  280   uint8 retValue = ZMemError;
        LCALL   ?Subroutine31 & 0xFFFF
//  281   endPointDesc_t *epDesc;
//  282 
//  283   /* parse header */
//  284   cmdId = pBuf[MT_RPC_POS_CMD1];
??CrossCallReturnLabel_48:
        MOV     ?V2,A
//  285   pBuf += MT_RPC_FRAME_HDR_SZ;
//  286 
//  287   epDesc = (endPointDesc_t *)osal_mem_alloc(sizeof(endPointDesc_t));
        ; Setup parameters for call to function osal_mem_alloc
        MOV     R2,#0x6
        MOV     R3,#0x0
        LCALL   `??osal_mem_alloc::?relay`; Banked call to: osal_mem_alloc
        MOV     ?V4,R2
        MOV     ?V5,R3
        MOV     R6,?V4
        MOV     R7,?V5
//  288   if ( epDesc )
        MOV     A,R6
        ORL     A,R7
        JZ      ??MT_AfRegister_0
//  289   {
//  290     epDesc->task_id = &MT_TaskID;
        MOV     DPL,R6
        MOV     DPH,R7
        INC     DPTR
        MOV     A,#MT_TaskID & 0xff
        MOVX    @DPTR,A
        INC     DPTR
        MOV     A,#(MT_TaskID >> 8) & 0xff
        MOVX    @DPTR,A
//  291     retValue = MT_BuildEndpointDesc( pBuf, epDesc );
        ; Setup parameters for call to function MT_BuildEndpointDesc
        MOV     A,R6
        MOV     R4,A
        MOV     A,R7
        MOV     R5,A
        MOV     A,?V0
        ADD     A,#0x3
        MOV     R2,A
        CLR     A
        ADDC    A,?V1
        MOV     R3,A
        LCALL   `??MT_BuildEndpointDesc::?relay`; Banked call to: MT_BuildEndpointDesc
        MOV     A,R1
        MOV     DPL,?XSP + 0
        MOV     DPH,?XSP + 1
        MOVX    @DPTR,A
//  292     if ( retValue == ZSuccess )
        JNZ     ??MT_AfRegister_1
//  293     {
//  294       retValue = afRegister( epDesc );
        ; Setup parameters for call to function afRegister
        MOV     A,R6
        MOV     R2,A
        MOV     A,R7
        MOV     R3,A
        LCALL   `??afRegister::?relay`; Banked call to: afRegister
        MOV     A,R1
        MOV     DPL,?XSP + 0
        MOV     DPH,?XSP + 1
        MOVX    @DPTR,A
//  295     }
//  296 
//  297     if ( retValue != ZSuccess )
??MT_AfRegister_1:
        MOVX    A,@DPTR
        JZ      ??MT_AfRegister_0
//  298     {
//  299       osal_mem_free( epDesc );
        ; Setup parameters for call to function osal_mem_free
        MOV     A,R6
        MOV     R2,A
        MOV     A,R7
        MOV     R3,A
        LCALL   `??osal_mem_free::?relay`; Banked call to: osal_mem_free
//  300     }
//  301   }
//  302 
//  303   /* Build and send back the response */
//  304   MT_BuildAndSendZToolResponse(((uint8)MT_RPC_CMD_SRSP | (uint8)MT_RPC_SYS_AF), cmdId, 1, &retValue);
??MT_AfRegister_0:
        ; Setup parameters for call to function MT_BuildAndSendZToolResponse
        MOV     R4,?XSP + 0
        MOV     R5,?XSP + 1
        MOV     R3,#0x1
        MOV     R2,?V2
          CFI EndBlock cfiBlock13
        REQUIRE ?Subroutine1
        ; // Fall through to label ?Subroutine1
//  305 }

        RSEG BANKED_CODE:CODE:NOROOT(0)
?Subroutine1:
          CFI Block cfiBlock14 Using cfiCommon0
          CFI NoFunction
          CFI CFA_SP SP+0
          CFI CFA_XSP16 add(XSP16, 15)
          CFI VB load(1, XDATA, add(CFA_XSP16, literal(-13)))
          CFI DPL0 load(1, XDATA, add(CFA_XSP16, literal(-2)))
          CFI DPH0 load(1, XDATA, add(CFA_XSP16, literal(-1)))
          CFI R6 load(1, XDATA, add(CFA_XSP16, literal(-14)))
          CFI R7 load(1, XDATA, add(CFA_XSP16, literal(-6)))
          CFI V0 load(1, XDATA, add(CFA_XSP16, literal(-12)))
          CFI V1 load(1, XDATA, add(CFA_XSP16, literal(-11)))
          CFI V2 load(1, XDATA, add(CFA_XSP16, literal(-10)))
          CFI V3 load(1, XDATA, add(CFA_XSP16, literal(-9)))
          CFI V4 load(1, XDATA, add(CFA_XSP16, literal(-8)))
          CFI V5 load(1, XDATA, add(CFA_XSP16, literal(-7)))
          CFI ?BRET_EXT load(1, XDATA, add(CFA_XSP16, literal(-3)))
          CFI ?RET_HIGH load(1, XDATA, add(CFA_XSP16, literal(-4)))
          CFI ?RET_LOW load(1, XDATA, add(CFA_XSP16, literal(-5)))
        MOV     R1,#0x64
        LCALL   `??MT_BuildAndSendZToolResponse::?relay`; Banked call to: MT_BuildAndSendZToolResponse
        MOV     A,#0x1
        LCALL   ?DEALLOC_XSTACK8
          CFI CFA_XSP16 add(XSP16, 14)
        MOV     R7,#0x6
        LJMP    ?BANKED_LEAVE_XDATA
          CFI CFA_SP SP+-3
          CFI CFA_XSP16 XSP16+0
          CFI VB SameValue
          CFI DPL0 SameValue
          CFI DPH0 SameValue
          CFI R6 SameValue
          CFI R7 SameValue
          CFI V0 SameValue
          CFI V1 SameValue
          CFI V2 SameValue
          CFI V3 SameValue
          CFI V4 SameValue
          CFI V5 SameValue
          CFI ?BRET_EXT Frame(CFA_SP, 3)
          CFI ?RET_HIGH Frame(CFA_SP, 2)
          CFI ?RET_LOW Frame(CFA_SP, 1)
          CFI EndBlock cfiBlock14
//  306 
//  307 /***************************************************************************************************
//  308  * @fn      MT_AfDelete
//  309  *
//  310  * @brief   Process AF Delete Endpoint command
//  311  *
//  312  * @param   pBuf - pointer to the received buffer
//  313  *
//  314  * @return  none
//  315  ***************************************************************************************************/

        RSEG BANKED_CODE:CODE:NOROOT(0)
//  316 void MT_AfDelete(uint8 *pBuf)
MT_AfDelete:
          CFI Block cfiBlock15 Using cfiCommon0
          CFI Function MT_AfDelete
        CODE
//  317 {
        FUNCALL MT_AfDelete, afDelete
        LOCFRAME ISTACK, 0, STACK
        LOCFRAME PSTACK, 0, STACK
        LOCFRAME XSTACK, 10, STACK
        LOCFRAME IOVERLAY, 0, STATIC
        LOCFRAME DOVERLAY, 0, STATIC
        ARGFRAME ISTACK, 0, STACK
        ARGFRAME PSTACK, 0, STACK
        ARGFRAME XSTACK, 10, STACK
        ARGFRAME IOVERLAY, 0, STATIC
        ARGFRAME DOVERLAY, 0, STATIC
        FUNCALL MT_AfDelete, MT_BuildAndSendZToolResponse
        LOCFRAME ISTACK, 0, STACK
        LOCFRAME PSTACK, 0, STACK
        LOCFRAME XSTACK, 10, STACK
        LOCFRAME IOVERLAY, 0, STATIC
        LOCFRAME DOVERLAY, 0, STATIC
        ARGFRAME ISTACK, 0, STACK
        ARGFRAME PSTACK, 0, STACK
        ARGFRAME XSTACK, 10, STACK
        ARGFRAME IOVERLAY, 0, STATIC
        ARGFRAME DOVERLAY, 0, STATIC
        MOV     A,#-0x9
        LCALL   ?BANKED_ENTER_XDATA
          CFI DPH0 load(1, XDATA, add(CFA_XSP16, literal(-1)))
          CFI DPL0 load(1, XDATA, add(CFA_XSP16, literal(-2)))
          CFI ?BRET_EXT load(1, XDATA, add(CFA_XSP16, literal(-3)))
          CFI ?RET_HIGH load(1, XDATA, add(CFA_XSP16, literal(-4)))
          CFI ?RET_LOW load(1, XDATA, add(CFA_XSP16, literal(-5)))
          CFI R7 load(1, XDATA, add(CFA_XSP16, literal(-6)))
          CFI V0 load(1, XDATA, add(CFA_XSP16, literal(-7)))
          CFI VB load(1, XDATA, add(CFA_XSP16, literal(-8)))
          CFI R6 load(1, XDATA, add(CFA_XSP16, literal(-9)))
          CFI CFA_SP SP+0
          CFI CFA_XSP16 add(XSP16, 9)
        ; Saved register size: 9
        ; Auto size: 1
        MOV     A,#-0x1
        LCALL   ?ALLOC_XSTACK8
          CFI CFA_XSP16 add(XSP16, 10)
//  318   uint8 cmdId;
//  319   uint8 retValue = ZMemError;
        LCALL   ?Subroutine31 & 0xFFFF
//  320 
//  321   /* parse header */
//  322   cmdId = pBuf[MT_RPC_POS_CMD1];
??CrossCallReturnLabel_49:
        MOV     R6,A
//  323   pBuf += MT_RPC_FRAME_HDR_SZ;
//  324 
//  325   retValue = afDelete( *pBuf );
        ; Setup parameters for call to function afDelete
        MOV     DPL,R2
        MOV     DPH,R3
        INC     DPTR
        INC     DPTR
        INC     DPTR
        MOVX    A,@DPTR
        MOV     R1,A
        LCALL   `??afDelete::?relay` ; Banked call to: afDelete
        LCALL   ?Subroutine24 & 0xFFFF
//  326 
//  327   /* Build and send back the response */
//  328   MT_BuildAndSendZToolResponse(((uint8)MT_RPC_CMD_SRSP | (uint8)MT_RPC_SYS_AF), cmdId, 1, &retValue);
??CrossCallReturnLabel_86:
        MOV     A,R6
        MOV     R2,A
        MOV     R1,#0x64
        LCALL   `??MT_BuildAndSendZToolResponse::?relay`; Banked call to: MT_BuildAndSendZToolResponse
//  329 }
        MOV     A,#0x1
        LJMP    ?Subroutine0 & 0xFFFF
          CFI EndBlock cfiBlock15

        RSEG BANKED_CODE:CODE:NOROOT(0)
?Subroutine31:
          CFI Block cfiCond16 Using cfiCommon0
          CFI Function MT_AfRegister
          CFI Conditional ??CrossCallReturnLabel_48
          CFI R6 load(1, XDATA, add(CFA_XSP16, literal(-14)))
          CFI VB load(1, XDATA, add(CFA_XSP16, literal(-13)))
          CFI V0 load(1, XDATA, add(CFA_XSP16, literal(-12)))
          CFI V1 load(1, XDATA, add(CFA_XSP16, literal(-11)))
          CFI V2 load(1, XDATA, add(CFA_XSP16, literal(-10)))
          CFI V3 load(1, XDATA, add(CFA_XSP16, literal(-9)))
          CFI V4 load(1, XDATA, add(CFA_XSP16, literal(-8)))
          CFI V5 load(1, XDATA, add(CFA_XSP16, literal(-7)))
          CFI R7 load(1, XDATA, add(CFA_XSP16, literal(-6)))
          CFI ?RET_LOW load(1, XDATA, add(CFA_XSP16, literal(-5)))
          CFI ?RET_HIGH load(1, XDATA, add(CFA_XSP16, literal(-4)))
          CFI ?BRET_EXT load(1, XDATA, add(CFA_XSP16, literal(-3)))
          CFI DPL0 load(1, XDATA, add(CFA_XSP16, literal(-2)))
          CFI DPH0 load(1, XDATA, add(CFA_XSP16, literal(-1)))
          CFI CFA_SP SP+-2
          CFI CFA_XSP16 add(XSP16, 15)
          CFI Block cfiCond17 Using cfiCommon0
          CFI (cfiCond17) Function MT_AfDelete
          CFI (cfiCond17) Conditional ??CrossCallReturnLabel_49
          CFI (cfiCond17) R6 load(1, XDATA, add(CFA_XSP16, literal(-9)))
          CFI (cfiCond17) VB load(1, XDATA, add(CFA_XSP16, literal(-8)))
          CFI (cfiCond17) V0 load(1, XDATA, add(CFA_XSP16, literal(-7)))
          CFI (cfiCond17) R7 load(1, XDATA, add(CFA_XSP16, literal(-6)))
          CFI (cfiCond17) ?RET_LOW load(1, XDATA, add(CFA_XSP16, literal(-5)))
          CFI (cfiCond17) ?RET_HIGH load(1, XDATA, add(CFA_XSP16, literal(-4)))
          CFI (cfiCond17) ?BRET_EXT load(1, XDATA, add(CFA_XSP16, literal(-3)))
          CFI (cfiCond17) DPL0 load(1, XDATA, add(CFA_XSP16, literal(-2)))
          CFI (cfiCond17) DPH0 load(1, XDATA, add(CFA_XSP16, literal(-1)))
          CFI (cfiCond17) CFA_SP SP+-2
          CFI (cfiCond17) CFA_XSP16 add(XSP16, 10)
          CFI Block cfiPicker18 Using cfiCommon1
          CFI (cfiPicker18) NoFunction
          CFI (cfiPicker18) Picker
        MOV     DPL,?XSP + 0
        MOV     DPH,?XSP + 1
        MOV     A,#0x10
        LCALL   ?Subroutine42 & 0xFFFF
??CrossCallReturnLabel_70:
        RET
          CFI (cfiCond16) CFA_SP SP+0
          CFI (cfiCond17) CFA_SP SP+0
          CFI (cfiPicker18) CFA_SP SP+0
          CFI EndBlock cfiCond16
          CFI EndBlock cfiCond17
          CFI EndBlock cfiPicker18
//  330 
//  331 /***************************************************************************************************
//  332  * @fn      MT_AfDataRequest
//  333  *
//  334  * @brief   Process AF Register command
//  335  *
//  336  * @param   pBuf - pointer to the received buffer
//  337  *
//  338  * @return  none
//  339  ***************************************************************************************************/

        RSEG BANKED_CODE:CODE:NOROOT(0)
//  340 void MT_AfDataRequest(uint8 *pBuf)
MT_AfDataRequest:
          CFI Block cfiBlock19 Using cfiCommon0
          CFI Function MT_AfDataRequest
        CODE
//  341 {
        FUNCALL MT_AfDataRequest, osal_memcpy
        LOCFRAME ISTACK, 0, STACK
        LOCFRAME PSTACK, 0, STACK
        LOCFRAME XSTACK, 38, STACK
        LOCFRAME IOVERLAY, 0, STATIC
        LOCFRAME DOVERLAY, 0, STATIC
        ARGFRAME ISTACK, 0, STACK
        ARGFRAME PSTACK, 0, STACK
        ARGFRAME XSTACK, 38, STACK
        ARGFRAME IOVERLAY, 0, STATIC
        ARGFRAME DOVERLAY, 0, STATIC
        FUNCALL MT_AfDataRequest, afFindEndPointDesc
        LOCFRAME ISTACK, 0, STACK
        LOCFRAME PSTACK, 0, STACK
        LOCFRAME XSTACK, 35, STACK
        LOCFRAME IOVERLAY, 0, STATIC
        LOCFRAME DOVERLAY, 0, STATIC
        ARGFRAME ISTACK, 0, STACK
        ARGFRAME PSTACK, 0, STACK
        ARGFRAME XSTACK, 35, STACK
        ARGFRAME IOVERLAY, 0, STATIC
        ARGFRAME DOVERLAY, 0, STATIC
        FUNCALL MT_AfDataRequest, osal_mem_alloc
        LOCFRAME ISTACK, 0, STACK
        LOCFRAME PSTACK, 0, STACK
        LOCFRAME XSTACK, 35, STACK
        LOCFRAME IOVERLAY, 0, STATIC
        LOCFRAME DOVERLAY, 0, STATIC
        ARGFRAME ISTACK, 0, STACK
        ARGFRAME PSTACK, 0, STACK
        ARGFRAME XSTACK, 35, STACK
        ARGFRAME IOVERLAY, 0, STATIC
        ARGFRAME DOVERLAY, 0, STATIC
        FUNCALL MT_AfDataRequest, osal_memcpy
        LOCFRAME ISTACK, 0, STACK
        LOCFRAME PSTACK, 0, STACK
        LOCFRAME XSTACK, 38, STACK
        LOCFRAME IOVERLAY, 0, STATIC
        LOCFRAME DOVERLAY, 0, STATIC
        ARGFRAME ISTACK, 0, STACK
        ARGFRAME PSTACK, 0, STACK
        ARGFRAME XSTACK, 38, STACK
        ARGFRAME IOVERLAY, 0, STATIC
        ARGFRAME DOVERLAY, 0, STATIC
        FUNCALL MT_AfDataRequest, osal_start_timerEx
        LOCFRAME ISTACK, 0, STACK
        LOCFRAME PSTACK, 0, STACK
        LOCFRAME XSTACK, 39, STACK
        LOCFRAME IOVERLAY, 0, STATIC
        LOCFRAME DOVERLAY, 0, STATIC
        ARGFRAME ISTACK, 0, STACK
        ARGFRAME PSTACK, 0, STACK
        ARGFRAME XSTACK, 39, STACK
        ARGFRAME IOVERLAY, 0, STATIC
        ARGFRAME DOVERLAY, 0, STATIC
        FUNCALL MT_AfDataRequest, osal_set_event
        LOCFRAME ISTACK, 0, STACK
        LOCFRAME PSTACK, 0, STACK
        LOCFRAME XSTACK, 35, STACK
        LOCFRAME IOVERLAY, 0, STATIC
        LOCFRAME DOVERLAY, 0, STATIC
        ARGFRAME ISTACK, 0, STACK
        ARGFRAME PSTACK, 0, STACK
        ARGFRAME XSTACK, 35, STACK
        ARGFRAME IOVERLAY, 0, STATIC
        ARGFRAME DOVERLAY, 0, STATIC
        FUNCALL MT_AfDataRequest, AF_DataRequest
        LOCFRAME ISTACK, 0, STACK
        LOCFRAME PSTACK, 0, STACK
        LOCFRAME XSTACK, 44, STACK
        LOCFRAME IOVERLAY, 0, STATIC
        LOCFRAME DOVERLAY, 0, STATIC
        ARGFRAME ISTACK, 0, STACK
        ARGFRAME PSTACK, 0, STACK
        ARGFRAME XSTACK, 44, STACK
        ARGFRAME IOVERLAY, 0, STATIC
        ARGFRAME DOVERLAY, 0, STATIC
        FUNCALL MT_AfDataRequest, MT_BuildAndSendZToolResponse
        LOCFRAME ISTACK, 0, STACK
        LOCFRAME PSTACK, 0, STACK
        LOCFRAME XSTACK, 35, STACK
        LOCFRAME IOVERLAY, 0, STATIC
        LOCFRAME DOVERLAY, 0, STATIC
        ARGFRAME ISTACK, 0, STACK
        ARGFRAME PSTACK, 0, STACK
        ARGFRAME XSTACK, 35, STACK
        ARGFRAME IOVERLAY, 0, STATIC
        ARGFRAME DOVERLAY, 0, STATIC
        REQUIRE ?V0
        REQUIRE ?V1
        REQUIRE ?V2
        REQUIRE ?V3
        REQUIRE ?V4
        REQUIRE ?V5
        REQUIRE ?V6
        REQUIRE ?V7
        REQUIRE ?V8
        REQUIRE ?V9
        REQUIRE ?V10
        REQUIRE ?V11
        REQUIRE ?V12
        MOV     A,#-0x15
        LCALL   ?BANKED_ENTER_XDATA
          CFI DPH0 load(1, XDATA, add(CFA_XSP16, literal(-1)))
          CFI DPL0 load(1, XDATA, add(CFA_XSP16, literal(-2)))
          CFI ?BRET_EXT load(1, XDATA, add(CFA_XSP16, literal(-3)))
          CFI ?RET_HIGH load(1, XDATA, add(CFA_XSP16, literal(-4)))
          CFI ?RET_LOW load(1, XDATA, add(CFA_XSP16, literal(-5)))
          CFI R7 load(1, XDATA, add(CFA_XSP16, literal(-6)))
          CFI V12 load(1, XDATA, add(CFA_XSP16, literal(-7)))
          CFI V11 load(1, XDATA, add(CFA_XSP16, literal(-8)))
          CFI V10 load(1, XDATA, add(CFA_XSP16, literal(-9)))
          CFI V9 load(1, XDATA, add(CFA_XSP16, literal(-10)))
          CFI V8 load(1, XDATA, add(CFA_XSP16, literal(-11)))
          CFI V7 load(1, XDATA, add(CFA_XSP16, literal(-12)))
          CFI V6 load(1, XDATA, add(CFA_XSP16, literal(-13)))
          CFI V5 load(1, XDATA, add(CFA_XSP16, literal(-14)))
          CFI V4 load(1, XDATA, add(CFA_XSP16, literal(-15)))
          CFI V3 load(1, XDATA, add(CFA_XSP16, literal(-16)))
          CFI V2 load(1, XDATA, add(CFA_XSP16, literal(-17)))
          CFI V1 load(1, XDATA, add(CFA_XSP16, literal(-18)))
          CFI V0 load(1, XDATA, add(CFA_XSP16, literal(-19)))
          CFI VB load(1, XDATA, add(CFA_XSP16, literal(-20)))
          CFI R6 load(1, XDATA, add(CFA_XSP16, literal(-21)))
          CFI CFA_SP SP+0
          CFI CFA_XSP16 add(XSP16, 21)
        ; Saved register size: 21
        ; Auto size: 14
        MOV     A,#-0xe
        LCALL   ?ALLOC_XSTACK8
          CFI CFA_XSP16 add(XSP16, 35)
        MOV     A,R2
        MOV     R6,A
        MOV     A,R3
        MOV     R7,A
//  342   #define MT_AF_REQ_MSG_LEN  10
//  343   #define MT_AF_REQ_MSG_EXT  10
//  344 
//  345   endPointDesc_t *epDesc;
//  346   afAddrType_t dstAddr;
//  347   cId_t cId;
//  348   uint8 transId, txOpts, radius;
//  349   uint8 cmd0, cmd1;
//  350   uint8 retValue = ZFailure;
        MOV     DPL,?XSP + 0
        MOV     DPH,?XSP + 1
        MOV     A,#0x1
        LCALL   ?Subroutine40 & 0xFFFF
//  351   uint16 dataLen, tempLen;
//  352 
//  353   /* Parse header */
//  354   cmd0 = pBuf[MT_RPC_POS_CMD0];
??CrossCallReturnLabel_91:
        MOVX    A,@DPTR
        MOV     ?V12,A
//  355   cmd1 = pBuf[MT_RPC_POS_CMD1];
        MOV     DPL,R6
        MOV     DPH,R7
        INC     DPTR
        INC     DPTR
        MOVX    A,@DPTR
        MOV     ?V9,A
//  356   pBuf += MT_RPC_FRAME_HDR_SZ;
        MOV     A,R6
        ADD     A,#0x3
        MOV     R6,A
        JNC     ??MT_AfDataRequest_0
        INC     R7
//  357 
//  358   if (cmd1 == MT_AF_DATA_REQUEST_EXT)
??MT_AfDataRequest_0:
        MOV     DPL,R6
        MOV     DPH,R7
        INC     DPTR
        MOV     R0,DPL
        MOV     R1,DPH
        MOV     A,#0x2
        XRL     A,?V9
        JNZ     ??MT_AfDataRequest_1
//  359   {
//  360     dstAddr.addrMode = (afAddrMode_t)*pBuf++;
        MOV     DPL,R6
        MOV     DPH,R7
        MOVX    A,@DPTR
        MOV     R2,A
        MOV     A,#0xa
        LCALL   ?XSTACK_DISP0_8
        MOV     A,R2
        MOVX    @DPTR,A
        MOV     A,R0
        MOV     R6,A
        MOV     A,R1
        MOV     R7,A
//  361 
//  362     if (dstAddr.addrMode == afAddr64Bit)
        MOV     A,#0x3
        XRL     A,R2
        JNZ     ??MT_AfDataRequest_2
//  363     {
//  364       (void)osal_memcpy(dstAddr.addr.extAddr, pBuf, Z_EXTADDR_LEN);
        ; Setup parameters for call to function osal_memcpy
        MOV     ?V0,R6
        MOV     ?V1,R7
        MOV     ?V2,#0x0
        MOV     R0,#?V0
        LCALL   ?PUSH_XSTACK_I_THREE
          CFI CFA_XSP16 add(XSP16, 38)
        MOV     R4,#0x8
        MOV     R5,#0x0
        MOV     A,#0x5
        LCALL   ?XSTACK_DISP101_8
        LCALL   `??osal_memcpy::?relay`; Banked call to: osal_memcpy
        MOV     A,#0x3
        LCALL   ?DEALLOC_XSTACK8
          CFI CFA_XSP16 add(XSP16, 35)
        SJMP    ??CrossCallReturnLabel_36
//  365     }
//  366     else
//  367     {
//  368       dstAddr.addr.shortAddr = BUILD_UINT16(pBuf[0], pBuf[1]);
??MT_AfDataRequest_2:
        LCALL   ?Subroutine19 & 0xFFFF
//  369     }
??CrossCallReturnLabel_101:
        LCALL   ?XSTACK_DISP0_8
        LCALL   ?Subroutine27 & 0xFFFF
//  370     pBuf += Z_EXTADDR_LEN;
//  371 
//  372     dstAddr.endPoint = *pBuf++;
??CrossCallReturnLabel_36:
        MOV     DPL,R6
        MOV     DPH,R7
        INC     DPTR
        INC     DPTR
        INC     DPTR
        INC     DPTR
        INC     DPTR
        INC     DPTR
        INC     DPTR
        INC     DPTR
        MOVX    A,@DPTR
        PUSH    A
          CFI CFA_SP SP+-1
        MOV     A,#0xb
        LCALL   ?XSTACK_DISP0_8
        POP     A
          CFI CFA_SP SP+0
        MOVX    @DPTR,A
        MOV     A,R6
        ADD     A,#0x9
        MOV     R6,A
        JNC     ??MT_AfDataRequest_3
        INC     R7
//  373     dstAddr.panId = BUILD_UINT16(pBuf[0], pBuf[1]);
??MT_AfDataRequest_3:
        MOV     DPL,R6
        MOV     DPH,R7
        MOVX    A,@DPTR
        MOV     R2,A
        INC     DPTR
        MOVX    A,@DPTR
        MOV     R1,A
        MOV     A,R2
        MOV     R0,A
        MOV     A,#0xc
        LCALL   ?XSTACK_DISP0_8
        LCALL   ?Subroutine27 & 0xFFFF
//  374     pBuf += 2;
??CrossCallReturnLabel_37:
        MOV     A,R6
        ADD     A,#0x2
        MOV     R6,A
        JNC     ??MT_AfDataRequest_4
        INC     R7
        SJMP    ??MT_AfDataRequest_4
//  375   }
//  376   else
//  377   {
//  378     /* Destination address */
//  379     dstAddr.addrMode = afAddr16Bit;
??MT_AfDataRequest_1:
        MOV     A,#0xa
        LCALL   ?XSTACK_DISP0_8
        MOV     A,#0x2
        MOVX    @DPTR,A
//  380     dstAddr.addr.shortAddr = BUILD_UINT16(pBuf[0], pBuf[1]);
        MOV     DPL,R6
        MOV     DPH,R7
        MOVX    A,@DPTR
        MOV     R2,A
        MOV     DPL,R0
        MOV     DPH,R1
        LCALL   ??Subroutine51_0 & 0xFFFF
??CrossCallReturnLabel_100:
        LCALL   ?XSTACK_DISP0_8
        LCALL   ?Subroutine26 & 0xFFFF
//  381     pBuf += 2;
//  382 
//  383     /* Destination endpoint */
//  384     dstAddr.endPoint = *pBuf++;
??CrossCallReturnLabel_88:
        PUSH    A
          CFI CFA_SP SP+-1
        MOV     A,#0xb
        LCALL   ?XSTACK_DISP0_8
        POP     A
          CFI CFA_SP SP+0
        MOVX    @DPTR,A
        MOV     A,R6
        ADD     A,#0x3
        MOV     R6,A
        JNC     ??MT_AfDataRequest_5
        INC     R7
//  385     dstAddr.panId = 0;
??MT_AfDataRequest_5:
        MOV     A,#0xc
        LCALL   ?XSTACK_DISP0_8
        CLR     A
        MOVX    @DPTR,A
        INC     DPTR
        MOVX    @DPTR,A
//  386   }
//  387 
//  388   /* Source endpoint */
//  389   epDesc = afFindEndPointDesc(*pBuf++);
??MT_AfDataRequest_4:
        ; Setup parameters for call to function afFindEndPointDesc
        MOV     DPL,R6
        MOV     DPH,R7
        MOVX    A,@DPTR
        MOV     R1,A
        LCALL   `??afFindEndPointDesc::?relay`; Banked call to: afFindEndPointDesc
        MOV     ?V10,R2
        MOV     ?V11,R3
        MOV     DPL,R6
        MOV     DPH,R7
        INC     DPTR
        MOV     R6,DPL
        MOV     R7,DPH
//  390 
//  391   /* ClusterId */
//  392   cId = BUILD_UINT16(pBuf[0], pBuf[1]);
        LCALL   ?Subroutine36 & 0xFFFF
??CrossCallReturnLabel_60:
        MOV     ?V2,A
        CLR     A
        ADDC    A,R1
        MOV     ?V3,A
//  393   pBuf +=2;
//  394 
//  395   /* TransId */
//  396   transId = *pBuf++;
        MOV     DPL,R6
        MOV     DPH,R7
        INC     DPTR
        INC     DPTR
        MOVX    A,@DPTR
        PUSH    A
          CFI CFA_SP SP+-1
        MOV     A,#0x1
        LCALL   ?XSTACK_DISP0_8
        POP     A
          CFI CFA_SP SP+0
        MOVX    @DPTR,A
//  397 
//  398   /* TxOption */
//  399   txOpts = *pBuf++;
        MOV     DPL,R6
        MOV     DPH,R7
        LCALL   ?Subroutine15 & 0xFFFF
//  400 
//  401   /* Radius */
//  402   radius = *pBuf++;
??CrossCallReturnLabel_18:
        MOVX    A,@DPTR
        MOV     ?V7,A
        MOV     A,R6
        ADD     A,#0x5
        MOV     R6,A
        JNC     ??MT_AfDataRequest_6
        INC     R7
//  403 
//  404   /* Length */
//  405   if (cmd1 == MT_AF_DATA_REQUEST_EXT)
??MT_AfDataRequest_6:
        MOV     DPL,R6
        MOV     DPH,R7
        INC     DPTR
        MOV     R0,DPL
        MOV     R1,DPH
        MOV     DPL,R6
        MOV     DPH,R7
        MOVX    A,@DPTR
        MOV     ?V0,A
        MOV     A,#0x2
        XRL     A,?V9
        JNZ     ??MT_AfDataRequest_7
//  406   {
//  407     dataLen = BUILD_UINT16(pBuf[0], pBuf[1]);
        MOV     DPL,R0
        MOV     DPH,R1
        MOVX    A,@DPTR
        MOV     R0,A
        CLR     A
        XCH     A,R0
        MOV     R1,A
        MOV     A,?V0
        ADD     A,R0
        CLR     A
        ADDC    A,R1
        MOV     ?V1,A
//  408     tempLen = dataLen + MT_AF_REQ_MSG_LEN + MT_AF_REQ_MSG_EXT;
        MOV     A,?V0
        ADD     A,#0x14
        MOV     R0,A
        CLR     A
        ADDC    A,?V1
        MOV     R1,A
//  409     pBuf += 2;
        MOV     A,R6
        ADD     A,#0x2
        MOV     R6,A
        JNC     ??MT_AfDataRequest_8
        INC     R7
        SJMP    ??MT_AfDataRequest_8
//  410   }
//  411   else
//  412   {
//  413     dataLen = *pBuf++;
??MT_AfDataRequest_7:
        MOV     ?V1,#0x0
        INC     R6
        MOV     A,R1
        MOV     R7,A
//  414     tempLen = dataLen + MT_AF_REQ_MSG_LEN;
        MOV     A,?V0
        ADD     A,#0xa
        MOV     R0,A
        CLR     A
        ADDC    A,#0x0
        MOV     R1,A
//  415   }
//  416 
//  417   if ( epDesc == NULL )
??MT_AfDataRequest_8:
        MOV     A,?V10
        ORL     A,?V11
        JZ      ??MT_AfDataRequest_9
//  418   {
//  419     retValue = afStatus_INVALID_PARAMETER;
//  420   }
//  421   else if (tempLen > (uint16)MT_RPC_DATA_MAX)
        CLR     C
        MOV     A,R0
        SUBB    A,#-0x5
        MOV     A,R1
        SUBB    A,#0x0
        JNC     $+5
        LJMP    ??MT_AfDataRequest_10 & 0xFFFF
//  422   {
//  423     if (pMtAfDataReq != NULL)
        LCALL   ?Subroutine5 & 0xFFFF
??CrossCallReturnLabel_97:
        JZ      ??MT_AfDataRequest_11
//  424     {
//  425       retValue = afStatus_INVALID_PARAMETER;
??MT_AfDataRequest_9:
        MOV     DPL,?XSP + 0
        MOV     DPH,?XSP + 1
        MOV     A,#0x2
        LJMP    ??MT_AfDataRequest_12 & 0xFFFF
//  426     }
//  427     else if ((pMtAfDataReq = osal_mem_alloc(sizeof(mtAfDataReq_t) + dataLen)) == NULL)
??MT_AfDataRequest_11:
        ; Setup parameters for call to function osal_mem_alloc
        MOV     A,?V0
        ADD     A,#0x18
        MOV     R2,A
        CLR     A
        ADDC    A,?V1
        MOV     R3,A
        LCALL   `??osal_mem_alloc::?relay`; Banked call to: osal_mem_alloc
        MOV     DPTR,#pMtAfDataReq
        MOV     A,R2
        MOVX    @DPTR,A
        INC     DPTR
        MOV     A,R3
        MOVX    @DPTR,A
        LCALL   ?Subroutine5 & 0xFFFF
??CrossCallReturnLabel_98:
        MOV     DPL,?XSP + 0
        MOV     DPH,?XSP + 1
        JNZ     ??MT_AfDataRequest_13
//  428     {
//  429       retValue = afStatus_MEM_FAIL;
        MOV     A,#0x10
        LJMP    ??MT_AfDataRequest_12 & 0xFFFF
//  430     }
//  431     else
//  432     {
//  433       retValue = afStatus_SUCCESS;
??MT_AfDataRequest_13:
        CLR     A
        MOVX    @DPTR,A
//  434 
//  435       pMtAfDataReq->data = (uint8 *)(pMtAfDataReq+1);
        MOV     DPTR,#pMtAfDataReq
        MOVX    A,@DPTR
        ADD     A,#0x18
        MOV     R2,A
        INC     DPTR
        MOVX    A,@DPTR
        ADDC    A,#0x0
        MOV     R3,A
        MOV     DPTR,#pMtAfDataReq
        MOVX    A,@DPTR
        MOV     R0,A
        INC     DPTR
        MOVX    A,@DPTR
        MOV     DPH,A
        MOV     DPL,R0
        MOV     A,R2
        MOVX    @DPTR,A
        INC     DPTR
        MOV     A,R3
        MOVX    @DPTR,A
//  436       (void)osal_memcpy(&(pMtAfDataReq->dstAddr), &dstAddr, sizeof(afAddrType_t));
        ; Setup parameters for call to function osal_memcpy
        MOV     A,#0x2
        LCALL   ?XSTACK_DISP100_8
        MOV     ?V4,R0
        MOV     ?V5,R1
        MOV     ?V6,#0x0
        MOV     R0,#?V4
        LCALL   ?PUSH_XSTACK_I_THREE
          CFI CFA_XSP16 add(XSP16, 38)
        MOV     R4,#0xc
        MOV     R5,#0x0
        LCALL   ?Subroutine20 & 0xFFFF
??CrossCallReturnLabel_26:
        LCALL   `??osal_memcpy::?relay`; Banked call to: osal_memcpy
        MOV     A,#0x3
        LCALL   ?DEALLOC_XSTACK8
          CFI CFA_XSP16 add(XSP16, 35)
//  437       pMtAfDataReq->epDesc = epDesc;
        LCALL   ?Subroutine9 & 0xFFFF
??CrossCallReturnLabel_8:
        MOV     A,?V10
        MOVX    @DPTR,A
        INC     DPTR
        MOV     A,?V11
        MOVX    @DPTR,A
//  438       pMtAfDataReq->cId = cId;
        LCALL   ?Subroutine10 & 0xFFFF
??CrossCallReturnLabel_10:
        MOV     A,?V2
        MOVX    @DPTR,A
        INC     DPTR
        MOV     A,?V3
        MOVX    @DPTR,A
//  439       pMtAfDataReq->dataLen = dataLen;
        LCALL   ?Subroutine11 & 0xFFFF
??CrossCallReturnLabel_12:
        MOV     A,?V0
        MOVX    @DPTR,A
        INC     DPTR
        MOV     A,?V1
        MOVX    @DPTR,A
//  440       pMtAfDataReq->transId = transId;
        MOV     A,#0x1
        LCALL   ?XSTACK_DISP0_8
        MOVX    A,@DPTR
        PUSH    A
          CFI CFA_SP SP+-1
        LCALL   ?Subroutine34 & 0xFFFF
??CrossCallReturnLabel_54:
        ADD     A,#0x14
        MOV     DPL,A
        CLR     A
        ADDC    A,R0
        MOV     DPH,A
        POP     A
          CFI CFA_SP SP+0
        MOVX    @DPTR,A
//  441       pMtAfDataReq->txOpts = txOpts;
        LCALL   ?Subroutine12 & 0xFFFF
??CrossCallReturnLabel_14:
        MOV     A,?V8
        MOVX    @DPTR,A
//  442       pMtAfDataReq->radius = radius;
        MOV     DPTR,#pMtAfDataReq
        MOVX    A,@DPTR
        MOV     R0,A
        INC     DPTR
        LCALL   ?Subroutine16 & 0xFFFF
??CrossCallReturnLabel_20:
        MOV     A,?V7
        LCALL   ?Subroutine8 & 0xFFFF
//  443 
//  444       // Setup to time-out the huge outgoing item if host does not MT_AF_DATA_STORE it.
//  445       pMtAfDataReq->tick = MT_AF_EXEC_CNT;
??CrossCallReturnLabel_6:
        MOV     A,#0xf
        MOVX    @DPTR,A
//  446       if (ZSuccess != osal_start_timerEx(MT_TaskID, MT_AF_EXEC_EVT, MT_AF_EXEC_DLY))
        ; Setup parameters for call to function osal_start_timerEx
        MOV     DPTR,#__Constant_3e8
        LCALL   ?PUSH_XSTACK8_X_FOUR
          CFI CFA_XSP16 add(XSP16, 39)
        MOV     R2,#0x8
        MOV     R3,#0x0
        MOV     DPTR,#MT_TaskID
        MOVX    A,@DPTR
        MOV     R1,A
        LCALL   `??osal_start_timerEx::?relay`; Banked call to: osal_start_timerEx
        MOV     A,#0x4
        LCALL   ?DEALLOC_XSTACK8
          CFI CFA_XSP16 add(XSP16, 35)
        MOV     A,R1
        JZ      ??MT_AfDataRequest_14
//  447       {
//  448         (void)osal_set_event(MT_TaskID, MT_AF_EXEC_EVT);
        ; Setup parameters for call to function osal_set_event
        MOV     R2,#0x8
        MOV     R3,#0x0
        MOV     DPTR,#MT_TaskID
        MOVX    A,@DPTR
        MOV     R1,A
        LCALL   `??osal_set_event::?relay`; Banked call to: osal_set_event
        SJMP    ??MT_AfDataRequest_14
//  449       }
//  450     }
//  451   }
//  452 #if defined ( MT_GP_FUNC )
//  453   else if ( ( cmd1 == MT_AF_DATA_REQUEST_EXT )
//  454            && ( dstAddr.endPoint == ZGP_ENDPOINT_ID )
//  455            && ( dstAddr.panId == 0 )
//  456            && ( dstAddr.addrMode == afAddr64Bit ) )// loopback support
//  457   {
//  458     retValue = MT_GpGenerateResponse( dstAddr.addr.extAddr, dataLen, pBuf );
//  459   }
//  460 #endif
//  461   else
//  462   {
//  463     retValue = AF_DataRequest(&dstAddr, epDesc, cId, dataLen, pBuf, &transId, txOpts, radius);
??MT_AfDataRequest_10:
        ; Setup parameters for call to function AF_DataRequest
        MOV     A,?V7
        MOV     ?V4,A
        MOV     R0,#?V4
        LCALL   ?PUSH_XSTACK_I_ONE
          CFI CFA_XSP16 add(XSP16, 36)
        MOV     A,#0x2
        LCALL   ?XSTACK_DISP100_8
        MOV     ?V4,R0
        MOV     ?V5,R1
        MOV     R0,#?V4
        LCALL   ?PUSH_XSTACK_I_TWO
          CFI CFA_XSP16 add(XSP16, 38)
        MOV     ?V4,R6
        MOV     ?V5,R7
        MOV     R0,#?V4
        LCALL   ?PUSH_XSTACK_I_TWO
          CFI CFA_XSP16 add(XSP16, 40)
        MOV     R0,#?V0
        LCALL   ?PUSH_XSTACK_I_TWO
          CFI CFA_XSP16 add(XSP16, 42)
        MOV     R0,#?V2
        LCALL   ?PUSH_XSTACK_I_TWO
          CFI CFA_XSP16 add(XSP16, 44)
        MOV     R1,?V8
        MOV     R4,?V10
        MOV     R5,?V11
        MOV     A,#0xb
        LCALL   ?XSTACK_DISP101_8
        LCALL   `??AF_DataRequest::?relay`; Banked call to: AF_DataRequest
        MOV     A,#0x9
        LCALL   ?DEALLOC_XSTACK8
          CFI CFA_XSP16 add(XSP16, 35)
        MOV     A,R1
        MOV     DPL,?XSP + 0
        MOV     DPH,?XSP + 1
??MT_AfDataRequest_12:
        MOVX    @DPTR,A
//  464   }
//  465 
//  466   if (MT_RPC_CMD_SREQ == (cmd0 & MT_RPC_CMD_TYPE_MASK))
??MT_AfDataRequest_14:
        MOV     A,#-0x20
        ANL     A,?V12
        XRL     A,#0x20
        JNZ     ??MT_AfDataRequest_15
//  467   {
//  468     MT_BuildAndSendZToolResponse(((uint8)MT_RPC_CMD_SRSP|(uint8)MT_RPC_SYS_AF), cmd1, 1, &retValue);
        ; Setup parameters for call to function MT_BuildAndSendZToolResponse
        MOV     R4,?XSP + 0
        MOV     R5,?XSP + 1
        MOV     R3,#0x1
        MOV     R2,?V9
        MOV     R1,#0x64
        LCALL   `??MT_BuildAndSendZToolResponse::?relay`; Banked call to: MT_BuildAndSendZToolResponse
//  469   }
//  470 }
??MT_AfDataRequest_15:
          CFI EndBlock cfiBlock19
        REQUIRE ?Subroutine2
        ; // Fall through to label ?Subroutine2

        RSEG BANKED_CODE:CODE:NOROOT(0)
?Subroutine2:
          CFI Block cfiBlock20 Using cfiCommon0
          CFI NoFunction
          CFI CFA_SP SP+0
          CFI CFA_XSP16 add(XSP16, 35)
          CFI VB load(1, XDATA, add(CFA_XSP16, literal(-20)))
          CFI DPL0 load(1, XDATA, add(CFA_XSP16, literal(-2)))
          CFI DPH0 load(1, XDATA, add(CFA_XSP16, literal(-1)))
          CFI R6 load(1, XDATA, add(CFA_XSP16, literal(-21)))
          CFI R7 load(1, XDATA, add(CFA_XSP16, literal(-6)))
          CFI V0 load(1, XDATA, add(CFA_XSP16, literal(-19)))
          CFI V1 load(1, XDATA, add(CFA_XSP16, literal(-18)))
          CFI V2 load(1, XDATA, add(CFA_XSP16, literal(-17)))
          CFI V3 load(1, XDATA, add(CFA_XSP16, literal(-16)))
          CFI V4 load(1, XDATA, add(CFA_XSP16, literal(-15)))
          CFI V5 load(1, XDATA, add(CFA_XSP16, literal(-14)))
          CFI V6 load(1, XDATA, add(CFA_XSP16, literal(-13)))
          CFI V7 load(1, XDATA, add(CFA_XSP16, literal(-12)))
          CFI V8 load(1, XDATA, add(CFA_XSP16, literal(-11)))
          CFI V9 load(1, XDATA, add(CFA_XSP16, literal(-10)))
          CFI V10 load(1, XDATA, add(CFA_XSP16, literal(-9)))
          CFI V11 load(1, XDATA, add(CFA_XSP16, literal(-8)))
          CFI V12 load(1, XDATA, add(CFA_XSP16, literal(-7)))
          CFI ?BRET_EXT load(1, XDATA, add(CFA_XSP16, literal(-3)))
          CFI ?RET_HIGH load(1, XDATA, add(CFA_XSP16, literal(-4)))
          CFI ?RET_LOW load(1, XDATA, add(CFA_XSP16, literal(-5)))
        MOV     A,#0xe
        LCALL   ?DEALLOC_XSTACK8
          CFI CFA_XSP16 add(XSP16, 21)
        MOV     R7,#0xd
        LJMP    ?BANKED_LEAVE_XDATA
          CFI CFA_SP SP+-3
          CFI CFA_XSP16 XSP16+0
          CFI VB SameValue
          CFI DPL0 SameValue
          CFI DPH0 SameValue
          CFI R6 SameValue
          CFI R7 SameValue
          CFI V0 SameValue
          CFI V1 SameValue
          CFI V2 SameValue
          CFI V3 SameValue
          CFI V4 SameValue
          CFI V5 SameValue
          CFI V6 SameValue
          CFI V7 SameValue
          CFI V8 SameValue
          CFI V9 SameValue
          CFI V10 SameValue
          CFI V11 SameValue
          CFI V12 SameValue
          CFI ?BRET_EXT Frame(CFA_SP, 3)
          CFI ?RET_HIGH Frame(CFA_SP, 2)
          CFI ?RET_LOW Frame(CFA_SP, 1)
          CFI EndBlock cfiBlock20

        RSEG BANKED_CODE:CODE:NOROOT(0)
?Subroutine26:
          CFI Block cfiCond21 Using cfiCommon0
          CFI Function MT_AfDataRequest
          CFI Conditional ??CrossCallReturnLabel_88
          CFI R6 load(1, XDATA, add(CFA_XSP16, literal(-21)))
          CFI VB load(1, XDATA, add(CFA_XSP16, literal(-20)))
          CFI V0 load(1, XDATA, add(CFA_XSP16, literal(-19)))
          CFI V1 load(1, XDATA, add(CFA_XSP16, literal(-18)))
          CFI V2 load(1, XDATA, add(CFA_XSP16, literal(-17)))
          CFI V3 load(1, XDATA, add(CFA_XSP16, literal(-16)))
          CFI V4 load(1, XDATA, add(CFA_XSP16, literal(-15)))
          CFI V5 load(1, XDATA, add(CFA_XSP16, literal(-14)))
          CFI V6 load(1, XDATA, add(CFA_XSP16, literal(-13)))
          CFI V7 load(1, XDATA, add(CFA_XSP16, literal(-12)))
          CFI V8 load(1, XDATA, add(CFA_XSP16, literal(-11)))
          CFI V9 load(1, XDATA, add(CFA_XSP16, literal(-10)))
          CFI V10 load(1, XDATA, add(CFA_XSP16, literal(-9)))
          CFI V11 load(1, XDATA, add(CFA_XSP16, literal(-8)))
          CFI V12 load(1, XDATA, add(CFA_XSP16, literal(-7)))
          CFI R7 load(1, XDATA, add(CFA_XSP16, literal(-6)))
          CFI ?RET_LOW load(1, XDATA, add(CFA_XSP16, literal(-5)))
          CFI ?RET_HIGH load(1, XDATA, add(CFA_XSP16, literal(-4)))
          CFI ?BRET_EXT load(1, XDATA, add(CFA_XSP16, literal(-3)))
          CFI DPL0 load(1, XDATA, add(CFA_XSP16, literal(-2)))
          CFI DPH0 load(1, XDATA, add(CFA_XSP16, literal(-1)))
          CFI CFA_SP SP+-2
          CFI CFA_XSP16 add(XSP16, 35)
          CFI Block cfiCond22 Using cfiCommon0
          CFI (cfiCond22) Function MT_AfDataRequestSrcRtg
          CFI (cfiCond22) Conditional ??CrossCallReturnLabel_89
          CFI (cfiCond22) R6 load(1, XDATA, add(CFA_XSP16, literal(-21)))
          CFI (cfiCond22) VB load(1, XDATA, add(CFA_XSP16, literal(-20)))
          CFI (cfiCond22) V0 load(1, XDATA, add(CFA_XSP16, literal(-19)))
          CFI (cfiCond22) V1 load(1, XDATA, add(CFA_XSP16, literal(-18)))
          CFI (cfiCond22) V2 load(1, XDATA, add(CFA_XSP16, literal(-17)))
          CFI (cfiCond22) V3 load(1, XDATA, add(CFA_XSP16, literal(-16)))
          CFI (cfiCond22) V4 load(1, XDATA, add(CFA_XSP16, literal(-15)))
          CFI (cfiCond22) V5 load(1, XDATA, add(CFA_XSP16, literal(-14)))
          CFI (cfiCond22) V6 load(1, XDATA, add(CFA_XSP16, literal(-13)))
          CFI (cfiCond22) V7 load(1, XDATA, add(CFA_XSP16, literal(-12)))
          CFI (cfiCond22) V8 load(1, XDATA, add(CFA_XSP16, literal(-11)))
          CFI (cfiCond22) V9 load(1, XDATA, add(CFA_XSP16, literal(-10)))
          CFI (cfiCond22) V10 load(1, XDATA, add(CFA_XSP16, literal(-9)))
          CFI (cfiCond22) V11 load(1, XDATA, add(CFA_XSP16, literal(-8)))
          CFI (cfiCond22) V12 load(1, XDATA, add(CFA_XSP16, literal(-7)))
          CFI (cfiCond22) R7 load(1, XDATA, add(CFA_XSP16, literal(-6)))
          CFI (cfiCond22) ?RET_LOW load(1, XDATA, add(CFA_XSP16, literal(-5)))
          CFI (cfiCond22) ?RET_HIGH load(1, XDATA, add(CFA_XSP16, literal(-4)))
          CFI (cfiCond22) ?BRET_EXT load(1, XDATA, add(CFA_XSP16, literal(-3)))
          CFI (cfiCond22) DPL0 load(1, XDATA, add(CFA_XSP16, literal(-2)))
          CFI (cfiCond22) DPH0 load(1, XDATA, add(CFA_XSP16, literal(-1)))
          CFI (cfiCond22) CFA_SP SP+-2
          CFI (cfiCond22) CFA_XSP16 add(XSP16, 35)
          CFI Block cfiPicker23 Using cfiCommon1
          CFI (cfiPicker23) NoFunction
          CFI (cfiPicker23) Picker
        MOV     A,R0
        MOVX    @DPTR,A
        INC     DPTR
        MOV     A,R1
          CFI EndBlock cfiCond21
          CFI EndBlock cfiCond22
          CFI EndBlock cfiPicker23
        REQUIRE ??Subroutine49_0
        ; // Fall through to label ??Subroutine49_0

        RSEG BANKED_CODE:CODE:NOROOT(0)
??Subroutine49_0:
          CFI Block cfiCond24 Using cfiCommon0
          CFI Function MT_AfDataRequestSrcRtg
          CFI Conditional ??CrossCallReturnLabel_90
          CFI R6 load(1, XDATA, add(CFA_XSP16, literal(-21)))
          CFI VB load(1, XDATA, add(CFA_XSP16, literal(-20)))
          CFI V0 load(1, XDATA, add(CFA_XSP16, literal(-19)))
          CFI V1 load(1, XDATA, add(CFA_XSP16, literal(-18)))
          CFI V2 load(1, XDATA, add(CFA_XSP16, literal(-17)))
          CFI V3 load(1, XDATA, add(CFA_XSP16, literal(-16)))
          CFI V4 load(1, XDATA, add(CFA_XSP16, literal(-15)))
          CFI V5 load(1, XDATA, add(CFA_XSP16, literal(-14)))
          CFI V6 load(1, XDATA, add(CFA_XSP16, literal(-13)))
          CFI V7 load(1, XDATA, add(CFA_XSP16, literal(-12)))
          CFI V8 load(1, XDATA, add(CFA_XSP16, literal(-11)))
          CFI V9 load(1, XDATA, add(CFA_XSP16, literal(-10)))
          CFI V10 load(1, XDATA, add(CFA_XSP16, literal(-9)))
          CFI V11 load(1, XDATA, add(CFA_XSP16, literal(-8)))
          CFI V12 load(1, XDATA, add(CFA_XSP16, literal(-7)))
          CFI R7 load(1, XDATA, add(CFA_XSP16, literal(-6)))
          CFI ?RET_LOW load(1, XDATA, add(CFA_XSP16, literal(-5)))
          CFI ?RET_HIGH load(1, XDATA, add(CFA_XSP16, literal(-4)))
          CFI ?BRET_EXT load(1, XDATA, add(CFA_XSP16, literal(-3)))
          CFI DPL0 load(1, XDATA, add(CFA_XSP16, literal(-2)))
          CFI DPH0 load(1, XDATA, add(CFA_XSP16, literal(-1)))
          CFI CFA_SP SP+-2
          CFI CFA_XSP16 add(XSP16, 35)
          CFI Block cfiCond25 Using cfiCommon0
          CFI (cfiCond25) Function MT_AfDataRequest
          CFI (cfiCond25) Conditional ??CrossCallReturnLabel_88
          CFI (cfiCond25) R6 load(1, XDATA, add(CFA_XSP16, literal(-21)))
          CFI (cfiCond25) VB load(1, XDATA, add(CFA_XSP16, literal(-20)))
          CFI (cfiCond25) V0 load(1, XDATA, add(CFA_XSP16, literal(-19)))
          CFI (cfiCond25) V1 load(1, XDATA, add(CFA_XSP16, literal(-18)))
          CFI (cfiCond25) V2 load(1, XDATA, add(CFA_XSP16, literal(-17)))
          CFI (cfiCond25) V3 load(1, XDATA, add(CFA_XSP16, literal(-16)))
          CFI (cfiCond25) V4 load(1, XDATA, add(CFA_XSP16, literal(-15)))
          CFI (cfiCond25) V5 load(1, XDATA, add(CFA_XSP16, literal(-14)))
          CFI (cfiCond25) V6 load(1, XDATA, add(CFA_XSP16, literal(-13)))
          CFI (cfiCond25) V7 load(1, XDATA, add(CFA_XSP16, literal(-12)))
          CFI (cfiCond25) V8 load(1, XDATA, add(CFA_XSP16, literal(-11)))
          CFI (cfiCond25) V9 load(1, XDATA, add(CFA_XSP16, literal(-10)))
          CFI (cfiCond25) V10 load(1, XDATA, add(CFA_XSP16, literal(-9)))
          CFI (cfiCond25) V11 load(1, XDATA, add(CFA_XSP16, literal(-8)))
          CFI (cfiCond25) V12 load(1, XDATA, add(CFA_XSP16, literal(-7)))
          CFI (cfiCond25) R7 load(1, XDATA, add(CFA_XSP16, literal(-6)))
          CFI (cfiCond25) ?RET_LOW load(1, XDATA, add(CFA_XSP16, literal(-5)))
          CFI (cfiCond25) ?RET_HIGH load(1, XDATA, add(CFA_XSP16, literal(-4)))
          CFI (cfiCond25) ?BRET_EXT load(1, XDATA, add(CFA_XSP16, literal(-3)))
          CFI (cfiCond25) DPL0 load(1, XDATA, add(CFA_XSP16, literal(-2)))
          CFI (cfiCond25) DPH0 load(1, XDATA, add(CFA_XSP16, literal(-1)))
          CFI (cfiCond25) CFA_SP SP+-2
          CFI (cfiCond25) CFA_XSP16 add(XSP16, 35)
          CFI Block cfiCond26 Using cfiCommon0
          CFI (cfiCond26) Function MT_AfDataRequestSrcRtg
          CFI (cfiCond26) Conditional ??CrossCallReturnLabel_89
          CFI (cfiCond26) R6 load(1, XDATA, add(CFA_XSP16, literal(-21)))
          CFI (cfiCond26) VB load(1, XDATA, add(CFA_XSP16, literal(-20)))
          CFI (cfiCond26) V0 load(1, XDATA, add(CFA_XSP16, literal(-19)))
          CFI (cfiCond26) V1 load(1, XDATA, add(CFA_XSP16, literal(-18)))
          CFI (cfiCond26) V2 load(1, XDATA, add(CFA_XSP16, literal(-17)))
          CFI (cfiCond26) V3 load(1, XDATA, add(CFA_XSP16, literal(-16)))
          CFI (cfiCond26) V4 load(1, XDATA, add(CFA_XSP16, literal(-15)))
          CFI (cfiCond26) V5 load(1, XDATA, add(CFA_XSP16, literal(-14)))
          CFI (cfiCond26) V6 load(1, XDATA, add(CFA_XSP16, literal(-13)))
          CFI (cfiCond26) V7 load(1, XDATA, add(CFA_XSP16, literal(-12)))
          CFI (cfiCond26) V8 load(1, XDATA, add(CFA_XSP16, literal(-11)))
          CFI (cfiCond26) V9 load(1, XDATA, add(CFA_XSP16, literal(-10)))
          CFI (cfiCond26) V10 load(1, XDATA, add(CFA_XSP16, literal(-9)))
          CFI (cfiCond26) V11 load(1, XDATA, add(CFA_XSP16, literal(-8)))
          CFI (cfiCond26) V12 load(1, XDATA, add(CFA_XSP16, literal(-7)))
          CFI (cfiCond26) R7 load(1, XDATA, add(CFA_XSP16, literal(-6)))
          CFI (cfiCond26) ?RET_LOW load(1, XDATA, add(CFA_XSP16, literal(-5)))
          CFI (cfiCond26) ?RET_HIGH load(1, XDATA, add(CFA_XSP16, literal(-4)))
          CFI (cfiCond26) ?BRET_EXT load(1, XDATA, add(CFA_XSP16, literal(-3)))
          CFI (cfiCond26) DPL0 load(1, XDATA, add(CFA_XSP16, literal(-2)))
          CFI (cfiCond26) DPH0 load(1, XDATA, add(CFA_XSP16, literal(-1)))
          CFI (cfiCond26) CFA_SP SP+-2
          CFI (cfiCond26) CFA_XSP16 add(XSP16, 35)
          CFI Block cfiPicker27 Using cfiCommon1
          CFI (cfiPicker27) NoFunction
          CFI (cfiPicker27) Picker
        LCALL   ?Subroutine40 & 0xFFFF
??CrossCallReturnLabel_92:
        INC     DPTR
        MOVX    A,@DPTR
        RET
          CFI (cfiCond24) CFA_SP SP+0
          CFI (cfiCond25) CFA_SP SP+0
          CFI (cfiCond26) CFA_SP SP+0
          CFI (cfiPicker27) CFA_SP SP+0
          CFI EndBlock cfiCond24
          CFI EndBlock cfiCond25
          CFI EndBlock cfiCond26
          CFI EndBlock cfiPicker27

        RSEG BANKED_CODE:CODE:NOROOT(0)
?Subroutine40:
          CFI Block cfiCond28 Using cfiCommon0
          CFI Function MT_AfDataRequest
          CFI Conditional ??CrossCallReturnLabel_91
          CFI R6 load(1, XDATA, add(CFA_XSP16, literal(-21)))
          CFI VB load(1, XDATA, add(CFA_XSP16, literal(-20)))
          CFI V0 load(1, XDATA, add(CFA_XSP16, literal(-19)))
          CFI V1 load(1, XDATA, add(CFA_XSP16, literal(-18)))
          CFI V2 load(1, XDATA, add(CFA_XSP16, literal(-17)))
          CFI V3 load(1, XDATA, add(CFA_XSP16, literal(-16)))
          CFI V4 load(1, XDATA, add(CFA_XSP16, literal(-15)))
          CFI V5 load(1, XDATA, add(CFA_XSP16, literal(-14)))
          CFI V6 load(1, XDATA, add(CFA_XSP16, literal(-13)))
          CFI V7 load(1, XDATA, add(CFA_XSP16, literal(-12)))
          CFI V8 load(1, XDATA, add(CFA_XSP16, literal(-11)))
          CFI V9 load(1, XDATA, add(CFA_XSP16, literal(-10)))
          CFI V10 load(1, XDATA, add(CFA_XSP16, literal(-9)))
          CFI V11 load(1, XDATA, add(CFA_XSP16, literal(-8)))
          CFI V12 load(1, XDATA, add(CFA_XSP16, literal(-7)))
          CFI R7 load(1, XDATA, add(CFA_XSP16, literal(-6)))
          CFI ?RET_LOW load(1, XDATA, add(CFA_XSP16, literal(-5)))
          CFI ?RET_HIGH load(1, XDATA, add(CFA_XSP16, literal(-4)))
          CFI ?BRET_EXT load(1, XDATA, add(CFA_XSP16, literal(-3)))
          CFI DPL0 load(1, XDATA, add(CFA_XSP16, literal(-2)))
          CFI DPH0 load(1, XDATA, add(CFA_XSP16, literal(-1)))
          CFI CFA_SP SP+-2
          CFI CFA_XSP16 add(XSP16, 35)
          CFI Block cfiCond29 Using cfiCommon0
          CFI (cfiCond29) Function MT_AfDataRequest
          CFI (cfiCond29) Conditional ??CrossCallReturnLabel_92, ??CrossCallReturnLabel_88
          CFI (cfiCond29) R6 load(1, XDATA, add(CFA_XSP16, literal(-21)))
          CFI (cfiCond29) VB load(1, XDATA, add(CFA_XSP16, literal(-20)))
          CFI (cfiCond29) V0 load(1, XDATA, add(CFA_XSP16, literal(-19)))
          CFI (cfiCond29) V1 load(1, XDATA, add(CFA_XSP16, literal(-18)))
          CFI (cfiCond29) V2 load(1, XDATA, add(CFA_XSP16, literal(-17)))
          CFI (cfiCond29) V3 load(1, XDATA, add(CFA_XSP16, literal(-16)))
          CFI (cfiCond29) V4 load(1, XDATA, add(CFA_XSP16, literal(-15)))
          CFI (cfiCond29) V5 load(1, XDATA, add(CFA_XSP16, literal(-14)))
          CFI (cfiCond29) V6 load(1, XDATA, add(CFA_XSP16, literal(-13)))
          CFI (cfiCond29) V7 load(1, XDATA, add(CFA_XSP16, literal(-12)))
          CFI (cfiCond29) V8 load(1, XDATA, add(CFA_XSP16, literal(-11)))
          CFI (cfiCond29) V9 load(1, XDATA, add(CFA_XSP16, literal(-10)))
          CFI (cfiCond29) V10 load(1, XDATA, add(CFA_XSP16, literal(-9)))
          CFI (cfiCond29) V11 load(1, XDATA, add(CFA_XSP16, literal(-8)))
          CFI (cfiCond29) V12 load(1, XDATA, add(CFA_XSP16, literal(-7)))
          CFI (cfiCond29) R7 load(1, XDATA, add(CFA_XSP16, literal(-6)))
          CFI (cfiCond29) ?RET_LOW load(1, XDATA, add(CFA_XSP16, literal(-5)))
          CFI (cfiCond29) ?RET_HIGH load(1, XDATA, add(CFA_XSP16, literal(-4)))
          CFI (cfiCond29) ?BRET_EXT load(1, XDATA, add(CFA_XSP16, literal(-3)))
          CFI (cfiCond29) DPL0 load(1, XDATA, add(CFA_XSP16, literal(-2)))
          CFI (cfiCond29) DPH0 load(1, XDATA, add(CFA_XSP16, literal(-1)))
          CFI (cfiCond29) CFA_SP SP+-4
          CFI (cfiCond29) CFA_XSP16 add(XSP16, 35)
          CFI Block cfiCond30 Using cfiCommon0
          CFI (cfiCond30) Function MT_AfDataRequestSrcRtg
          CFI (cfiCond30) Conditional ??CrossCallReturnLabel_92, ??CrossCallReturnLabel_89
          CFI (cfiCond30) R6 load(1, XDATA, add(CFA_XSP16, literal(-21)))
          CFI (cfiCond30) VB load(1, XDATA, add(CFA_XSP16, literal(-20)))
          CFI (cfiCond30) V0 load(1, XDATA, add(CFA_XSP16, literal(-19)))
          CFI (cfiCond30) V1 load(1, XDATA, add(CFA_XSP16, literal(-18)))
          CFI (cfiCond30) V2 load(1, XDATA, add(CFA_XSP16, literal(-17)))
          CFI (cfiCond30) V3 load(1, XDATA, add(CFA_XSP16, literal(-16)))
          CFI (cfiCond30) V4 load(1, XDATA, add(CFA_XSP16, literal(-15)))
          CFI (cfiCond30) V5 load(1, XDATA, add(CFA_XSP16, literal(-14)))
          CFI (cfiCond30) V6 load(1, XDATA, add(CFA_XSP16, literal(-13)))
          CFI (cfiCond30) V7 load(1, XDATA, add(CFA_XSP16, literal(-12)))
          CFI (cfiCond30) V8 load(1, XDATA, add(CFA_XSP16, literal(-11)))
          CFI (cfiCond30) V9 load(1, XDATA, add(CFA_XSP16, literal(-10)))
          CFI (cfiCond30) V10 load(1, XDATA, add(CFA_XSP16, literal(-9)))
          CFI (cfiCond30) V11 load(1, XDATA, add(CFA_XSP16, literal(-8)))
          CFI (cfiCond30) V12 load(1, XDATA, add(CFA_XSP16, literal(-7)))
          CFI (cfiCond30) R7 load(1, XDATA, add(CFA_XSP16, literal(-6)))
          CFI (cfiCond30) ?RET_LOW load(1, XDATA, add(CFA_XSP16, literal(-5)))
          CFI (cfiCond30) ?RET_HIGH load(1, XDATA, add(CFA_XSP16, literal(-4)))
          CFI (cfiCond30) ?BRET_EXT load(1, XDATA, add(CFA_XSP16, literal(-3)))
          CFI (cfiCond30) DPL0 load(1, XDATA, add(CFA_XSP16, literal(-2)))
          CFI (cfiCond30) DPH0 load(1, XDATA, add(CFA_XSP16, literal(-1)))
          CFI (cfiCond30) CFA_SP SP+-4
          CFI (cfiCond30) CFA_XSP16 add(XSP16, 35)
          CFI Block cfiCond31 Using cfiCommon0
          CFI (cfiCond31) Function MT_AfDataRequestSrcRtg
          CFI (cfiCond31) Conditional ??CrossCallReturnLabel_92, ??CrossCallReturnLabel_90
          CFI (cfiCond31) R6 load(1, XDATA, add(CFA_XSP16, literal(-21)))
          CFI (cfiCond31) VB load(1, XDATA, add(CFA_XSP16, literal(-20)))
          CFI (cfiCond31) V0 load(1, XDATA, add(CFA_XSP16, literal(-19)))
          CFI (cfiCond31) V1 load(1, XDATA, add(CFA_XSP16, literal(-18)))
          CFI (cfiCond31) V2 load(1, XDATA, add(CFA_XSP16, literal(-17)))
          CFI (cfiCond31) V3 load(1, XDATA, add(CFA_XSP16, literal(-16)))
          CFI (cfiCond31) V4 load(1, XDATA, add(CFA_XSP16, literal(-15)))
          CFI (cfiCond31) V5 load(1, XDATA, add(CFA_XSP16, literal(-14)))
          CFI (cfiCond31) V6 load(1, XDATA, add(CFA_XSP16, literal(-13)))
          CFI (cfiCond31) V7 load(1, XDATA, add(CFA_XSP16, literal(-12)))
          CFI (cfiCond31) V8 load(1, XDATA, add(CFA_XSP16, literal(-11)))
          CFI (cfiCond31) V9 load(1, XDATA, add(CFA_XSP16, literal(-10)))
          CFI (cfiCond31) V10 load(1, XDATA, add(CFA_XSP16, literal(-9)))
          CFI (cfiCond31) V11 load(1, XDATA, add(CFA_XSP16, literal(-8)))
          CFI (cfiCond31) V12 load(1, XDATA, add(CFA_XSP16, literal(-7)))
          CFI (cfiCond31) R7 load(1, XDATA, add(CFA_XSP16, literal(-6)))
          CFI (cfiCond31) ?RET_LOW load(1, XDATA, add(CFA_XSP16, literal(-5)))
          CFI (cfiCond31) ?RET_HIGH load(1, XDATA, add(CFA_XSP16, literal(-4)))
          CFI (cfiCond31) ?BRET_EXT load(1, XDATA, add(CFA_XSP16, literal(-3)))
          CFI (cfiCond31) DPL0 load(1, XDATA, add(CFA_XSP16, literal(-2)))
          CFI (cfiCond31) DPH0 load(1, XDATA, add(CFA_XSP16, literal(-1)))
          CFI (cfiCond31) CFA_SP SP+-4
          CFI (cfiCond31) CFA_XSP16 add(XSP16, 35)
          CFI Block cfiCond32 Using cfiCommon0
          CFI (cfiCond32) Function MT_AfDataRequestSrcRtg
          CFI (cfiCond32) Conditional ??CrossCallReturnLabel_93, ??CrossCallReturnLabel_46
          CFI (cfiCond32) R6 load(1, XDATA, add(CFA_XSP16, literal(-21)))
          CFI (cfiCond32) VB load(1, XDATA, add(CFA_XSP16, literal(-20)))
          CFI (cfiCond32) V0 load(1, XDATA, add(CFA_XSP16, literal(-19)))
          CFI (cfiCond32) V1 load(1, XDATA, add(CFA_XSP16, literal(-18)))
          CFI (cfiCond32) V2 load(1, XDATA, add(CFA_XSP16, literal(-17)))
          CFI (cfiCond32) V3 load(1, XDATA, add(CFA_XSP16, literal(-16)))
          CFI (cfiCond32) V4 load(1, XDATA, add(CFA_XSP16, literal(-15)))
          CFI (cfiCond32) V5 load(1, XDATA, add(CFA_XSP16, literal(-14)))
          CFI (cfiCond32) V6 load(1, XDATA, add(CFA_XSP16, literal(-13)))
          CFI (cfiCond32) V7 load(1, XDATA, add(CFA_XSP16, literal(-12)))
          CFI (cfiCond32) V8 load(1, XDATA, add(CFA_XSP16, literal(-11)))
          CFI (cfiCond32) V9 load(1, XDATA, add(CFA_XSP16, literal(-10)))
          CFI (cfiCond32) V10 load(1, XDATA, add(CFA_XSP16, literal(-9)))
          CFI (cfiCond32) V11 load(1, XDATA, add(CFA_XSP16, literal(-8)))
          CFI (cfiCond32) V12 load(1, XDATA, add(CFA_XSP16, literal(-7)))
          CFI (cfiCond32) R7 load(1, XDATA, add(CFA_XSP16, literal(-6)))
          CFI (cfiCond32) ?RET_LOW load(1, XDATA, add(CFA_XSP16, literal(-5)))
          CFI (cfiCond32) ?RET_HIGH load(1, XDATA, add(CFA_XSP16, literal(-4)))
          CFI (cfiCond32) ?BRET_EXT load(1, XDATA, add(CFA_XSP16, literal(-3)))
          CFI (cfiCond32) DPL0 load(1, XDATA, add(CFA_XSP16, literal(-2)))
          CFI (cfiCond32) DPH0 load(1, XDATA, add(CFA_XSP16, literal(-1)))
          CFI (cfiCond32) CFA_SP SP+-4
          CFI (cfiCond32) CFA_XSP16 add(XSP16, 35)
          CFI Block cfiCond33 Using cfiCommon0
          CFI (cfiCond33) Function MT_AfDataRequestSrcRtg
          CFI (cfiCond33) Conditional ??CrossCallReturnLabel_93, ??CrossCallReturnLabel_47
          CFI (cfiCond33) R6 load(1, XDATA, add(CFA_XSP16, literal(-21)))
          CFI (cfiCond33) VB load(1, XDATA, add(CFA_XSP16, literal(-20)))
          CFI (cfiCond33) V0 load(1, XDATA, add(CFA_XSP16, literal(-19)))
          CFI (cfiCond33) V1 load(1, XDATA, add(CFA_XSP16, literal(-18)))
          CFI (cfiCond33) V2 load(1, XDATA, add(CFA_XSP16, literal(-17)))
          CFI (cfiCond33) V3 load(1, XDATA, add(CFA_XSP16, literal(-16)))
          CFI (cfiCond33) V4 load(1, XDATA, add(CFA_XSP16, literal(-15)))
          CFI (cfiCond33) V5 load(1, XDATA, add(CFA_XSP16, literal(-14)))
          CFI (cfiCond33) V6 load(1, XDATA, add(CFA_XSP16, literal(-13)))
          CFI (cfiCond33) V7 load(1, XDATA, add(CFA_XSP16, literal(-12)))
          CFI (cfiCond33) V8 load(1, XDATA, add(CFA_XSP16, literal(-11)))
          CFI (cfiCond33) V9 load(1, XDATA, add(CFA_XSP16, literal(-10)))
          CFI (cfiCond33) V10 load(1, XDATA, add(CFA_XSP16, literal(-9)))
          CFI (cfiCond33) V11 load(1, XDATA, add(CFA_XSP16, literal(-8)))
          CFI (cfiCond33) V12 load(1, XDATA, add(CFA_XSP16, literal(-7)))
          CFI (cfiCond33) R7 load(1, XDATA, add(CFA_XSP16, literal(-6)))
          CFI (cfiCond33) ?RET_LOW load(1, XDATA, add(CFA_XSP16, literal(-5)))
          CFI (cfiCond33) ?RET_HIGH load(1, XDATA, add(CFA_XSP16, literal(-4)))
          CFI (cfiCond33) ?BRET_EXT load(1, XDATA, add(CFA_XSP16, literal(-3)))
          CFI (cfiCond33) DPL0 load(1, XDATA, add(CFA_XSP16, literal(-2)))
          CFI (cfiCond33) DPH0 load(1, XDATA, add(CFA_XSP16, literal(-1)))
          CFI (cfiCond33) CFA_SP SP+-4
          CFI (cfiCond33) CFA_XSP16 add(XSP16, 35)
          CFI Block cfiPicker34 Using cfiCommon1
          CFI (cfiPicker34) NoFunction
          CFI (cfiPicker34) Picker
        MOVX    @DPTR,A
        MOV     DPL,R6
        MOV     DPH,R7
        INC     DPTR
        RET
          CFI (cfiCond28) CFA_SP SP+0
          CFI (cfiCond29) CFA_SP SP+-2
          CFI (cfiCond30) CFA_SP SP+-2
          CFI (cfiCond31) CFA_SP SP+-2
          CFI (cfiCond32) CFA_SP SP+-2
          CFI (cfiCond33) CFA_SP SP+-2
          CFI (cfiPicker34) CFA_SP SP+0
          CFI EndBlock cfiCond28
          CFI EndBlock cfiCond29
          CFI EndBlock cfiCond30
          CFI EndBlock cfiCond31
          CFI EndBlock cfiCond32
          CFI EndBlock cfiCond33
          CFI EndBlock cfiPicker34

        RSEG BANKED_CODE:CODE:NOROOT(0)
?Subroutine8:
          CFI Block cfiCond35 Using cfiCommon0
          CFI Function MT_AfExec
          CFI Conditional ??CrossCallReturnLabel_7
          CFI R6 load(1, XDATA, add(CFA_XSP16, literal(-9)))
          CFI VB load(1, XDATA, add(CFA_XSP16, literal(-8)))
          CFI V0 load(1, XDATA, add(CFA_XSP16, literal(-7)))
          CFI R7 load(1, XDATA, add(CFA_XSP16, literal(-6)))
          CFI ?RET_LOW load(1, XDATA, add(CFA_XSP16, literal(-5)))
          CFI ?RET_HIGH load(1, XDATA, add(CFA_XSP16, literal(-4)))
          CFI ?BRET_EXT load(1, XDATA, add(CFA_XSP16, literal(-3)))
          CFI DPL0 load(1, XDATA, add(CFA_XSP16, literal(-2)))
          CFI DPH0 load(1, XDATA, add(CFA_XSP16, literal(-1)))
          CFI CFA_SP SP+-2
          CFI CFA_XSP16 add(XSP16, 9)
          CFI Block cfiCond36 Using cfiCommon0
          CFI (cfiCond36) Function MT_AfDataRequest
          CFI (cfiCond36) Conditional ??CrossCallReturnLabel_6
          CFI (cfiCond36) R6 load(1, XDATA, add(CFA_XSP16, literal(-21)))
          CFI (cfiCond36) VB load(1, XDATA, add(CFA_XSP16, literal(-20)))
          CFI (cfiCond36) V0 load(1, XDATA, add(CFA_XSP16, literal(-19)))
          CFI (cfiCond36) V1 load(1, XDATA, add(CFA_XSP16, literal(-18)))
          CFI (cfiCond36) V2 load(1, XDATA, add(CFA_XSP16, literal(-17)))
          CFI (cfiCond36) V3 load(1, XDATA, add(CFA_XSP16, literal(-16)))
          CFI (cfiCond36) V4 load(1, XDATA, add(CFA_XSP16, literal(-15)))
          CFI (cfiCond36) V5 load(1, XDATA, add(CFA_XSP16, literal(-14)))
          CFI (cfiCond36) V6 load(1, XDATA, add(CFA_XSP16, literal(-13)))
          CFI (cfiCond36) V7 load(1, XDATA, add(CFA_XSP16, literal(-12)))
          CFI (cfiCond36) V8 load(1, XDATA, add(CFA_XSP16, literal(-11)))
          CFI (cfiCond36) V9 load(1, XDATA, add(CFA_XSP16, literal(-10)))
          CFI (cfiCond36) V10 load(1, XDATA, add(CFA_XSP16, literal(-9)))
          CFI (cfiCond36) V11 load(1, XDATA, add(CFA_XSP16, literal(-8)))
          CFI (cfiCond36) V12 load(1, XDATA, add(CFA_XSP16, literal(-7)))
          CFI (cfiCond36) R7 load(1, XDATA, add(CFA_XSP16, literal(-6)))
          CFI (cfiCond36) ?RET_LOW load(1, XDATA, add(CFA_XSP16, literal(-5)))
          CFI (cfiCond36) ?RET_HIGH load(1, XDATA, add(CFA_XSP16, literal(-4)))
          CFI (cfiCond36) ?BRET_EXT load(1, XDATA, add(CFA_XSP16, literal(-3)))
          CFI (cfiCond36) DPL0 load(1, XDATA, add(CFA_XSP16, literal(-2)))
          CFI (cfiCond36) DPH0 load(1, XDATA, add(CFA_XSP16, literal(-1)))
          CFI (cfiCond36) CFA_SP SP+-2
          CFI (cfiCond36) CFA_XSP16 add(XSP16, 35)
          CFI Block cfiPicker37 Using cfiCommon1
          CFI (cfiPicker37) NoFunction
          CFI (cfiPicker37) Picker
        MOVX    @DPTR,A
        LCALL   ?Subroutine34 & 0xFFFF
??CrossCallReturnLabel_55:
        LCALL   ?Subroutine44 & 0xFFFF
??CrossCallReturnLabel_75:
        RET
          CFI (cfiCond35) CFA_SP SP+0
          CFI (cfiCond36) CFA_SP SP+0
          CFI (cfiPicker37) CFA_SP SP+0
          CFI EndBlock cfiCond35
          CFI EndBlock cfiCond36
          CFI EndBlock cfiPicker37

        RSEG BANKED_CODE:CODE:NOROOT(0)
?Subroutine44:
          CFI Block cfiCond38 Using cfiCommon0
          CFI Function MT_AfExec
          CFI Conditional ??CrossCallReturnLabel_74
          CFI R6 load(1, XDATA, add(CFA_XSP16, literal(-9)))
          CFI VB load(1, XDATA, add(CFA_XSP16, literal(-8)))
          CFI V0 load(1, XDATA, add(CFA_XSP16, literal(-7)))
          CFI R7 load(1, XDATA, add(CFA_XSP16, literal(-6)))
          CFI ?RET_LOW load(1, XDATA, add(CFA_XSP16, literal(-5)))
          CFI ?RET_HIGH load(1, XDATA, add(CFA_XSP16, literal(-4)))
          CFI ?BRET_EXT load(1, XDATA, add(CFA_XSP16, literal(-3)))
          CFI DPL0 load(1, XDATA, add(CFA_XSP16, literal(-2)))
          CFI DPH0 load(1, XDATA, add(CFA_XSP16, literal(-1)))
          CFI CFA_SP SP+-2
          CFI CFA_XSP16 add(XSP16, 9)
          CFI Block cfiCond39 Using cfiCommon0
          CFI (cfiCond39) Function MT_AfExec
          CFI (cfiCond39) Conditional ??CrossCallReturnLabel_75, ??CrossCallReturnLabel_7
          CFI (cfiCond39) R6 load(1, XDATA, add(CFA_XSP16, literal(-9)))
          CFI (cfiCond39) VB load(1, XDATA, add(CFA_XSP16, literal(-8)))
          CFI (cfiCond39) V0 load(1, XDATA, add(CFA_XSP16, literal(-7)))
          CFI (cfiCond39) R7 load(1, XDATA, add(CFA_XSP16, literal(-6)))
          CFI (cfiCond39) ?RET_LOW load(1, XDATA, add(CFA_XSP16, literal(-5)))
          CFI (cfiCond39) ?RET_HIGH load(1, XDATA, add(CFA_XSP16, literal(-4)))
          CFI (cfiCond39) ?BRET_EXT load(1, XDATA, add(CFA_XSP16, literal(-3)))
          CFI (cfiCond39) DPL0 load(1, XDATA, add(CFA_XSP16, literal(-2)))
          CFI (cfiCond39) DPH0 load(1, XDATA, add(CFA_XSP16, literal(-1)))
          CFI (cfiCond39) CFA_SP SP+-4
          CFI (cfiCond39) CFA_XSP16 add(XSP16, 9)
          CFI Block cfiCond40 Using cfiCommon0
          CFI (cfiCond40) Function MT_AfDataRequest
          CFI (cfiCond40) Conditional ??CrossCallReturnLabel_75, ??CrossCallReturnLabel_6
          CFI (cfiCond40) R6 load(1, XDATA, add(CFA_XSP16, literal(-21)))
          CFI (cfiCond40) VB load(1, XDATA, add(CFA_XSP16, literal(-20)))
          CFI (cfiCond40) V0 load(1, XDATA, add(CFA_XSP16, literal(-19)))
          CFI (cfiCond40) V1 load(1, XDATA, add(CFA_XSP16, literal(-18)))
          CFI (cfiCond40) V2 load(1, XDATA, add(CFA_XSP16, literal(-17)))
          CFI (cfiCond40) V3 load(1, XDATA, add(CFA_XSP16, literal(-16)))
          CFI (cfiCond40) V4 load(1, XDATA, add(CFA_XSP16, literal(-15)))
          CFI (cfiCond40) V5 load(1, XDATA, add(CFA_XSP16, literal(-14)))
          CFI (cfiCond40) V6 load(1, XDATA, add(CFA_XSP16, literal(-13)))
          CFI (cfiCond40) V7 load(1, XDATA, add(CFA_XSP16, literal(-12)))
          CFI (cfiCond40) V8 load(1, XDATA, add(CFA_XSP16, literal(-11)))
          CFI (cfiCond40) V9 load(1, XDATA, add(CFA_XSP16, literal(-10)))
          CFI (cfiCond40) V10 load(1, XDATA, add(CFA_XSP16, literal(-9)))
          CFI (cfiCond40) V11 load(1, XDATA, add(CFA_XSP16, literal(-8)))
          CFI (cfiCond40) V12 load(1, XDATA, add(CFA_XSP16, literal(-7)))
          CFI (cfiCond40) R7 load(1, XDATA, add(CFA_XSP16, literal(-6)))
          CFI (cfiCond40) ?RET_LOW load(1, XDATA, add(CFA_XSP16, literal(-5)))
          CFI (cfiCond40) ?RET_HIGH load(1, XDATA, add(CFA_XSP16, literal(-4)))
          CFI (cfiCond40) ?BRET_EXT load(1, XDATA, add(CFA_XSP16, literal(-3)))
          CFI (cfiCond40) DPL0 load(1, XDATA, add(CFA_XSP16, literal(-2)))
          CFI (cfiCond40) DPH0 load(1, XDATA, add(CFA_XSP16, literal(-1)))
          CFI (cfiCond40) CFA_SP SP+-4
          CFI (cfiCond40) CFA_XSP16 add(XSP16, 35)
          CFI Block cfiPicker41 Using cfiCommon1
          CFI (cfiPicker41) NoFunction
          CFI (cfiPicker41) Picker
        ADD     A,#0x17
        MOV     DPL,A
        CLR     A
        ADDC    A,R0
        MOV     DPH,A
        RET
          CFI (cfiCond38) CFA_SP SP+0
          CFI (cfiCond39) CFA_SP SP+-2
          CFI (cfiCond40) CFA_SP SP+-2
          CFI (cfiPicker41) CFA_SP SP+0
          CFI EndBlock cfiCond38
          CFI EndBlock cfiCond39
          CFI EndBlock cfiCond40
          CFI EndBlock cfiPicker41

        RSEG BANKED_CODE:CODE:NOROOT(0)
?Subroutine5:
          CFI Block cfiCond42 Using cfiCommon0
          CFI Function MT_AfExec
          CFI Conditional ??CrossCallReturnLabel_95
          CFI R6 load(1, XDATA, add(CFA_XSP16, literal(-9)))
          CFI VB load(1, XDATA, add(CFA_XSP16, literal(-8)))
          CFI V0 load(1, XDATA, add(CFA_XSP16, literal(-7)))
          CFI R7 load(1, XDATA, add(CFA_XSP16, literal(-6)))
          CFI ?RET_LOW load(1, XDATA, add(CFA_XSP16, literal(-5)))
          CFI ?RET_HIGH load(1, XDATA, add(CFA_XSP16, literal(-4)))
          CFI ?BRET_EXT load(1, XDATA, add(CFA_XSP16, literal(-3)))
          CFI DPL0 load(1, XDATA, add(CFA_XSP16, literal(-2)))
          CFI DPH0 load(1, XDATA, add(CFA_XSP16, literal(-1)))
          CFI CFA_SP SP+-2
          CFI CFA_XSP16 add(XSP16, 9)
          CFI Block cfiCond43 Using cfiCommon0
          CFI (cfiCond43) Function MT_AfExec
          CFI (cfiCond43) Conditional ??CrossCallReturnLabel_96
          CFI (cfiCond43) R6 load(1, XDATA, add(CFA_XSP16, literal(-9)))
          CFI (cfiCond43) VB load(1, XDATA, add(CFA_XSP16, literal(-8)))
          CFI (cfiCond43) V0 load(1, XDATA, add(CFA_XSP16, literal(-7)))
          CFI (cfiCond43) R7 load(1, XDATA, add(CFA_XSP16, literal(-6)))
          CFI (cfiCond43) ?RET_LOW load(1, XDATA, add(CFA_XSP16, literal(-5)))
          CFI (cfiCond43) ?RET_HIGH load(1, XDATA, add(CFA_XSP16, literal(-4)))
          CFI (cfiCond43) ?BRET_EXT load(1, XDATA, add(CFA_XSP16, literal(-3)))
          CFI (cfiCond43) DPL0 load(1, XDATA, add(CFA_XSP16, literal(-2)))
          CFI (cfiCond43) DPH0 load(1, XDATA, add(CFA_XSP16, literal(-1)))
          CFI (cfiCond43) CFA_SP SP+-2
          CFI (cfiCond43) CFA_XSP16 add(XSP16, 9)
          CFI Block cfiCond44 Using cfiCommon0
          CFI (cfiCond44) Function MT_AfDataRequest
          CFI (cfiCond44) Conditional ??CrossCallReturnLabel_97
          CFI (cfiCond44) R6 load(1, XDATA, add(CFA_XSP16, literal(-21)))
          CFI (cfiCond44) VB load(1, XDATA, add(CFA_XSP16, literal(-20)))
          CFI (cfiCond44) V0 load(1, XDATA, add(CFA_XSP16, literal(-19)))
          CFI (cfiCond44) V1 load(1, XDATA, add(CFA_XSP16, literal(-18)))
          CFI (cfiCond44) V2 load(1, XDATA, add(CFA_XSP16, literal(-17)))
          CFI (cfiCond44) V3 load(1, XDATA, add(CFA_XSP16, literal(-16)))
          CFI (cfiCond44) V4 load(1, XDATA, add(CFA_XSP16, literal(-15)))
          CFI (cfiCond44) V5 load(1, XDATA, add(CFA_XSP16, literal(-14)))
          CFI (cfiCond44) V6 load(1, XDATA, add(CFA_XSP16, literal(-13)))
          CFI (cfiCond44) V7 load(1, XDATA, add(CFA_XSP16, literal(-12)))
          CFI (cfiCond44) V8 load(1, XDATA, add(CFA_XSP16, literal(-11)))
          CFI (cfiCond44) V9 load(1, XDATA, add(CFA_XSP16, literal(-10)))
          CFI (cfiCond44) V10 load(1, XDATA, add(CFA_XSP16, literal(-9)))
          CFI (cfiCond44) V11 load(1, XDATA, add(CFA_XSP16, literal(-8)))
          CFI (cfiCond44) V12 load(1, XDATA, add(CFA_XSP16, literal(-7)))
          CFI (cfiCond44) R7 load(1, XDATA, add(CFA_XSP16, literal(-6)))
          CFI (cfiCond44) ?RET_LOW load(1, XDATA, add(CFA_XSP16, literal(-5)))
          CFI (cfiCond44) ?RET_HIGH load(1, XDATA, add(CFA_XSP16, literal(-4)))
          CFI (cfiCond44) ?BRET_EXT load(1, XDATA, add(CFA_XSP16, literal(-3)))
          CFI (cfiCond44) DPL0 load(1, XDATA, add(CFA_XSP16, literal(-2)))
          CFI (cfiCond44) DPH0 load(1, XDATA, add(CFA_XSP16, literal(-1)))
          CFI (cfiCond44) CFA_SP SP+-2
          CFI (cfiCond44) CFA_XSP16 add(XSP16, 35)
          CFI Block cfiCond45 Using cfiCommon0
          CFI (cfiCond45) Function MT_AfDataRequest
          CFI (cfiCond45) Conditional ??CrossCallReturnLabel_98
          CFI (cfiCond45) R6 load(1, XDATA, add(CFA_XSP16, literal(-21)))
          CFI (cfiCond45) VB load(1, XDATA, add(CFA_XSP16, literal(-20)))
          CFI (cfiCond45) V0 load(1, XDATA, add(CFA_XSP16, literal(-19)))
          CFI (cfiCond45) V1 load(1, XDATA, add(CFA_XSP16, literal(-18)))
          CFI (cfiCond45) V2 load(1, XDATA, add(CFA_XSP16, literal(-17)))
          CFI (cfiCond45) V3 load(1, XDATA, add(CFA_XSP16, literal(-16)))
          CFI (cfiCond45) V4 load(1, XDATA, add(CFA_XSP16, literal(-15)))
          CFI (cfiCond45) V5 load(1, XDATA, add(CFA_XSP16, literal(-14)))
          CFI (cfiCond45) V6 load(1, XDATA, add(CFA_XSP16, literal(-13)))
          CFI (cfiCond45) V7 load(1, XDATA, add(CFA_XSP16, literal(-12)))
          CFI (cfiCond45) V8 load(1, XDATA, add(CFA_XSP16, literal(-11)))
          CFI (cfiCond45) V9 load(1, XDATA, add(CFA_XSP16, literal(-10)))
          CFI (cfiCond45) V10 load(1, XDATA, add(CFA_XSP16, literal(-9)))
          CFI (cfiCond45) V11 load(1, XDATA, add(CFA_XSP16, literal(-8)))
          CFI (cfiCond45) V12 load(1, XDATA, add(CFA_XSP16, literal(-7)))
          CFI (cfiCond45) R7 load(1, XDATA, add(CFA_XSP16, literal(-6)))
          CFI (cfiCond45) ?RET_LOW load(1, XDATA, add(CFA_XSP16, literal(-5)))
          CFI (cfiCond45) ?RET_HIGH load(1, XDATA, add(CFA_XSP16, literal(-4)))
          CFI (cfiCond45) ?BRET_EXT load(1, XDATA, add(CFA_XSP16, literal(-3)))
          CFI (cfiCond45) DPL0 load(1, XDATA, add(CFA_XSP16, literal(-2)))
          CFI (cfiCond45) DPH0 load(1, XDATA, add(CFA_XSP16, literal(-1)))
          CFI (cfiCond45) CFA_SP SP+-2
          CFI (cfiCond45) CFA_XSP16 add(XSP16, 35)
          CFI Block cfiCond46 Using cfiCommon0
          CFI (cfiCond46) Function MT_AfDataStore
          CFI (cfiCond46) Conditional ??CrossCallReturnLabel_99
          CFI (cfiCond46) R6 load(1, XDATA, add(CFA_XSP16, literal(-14)))
          CFI (cfiCond46) VB load(1, XDATA, add(CFA_XSP16, literal(-13)))
          CFI (cfiCond46) V0 load(1, XDATA, add(CFA_XSP16, literal(-12)))
          CFI (cfiCond46) V1 load(1, XDATA, add(CFA_XSP16, literal(-11)))
          CFI (cfiCond46) V2 load(1, XDATA, add(CFA_XSP16, literal(-10)))
          CFI (cfiCond46) V3 load(1, XDATA, add(CFA_XSP16, literal(-9)))
          CFI (cfiCond46) V4 load(1, XDATA, add(CFA_XSP16, literal(-8)))
          CFI (cfiCond46) V5 load(1, XDATA, add(CFA_XSP16, literal(-7)))
          CFI (cfiCond46) R7 load(1, XDATA, add(CFA_XSP16, literal(-6)))
          CFI (cfiCond46) ?RET_LOW load(1, XDATA, add(CFA_XSP16, literal(-5)))
          CFI (cfiCond46) ?RET_HIGH load(1, XDATA, add(CFA_XSP16, literal(-4)))
          CFI (cfiCond46) ?BRET_EXT load(1, XDATA, add(CFA_XSP16, literal(-3)))
          CFI (cfiCond46) DPL0 load(1, XDATA, add(CFA_XSP16, literal(-2)))
          CFI (cfiCond46) DPH0 load(1, XDATA, add(CFA_XSP16, literal(-1)))
          CFI (cfiCond46) CFA_SP SP+-2
          CFI (cfiCond46) CFA_XSP16 add(XSP16, 15)
          CFI Block cfiPicker47 Using cfiCommon1
          CFI (cfiPicker47) NoFunction
          CFI (cfiPicker47) Picker
        MOV     DPTR,#pMtAfDataReq
          CFI EndBlock cfiCond42
          CFI EndBlock cfiCond43
          CFI EndBlock cfiCond44
          CFI EndBlock cfiCond45
          CFI EndBlock cfiCond46
          CFI EndBlock cfiPicker47
        REQUIRE ??Subroutine50_0
        ; // Fall through to label ??Subroutine50_0

        RSEG BANKED_CODE:CODE:NOROOT(0)
??Subroutine50_0:
          CFI Block cfiCond48 Using cfiCommon0
          CFI Function MT_AfExec
          CFI Conditional ??CrossCallReturnLabel_94
          CFI R6 load(1, XDATA, add(CFA_XSP16, literal(-9)))
          CFI VB load(1, XDATA, add(CFA_XSP16, literal(-8)))
          CFI V0 load(1, XDATA, add(CFA_XSP16, literal(-7)))
          CFI R7 load(1, XDATA, add(CFA_XSP16, literal(-6)))
          CFI ?RET_LOW load(1, XDATA, add(CFA_XSP16, literal(-5)))
          CFI ?RET_HIGH load(1, XDATA, add(CFA_XSP16, literal(-4)))
          CFI ?BRET_EXT load(1, XDATA, add(CFA_XSP16, literal(-3)))
          CFI DPL0 load(1, XDATA, add(CFA_XSP16, literal(-2)))
          CFI DPH0 load(1, XDATA, add(CFA_XSP16, literal(-1)))
          CFI CFA_SP SP+-2
          CFI CFA_XSP16 add(XSP16, 9)
          CFI Block cfiCond49 Using cfiCommon0
          CFI (cfiCond49) Function MT_AfExec
          CFI (cfiCond49) Conditional ??CrossCallReturnLabel_95
          CFI (cfiCond49) R6 load(1, XDATA, add(CFA_XSP16, literal(-9)))
          CFI (cfiCond49) VB load(1, XDATA, add(CFA_XSP16, literal(-8)))
          CFI (cfiCond49) V0 load(1, XDATA, add(CFA_XSP16, literal(-7)))
          CFI (cfiCond49) R7 load(1, XDATA, add(CFA_XSP16, literal(-6)))
          CFI (cfiCond49) ?RET_LOW load(1, XDATA, add(CFA_XSP16, literal(-5)))
          CFI (cfiCond49) ?RET_HIGH load(1, XDATA, add(CFA_XSP16, literal(-4)))
          CFI (cfiCond49) ?BRET_EXT load(1, XDATA, add(CFA_XSP16, literal(-3)))
          CFI (cfiCond49) DPL0 load(1, XDATA, add(CFA_XSP16, literal(-2)))
          CFI (cfiCond49) DPH0 load(1, XDATA, add(CFA_XSP16, literal(-1)))
          CFI (cfiCond49) CFA_SP SP+-2
          CFI (cfiCond49) CFA_XSP16 add(XSP16, 9)
          CFI Block cfiCond50 Using cfiCommon0
          CFI (cfiCond50) Function MT_AfExec
          CFI (cfiCond50) Conditional ??CrossCallReturnLabel_96
          CFI (cfiCond50) R6 load(1, XDATA, add(CFA_XSP16, literal(-9)))
          CFI (cfiCond50) VB load(1, XDATA, add(CFA_XSP16, literal(-8)))
          CFI (cfiCond50) V0 load(1, XDATA, add(CFA_XSP16, literal(-7)))
          CFI (cfiCond50) R7 load(1, XDATA, add(CFA_XSP16, literal(-6)))
          CFI (cfiCond50) ?RET_LOW load(1, XDATA, add(CFA_XSP16, literal(-5)))
          CFI (cfiCond50) ?RET_HIGH load(1, XDATA, add(CFA_XSP16, literal(-4)))
          CFI (cfiCond50) ?BRET_EXT load(1, XDATA, add(CFA_XSP16, literal(-3)))
          CFI (cfiCond50) DPL0 load(1, XDATA, add(CFA_XSP16, literal(-2)))
          CFI (cfiCond50) DPH0 load(1, XDATA, add(CFA_XSP16, literal(-1)))
          CFI (cfiCond50) CFA_SP SP+-2
          CFI (cfiCond50) CFA_XSP16 add(XSP16, 9)
          CFI Block cfiCond51 Using cfiCommon0
          CFI (cfiCond51) Function MT_AfDataRequest
          CFI (cfiCond51) Conditional ??CrossCallReturnLabel_97
          CFI (cfiCond51) R6 load(1, XDATA, add(CFA_XSP16, literal(-21)))
          CFI (cfiCond51) VB load(1, XDATA, add(CFA_XSP16, literal(-20)))
          CFI (cfiCond51) V0 load(1, XDATA, add(CFA_XSP16, literal(-19)))
          CFI (cfiCond51) V1 load(1, XDATA, add(CFA_XSP16, literal(-18)))
          CFI (cfiCond51) V2 load(1, XDATA, add(CFA_XSP16, literal(-17)))
          CFI (cfiCond51) V3 load(1, XDATA, add(CFA_XSP16, literal(-16)))
          CFI (cfiCond51) V4 load(1, XDATA, add(CFA_XSP16, literal(-15)))
          CFI (cfiCond51) V5 load(1, XDATA, add(CFA_XSP16, literal(-14)))
          CFI (cfiCond51) V6 load(1, XDATA, add(CFA_XSP16, literal(-13)))
          CFI (cfiCond51) V7 load(1, XDATA, add(CFA_XSP16, literal(-12)))
          CFI (cfiCond51) V8 load(1, XDATA, add(CFA_XSP16, literal(-11)))
          CFI (cfiCond51) V9 load(1, XDATA, add(CFA_XSP16, literal(-10)))
          CFI (cfiCond51) V10 load(1, XDATA, add(CFA_XSP16, literal(-9)))
          CFI (cfiCond51) V11 load(1, XDATA, add(CFA_XSP16, literal(-8)))
          CFI (cfiCond51) V12 load(1, XDATA, add(CFA_XSP16, literal(-7)))
          CFI (cfiCond51) R7 load(1, XDATA, add(CFA_XSP16, literal(-6)))
          CFI (cfiCond51) ?RET_LOW load(1, XDATA, add(CFA_XSP16, literal(-5)))
          CFI (cfiCond51) ?RET_HIGH load(1, XDATA, add(CFA_XSP16, literal(-4)))
          CFI (cfiCond51) ?BRET_EXT load(1, XDATA, add(CFA_XSP16, literal(-3)))
          CFI (cfiCond51) DPL0 load(1, XDATA, add(CFA_XSP16, literal(-2)))
          CFI (cfiCond51) DPH0 load(1, XDATA, add(CFA_XSP16, literal(-1)))
          CFI (cfiCond51) CFA_SP SP+-2
          CFI (cfiCond51) CFA_XSP16 add(XSP16, 35)
          CFI Block cfiCond52 Using cfiCommon0
          CFI (cfiCond52) Function MT_AfDataRequest
          CFI (cfiCond52) Conditional ??CrossCallReturnLabel_98
          CFI (cfiCond52) R6 load(1, XDATA, add(CFA_XSP16, literal(-21)))
          CFI (cfiCond52) VB load(1, XDATA, add(CFA_XSP16, literal(-20)))
          CFI (cfiCond52) V0 load(1, XDATA, add(CFA_XSP16, literal(-19)))
          CFI (cfiCond52) V1 load(1, XDATA, add(CFA_XSP16, literal(-18)))
          CFI (cfiCond52) V2 load(1, XDATA, add(CFA_XSP16, literal(-17)))
          CFI (cfiCond52) V3 load(1, XDATA, add(CFA_XSP16, literal(-16)))
          CFI (cfiCond52) V4 load(1, XDATA, add(CFA_XSP16, literal(-15)))
          CFI (cfiCond52) V5 load(1, XDATA, add(CFA_XSP16, literal(-14)))
          CFI (cfiCond52) V6 load(1, XDATA, add(CFA_XSP16, literal(-13)))
          CFI (cfiCond52) V7 load(1, XDATA, add(CFA_XSP16, literal(-12)))
          CFI (cfiCond52) V8 load(1, XDATA, add(CFA_XSP16, literal(-11)))
          CFI (cfiCond52) V9 load(1, XDATA, add(CFA_XSP16, literal(-10)))
          CFI (cfiCond52) V10 load(1, XDATA, add(CFA_XSP16, literal(-9)))
          CFI (cfiCond52) V11 load(1, XDATA, add(CFA_XSP16, literal(-8)))
          CFI (cfiCond52) V12 load(1, XDATA, add(CFA_XSP16, literal(-7)))
          CFI (cfiCond52) R7 load(1, XDATA, add(CFA_XSP16, literal(-6)))
          CFI (cfiCond52) ?RET_LOW load(1, XDATA, add(CFA_XSP16, literal(-5)))
          CFI (cfiCond52) ?RET_HIGH load(1, XDATA, add(CFA_XSP16, literal(-4)))
          CFI (cfiCond52) ?BRET_EXT load(1, XDATA, add(CFA_XSP16, literal(-3)))
          CFI (cfiCond52) DPL0 load(1, XDATA, add(CFA_XSP16, literal(-2)))
          CFI (cfiCond52) DPH0 load(1, XDATA, add(CFA_XSP16, literal(-1)))
          CFI (cfiCond52) CFA_SP SP+-2
          CFI (cfiCond52) CFA_XSP16 add(XSP16, 35)
          CFI Block cfiCond53 Using cfiCommon0
          CFI (cfiCond53) Function MT_AfDataStore
          CFI (cfiCond53) Conditional ??CrossCallReturnLabel_99
          CFI (cfiCond53) R6 load(1, XDATA, add(CFA_XSP16, literal(-14)))
          CFI (cfiCond53) VB load(1, XDATA, add(CFA_XSP16, literal(-13)))
          CFI (cfiCond53) V0 load(1, XDATA, add(CFA_XSP16, literal(-12)))
          CFI (cfiCond53) V1 load(1, XDATA, add(CFA_XSP16, literal(-11)))
          CFI (cfiCond53) V2 load(1, XDATA, add(CFA_XSP16, literal(-10)))
          CFI (cfiCond53) V3 load(1, XDATA, add(CFA_XSP16, literal(-9)))
          CFI (cfiCond53) V4 load(1, XDATA, add(CFA_XSP16, literal(-8)))
          CFI (cfiCond53) V5 load(1, XDATA, add(CFA_XSP16, literal(-7)))
          CFI (cfiCond53) R7 load(1, XDATA, add(CFA_XSP16, literal(-6)))
          CFI (cfiCond53) ?RET_LOW load(1, XDATA, add(CFA_XSP16, literal(-5)))
          CFI (cfiCond53) ?RET_HIGH load(1, XDATA, add(CFA_XSP16, literal(-4)))
          CFI (cfiCond53) ?BRET_EXT load(1, XDATA, add(CFA_XSP16, literal(-3)))
          CFI (cfiCond53) DPL0 load(1, XDATA, add(CFA_XSP16, literal(-2)))
          CFI (cfiCond53) DPH0 load(1, XDATA, add(CFA_XSP16, literal(-1)))
          CFI (cfiCond53) CFA_SP SP+-2
          CFI (cfiCond53) CFA_XSP16 add(XSP16, 15)
          CFI Block cfiPicker54 Using cfiCommon1
          CFI (cfiPicker54) NoFunction
          CFI (cfiPicker54) Picker
        LCALL   ??Subroutine54_0 & 0xFFFF
??CrossCallReturnLabel_114:
        MOV     A,R0
        ORL     A,R1
        RET
          CFI (cfiCond48) CFA_SP SP+0
          CFI (cfiCond49) CFA_SP SP+0
          CFI (cfiCond50) CFA_SP SP+0
          CFI (cfiCond51) CFA_SP SP+0
          CFI (cfiCond52) CFA_SP SP+0
          CFI (cfiCond53) CFA_SP SP+0
          CFI (cfiPicker54) CFA_SP SP+0
          CFI EndBlock cfiCond48
          CFI EndBlock cfiCond49
          CFI EndBlock cfiCond50
          CFI EndBlock cfiCond51
          CFI EndBlock cfiCond52
          CFI EndBlock cfiCond53
          CFI EndBlock cfiPicker54
//  471 
//  472 #if defined ( ZIGBEE_SOURCE_ROUTING )
//  473 
//  474 /***************************************************************************************************
//  475  * @fn      MT_AfDataRequestSrcRtg
//  476  *
//  477  * @brief   Process AF Register command
//  478  *
//  479  * @param   pBuf - pointer to the received buffer
//  480  *
//  481  * @return  none
//  482  ***************************************************************************************************/

        RSEG BANKED_CODE:CODE:NOROOT(0)
//  483 void MT_AfDataRequestSrcRtg(uint8 *pBuf)
MT_AfDataRequestSrcRtg:
          CFI Block cfiBlock55 Using cfiCommon0
          CFI Function MT_AfDataRequestSrcRtg
        CODE
//  484 {
        FUNCALL MT_AfDataRequestSrcRtg, osal_memset
        LOCFRAME ISTACK, 0, STACK
        LOCFRAME PSTACK, 0, STACK
        LOCFRAME XSTACK, 35, STACK
        LOCFRAME IOVERLAY, 0, STATIC
        LOCFRAME DOVERLAY, 0, STATIC
        ARGFRAME ISTACK, 0, STACK
        ARGFRAME PSTACK, 0, STACK
        ARGFRAME XSTACK, 35, STACK
        ARGFRAME IOVERLAY, 0, STATIC
        ARGFRAME DOVERLAY, 0, STATIC
        FUNCALL MT_AfDataRequestSrcRtg, afFindEndPointDesc
        LOCFRAME ISTACK, 0, STACK
        LOCFRAME PSTACK, 0, STACK
        LOCFRAME XSTACK, 35, STACK
        LOCFRAME IOVERLAY, 0, STATIC
        LOCFRAME DOVERLAY, 0, STATIC
        ARGFRAME ISTACK, 0, STACK
        ARGFRAME PSTACK, 0, STACK
        ARGFRAME XSTACK, 35, STACK
        ARGFRAME IOVERLAY, 0, STATIC
        ARGFRAME DOVERLAY, 0, STATIC
        FUNCALL MT_AfDataRequestSrcRtg, osal_mem_alloc
        LOCFRAME ISTACK, 0, STACK
        LOCFRAME PSTACK, 0, STACK
        LOCFRAME XSTACK, 35, STACK
        LOCFRAME IOVERLAY, 0, STATIC
        LOCFRAME DOVERLAY, 0, STATIC
        ARGFRAME ISTACK, 0, STACK
        ARGFRAME PSTACK, 0, STACK
        ARGFRAME XSTACK, 35, STACK
        ARGFRAME IOVERLAY, 0, STATIC
        ARGFRAME DOVERLAY, 0, STATIC
        FUNCALL MT_AfDataRequestSrcRtg, AF_DataRequestSrcRtg
        LOCFRAME ISTACK, 0, STACK
        LOCFRAME PSTACK, 0, STACK
        LOCFRAME XSTACK, 47, STACK
        LOCFRAME IOVERLAY, 0, STATIC
        LOCFRAME DOVERLAY, 0, STATIC
        ARGFRAME ISTACK, 0, STACK
        ARGFRAME PSTACK, 0, STACK
        ARGFRAME XSTACK, 47, STACK
        ARGFRAME IOVERLAY, 0, STATIC
        ARGFRAME DOVERLAY, 0, STATIC
        FUNCALL MT_AfDataRequestSrcRtg, osal_mem_free
        LOCFRAME ISTACK, 0, STACK
        LOCFRAME PSTACK, 0, STACK
        LOCFRAME XSTACK, 35, STACK
        LOCFRAME IOVERLAY, 0, STATIC
        LOCFRAME DOVERLAY, 0, STATIC
        ARGFRAME ISTACK, 0, STACK
        ARGFRAME PSTACK, 0, STACK
        ARGFRAME XSTACK, 35, STACK
        ARGFRAME IOVERLAY, 0, STATIC
        ARGFRAME DOVERLAY, 0, STATIC
        FUNCALL MT_AfDataRequestSrcRtg, MT_BuildAndSendZToolResponse
        LOCFRAME ISTACK, 0, STACK
        LOCFRAME PSTACK, 0, STACK
        LOCFRAME XSTACK, 35, STACK
        LOCFRAME IOVERLAY, 0, STATIC
        LOCFRAME DOVERLAY, 0, STATIC
        ARGFRAME ISTACK, 0, STACK
        ARGFRAME PSTACK, 0, STACK
        ARGFRAME XSTACK, 35, STACK
        ARGFRAME IOVERLAY, 0, STATIC
        ARGFRAME DOVERLAY, 0, STATIC
        REQUIRE ?V0
        REQUIRE ?V1
        REQUIRE ?V2
        REQUIRE ?V3
        REQUIRE ?V4
        REQUIRE ?V5
        REQUIRE ?V6
        REQUIRE ?V7
        REQUIRE ?V8
        REQUIRE ?V9
        REQUIRE ?V10
        REQUIRE ?V11
        REQUIRE ?V12
        MOV     A,#-0x15
        LCALL   ?BANKED_ENTER_XDATA
          CFI DPH0 load(1, XDATA, add(CFA_XSP16, literal(-1)))
          CFI DPL0 load(1, XDATA, add(CFA_XSP16, literal(-2)))
          CFI ?BRET_EXT load(1, XDATA, add(CFA_XSP16, literal(-3)))
          CFI ?RET_HIGH load(1, XDATA, add(CFA_XSP16, literal(-4)))
          CFI ?RET_LOW load(1, XDATA, add(CFA_XSP16, literal(-5)))
          CFI R7 load(1, XDATA, add(CFA_XSP16, literal(-6)))
          CFI V12 load(1, XDATA, add(CFA_XSP16, literal(-7)))
          CFI V11 load(1, XDATA, add(CFA_XSP16, literal(-8)))
          CFI V10 load(1, XDATA, add(CFA_XSP16, literal(-9)))
          CFI V9 load(1, XDATA, add(CFA_XSP16, literal(-10)))
          CFI V8 load(1, XDATA, add(CFA_XSP16, literal(-11)))
          CFI V7 load(1, XDATA, add(CFA_XSP16, literal(-12)))
          CFI V6 load(1, XDATA, add(CFA_XSP16, literal(-13)))
          CFI V5 load(1, XDATA, add(CFA_XSP16, literal(-14)))
          CFI V4 load(1, XDATA, add(CFA_XSP16, literal(-15)))
          CFI V3 load(1, XDATA, add(CFA_XSP16, literal(-16)))
          CFI V2 load(1, XDATA, add(CFA_XSP16, literal(-17)))
          CFI V1 load(1, XDATA, add(CFA_XSP16, literal(-18)))
          CFI V0 load(1, XDATA, add(CFA_XSP16, literal(-19)))
          CFI VB load(1, XDATA, add(CFA_XSP16, literal(-20)))
          CFI R6 load(1, XDATA, add(CFA_XSP16, literal(-21)))
          CFI CFA_SP SP+0
          CFI CFA_XSP16 add(XSP16, 21)
        ; Saved register size: 21
        ; Auto size: 14
        MOV     A,#-0xe
        LCALL   ?ALLOC_XSTACK8
          CFI CFA_XSP16 add(XSP16, 35)
        MOV     A,R2
        MOV     R6,A
        MOV     A,R3
        MOV     R7,A
//  485   uint8 cmdId, dataLen = 0;
//  486   uint8 retValue = ZFailure;
        MOV     DPL,?XSP + 0
        MOV     DPH,?XSP + 1
        MOV     A,#0x1
        LCALL   ??Subroutine49_0 & 0xFFFF
//  487   endPointDesc_t *epDesc;
//  488   byte transId;
//  489   afAddrType_t dstAddr;
//  490   cId_t cId;
//  491   byte txOpts, radius, srcEP, relayCnt;
//  492   uint16 *pRelayList;
//  493   uint8 i;
//  494 
//  495   /* parse header */
//  496   cmdId = pBuf[MT_RPC_POS_CMD1];
??CrossCallReturnLabel_90:
        MOV     ?V12,A
//  497   pBuf += MT_RPC_FRAME_HDR_SZ;
        MOV     A,R6
        ADD     A,#0x3
        MOV     R6,A
        JNC     ??MT_AfDataRequestSrcRtg_0
        INC     R7
//  498 
//  499   /* Destination address */
//  500   /* Initialize the panID field to zero to avoid inter-pan */
//  501   osal_memset( &dstAddr, 0, sizeof(afAddrType_t) );
??MT_AfDataRequestSrcRtg_0:
        ; Setup parameters for call to function osal_memset
        MOV     R4,#0xc
        MOV     R5,#0x0
        MOV     R1,#0x0
        MOV     A,#0x2
        LCALL   ?XSTACK_DISP101_8
        LCALL   `??osal_memset::?relay`; Banked call to: osal_memset
//  502   dstAddr.addrMode = afAddr16Bit;
        MOV     A,#0xa
        LCALL   ?XSTACK_DISP0_8
        MOV     A,#0x2
        MOVX    @DPTR,A
//  503   dstAddr.addr.shortAddr = BUILD_UINT16(pBuf[0], pBuf[1]);
        LCALL   ?Subroutine19 & 0xFFFF
??CrossCallReturnLabel_102:
        LCALL   ?XSTACK_DISP0_8
        LCALL   ?Subroutine26 & 0xFFFF
//  504   pBuf += 2;
//  505 
//  506   /* Destination endpoint */
//  507   dstAddr.endPoint = *pBuf++;
??CrossCallReturnLabel_89:
        PUSH    A
          CFI CFA_SP SP+-1
        MOV     A,#0xb
        LCALL   ?XSTACK_DISP0_8
        POP     A
          CFI CFA_SP SP+0
        LCALL   ?Subroutine30 & 0xFFFF
//  508 
//  509   /* Source endpoint */
//  510   srcEP = *pBuf++;
??CrossCallReturnLabel_46:
        MOV     R1,A
        MOV     A,R6
        ADD     A,#0x4
        MOV     R6,A
        JNC     ??MT_AfDataRequestSrcRtg_1
        INC     R7
//  511   epDesc = afFindEndPointDesc( srcEP );
??MT_AfDataRequestSrcRtg_1:
        ; Setup parameters for call to function afFindEndPointDesc
        LCALL   `??afFindEndPointDesc::?relay`; Banked call to: afFindEndPointDesc
        MOV     ?V6,R2
        MOV     ?V7,R3
//  512 
//  513   /* ClusterId */
//  514   cId = BUILD_UINT16(pBuf[0], pBuf[1]);
        LCALL   ?Subroutine4 & 0xFFFF
//  515   pBuf +=2;
//  516 
//  517   /* TransId */
//  518   transId = *pBuf++;
??CrossCallReturnLabel_0:
        PUSH    A
          CFI CFA_SP SP+-1
        MOV     A,#0x1
        LCALL   ?XSTACK_DISP0_8
        POP     A
          CFI CFA_SP SP+0
        LCALL   ?Subroutine30 & 0xFFFF
//  519 
//  520   /* TxOption */
//  521   txOpts = *pBuf++;
??CrossCallReturnLabel_47:
        MOV     ?V3,A
//  522 
//  523   /* Radius */
//  524   radius = *pBuf++;
        MOV     DPL,R6
        MOV     DPH,R7
        INC     DPTR
        LCALL   ?Subroutine15 & 0xFFFF
//  525 
//  526   /* Source route relay count */
//  527   relayCnt = *pBuf++;
??CrossCallReturnLabel_19:
        INC     DPTR
        MOVX    A,@DPTR
        MOV     ?V9,A
        MOV     A,R6
        ADD     A,#0x6
        MOV     R6,A
        JNC     ??MT_AfDataRequestSrcRtg_2
        INC     R7
//  528 
//  529   /* Convert the source route relay list */
//  530   if( (pRelayList = osal_mem_alloc( relayCnt * sizeof( uint16 ))) != NULL )
??MT_AfDataRequestSrcRtg_2:
        ; Setup parameters for call to function osal_mem_alloc
        MOV     R2,?V9
        MOV     A,R2
        ADD     A,R2
        MOV     R2,A
        CLR     A
        RLC     A
        MOV     R3,A
        LCALL   `??osal_mem_alloc::?relay`; Banked call to: osal_mem_alloc
        MOV     ?V0,R2
        MOV     ?V1,R3
        MOV     A,R2
        ORL     A,?V1
        JNZ     $+5
        LJMP    ??MT_AfDataRequestSrcRtg_3 & 0xFFFF
//  531   {
//  532     for( i = 0; i < relayCnt; i++ )
        MOV     A,?V9
        JZ      ??MT_AfDataRequestSrcRtg_4
        MOV     R0,?V0
        MOV     R1,?V1
        MOV     ?V2,A
//  533     {
//  534       pRelayList[i]  = BUILD_UINT16( pBuf[0], pBuf[1] );
??MT_AfDataRequestSrcRtg_5:
        MOV     DPL,R6
        MOV     DPH,R7
        MOVX    A,@DPTR
        MOV     R4,A
        INC     DPTR
        MOVX    A,@DPTR
        MOV     R3,A
        MOV     A,R4
        MOV     DPL,R0
        MOV     DPH,R1
        MOVX    @DPTR,A
        INC     DPTR
        MOV     A,R3
        MOVX    @DPTR,A
//  535       pBuf += 2;
        MOV     A,R6
        ADD     A,#0x2
        MOV     R6,A
        JNC     ??MT_AfDataRequestSrcRtg_6
        INC     R7
//  536     }
??MT_AfDataRequestSrcRtg_6:
        MOV     A,R0
        ADD     A,#0x2
        MOV     R0,A
        JNC     ??MT_AfDataRequestSrcRtg_7
        INC     R1
??MT_AfDataRequestSrcRtg_7:
        DEC     ?V2
        MOV     A,?V2
        JNZ     ??MT_AfDataRequestSrcRtg_5
//  537 
//  538     /* Data payload Length */
//  539     dataLen = *pBuf++;
??MT_AfDataRequestSrcRtg_4:
        MOV     DPL,R6
        MOV     DPH,R7
        MOVX    A,@DPTR
        MOV     ?V10,A
        INC     DPTR
        MOV     R6,DPL
        MOV     R7,DPH
//  540 
//  541     if ( epDesc == NULL )
        MOV     A,?V6
        ORL     A,?V7
        JNZ     ??MT_AfDataRequestSrcRtg_8
//  542     {
//  543       retValue = afStatus_INVALID_PARAMETER;
        MOV     DPL,?XSP + 0
        MOV     DPH,?XSP + 1
        MOV     A,#0x2
        SJMP    ??MT_AfDataRequestSrcRtg_9
//  544     }
//  545     else
//  546     {
//  547       retValue = AF_DataRequestSrcRtg( &dstAddr, epDesc, cId, dataLen, pBuf,
//  548                                      &transId, txOpts, radius, relayCnt, pRelayList );
??MT_AfDataRequestSrcRtg_8:
        ; Setup parameters for call to function AF_DataRequestSrcRtg
        MOV     R0,#?V0
        LCALL   ?PUSH_XSTACK_I_TWO
          CFI CFA_XSP16 add(XSP16, 37)
        MOV     R0,#?V9
        LCALL   ?PUSH_XSTACK_I_ONE
          CFI CFA_XSP16 add(XSP16, 38)
        MOV     R0,#?V8
        LCALL   ?PUSH_XSTACK_I_ONE
          CFI CFA_XSP16 add(XSP16, 39)
        MOV     A,#0x5
        LCALL   ?XSTACK_DISP100_8
        MOV     ?V8,R0
        MOV     ?V9,R1
        MOV     R0,#?V8
        LCALL   ?PUSH_XSTACK_I_TWO
          CFI CFA_XSP16 add(XSP16, 41)
        MOV     ?V8,R6
        MOV     ?V9,R7
        MOV     R0,#?V8
        LCALL   ?PUSH_XSTACK_I_TWO
          CFI CFA_XSP16 add(XSP16, 43)
        MOV     ?V11,#0x0
        MOV     R0,#?V10
        LCALL   ?PUSH_XSTACK_I_TWO
          CFI CFA_XSP16 add(XSP16, 45)
        MOV     R0,#?V4
        LCALL   ?PUSH_XSTACK_I_TWO
          CFI CFA_XSP16 add(XSP16, 47)
        MOV     R1,?V3
        MOV     R4,?V6
        MOV     R5,?V7
        MOV     A,#0xe
        LCALL   ?XSTACK_DISP101_8
        LCALL   `??AF_DataRequestSrcRtg::?relay`; Banked call to: AF_DataRequestSrcRtg
        MOV     A,#0xc
        LCALL   ?DEALLOC_XSTACK8
          CFI CFA_XSP16 add(XSP16, 35)
        MOV     A,R1
        MOV     DPL,?XSP + 0
        MOV     DPH,?XSP + 1
??MT_AfDataRequestSrcRtg_9:
        MOVX    @DPTR,A
//  549     }
//  550 
//  551     /* Free the memory allocated */
//  552     osal_mem_free( pRelayList );
        ; Setup parameters for call to function osal_mem_free
        MOV     R2,?V0
        MOV     R3,?V1
        LCALL   `??osal_mem_free::?relay`; Banked call to: osal_mem_free
        SJMP    ??MT_AfDataRequestSrcRtg_10
//  553   }
//  554   else
//  555   {
//  556     retValue = afStatus_MEM_FAIL;
??MT_AfDataRequestSrcRtg_3:
        MOV     DPL,?XSP + 0
        MOV     DPH,?XSP + 1
        MOV     A,#0x10
        MOVX    @DPTR,A
//  557   }
//  558 
//  559 
//  560   /* Build and send back the response */
//  561   MT_BuildAndSendZToolResponse(((uint8)MT_RPC_CMD_SRSP | (uint8)MT_RPC_SYS_AF), cmdId, 1, &retValue);
??MT_AfDataRequestSrcRtg_10:
        ; Setup parameters for call to function MT_BuildAndSendZToolResponse
        MOV     R4,?XSP + 0
        MOV     R5,?XSP + 1
        MOV     R3,#0x1
        MOV     R2,?V12
        MOV     R1,#0x64
        LCALL   `??MT_BuildAndSendZToolResponse::?relay`; Banked call to: MT_BuildAndSendZToolResponse
//  562 }
        LJMP    ?Subroutine2 & 0xFFFF
          CFI EndBlock cfiBlock55

        RSEG BANKED_CODE:CODE:NOROOT(0)
?Subroutine30:
          CFI Block cfiCond56 Using cfiCommon0
          CFI Function MT_AfDataRequestSrcRtg
          CFI Conditional ??CrossCallReturnLabel_46
          CFI R6 load(1, XDATA, add(CFA_XSP16, literal(-21)))
          CFI VB load(1, XDATA, add(CFA_XSP16, literal(-20)))
          CFI V0 load(1, XDATA, add(CFA_XSP16, literal(-19)))
          CFI V1 load(1, XDATA, add(CFA_XSP16, literal(-18)))
          CFI V2 load(1, XDATA, add(CFA_XSP16, literal(-17)))
          CFI V3 load(1, XDATA, add(CFA_XSP16, literal(-16)))
          CFI V4 load(1, XDATA, add(CFA_XSP16, literal(-15)))
          CFI V5 load(1, XDATA, add(CFA_XSP16, literal(-14)))
          CFI V6 load(1, XDATA, add(CFA_XSP16, literal(-13)))
          CFI V7 load(1, XDATA, add(CFA_XSP16, literal(-12)))
          CFI V8 load(1, XDATA, add(CFA_XSP16, literal(-11)))
          CFI V9 load(1, XDATA, add(CFA_XSP16, literal(-10)))
          CFI V10 load(1, XDATA, add(CFA_XSP16, literal(-9)))
          CFI V11 load(1, XDATA, add(CFA_XSP16, literal(-8)))
          CFI V12 load(1, XDATA, add(CFA_XSP16, literal(-7)))
          CFI R7 load(1, XDATA, add(CFA_XSP16, literal(-6)))
          CFI ?RET_LOW load(1, XDATA, add(CFA_XSP16, literal(-5)))
          CFI ?RET_HIGH load(1, XDATA, add(CFA_XSP16, literal(-4)))
          CFI ?BRET_EXT load(1, XDATA, add(CFA_XSP16, literal(-3)))
          CFI DPL0 load(1, XDATA, add(CFA_XSP16, literal(-2)))
          CFI DPH0 load(1, XDATA, add(CFA_XSP16, literal(-1)))
          CFI CFA_SP SP+-2
          CFI CFA_XSP16 add(XSP16, 35)
          CFI Block cfiCond57 Using cfiCommon0
          CFI (cfiCond57) Function MT_AfDataRequestSrcRtg
          CFI (cfiCond57) Conditional ??CrossCallReturnLabel_47
          CFI (cfiCond57) R6 load(1, XDATA, add(CFA_XSP16, literal(-21)))
          CFI (cfiCond57) VB load(1, XDATA, add(CFA_XSP16, literal(-20)))
          CFI (cfiCond57) V0 load(1, XDATA, add(CFA_XSP16, literal(-19)))
          CFI (cfiCond57) V1 load(1, XDATA, add(CFA_XSP16, literal(-18)))
          CFI (cfiCond57) V2 load(1, XDATA, add(CFA_XSP16, literal(-17)))
          CFI (cfiCond57) V3 load(1, XDATA, add(CFA_XSP16, literal(-16)))
          CFI (cfiCond57) V4 load(1, XDATA, add(CFA_XSP16, literal(-15)))
          CFI (cfiCond57) V5 load(1, XDATA, add(CFA_XSP16, literal(-14)))
          CFI (cfiCond57) V6 load(1, XDATA, add(CFA_XSP16, literal(-13)))
          CFI (cfiCond57) V7 load(1, XDATA, add(CFA_XSP16, literal(-12)))
          CFI (cfiCond57) V8 load(1, XDATA, add(CFA_XSP16, literal(-11)))
          CFI (cfiCond57) V9 load(1, XDATA, add(CFA_XSP16, literal(-10)))
          CFI (cfiCond57) V10 load(1, XDATA, add(CFA_XSP16, literal(-9)))
          CFI (cfiCond57) V11 load(1, XDATA, add(CFA_XSP16, literal(-8)))
          CFI (cfiCond57) V12 load(1, XDATA, add(CFA_XSP16, literal(-7)))
          CFI (cfiCond57) R7 load(1, XDATA, add(CFA_XSP16, literal(-6)))
          CFI (cfiCond57) ?RET_LOW load(1, XDATA, add(CFA_XSP16, literal(-5)))
          CFI (cfiCond57) ?RET_HIGH load(1, XDATA, add(CFA_XSP16, literal(-4)))
          CFI (cfiCond57) ?BRET_EXT load(1, XDATA, add(CFA_XSP16, literal(-3)))
          CFI (cfiCond57) DPL0 load(1, XDATA, add(CFA_XSP16, literal(-2)))
          CFI (cfiCond57) DPH0 load(1, XDATA, add(CFA_XSP16, literal(-1)))
          CFI (cfiCond57) CFA_SP SP+-2
          CFI (cfiCond57) CFA_XSP16 add(XSP16, 35)
          CFI Block cfiPicker58 Using cfiCommon1
          CFI (cfiPicker58) NoFunction
          CFI (cfiPicker58) Picker
        LCALL   ?Subroutine40 & 0xFFFF
??CrossCallReturnLabel_93:
        INC     DPTR
        INC     DPTR
        MOVX    A,@DPTR
        RET
          CFI (cfiCond56) CFA_SP SP+0
          CFI (cfiCond57) CFA_SP SP+0
          CFI (cfiPicker58) CFA_SP SP+0
          CFI EndBlock cfiCond56
          CFI EndBlock cfiCond57
          CFI EndBlock cfiPicker58

        RSEG BANKED_CODE:CODE:NOROOT(0)
?Subroutine19:
          CFI Block cfiCond59 Using cfiCommon0
          CFI Function MT_AfDataRequest
          CFI Conditional ??CrossCallReturnLabel_101
          CFI R6 load(1, XDATA, add(CFA_XSP16, literal(-21)))
          CFI VB load(1, XDATA, add(CFA_XSP16, literal(-20)))
          CFI V0 load(1, XDATA, add(CFA_XSP16, literal(-19)))
          CFI V1 load(1, XDATA, add(CFA_XSP16, literal(-18)))
          CFI V2 load(1, XDATA, add(CFA_XSP16, literal(-17)))
          CFI V3 load(1, XDATA, add(CFA_XSP16, literal(-16)))
          CFI V4 load(1, XDATA, add(CFA_XSP16, literal(-15)))
          CFI V5 load(1, XDATA, add(CFA_XSP16, literal(-14)))
          CFI V6 load(1, XDATA, add(CFA_XSP16, literal(-13)))
          CFI V7 load(1, XDATA, add(CFA_XSP16, literal(-12)))
          CFI V8 load(1, XDATA, add(CFA_XSP16, literal(-11)))
          CFI V9 load(1, XDATA, add(CFA_XSP16, literal(-10)))
          CFI V10 load(1, XDATA, add(CFA_XSP16, literal(-9)))
          CFI V11 load(1, XDATA, add(CFA_XSP16, literal(-8)))
          CFI V12 load(1, XDATA, add(CFA_XSP16, literal(-7)))
          CFI R7 load(1, XDATA, add(CFA_XSP16, literal(-6)))
          CFI ?RET_LOW load(1, XDATA, add(CFA_XSP16, literal(-5)))
          CFI ?RET_HIGH load(1, XDATA, add(CFA_XSP16, literal(-4)))
          CFI ?BRET_EXT load(1, XDATA, add(CFA_XSP16, literal(-3)))
          CFI DPL0 load(1, XDATA, add(CFA_XSP16, literal(-2)))
          CFI DPH0 load(1, XDATA, add(CFA_XSP16, literal(-1)))
          CFI CFA_SP SP+-2
          CFI CFA_XSP16 add(XSP16, 35)
          CFI Block cfiCond60 Using cfiCommon0
          CFI (cfiCond60) Function MT_AfDataRequestSrcRtg
          CFI (cfiCond60) Conditional ??CrossCallReturnLabel_102
          CFI (cfiCond60) R6 load(1, XDATA, add(CFA_XSP16, literal(-21)))
          CFI (cfiCond60) VB load(1, XDATA, add(CFA_XSP16, literal(-20)))
          CFI (cfiCond60) V0 load(1, XDATA, add(CFA_XSP16, literal(-19)))
          CFI (cfiCond60) V1 load(1, XDATA, add(CFA_XSP16, literal(-18)))
          CFI (cfiCond60) V2 load(1, XDATA, add(CFA_XSP16, literal(-17)))
          CFI (cfiCond60) V3 load(1, XDATA, add(CFA_XSP16, literal(-16)))
          CFI (cfiCond60) V4 load(1, XDATA, add(CFA_XSP16, literal(-15)))
          CFI (cfiCond60) V5 load(1, XDATA, add(CFA_XSP16, literal(-14)))
          CFI (cfiCond60) V6 load(1, XDATA, add(CFA_XSP16, literal(-13)))
          CFI (cfiCond60) V7 load(1, XDATA, add(CFA_XSP16, literal(-12)))
          CFI (cfiCond60) V8 load(1, XDATA, add(CFA_XSP16, literal(-11)))
          CFI (cfiCond60) V9 load(1, XDATA, add(CFA_XSP16, literal(-10)))
          CFI (cfiCond60) V10 load(1, XDATA, add(CFA_XSP16, literal(-9)))
          CFI (cfiCond60) V11 load(1, XDATA, add(CFA_XSP16, literal(-8)))
          CFI (cfiCond60) V12 load(1, XDATA, add(CFA_XSP16, literal(-7)))
          CFI (cfiCond60) R7 load(1, XDATA, add(CFA_XSP16, literal(-6)))
          CFI (cfiCond60) ?RET_LOW load(1, XDATA, add(CFA_XSP16, literal(-5)))
          CFI (cfiCond60) ?RET_HIGH load(1, XDATA, add(CFA_XSP16, literal(-4)))
          CFI (cfiCond60) ?BRET_EXT load(1, XDATA, add(CFA_XSP16, literal(-3)))
          CFI (cfiCond60) DPL0 load(1, XDATA, add(CFA_XSP16, literal(-2)))
          CFI (cfiCond60) DPH0 load(1, XDATA, add(CFA_XSP16, literal(-1)))
          CFI (cfiCond60) CFA_SP SP+-2
          CFI (cfiCond60) CFA_XSP16 add(XSP16, 35)
          CFI Block cfiPicker61 Using cfiCommon1
          CFI (cfiPicker61) NoFunction
          CFI (cfiPicker61) Picker
        MOV     DPL,R6
        MOV     DPH,R7
        MOVX    A,@DPTR
        MOV     R2,A
        INC     DPTR
          CFI EndBlock cfiCond59
          CFI EndBlock cfiCond60
          CFI EndBlock cfiPicker61
        REQUIRE ??Subroutine51_0
        ; // Fall through to label ??Subroutine51_0

        RSEG BANKED_CODE:CODE:NOROOT(0)
??Subroutine51_0:
          CFI Block cfiCond62 Using cfiCommon0
          CFI Function MT_AfDataRequest
          CFI Conditional ??CrossCallReturnLabel_100
          CFI R6 load(1, XDATA, add(CFA_XSP16, literal(-21)))
          CFI VB load(1, XDATA, add(CFA_XSP16, literal(-20)))
          CFI V0 load(1, XDATA, add(CFA_XSP16, literal(-19)))
          CFI V1 load(1, XDATA, add(CFA_XSP16, literal(-18)))
          CFI V2 load(1, XDATA, add(CFA_XSP16, literal(-17)))
          CFI V3 load(1, XDATA, add(CFA_XSP16, literal(-16)))
          CFI V4 load(1, XDATA, add(CFA_XSP16, literal(-15)))
          CFI V5 load(1, XDATA, add(CFA_XSP16, literal(-14)))
          CFI V6 load(1, XDATA, add(CFA_XSP16, literal(-13)))
          CFI V7 load(1, XDATA, add(CFA_XSP16, literal(-12)))
          CFI V8 load(1, XDATA, add(CFA_XSP16, literal(-11)))
          CFI V9 load(1, XDATA, add(CFA_XSP16, literal(-10)))
          CFI V10 load(1, XDATA, add(CFA_XSP16, literal(-9)))
          CFI V11 load(1, XDATA, add(CFA_XSP16, literal(-8)))
          CFI V12 load(1, XDATA, add(CFA_XSP16, literal(-7)))
          CFI R7 load(1, XDATA, add(CFA_XSP16, literal(-6)))
          CFI ?RET_LOW load(1, XDATA, add(CFA_XSP16, literal(-5)))
          CFI ?RET_HIGH load(1, XDATA, add(CFA_XSP16, literal(-4)))
          CFI ?BRET_EXT load(1, XDATA, add(CFA_XSP16, literal(-3)))
          CFI DPL0 load(1, XDATA, add(CFA_XSP16, literal(-2)))
          CFI DPH0 load(1, XDATA, add(CFA_XSP16, literal(-1)))
          CFI CFA_SP SP+-2
          CFI CFA_XSP16 add(XSP16, 35)
          CFI Block cfiCond63 Using cfiCommon0
          CFI (cfiCond63) Function MT_AfDataRequest
          CFI (cfiCond63) Conditional ??CrossCallReturnLabel_101
          CFI (cfiCond63) R6 load(1, XDATA, add(CFA_XSP16, literal(-21)))
          CFI (cfiCond63) VB load(1, XDATA, add(CFA_XSP16, literal(-20)))
          CFI (cfiCond63) V0 load(1, XDATA, add(CFA_XSP16, literal(-19)))
          CFI (cfiCond63) V1 load(1, XDATA, add(CFA_XSP16, literal(-18)))
          CFI (cfiCond63) V2 load(1, XDATA, add(CFA_XSP16, literal(-17)))
          CFI (cfiCond63) V3 load(1, XDATA, add(CFA_XSP16, literal(-16)))
          CFI (cfiCond63) V4 load(1, XDATA, add(CFA_XSP16, literal(-15)))
          CFI (cfiCond63) V5 load(1, XDATA, add(CFA_XSP16, literal(-14)))
          CFI (cfiCond63) V6 load(1, XDATA, add(CFA_XSP16, literal(-13)))
          CFI (cfiCond63) V7 load(1, XDATA, add(CFA_XSP16, literal(-12)))
          CFI (cfiCond63) V8 load(1, XDATA, add(CFA_XSP16, literal(-11)))
          CFI (cfiCond63) V9 load(1, XDATA, add(CFA_XSP16, literal(-10)))
          CFI (cfiCond63) V10 load(1, XDATA, add(CFA_XSP16, literal(-9)))
          CFI (cfiCond63) V11 load(1, XDATA, add(CFA_XSP16, literal(-8)))
          CFI (cfiCond63) V12 load(1, XDATA, add(CFA_XSP16, literal(-7)))
          CFI (cfiCond63) R7 load(1, XDATA, add(CFA_XSP16, literal(-6)))
          CFI (cfiCond63) ?RET_LOW load(1, XDATA, add(CFA_XSP16, literal(-5)))
          CFI (cfiCond63) ?RET_HIGH load(1, XDATA, add(CFA_XSP16, literal(-4)))
          CFI (cfiCond63) ?BRET_EXT load(1, XDATA, add(CFA_XSP16, literal(-3)))
          CFI (cfiCond63) DPL0 load(1, XDATA, add(CFA_XSP16, literal(-2)))
          CFI (cfiCond63) DPH0 load(1, XDATA, add(CFA_XSP16, literal(-1)))
          CFI (cfiCond63) CFA_SP SP+-2
          CFI (cfiCond63) CFA_XSP16 add(XSP16, 35)
          CFI Block cfiCond64 Using cfiCommon0
          CFI (cfiCond64) Function MT_AfDataRequestSrcRtg
          CFI (cfiCond64) Conditional ??CrossCallReturnLabel_102
          CFI (cfiCond64) R6 load(1, XDATA, add(CFA_XSP16, literal(-21)))
          CFI (cfiCond64) VB load(1, XDATA, add(CFA_XSP16, literal(-20)))
          CFI (cfiCond64) V0 load(1, XDATA, add(CFA_XSP16, literal(-19)))
          CFI (cfiCond64) V1 load(1, XDATA, add(CFA_XSP16, literal(-18)))
          CFI (cfiCond64) V2 load(1, XDATA, add(CFA_XSP16, literal(-17)))
          CFI (cfiCond64) V3 load(1, XDATA, add(CFA_XSP16, literal(-16)))
          CFI (cfiCond64) V4 load(1, XDATA, add(CFA_XSP16, literal(-15)))
          CFI (cfiCond64) V5 load(1, XDATA, add(CFA_XSP16, literal(-14)))
          CFI (cfiCond64) V6 load(1, XDATA, add(CFA_XSP16, literal(-13)))
          CFI (cfiCond64) V7 load(1, XDATA, add(CFA_XSP16, literal(-12)))
          CFI (cfiCond64) V8 load(1, XDATA, add(CFA_XSP16, literal(-11)))
          CFI (cfiCond64) V9 load(1, XDATA, add(CFA_XSP16, literal(-10)))
          CFI (cfiCond64) V10 load(1, XDATA, add(CFA_XSP16, literal(-9)))
          CFI (cfiCond64) V11 load(1, XDATA, add(CFA_XSP16, literal(-8)))
          CFI (cfiCond64) V12 load(1, XDATA, add(CFA_XSP16, literal(-7)))
          CFI (cfiCond64) R7 load(1, XDATA, add(CFA_XSP16, literal(-6)))
          CFI (cfiCond64) ?RET_LOW load(1, XDATA, add(CFA_XSP16, literal(-5)))
          CFI (cfiCond64) ?RET_HIGH load(1, XDATA, add(CFA_XSP16, literal(-4)))
          CFI (cfiCond64) ?BRET_EXT load(1, XDATA, add(CFA_XSP16, literal(-3)))
          CFI (cfiCond64) DPL0 load(1, XDATA, add(CFA_XSP16, literal(-2)))
          CFI (cfiCond64) DPH0 load(1, XDATA, add(CFA_XSP16, literal(-1)))
          CFI (cfiCond64) CFA_SP SP+-2
          CFI (cfiCond64) CFA_XSP16 add(XSP16, 35)
          CFI Block cfiPicker65 Using cfiCommon1
          CFI (cfiPicker65) NoFunction
          CFI (cfiPicker65) Picker
        MOVX    A,@DPTR
        MOV     R1,A
        MOV     A,R2
        MOV     R0,A
        MOV     A,#0x2
        RET
          CFI (cfiCond62) CFA_SP SP+0
          CFI (cfiCond63) CFA_SP SP+0
          CFI (cfiCond64) CFA_SP SP+0
          CFI (cfiPicker65) CFA_SP SP+0
          CFI EndBlock cfiCond62
          CFI EndBlock cfiCond63
          CFI EndBlock cfiCond64
          CFI EndBlock cfiPicker65

        RSEG BANKED_CODE:CODE:NOROOT(0)
?Subroutine15:
          CFI Block cfiCond66 Using cfiCommon0
          CFI Function MT_AfDataRequest
          CFI Conditional ??CrossCallReturnLabel_18
          CFI R6 load(1, XDATA, add(CFA_XSP16, literal(-21)))
          CFI VB load(1, XDATA, add(CFA_XSP16, literal(-20)))
          CFI V0 load(1, XDATA, add(CFA_XSP16, literal(-19)))
          CFI V1 load(1, XDATA, add(CFA_XSP16, literal(-18)))
          CFI V2 load(1, XDATA, add(CFA_XSP16, literal(-17)))
          CFI V3 load(1, XDATA, add(CFA_XSP16, literal(-16)))
          CFI V4 load(1, XDATA, add(CFA_XSP16, literal(-15)))
          CFI V5 load(1, XDATA, add(CFA_XSP16, literal(-14)))
          CFI V6 load(1, XDATA, add(CFA_XSP16, literal(-13)))
          CFI V7 load(1, XDATA, add(CFA_XSP16, literal(-12)))
          CFI V8 load(1, XDATA, add(CFA_XSP16, literal(-11)))
          CFI V9 load(1, XDATA, add(CFA_XSP16, literal(-10)))
          CFI V10 load(1, XDATA, add(CFA_XSP16, literal(-9)))
          CFI V11 load(1, XDATA, add(CFA_XSP16, literal(-8)))
          CFI V12 load(1, XDATA, add(CFA_XSP16, literal(-7)))
          CFI R7 load(1, XDATA, add(CFA_XSP16, literal(-6)))
          CFI ?RET_LOW load(1, XDATA, add(CFA_XSP16, literal(-5)))
          CFI ?RET_HIGH load(1, XDATA, add(CFA_XSP16, literal(-4)))
          CFI ?BRET_EXT load(1, XDATA, add(CFA_XSP16, literal(-3)))
          CFI DPL0 load(1, XDATA, add(CFA_XSP16, literal(-2)))
          CFI DPH0 load(1, XDATA, add(CFA_XSP16, literal(-1)))
          CFI CFA_SP SP+-2
          CFI CFA_XSP16 add(XSP16, 35)
          CFI Block cfiCond67 Using cfiCommon0
          CFI (cfiCond67) Function MT_AfDataRequestSrcRtg
          CFI (cfiCond67) Conditional ??CrossCallReturnLabel_19
          CFI (cfiCond67) R6 load(1, XDATA, add(CFA_XSP16, literal(-21)))
          CFI (cfiCond67) VB load(1, XDATA, add(CFA_XSP16, literal(-20)))
          CFI (cfiCond67) V0 load(1, XDATA, add(CFA_XSP16, literal(-19)))
          CFI (cfiCond67) V1 load(1, XDATA, add(CFA_XSP16, literal(-18)))
          CFI (cfiCond67) V2 load(1, XDATA, add(CFA_XSP16, literal(-17)))
          CFI (cfiCond67) V3 load(1, XDATA, add(CFA_XSP16, literal(-16)))
          CFI (cfiCond67) V4 load(1, XDATA, add(CFA_XSP16, literal(-15)))
          CFI (cfiCond67) V5 load(1, XDATA, add(CFA_XSP16, literal(-14)))
          CFI (cfiCond67) V6 load(1, XDATA, add(CFA_XSP16, literal(-13)))
          CFI (cfiCond67) V7 load(1, XDATA, add(CFA_XSP16, literal(-12)))
          CFI (cfiCond67) V8 load(1, XDATA, add(CFA_XSP16, literal(-11)))
          CFI (cfiCond67) V9 load(1, XDATA, add(CFA_XSP16, literal(-10)))
          CFI (cfiCond67) V10 load(1, XDATA, add(CFA_XSP16, literal(-9)))
          CFI (cfiCond67) V11 load(1, XDATA, add(CFA_XSP16, literal(-8)))
          CFI (cfiCond67) V12 load(1, XDATA, add(CFA_XSP16, literal(-7)))
          CFI (cfiCond67) R7 load(1, XDATA, add(CFA_XSP16, literal(-6)))
          CFI (cfiCond67) ?RET_LOW load(1, XDATA, add(CFA_XSP16, literal(-5)))
          CFI (cfiCond67) ?RET_HIGH load(1, XDATA, add(CFA_XSP16, literal(-4)))
          CFI (cfiCond67) ?BRET_EXT load(1, XDATA, add(CFA_XSP16, literal(-3)))
          CFI (cfiCond67) DPL0 load(1, XDATA, add(CFA_XSP16, literal(-2)))
          CFI (cfiCond67) DPH0 load(1, XDATA, add(CFA_XSP16, literal(-1)))
          CFI (cfiCond67) CFA_SP SP+-2
          CFI (cfiCond67) CFA_XSP16 add(XSP16, 35)
          CFI Block cfiPicker68 Using cfiCommon1
          CFI (cfiPicker68) NoFunction
          CFI (cfiPicker68) Picker
        INC     DPTR
        INC     DPTR
        INC     DPTR
        MOVX    A,@DPTR
        MOV     ?V8,A
        MOV     DPL,R6
        MOV     DPH,R7
        INC     DPTR
        INC     DPTR
        INC     DPTR
        INC     DPTR
        RET
          CFI (cfiCond66) CFA_SP SP+0
          CFI (cfiCond67) CFA_SP SP+0
          CFI (cfiPicker68) CFA_SP SP+0
          CFI EndBlock cfiCond66
          CFI EndBlock cfiCond67
          CFI EndBlock cfiPicker68
//  563 #endif
//  564 
//  565 #if defined INTER_PAN
//  566 /***************************************************************************************************
//  567  * @fn      MT_AfInterPanCtl
//  568  *
//  569  * @brief   Process the AF Inter Pan control command.
//  570  *
//  571  * @param   pBuf - pointer to the received buffer
//  572  *
//  573  * @return  none
//  574  ***************************************************************************************************/
//  575 static void MT_AfInterPanCtl(uint8 *pBuf)
//  576 {
//  577   uint8 cmd, rtrn;
//  578   uint16 panId;
//  579   endPointDesc_t *pEP;
//  580 
//  581   cmd = pBuf[MT_RPC_POS_CMD1];
//  582   pBuf += MT_RPC_FRAME_HDR_SZ;
//  583 
//  584   switch (*pBuf++)  // Inter-pan request parameter.
//  585   {
//  586   case InterPanClr:
//  587     rtrn = StubAPS_SetIntraPanChannel();           // Switch channel back to the NIB channel.
//  588     break;
//  589 
//  590   case InterPanSet:
//  591     rtrn = StubAPS_SetInterPanChannel(*pBuf);      // Set channel for inter-pan communication.
//  592     break;
//  593 
//  594   case InterPanReg:
//  595     if ((pEP = afFindEndPointDesc(*pBuf)))
//  596     {
//  597       StubAPS_RegisterApp(pEP);
//  598       rtrn = SUCCESS;
//  599     }
//  600     else
//  601     {
//  602       rtrn = FAILURE;
//  603     }
//  604     break;
//  605 
//  606   case InterPanChk:
//  607     panId = BUILD_UINT16(pBuf[0], pBuf[1]);
//  608     rtrn = (StubAPS_InterPan(panId, pBuf[2])) ? ZSuccess : ZFailure;
//  609     break;
//  610 
//  611   default:
//  612     rtrn = afStatus_INVALID_PARAMETER;
//  613     break;
//  614   }
//  615 
//  616   MT_BuildAndSendZToolResponse(((uint8)MT_RPC_CMD_SRSP | (uint8)MT_RPC_SYS_AF), cmd, 1, &rtrn);
//  617 }
//  618 #endif
//  619 
//  620 /***************************************************************************************************
//  621  * @fn      MT_AfDataConfirm
//  622  *
//  623  * @brief   Process
//  624  *
//  625  * @param   pBuf - pointer to the received buffer
//  626  *
//  627  * @return  none
//  628  ***************************************************************************************************/

        RSEG BANKED_CODE:CODE:NOROOT(0)
//  629 void MT_AfDataConfirm(afDataConfirm_t *pMsg)
MT_AfDataConfirm:
          CFI Block cfiBlock69 Using cfiCommon0
          CFI Function MT_AfDataConfirm
        CODE
//  630 {
        FUNCALL MT_AfDataConfirm, MT_BuildAndSendZToolResponse
        LOCFRAME ISTACK, 2, STACK
        LOCFRAME PSTACK, 0, STACK
        LOCFRAME XSTACK, 3, STACK
        LOCFRAME IOVERLAY, 0, STATIC
        LOCFRAME DOVERLAY, 0, STATIC
        ARGFRAME ISTACK, 2, STACK
        ARGFRAME PSTACK, 0, STACK
        ARGFRAME XSTACK, 3, STACK
        ARGFRAME IOVERLAY, 0, STATIC
        ARGFRAME DOVERLAY, 0, STATIC
        PUSH    DPL
          CFI DPL0 Frame(CFA_SP, 4)
          CFI CFA_SP SP+-4
        PUSH    DPH
          CFI DPH0 Frame(CFA_SP, 5)
          CFI CFA_SP SP+-5
        ; Saved register size: 2
        ; Auto size: 3
        MOV     A,#-0x3
        LCALL   ?ALLOC_XSTACK8
          CFI CFA_XSP16 add(XSP16, 3)
//  631   uint8 retArray[3];
//  632 
//  633   retArray[0] = pMsg->hdr.status;
        LCALL   ?Subroutine7 & 0xFFFF
//  634   retArray[1] = pMsg->endpoint;
??CrossCallReturnLabel_4:
        PUSH    A
          CFI CFA_SP SP+-6
        MOV     A,#0x1
        LCALL   ?XSTACK_DISP0_8
        POP     A
          CFI CFA_SP SP+-5
        LCALL   ?Subroutine28 & 0xFFFF
//  635   retArray[2] = pMsg->transID;
??CrossCallReturnLabel_41:
        PUSH    A
          CFI CFA_SP SP+-6
        MOV     A,#0x2
        LCALL   ?XSTACK_DISP0_8
        POP     A
          CFI CFA_SP SP+-5
        MOVX    @DPTR,A
//  636 
//  637   /* Build and send back the response */
//  638   MT_BuildAndSendZToolResponse(((uint8)MT_RPC_CMD_AREQ | (uint8)MT_RPC_SYS_AF), MT_AF_DATA_CONFIRM, 3, retArray);
        ; Setup parameters for call to function MT_BuildAndSendZToolResponse
        MOV     R4,?XSP + 0
        MOV     R5,?XSP + 1
        MOV     R3,#0x3
        MOV     R2,#-0x80
        MOV     R1,#0x44
        LCALL   `??MT_BuildAndSendZToolResponse::?relay`; Banked call to: MT_BuildAndSendZToolResponse
//  639 }
        MOV     A,#0x3
          CFI EndBlock cfiBlock69
        REQUIRE ?Subroutine3
        ; // Fall through to label ?Subroutine3

        RSEG BANKED_CODE:CODE:NOROOT(0)
?Subroutine3:
          CFI Block cfiBlock70 Using cfiCommon0
          CFI NoFunction
          CFI CFA_SP SP+-5
          CFI CFA_XSP16 add(XSP16, 3)
          CFI DPL0 Frame(CFA_SP, 4)
          CFI DPH0 Frame(CFA_SP, 5)
          CFI Invalid
        LCALL   ?DEALLOC_XSTACK8
          CFI CFA_XSP16 XSP16+0
          CFI Valid
        POP     DPH
          CFI CFA_SP SP+-4
          CFI DPH0 SameValue
        POP     DPL
          CFI CFA_SP SP+-3
          CFI DPL0 SameValue
        LJMP    ?BRET
          CFI EndBlock cfiBlock70
//  640 
//  641 /***************************************************************************************************
//  642  * @fn      MT_AfReflectError
//  643  *
//  644  * @brief   Process
//  645  *
//  646  * @param   pBuf - pointer to the received buffer
//  647  *
//  648  * @return  none
//  649  ***************************************************************************************************/

        RSEG BANKED_CODE:CODE:NOROOT(0)
//  650 void MT_AfReflectError(afReflectError_t *pMsg)
MT_AfReflectError:
          CFI Block cfiBlock71 Using cfiCommon0
          CFI Function MT_AfReflectError
        CODE
//  651 {
        FUNCALL MT_AfReflectError, MT_BuildAndSendZToolResponse
        LOCFRAME ISTACK, 2, STACK
        LOCFRAME PSTACK, 0, STACK
        LOCFRAME XSTACK, 6, STACK
        LOCFRAME IOVERLAY, 0, STATIC
        LOCFRAME DOVERLAY, 0, STATIC
        ARGFRAME ISTACK, 2, STACK
        ARGFRAME PSTACK, 0, STACK
        ARGFRAME XSTACK, 6, STACK
        ARGFRAME IOVERLAY, 0, STATIC
        ARGFRAME DOVERLAY, 0, STATIC
        PUSH    DPL
          CFI DPL0 Frame(CFA_SP, 4)
          CFI CFA_SP SP+-4
        PUSH    DPH
          CFI DPH0 Frame(CFA_SP, 5)
          CFI CFA_SP SP+-5
        ; Saved register size: 2
        ; Auto size: 6
        MOV     A,#-0x6
        LCALL   ?ALLOC_XSTACK8
          CFI CFA_XSP16 add(XSP16, 6)
//  652   uint8 retArray[6];
//  653 
//  654   retArray[0] = pMsg->hdr.status;
        LCALL   ?Subroutine7 & 0xFFFF
//  655   retArray[1] = pMsg->endpoint;
??CrossCallReturnLabel_5:
        PUSH    A
          CFI CFA_SP SP+-6
        MOV     A,#0x1
        LCALL   ?XSTACK_DISP0_8
        POP     A
          CFI CFA_SP SP+-5
        LCALL   ?Subroutine28 & 0xFFFF
//  656   retArray[2] = pMsg->transID;
??CrossCallReturnLabel_42:
        PUSH    A
          CFI CFA_SP SP+-6
        MOV     A,#0x2
        LCALL   ?XSTACK_DISP0_8
        POP     A
          CFI CFA_SP SP+-5
        LCALL   ?Subroutine43 & 0xFFFF
//  657   retArray[3] = pMsg->dstAddrMode;
??CrossCallReturnLabel_72:
        INC     DPTR
        MOVX    A,@DPTR
        PUSH    A
          CFI CFA_SP SP+-6
        MOV     A,#0x3
        LCALL   ?XSTACK_DISP0_8
        POP     A
          CFI CFA_SP SP+-5
        MOVX    @DPTR,A
//  658   retArray[4] = LO_UINT16( pMsg->dstAddr );
        MOV     A,R2
        ADD     A,#0x5
        MOV     R0,A
        CLR     A
        ADDC    A,R3
        MOV     R1,A
        MOV     DPL,R0
        MOV     DPH,R1
        MOVX    A,@DPTR
        PUSH    A
          CFI CFA_SP SP+-6
        MOV     A,#0x4
        LCALL   ?XSTACK_DISP0_8
        POP     A
          CFI CFA_SP SP+-5
        LCALL   ?Subroutine29 & 0xFFFF
//  659   retArray[5] = HI_UINT16( pMsg->dstAddr );
??CrossCallReturnLabel_44:
        MOVX    A,@DPTR
        PUSH    A
          CFI CFA_SP SP+-6
        MOV     A,#0x5
        LCALL   ?XSTACK_DISP0_8
        POP     A
          CFI CFA_SP SP+-5
        MOVX    @DPTR,A
//  660 
//  661   /* Build and send back the response */
//  662   MT_BuildAndSendZToolResponse(((uint8)MT_RPC_CMD_AREQ | (uint8)MT_RPC_SYS_AF), MT_AF_REFLECT_ERROR, 6, retArray);
        ; Setup parameters for call to function MT_BuildAndSendZToolResponse
        MOV     R4,?XSP + 0
        MOV     R5,?XSP + 1
        MOV     R3,#0x6
        MOV     R2,#-0x7d
        MOV     R1,#0x44
        LCALL   `??MT_BuildAndSendZToolResponse::?relay`; Banked call to: MT_BuildAndSendZToolResponse
//  663 }
        MOV     A,#0x6
        SJMP    ?Subroutine3
          CFI EndBlock cfiBlock71

        RSEG BANKED_CODE:CODE:NOROOT(0)
?Subroutine29:
          CFI Block cfiCond72 Using cfiCommon0
          CFI Function MT_AfCommandProcessing
          CFI Conditional ??CrossCallReturnLabel_43
          CFI R6 load(1, XDATA, add(CFA_XSP16, literal(-9)))
          CFI VB load(1, XDATA, add(CFA_XSP16, literal(-8)))
          CFI V0 load(1, XDATA, add(CFA_XSP16, literal(-7)))
          CFI R7 load(1, XDATA, add(CFA_XSP16, literal(-6)))
          CFI ?RET_LOW load(1, XDATA, add(CFA_XSP16, literal(-5)))
          CFI ?RET_HIGH load(1, XDATA, add(CFA_XSP16, literal(-4)))
          CFI ?BRET_EXT load(1, XDATA, add(CFA_XSP16, literal(-3)))
          CFI DPL0 load(1, XDATA, add(CFA_XSP16, literal(-2)))
          CFI DPH0 load(1, XDATA, add(CFA_XSP16, literal(-1)))
          CFI CFA_SP SP+-2
          CFI CFA_XSP16 add(XSP16, 14)
          CFI Block cfiCond73 Using cfiCommon0
          CFI (cfiCond73) Function MT_AfReflectError
          CFI (cfiCond73) Conditional ??CrossCallReturnLabel_44
          CFI (cfiCond73) DPL0 Frame(CFA_SP, 4)
          CFI (cfiCond73) DPH0 Frame(CFA_SP, 5)
          CFI (cfiCond73) CFA_SP SP+-7
          CFI (cfiCond73) CFA_XSP16 add(XSP16, 6)
          CFI Block cfiCond74 Using cfiCommon0
          CFI (cfiCond74) Function MT_AfIncomingMsg
          CFI (cfiCond74) Conditional ??CrossCallReturnLabel_45
          CFI (cfiCond74) R6 load(1, XDATA, add(CFA_XSP16, literal(-24)))
          CFI (cfiCond74) VB load(1, XDATA, add(CFA_XSP16, literal(-23)))
          CFI (cfiCond74) V0 load(1, XDATA, add(CFA_XSP16, literal(-22)))
          CFI (cfiCond74) V1 load(1, XDATA, add(CFA_XSP16, literal(-21)))
          CFI (cfiCond74) V2 load(1, XDATA, add(CFA_XSP16, literal(-20)))
          CFI (cfiCond74) V3 load(1, XDATA, add(CFA_XSP16, literal(-19)))
          CFI (cfiCond74) V4 load(1, XDATA, add(CFA_XSP16, literal(-18)))
          CFI (cfiCond74) V5 load(1, XDATA, add(CFA_XSP16, literal(-17)))
          CFI (cfiCond74) V6 load(1, XDATA, add(CFA_XSP16, literal(-16)))
          CFI (cfiCond74) V7 load(1, XDATA, add(CFA_XSP16, literal(-15)))
          CFI (cfiCond74) V8 load(1, XDATA, add(CFA_XSP16, literal(-14)))
          CFI (cfiCond74) V9 load(1, XDATA, add(CFA_XSP16, literal(-13)))
          CFI (cfiCond74) V10 load(1, XDATA, add(CFA_XSP16, literal(-12)))
          CFI (cfiCond74) V11 load(1, XDATA, add(CFA_XSP16, literal(-11)))
          CFI (cfiCond74) V12 load(1, XDATA, add(CFA_XSP16, literal(-10)))
          CFI (cfiCond74) V13 load(1, XDATA, add(CFA_XSP16, literal(-9)))
          CFI (cfiCond74) V14 load(1, XDATA, add(CFA_XSP16, literal(-8)))
          CFI (cfiCond74) V15 load(1, XDATA, add(CFA_XSP16, literal(-7)))
          CFI (cfiCond74) R7 load(1, XDATA, add(CFA_XSP16, literal(-6)))
          CFI (cfiCond74) ?RET_LOW load(1, XDATA, add(CFA_XSP16, literal(-5)))
          CFI (cfiCond74) ?RET_HIGH load(1, XDATA, add(CFA_XSP16, literal(-4)))
          CFI (cfiCond74) ?BRET_EXT load(1, XDATA, add(CFA_XSP16, literal(-3)))
          CFI (cfiCond74) DPL0 load(1, XDATA, add(CFA_XSP16, literal(-2)))
          CFI (cfiCond74) DPH0 load(1, XDATA, add(CFA_XSP16, literal(-1)))
          CFI (cfiCond74) CFA_SP SP+-2
          CFI (cfiCond74) CFA_XSP16 add(XSP16, 25)
          CFI Block cfiPicker75 Using cfiCommon1
          CFI (cfiPicker75) NoFunction
          CFI (cfiPicker75) Picker
        LCALL   ?Subroutine41 & 0xFFFF
??CrossCallReturnLabel_67:
        RET
          CFI (cfiCond72) CFA_SP SP+0
          CFI (cfiCond73) CFA_SP SP+-5
          CFI (cfiCond74) CFA_SP SP+0
          CFI (cfiPicker75) CFA_SP SP+0
          CFI EndBlock cfiCond72
          CFI EndBlock cfiCond73
          CFI EndBlock cfiCond74
          CFI EndBlock cfiPicker75

        RSEG BANKED_CODE:CODE:NOROOT(0)
?Subroutine41:
          CFI Block cfiCond76 Using cfiCommon0
          CFI Function MT_AfCommandProcessing
          CFI Conditional ??CrossCallReturnLabel_67, ??CrossCallReturnLabel_43
          CFI R6 load(1, XDATA, add(CFA_XSP16, literal(-9)))
          CFI VB load(1, XDATA, add(CFA_XSP16, literal(-8)))
          CFI V0 load(1, XDATA, add(CFA_XSP16, literal(-7)))
          CFI R7 load(1, XDATA, add(CFA_XSP16, literal(-6)))
          CFI ?RET_LOW load(1, XDATA, add(CFA_XSP16, literal(-5)))
          CFI ?RET_HIGH load(1, XDATA, add(CFA_XSP16, literal(-4)))
          CFI ?BRET_EXT load(1, XDATA, add(CFA_XSP16, literal(-3)))
          CFI DPL0 load(1, XDATA, add(CFA_XSP16, literal(-2)))
          CFI DPH0 load(1, XDATA, add(CFA_XSP16, literal(-1)))
          CFI CFA_SP SP+-4
          CFI CFA_XSP16 add(XSP16, 14)
          CFI Block cfiCond77 Using cfiCommon0
          CFI (cfiCond77) Function MT_AfReflectError
          CFI (cfiCond77) Conditional ??CrossCallReturnLabel_67, ??CrossCallReturnLabel_44
          CFI (cfiCond77) DPL0 Frame(CFA_SP, 4)
          CFI (cfiCond77) DPH0 Frame(CFA_SP, 5)
          CFI (cfiCond77) CFA_SP SP+-9
          CFI (cfiCond77) CFA_XSP16 add(XSP16, 6)
          CFI Block cfiCond78 Using cfiCommon0
          CFI (cfiCond78) Function MT_AfIncomingMsg
          CFI (cfiCond78) Conditional ??CrossCallReturnLabel_67, ??CrossCallReturnLabel_45
          CFI (cfiCond78) R6 load(1, XDATA, add(CFA_XSP16, literal(-24)))
          CFI (cfiCond78) VB load(1, XDATA, add(CFA_XSP16, literal(-23)))
          CFI (cfiCond78) V0 load(1, XDATA, add(CFA_XSP16, literal(-22)))
          CFI (cfiCond78) V1 load(1, XDATA, add(CFA_XSP16, literal(-21)))
          CFI (cfiCond78) V2 load(1, XDATA, add(CFA_XSP16, literal(-20)))
          CFI (cfiCond78) V3 load(1, XDATA, add(CFA_XSP16, literal(-19)))
          CFI (cfiCond78) V4 load(1, XDATA, add(CFA_XSP16, literal(-18)))
          CFI (cfiCond78) V5 load(1, XDATA, add(CFA_XSP16, literal(-17)))
          CFI (cfiCond78) V6 load(1, XDATA, add(CFA_XSP16, literal(-16)))
          CFI (cfiCond78) V7 load(1, XDATA, add(CFA_XSP16, literal(-15)))
          CFI (cfiCond78) V8 load(1, XDATA, add(CFA_XSP16, literal(-14)))
          CFI (cfiCond78) V9 load(1, XDATA, add(CFA_XSP16, literal(-13)))
          CFI (cfiCond78) V10 load(1, XDATA, add(CFA_XSP16, literal(-12)))
          CFI (cfiCond78) V11 load(1, XDATA, add(CFA_XSP16, literal(-11)))
          CFI (cfiCond78) V12 load(1, XDATA, add(CFA_XSP16, literal(-10)))
          CFI (cfiCond78) V13 load(1, XDATA, add(CFA_XSP16, literal(-9)))
          CFI (cfiCond78) V14 load(1, XDATA, add(CFA_XSP16, literal(-8)))
          CFI (cfiCond78) V15 load(1, XDATA, add(CFA_XSP16, literal(-7)))
          CFI (cfiCond78) R7 load(1, XDATA, add(CFA_XSP16, literal(-6)))
          CFI (cfiCond78) ?RET_LOW load(1, XDATA, add(CFA_XSP16, literal(-5)))
          CFI (cfiCond78) ?RET_HIGH load(1, XDATA, add(CFA_XSP16, literal(-4)))
          CFI (cfiCond78) ?BRET_EXT load(1, XDATA, add(CFA_XSP16, literal(-3)))
          CFI (cfiCond78) DPL0 load(1, XDATA, add(CFA_XSP16, literal(-2)))
          CFI (cfiCond78) DPH0 load(1, XDATA, add(CFA_XSP16, literal(-1)))
          CFI (cfiCond78) CFA_SP SP+-4
          CFI (cfiCond78) CFA_XSP16 add(XSP16, 25)
          CFI Block cfiCond79 Using cfiCommon0
          CFI (cfiCond79) Function MT_AfIncomingMsg
          CFI (cfiCond79) Conditional ??CrossCallReturnLabel_68, ??CrossCallReturnLabel_16
          CFI (cfiCond79) R6 load(1, XDATA, add(CFA_XSP16, literal(-24)))
          CFI (cfiCond79) VB load(1, XDATA, add(CFA_XSP16, literal(-23)))
          CFI (cfiCond79) V0 load(1, XDATA, add(CFA_XSP16, literal(-22)))
          CFI (cfiCond79) V1 load(1, XDATA, add(CFA_XSP16, literal(-21)))
          CFI (cfiCond79) V2 load(1, XDATA, add(CFA_XSP16, literal(-20)))
          CFI (cfiCond79) V3 load(1, XDATA, add(CFA_XSP16, literal(-19)))
          CFI (cfiCond79) V4 load(1, XDATA, add(CFA_XSP16, literal(-18)))
          CFI (cfiCond79) V5 load(1, XDATA, add(CFA_XSP16, literal(-17)))
          CFI (cfiCond79) V6 load(1, XDATA, add(CFA_XSP16, literal(-16)))
          CFI (cfiCond79) V7 load(1, XDATA, add(CFA_XSP16, literal(-15)))
          CFI (cfiCond79) V8 load(1, XDATA, add(CFA_XSP16, literal(-14)))
          CFI (cfiCond79) V9 load(1, XDATA, add(CFA_XSP16, literal(-13)))
          CFI (cfiCond79) V10 load(1, XDATA, add(CFA_XSP16, literal(-12)))
          CFI (cfiCond79) V11 load(1, XDATA, add(CFA_XSP16, literal(-11)))
          CFI (cfiCond79) V12 load(1, XDATA, add(CFA_XSP16, literal(-10)))
          CFI (cfiCond79) V13 load(1, XDATA, add(CFA_XSP16, literal(-9)))
          CFI (cfiCond79) V14 load(1, XDATA, add(CFA_XSP16, literal(-8)))
          CFI (cfiCond79) V15 load(1, XDATA, add(CFA_XSP16, literal(-7)))
          CFI (cfiCond79) R7 load(1, XDATA, add(CFA_XSP16, literal(-6)))
          CFI (cfiCond79) ?RET_LOW load(1, XDATA, add(CFA_XSP16, literal(-5)))
          CFI (cfiCond79) ?RET_HIGH load(1, XDATA, add(CFA_XSP16, literal(-4)))
          CFI (cfiCond79) ?BRET_EXT load(1, XDATA, add(CFA_XSP16, literal(-3)))
          CFI (cfiCond79) DPL0 load(1, XDATA, add(CFA_XSP16, literal(-2)))
          CFI (cfiCond79) DPH0 load(1, XDATA, add(CFA_XSP16, literal(-1)))
          CFI (cfiCond79) CFA_SP SP+-4
          CFI (cfiCond79) CFA_XSP16 add(XSP16, 25)
          CFI Block cfiCond80 Using cfiCommon0
          CFI (cfiCond80) Function MT_AfIncomingMsg
          CFI (cfiCond80) Conditional ??CrossCallReturnLabel_68, ??CrossCallReturnLabel_17
          CFI (cfiCond80) R6 load(1, XDATA, add(CFA_XSP16, literal(-24)))
          CFI (cfiCond80) VB load(1, XDATA, add(CFA_XSP16, literal(-23)))
          CFI (cfiCond80) V0 load(1, XDATA, add(CFA_XSP16, literal(-22)))
          CFI (cfiCond80) V1 load(1, XDATA, add(CFA_XSP16, literal(-21)))
          CFI (cfiCond80) V2 load(1, XDATA, add(CFA_XSP16, literal(-20)))
          CFI (cfiCond80) V3 load(1, XDATA, add(CFA_XSP16, literal(-19)))
          CFI (cfiCond80) V4 load(1, XDATA, add(CFA_XSP16, literal(-18)))
          CFI (cfiCond80) V5 load(1, XDATA, add(CFA_XSP16, literal(-17)))
          CFI (cfiCond80) V6 load(1, XDATA, add(CFA_XSP16, literal(-16)))
          CFI (cfiCond80) V7 load(1, XDATA, add(CFA_XSP16, literal(-15)))
          CFI (cfiCond80) V8 load(1, XDATA, add(CFA_XSP16, literal(-14)))
          CFI (cfiCond80) V9 load(1, XDATA, add(CFA_XSP16, literal(-13)))
          CFI (cfiCond80) V10 load(1, XDATA, add(CFA_XSP16, literal(-12)))
          CFI (cfiCond80) V11 load(1, XDATA, add(CFA_XSP16, literal(-11)))
          CFI (cfiCond80) V12 load(1, XDATA, add(CFA_XSP16, literal(-10)))
          CFI (cfiCond80) V13 load(1, XDATA, add(CFA_XSP16, literal(-9)))
          CFI (cfiCond80) V14 load(1, XDATA, add(CFA_XSP16, literal(-8)))
          CFI (cfiCond80) V15 load(1, XDATA, add(CFA_XSP16, literal(-7)))
          CFI (cfiCond80) R7 load(1, XDATA, add(CFA_XSP16, literal(-6)))
          CFI (cfiCond80) ?RET_LOW load(1, XDATA, add(CFA_XSP16, literal(-5)))
          CFI (cfiCond80) ?RET_HIGH load(1, XDATA, add(CFA_XSP16, literal(-4)))
          CFI (cfiCond80) ?BRET_EXT load(1, XDATA, add(CFA_XSP16, literal(-3)))
          CFI (cfiCond80) DPL0 load(1, XDATA, add(CFA_XSP16, literal(-2)))
          CFI (cfiCond80) DPH0 load(1, XDATA, add(CFA_XSP16, literal(-1)))
          CFI (cfiCond80) CFA_SP SP+-4
          CFI (cfiCond80) CFA_XSP16 add(XSP16, 25)
          CFI Block cfiCond81 Using cfiCommon0
          CFI (cfiCond81) Function MT_AfIncomingMsg
          CFI (cfiCond81) Conditional ??CrossCallReturnLabel_69, ??CrossCallReturnLabel_2
          CFI (cfiCond81) R6 load(1, XDATA, add(CFA_XSP16, literal(-24)))
          CFI (cfiCond81) VB load(1, XDATA, add(CFA_XSP16, literal(-23)))
          CFI (cfiCond81) V0 load(1, XDATA, add(CFA_XSP16, literal(-22)))
          CFI (cfiCond81) V1 load(1, XDATA, add(CFA_XSP16, literal(-21)))
          CFI (cfiCond81) V2 load(1, XDATA, add(CFA_XSP16, literal(-20)))
          CFI (cfiCond81) V3 load(1, XDATA, add(CFA_XSP16, literal(-19)))
          CFI (cfiCond81) V4 load(1, XDATA, add(CFA_XSP16, literal(-18)))
          CFI (cfiCond81) V5 load(1, XDATA, add(CFA_XSP16, literal(-17)))
          CFI (cfiCond81) V6 load(1, XDATA, add(CFA_XSP16, literal(-16)))
          CFI (cfiCond81) V7 load(1, XDATA, add(CFA_XSP16, literal(-15)))
          CFI (cfiCond81) V8 load(1, XDATA, add(CFA_XSP16, literal(-14)))
          CFI (cfiCond81) V9 load(1, XDATA, add(CFA_XSP16, literal(-13)))
          CFI (cfiCond81) V10 load(1, XDATA, add(CFA_XSP16, literal(-12)))
          CFI (cfiCond81) V11 load(1, XDATA, add(CFA_XSP16, literal(-11)))
          CFI (cfiCond81) V12 load(1, XDATA, add(CFA_XSP16, literal(-10)))
          CFI (cfiCond81) V13 load(1, XDATA, add(CFA_XSP16, literal(-9)))
          CFI (cfiCond81) V14 load(1, XDATA, add(CFA_XSP16, literal(-8)))
          CFI (cfiCond81) V15 load(1, XDATA, add(CFA_XSP16, literal(-7)))
          CFI (cfiCond81) R7 load(1, XDATA, add(CFA_XSP16, literal(-6)))
          CFI (cfiCond81) ?RET_LOW load(1, XDATA, add(CFA_XSP16, literal(-5)))
          CFI (cfiCond81) ?RET_HIGH load(1, XDATA, add(CFA_XSP16, literal(-4)))
          CFI (cfiCond81) ?BRET_EXT load(1, XDATA, add(CFA_XSP16, literal(-3)))
          CFI (cfiCond81) DPL0 load(1, XDATA, add(CFA_XSP16, literal(-2)))
          CFI (cfiCond81) DPH0 load(1, XDATA, add(CFA_XSP16, literal(-1)))
          CFI (cfiCond81) CFA_SP SP+-4
          CFI (cfiCond81) CFA_XSP16 add(XSP16, 25)
          CFI Block cfiCond82 Using cfiCommon0
          CFI (cfiCond82) Function MT_AfIncomingMsg
          CFI (cfiCond82) Conditional ??CrossCallReturnLabel_69, ??CrossCallReturnLabel_3
          CFI (cfiCond82) R6 load(1, XDATA, add(CFA_XSP16, literal(-24)))
          CFI (cfiCond82) VB load(1, XDATA, add(CFA_XSP16, literal(-23)))
          CFI (cfiCond82) V0 load(1, XDATA, add(CFA_XSP16, literal(-22)))
          CFI (cfiCond82) V1 load(1, XDATA, add(CFA_XSP16, literal(-21)))
          CFI (cfiCond82) V2 load(1, XDATA, add(CFA_XSP16, literal(-20)))
          CFI (cfiCond82) V3 load(1, XDATA, add(CFA_XSP16, literal(-19)))
          CFI (cfiCond82) V4 load(1, XDATA, add(CFA_XSP16, literal(-18)))
          CFI (cfiCond82) V5 load(1, XDATA, add(CFA_XSP16, literal(-17)))
          CFI (cfiCond82) V6 load(1, XDATA, add(CFA_XSP16, literal(-16)))
          CFI (cfiCond82) V7 load(1, XDATA, add(CFA_XSP16, literal(-15)))
          CFI (cfiCond82) V8 load(1, XDATA, add(CFA_XSP16, literal(-14)))
          CFI (cfiCond82) V9 load(1, XDATA, add(CFA_XSP16, literal(-13)))
          CFI (cfiCond82) V10 load(1, XDATA, add(CFA_XSP16, literal(-12)))
          CFI (cfiCond82) V11 load(1, XDATA, add(CFA_XSP16, literal(-11)))
          CFI (cfiCond82) V12 load(1, XDATA, add(CFA_XSP16, literal(-10)))
          CFI (cfiCond82) V13 load(1, XDATA, add(CFA_XSP16, literal(-9)))
          CFI (cfiCond82) V14 load(1, XDATA, add(CFA_XSP16, literal(-8)))
          CFI (cfiCond82) V15 load(1, XDATA, add(CFA_XSP16, literal(-7)))
          CFI (cfiCond82) R7 load(1, XDATA, add(CFA_XSP16, literal(-6)))
          CFI (cfiCond82) ?RET_LOW load(1, XDATA, add(CFA_XSP16, literal(-5)))
          CFI (cfiCond82) ?RET_HIGH load(1, XDATA, add(CFA_XSP16, literal(-4)))
          CFI (cfiCond82) ?BRET_EXT load(1, XDATA, add(CFA_XSP16, literal(-3)))
          CFI (cfiCond82) DPL0 load(1, XDATA, add(CFA_XSP16, literal(-2)))
          CFI (cfiCond82) DPH0 load(1, XDATA, add(CFA_XSP16, literal(-1)))
          CFI (cfiCond82) CFA_SP SP+-4
          CFI (cfiCond82) CFA_XSP16 add(XSP16, 25)
          CFI Block cfiPicker83 Using cfiCommon1
          CFI (cfiPicker83) NoFunction
          CFI (cfiPicker83) Picker
        MOVX    @DPTR,A
        MOV     DPL,R0
        MOV     DPH,R1
        INC     DPTR
        RET
          CFI (cfiCond76) CFA_SP SP+-2
          CFI (cfiCond77) CFA_SP SP+-7
          CFI (cfiCond78) CFA_SP SP+-2
          CFI (cfiCond79) CFA_SP SP+-2
          CFI (cfiCond80) CFA_SP SP+-2
          CFI (cfiCond81) CFA_SP SP+-2
          CFI (cfiCond82) CFA_SP SP+-2
          CFI (cfiPicker83) CFA_SP SP+0
          CFI EndBlock cfiCond76
          CFI EndBlock cfiCond77
          CFI EndBlock cfiCond78
          CFI EndBlock cfiCond79
          CFI EndBlock cfiCond80
          CFI EndBlock cfiCond81
          CFI EndBlock cfiCond82
          CFI EndBlock cfiPicker83

        RSEG BANKED_CODE:CODE:NOROOT(0)
?Subroutine28:
          CFI Block cfiCond84 Using cfiCommon0
          CFI Function MT_AfDataConfirm
          CFI Conditional ??CrossCallReturnLabel_41
          CFI DPL0 Frame(CFA_SP, 4)
          CFI DPH0 Frame(CFA_SP, 5)
          CFI CFA_SP SP+-7
          CFI CFA_XSP16 add(XSP16, 3)
          CFI Block cfiCond85 Using cfiCommon0
          CFI (cfiCond85) Function MT_AfReflectError
          CFI (cfiCond85) Conditional ??CrossCallReturnLabel_42
          CFI (cfiCond85) DPL0 Frame(CFA_SP, 4)
          CFI (cfiCond85) DPH0 Frame(CFA_SP, 5)
          CFI (cfiCond85) CFA_SP SP+-7
          CFI (cfiCond85) CFA_XSP16 add(XSP16, 6)
          CFI Block cfiPicker86 Using cfiCommon1
          CFI (cfiPicker86) NoFunction
          CFI (cfiPicker86) Picker
        LCALL   ?Subroutine43 & 0xFFFF
??CrossCallReturnLabel_73:
        MOVX    A,@DPTR
        RET
          CFI (cfiCond84) CFA_SP SP+-5
          CFI (cfiCond85) CFA_SP SP+-5
          CFI (cfiPicker86) CFA_SP SP+0
          CFI EndBlock cfiCond84
          CFI EndBlock cfiCond85
          CFI EndBlock cfiPicker86

        RSEG BANKED_CODE:CODE:NOROOT(0)
?Subroutine43:
          CFI Block cfiCond87 Using cfiCommon0
          CFI Function MT_AfReflectError
          CFI Conditional ??CrossCallReturnLabel_72
          CFI DPL0 Frame(CFA_SP, 4)
          CFI DPH0 Frame(CFA_SP, 5)
          CFI CFA_SP SP+-7
          CFI CFA_XSP16 add(XSP16, 6)
          CFI Block cfiCond88 Using cfiCommon0
          CFI (cfiCond88) Function MT_AfDataConfirm
          CFI (cfiCond88) Conditional ??CrossCallReturnLabel_73, ??CrossCallReturnLabel_41
          CFI (cfiCond88) DPL0 Frame(CFA_SP, 4)
          CFI (cfiCond88) DPH0 Frame(CFA_SP, 5)
          CFI (cfiCond88) CFA_SP SP+-9
          CFI (cfiCond88) CFA_XSP16 add(XSP16, 3)
          CFI Block cfiCond89 Using cfiCommon0
          CFI (cfiCond89) Function MT_AfReflectError
          CFI (cfiCond89) Conditional ??CrossCallReturnLabel_73, ??CrossCallReturnLabel_42
          CFI (cfiCond89) DPL0 Frame(CFA_SP, 4)
          CFI (cfiCond89) DPH0 Frame(CFA_SP, 5)
          CFI (cfiCond89) CFA_SP SP+-9
          CFI (cfiCond89) CFA_XSP16 add(XSP16, 6)
          CFI Block cfiPicker90 Using cfiCommon1
          CFI (cfiPicker90) NoFunction
          CFI (cfiPicker90) Picker
        LCALL   ?Subroutine46 & 0xFFFF
??CrossCallReturnLabel_81:
        INC     DPTR
        INC     DPTR
        INC     DPTR
        RET
          CFI (cfiCond87) CFA_SP SP+-5
          CFI (cfiCond88) CFA_SP SP+-7
          CFI (cfiCond89) CFA_SP SP+-7
          CFI (cfiPicker90) CFA_SP SP+0
          CFI EndBlock cfiCond87
          CFI EndBlock cfiCond88
          CFI EndBlock cfiCond89
          CFI EndBlock cfiPicker90

        RSEG BANKED_CODE:CODE:NOROOT(0)
?Subroutine7:
          CFI Block cfiCond91 Using cfiCommon0
          CFI Function MT_AfDataConfirm
          CFI Conditional ??CrossCallReturnLabel_4
          CFI DPL0 Frame(CFA_SP, 4)
          CFI DPH0 Frame(CFA_SP, 5)
          CFI CFA_SP SP+-7
          CFI CFA_XSP16 add(XSP16, 3)
          CFI Block cfiCond92 Using cfiCommon0
          CFI (cfiCond92) Function MT_AfReflectError
          CFI (cfiCond92) Conditional ??CrossCallReturnLabel_5
          CFI (cfiCond92) DPL0 Frame(CFA_SP, 4)
          CFI (cfiCond92) DPH0 Frame(CFA_SP, 5)
          CFI (cfiCond92) CFA_SP SP+-7
          CFI (cfiCond92) CFA_XSP16 add(XSP16, 6)
          CFI Block cfiPicker93 Using cfiCommon1
          CFI (cfiPicker93) NoFunction
          CFI (cfiPicker93) Picker
        MOV     DPL,R2
        MOV     DPH,R3
        INC     DPTR
        MOVX    A,@DPTR
        MOV     DPL,?XSP + 0
        MOV     DPH,?XSP + 1
        LCALL   ?Subroutine42 & 0xFFFF
??CrossCallReturnLabel_71:
        RET
          CFI (cfiCond91) CFA_SP SP+-5
          CFI (cfiCond92) CFA_SP SP+-5
          CFI (cfiPicker93) CFA_SP SP+0
          CFI EndBlock cfiCond91
          CFI EndBlock cfiCond92
          CFI EndBlock cfiPicker93

        RSEG BANKED_CODE:CODE:NOROOT(0)
?Subroutine42:
          CFI Block cfiCond94 Using cfiCommon0
          CFI Function MT_AfRegister
          CFI Conditional ??CrossCallReturnLabel_70, ??CrossCallReturnLabel_48
          CFI R6 load(1, XDATA, add(CFA_XSP16, literal(-14)))
          CFI VB load(1, XDATA, add(CFA_XSP16, literal(-13)))
          CFI V0 load(1, XDATA, add(CFA_XSP16, literal(-12)))
          CFI V1 load(1, XDATA, add(CFA_XSP16, literal(-11)))
          CFI V2 load(1, XDATA, add(CFA_XSP16, literal(-10)))
          CFI V3 load(1, XDATA, add(CFA_XSP16, literal(-9)))
          CFI V4 load(1, XDATA, add(CFA_XSP16, literal(-8)))
          CFI V5 load(1, XDATA, add(CFA_XSP16, literal(-7)))
          CFI R7 load(1, XDATA, add(CFA_XSP16, literal(-6)))
          CFI ?RET_LOW load(1, XDATA, add(CFA_XSP16, literal(-5)))
          CFI ?RET_HIGH load(1, XDATA, add(CFA_XSP16, literal(-4)))
          CFI ?BRET_EXT load(1, XDATA, add(CFA_XSP16, literal(-3)))
          CFI DPL0 load(1, XDATA, add(CFA_XSP16, literal(-2)))
          CFI DPH0 load(1, XDATA, add(CFA_XSP16, literal(-1)))
          CFI CFA_SP SP+-4
          CFI CFA_XSP16 add(XSP16, 15)
          CFI Block cfiCond95 Using cfiCommon0
          CFI (cfiCond95) Function MT_AfDelete
          CFI (cfiCond95) Conditional ??CrossCallReturnLabel_70, ??CrossCallReturnLabel_49
          CFI (cfiCond95) R6 load(1, XDATA, add(CFA_XSP16, literal(-9)))
          CFI (cfiCond95) VB load(1, XDATA, add(CFA_XSP16, literal(-8)))
          CFI (cfiCond95) V0 load(1, XDATA, add(CFA_XSP16, literal(-7)))
          CFI (cfiCond95) R7 load(1, XDATA, add(CFA_XSP16, literal(-6)))
          CFI (cfiCond95) ?RET_LOW load(1, XDATA, add(CFA_XSP16, literal(-5)))
          CFI (cfiCond95) ?RET_HIGH load(1, XDATA, add(CFA_XSP16, literal(-4)))
          CFI (cfiCond95) ?BRET_EXT load(1, XDATA, add(CFA_XSP16, literal(-3)))
          CFI (cfiCond95) DPL0 load(1, XDATA, add(CFA_XSP16, literal(-2)))
          CFI (cfiCond95) DPH0 load(1, XDATA, add(CFA_XSP16, literal(-1)))
          CFI (cfiCond95) CFA_SP SP+-4
          CFI (cfiCond95) CFA_XSP16 add(XSP16, 10)
          CFI Block cfiCond96 Using cfiCommon0
          CFI (cfiCond96) Function MT_AfDataConfirm
          CFI (cfiCond96) Conditional ??CrossCallReturnLabel_71, ??CrossCallReturnLabel_4
          CFI (cfiCond96) DPL0 Frame(CFA_SP, 4)
          CFI (cfiCond96) DPH0 Frame(CFA_SP, 5)
          CFI (cfiCond96) CFA_SP SP+-9
          CFI (cfiCond96) CFA_XSP16 add(XSP16, 3)
          CFI Block cfiCond97 Using cfiCommon0
          CFI (cfiCond97) Function MT_AfReflectError
          CFI (cfiCond97) Conditional ??CrossCallReturnLabel_71, ??CrossCallReturnLabel_5
          CFI (cfiCond97) DPL0 Frame(CFA_SP, 4)
          CFI (cfiCond97) DPH0 Frame(CFA_SP, 5)
          CFI (cfiCond97) CFA_SP SP+-9
          CFI (cfiCond97) CFA_XSP16 add(XSP16, 6)
          CFI Block cfiPicker98 Using cfiCommon1
          CFI (cfiPicker98) NoFunction
          CFI (cfiPicker98) Picker
        LCALL   ?Subroutine46 & 0xFFFF
??CrossCallReturnLabel_82:
        INC     DPTR
        INC     DPTR
        MOVX    A,@DPTR
        RET
          CFI (cfiCond94) CFA_SP SP+-2
          CFI (cfiCond95) CFA_SP SP+-2
          CFI (cfiCond96) CFA_SP SP+-7
          CFI (cfiCond97) CFA_SP SP+-7
          CFI (cfiPicker98) CFA_SP SP+0
          CFI EndBlock cfiCond94
          CFI EndBlock cfiCond95
          CFI EndBlock cfiCond96
          CFI EndBlock cfiCond97
          CFI EndBlock cfiPicker98

        RSEG BANKED_CODE:CODE:NOROOT(0)
?Subroutine46:
          CFI Block cfiCond99 Using cfiCommon0
          CFI Function MT_AfCommandProcessing
          CFI Conditional ??CrossCallReturnLabel_80
          CFI R6 load(1, XDATA, add(CFA_XSP16, literal(-9)))
          CFI VB load(1, XDATA, add(CFA_XSP16, literal(-8)))
          CFI V0 load(1, XDATA, add(CFA_XSP16, literal(-7)))
          CFI R7 load(1, XDATA, add(CFA_XSP16, literal(-6)))
          CFI ?RET_LOW load(1, XDATA, add(CFA_XSP16, literal(-5)))
          CFI ?RET_HIGH load(1, XDATA, add(CFA_XSP16, literal(-4)))
          CFI ?BRET_EXT load(1, XDATA, add(CFA_XSP16, literal(-3)))
          CFI DPL0 load(1, XDATA, add(CFA_XSP16, literal(-2)))
          CFI DPH0 load(1, XDATA, add(CFA_XSP16, literal(-1)))
          CFI CFA_SP SP+-2
          CFI CFA_XSP16 add(XSP16, 14)
          CFI Block cfiCond100 Using cfiCommon0
          CFI (cfiCond100) Function MT_AfReflectError
          CFI (cfiCond100) Conditional ??CrossCallReturnLabel_81, ??CrossCallReturnLabel_72
          CFI (cfiCond100) DPL0 Frame(CFA_SP, 4)
          CFI (cfiCond100) DPH0 Frame(CFA_SP, 5)
          CFI (cfiCond100) CFA_SP SP+-9
          CFI (cfiCond100) CFA_XSP16 add(XSP16, 6)
          CFI Block cfiCond101 Using cfiCommon0
          CFI (cfiCond101) Function MT_AfDataConfirm
          CFI (cfiCond101) Conditional ??CrossCallReturnLabel_81, ??CrossCallReturnLabel_73, ??CrossCallReturnLabel_41
          CFI (cfiCond101) DPL0 Frame(CFA_SP, 4)
          CFI (cfiCond101) DPH0 Frame(CFA_SP, 5)
          CFI (cfiCond101) CFA_SP SP+-11
          CFI (cfiCond101) CFA_XSP16 add(XSP16, 3)
          CFI Block cfiCond102 Using cfiCommon0
          CFI (cfiCond102) Function MT_AfReflectError
          CFI (cfiCond102) Conditional ??CrossCallReturnLabel_81, ??CrossCallReturnLabel_73, ??CrossCallReturnLabel_42
          CFI (cfiCond102) DPL0 Frame(CFA_SP, 4)
          CFI (cfiCond102) DPH0 Frame(CFA_SP, 5)
          CFI (cfiCond102) CFA_SP SP+-11
          CFI (cfiCond102) CFA_XSP16 add(XSP16, 6)
          CFI Block cfiCond103 Using cfiCommon0
          CFI (cfiCond103) Function MT_AfRegister
          CFI (cfiCond103) Conditional ??CrossCallReturnLabel_82, ??CrossCallReturnLabel_70, ??CrossCallReturnLabel_48
          CFI (cfiCond103) R6 load(1, XDATA, add(CFA_XSP16, literal(-14)))
          CFI (cfiCond103) VB load(1, XDATA, add(CFA_XSP16, literal(-13)))
          CFI (cfiCond103) V0 load(1, XDATA, add(CFA_XSP16, literal(-12)))
          CFI (cfiCond103) V1 load(1, XDATA, add(CFA_XSP16, literal(-11)))
          CFI (cfiCond103) V2 load(1, XDATA, add(CFA_XSP16, literal(-10)))
          CFI (cfiCond103) V3 load(1, XDATA, add(CFA_XSP16, literal(-9)))
          CFI (cfiCond103) V4 load(1, XDATA, add(CFA_XSP16, literal(-8)))
          CFI (cfiCond103) V5 load(1, XDATA, add(CFA_XSP16, literal(-7)))
          CFI (cfiCond103) R7 load(1, XDATA, add(CFA_XSP16, literal(-6)))
          CFI (cfiCond103) ?RET_LOW load(1, XDATA, add(CFA_XSP16, literal(-5)))
          CFI (cfiCond103) ?RET_HIGH load(1, XDATA, add(CFA_XSP16, literal(-4)))
          CFI (cfiCond103) ?BRET_EXT load(1, XDATA, add(CFA_XSP16, literal(-3)))
          CFI (cfiCond103) DPL0 load(1, XDATA, add(CFA_XSP16, literal(-2)))
          CFI (cfiCond103) DPH0 load(1, XDATA, add(CFA_XSP16, literal(-1)))
          CFI (cfiCond103) CFA_SP SP+-6
          CFI (cfiCond103) CFA_XSP16 add(XSP16, 15)
          CFI Block cfiCond104 Using cfiCommon0
          CFI (cfiCond104) Function MT_AfDelete
          CFI (cfiCond104) Conditional ??CrossCallReturnLabel_82, ??CrossCallReturnLabel_70, ??CrossCallReturnLabel_49
          CFI (cfiCond104) R6 load(1, XDATA, add(CFA_XSP16, literal(-9)))
          CFI (cfiCond104) VB load(1, XDATA, add(CFA_XSP16, literal(-8)))
          CFI (cfiCond104) V0 load(1, XDATA, add(CFA_XSP16, literal(-7)))
          CFI (cfiCond104) R7 load(1, XDATA, add(CFA_XSP16, literal(-6)))
          CFI (cfiCond104) ?RET_LOW load(1, XDATA, add(CFA_XSP16, literal(-5)))
          CFI (cfiCond104) ?RET_HIGH load(1, XDATA, add(CFA_XSP16, literal(-4)))
          CFI (cfiCond104) ?BRET_EXT load(1, XDATA, add(CFA_XSP16, literal(-3)))
          CFI (cfiCond104) DPL0 load(1, XDATA, add(CFA_XSP16, literal(-2)))
          CFI (cfiCond104) DPH0 load(1, XDATA, add(CFA_XSP16, literal(-1)))
          CFI (cfiCond104) CFA_SP SP+-6
          CFI (cfiCond104) CFA_XSP16 add(XSP16, 10)
          CFI Block cfiCond105 Using cfiCommon0
          CFI (cfiCond105) Function MT_AfDataConfirm
          CFI (cfiCond105) Conditional ??CrossCallReturnLabel_82, ??CrossCallReturnLabel_71, ??CrossCallReturnLabel_4
          CFI (cfiCond105) DPL0 Frame(CFA_SP, 4)
          CFI (cfiCond105) DPH0 Frame(CFA_SP, 5)
          CFI (cfiCond105) CFA_SP SP+-11
          CFI (cfiCond105) CFA_XSP16 add(XSP16, 3)
          CFI Block cfiCond106 Using cfiCommon0
          CFI (cfiCond106) Function MT_AfReflectError
          CFI (cfiCond106) Conditional ??CrossCallReturnLabel_82, ??CrossCallReturnLabel_71, ??CrossCallReturnLabel_5
          CFI (cfiCond106) DPL0 Frame(CFA_SP, 4)
          CFI (cfiCond106) DPH0 Frame(CFA_SP, 5)
          CFI (cfiCond106) CFA_SP SP+-11
          CFI (cfiCond106) CFA_XSP16 add(XSP16, 6)
          CFI Block cfiCond107 Using cfiCommon0
          CFI (cfiCond107) Function MT_AfIncomingMsg
          CFI (cfiCond107) Conditional ??CrossCallReturnLabel_83, ??CrossCallReturnLabel_50
          CFI (cfiCond107) R6 load(1, XDATA, add(CFA_XSP16, literal(-24)))
          CFI (cfiCond107) VB load(1, XDATA, add(CFA_XSP16, literal(-23)))
          CFI (cfiCond107) V0 load(1, XDATA, add(CFA_XSP16, literal(-22)))
          CFI (cfiCond107) V1 load(1, XDATA, add(CFA_XSP16, literal(-21)))
          CFI (cfiCond107) V2 load(1, XDATA, add(CFA_XSP16, literal(-20)))
          CFI (cfiCond107) V3 load(1, XDATA, add(CFA_XSP16, literal(-19)))
          CFI (cfiCond107) V4 load(1, XDATA, add(CFA_XSP16, literal(-18)))
          CFI (cfiCond107) V5 load(1, XDATA, add(CFA_XSP16, literal(-17)))
          CFI (cfiCond107) V6 load(1, XDATA, add(CFA_XSP16, literal(-16)))
          CFI (cfiCond107) V7 load(1, XDATA, add(CFA_XSP16, literal(-15)))
          CFI (cfiCond107) V8 load(1, XDATA, add(CFA_XSP16, literal(-14)))
          CFI (cfiCond107) V9 load(1, XDATA, add(CFA_XSP16, literal(-13)))
          CFI (cfiCond107) V10 load(1, XDATA, add(CFA_XSP16, literal(-12)))
          CFI (cfiCond107) V11 load(1, XDATA, add(CFA_XSP16, literal(-11)))
          CFI (cfiCond107) V12 load(1, XDATA, add(CFA_XSP16, literal(-10)))
          CFI (cfiCond107) V13 load(1, XDATA, add(CFA_XSP16, literal(-9)))
          CFI (cfiCond107) V14 load(1, XDATA, add(CFA_XSP16, literal(-8)))
          CFI (cfiCond107) V15 load(1, XDATA, add(CFA_XSP16, literal(-7)))
          CFI (cfiCond107) R7 load(1, XDATA, add(CFA_XSP16, literal(-6)))
          CFI (cfiCond107) ?RET_LOW load(1, XDATA, add(CFA_XSP16, literal(-5)))
          CFI (cfiCond107) ?RET_HIGH load(1, XDATA, add(CFA_XSP16, literal(-4)))
          CFI (cfiCond107) ?BRET_EXT load(1, XDATA, add(CFA_XSP16, literal(-3)))
          CFI (cfiCond107) DPL0 load(1, XDATA, add(CFA_XSP16, literal(-2)))
          CFI (cfiCond107) DPH0 load(1, XDATA, add(CFA_XSP16, literal(-1)))
          CFI (cfiCond107) CFA_SP SP+-4
          CFI (cfiCond107) CFA_XSP16 add(XSP16, 25)
          CFI Block cfiCond108 Using cfiCommon0
          CFI (cfiCond108) Function MT_AfIncomingMsg
          CFI (cfiCond108) Conditional ??CrossCallReturnLabel_83, ??CrossCallReturnLabel_51
          CFI (cfiCond108) R6 load(1, XDATA, add(CFA_XSP16, literal(-24)))
          CFI (cfiCond108) VB load(1, XDATA, add(CFA_XSP16, literal(-23)))
          CFI (cfiCond108) V0 load(1, XDATA, add(CFA_XSP16, literal(-22)))
          CFI (cfiCond108) V1 load(1, XDATA, add(CFA_XSP16, literal(-21)))
          CFI (cfiCond108) V2 load(1, XDATA, add(CFA_XSP16, literal(-20)))
          CFI (cfiCond108) V3 load(1, XDATA, add(CFA_XSP16, literal(-19)))
          CFI (cfiCond108) V4 load(1, XDATA, add(CFA_XSP16, literal(-18)))
          CFI (cfiCond108) V5 load(1, XDATA, add(CFA_XSP16, literal(-17)))
          CFI (cfiCond108) V6 load(1, XDATA, add(CFA_XSP16, literal(-16)))
          CFI (cfiCond108) V7 load(1, XDATA, add(CFA_XSP16, literal(-15)))
          CFI (cfiCond108) V8 load(1, XDATA, add(CFA_XSP16, literal(-14)))
          CFI (cfiCond108) V9 load(1, XDATA, add(CFA_XSP16, literal(-13)))
          CFI (cfiCond108) V10 load(1, XDATA, add(CFA_XSP16, literal(-12)))
          CFI (cfiCond108) V11 load(1, XDATA, add(CFA_XSP16, literal(-11)))
          CFI (cfiCond108) V12 load(1, XDATA, add(CFA_XSP16, literal(-10)))
          CFI (cfiCond108) V13 load(1, XDATA, add(CFA_XSP16, literal(-9)))
          CFI (cfiCond108) V14 load(1, XDATA, add(CFA_XSP16, literal(-8)))
          CFI (cfiCond108) V15 load(1, XDATA, add(CFA_XSP16, literal(-7)))
          CFI (cfiCond108) R7 load(1, XDATA, add(CFA_XSP16, literal(-6)))
          CFI (cfiCond108) ?RET_LOW load(1, XDATA, add(CFA_XSP16, literal(-5)))
          CFI (cfiCond108) ?RET_HIGH load(1, XDATA, add(CFA_XSP16, literal(-4)))
          CFI (cfiCond108) ?BRET_EXT load(1, XDATA, add(CFA_XSP16, literal(-3)))
          CFI (cfiCond108) DPL0 load(1, XDATA, add(CFA_XSP16, literal(-2)))
          CFI (cfiCond108) DPH0 load(1, XDATA, add(CFA_XSP16, literal(-1)))
          CFI (cfiCond108) CFA_SP SP+-4
          CFI (cfiCond108) CFA_XSP16 add(XSP16, 25)
          CFI Block cfiPicker109 Using cfiCommon1
          CFI (cfiPicker109) NoFunction
          CFI (cfiPicker109) Picker
        MOVX    @DPTR,A
        MOV     DPL,R2
        MOV     DPH,R3
        RET
          CFI (cfiCond99) CFA_SP SP+0
          CFI (cfiCond100) CFA_SP SP+-7
          CFI (cfiCond101) CFA_SP SP+-9
          CFI (cfiCond102) CFA_SP SP+-9
          CFI (cfiCond103) CFA_SP SP+-4
          CFI (cfiCond104) CFA_SP SP+-4
          CFI (cfiCond105) CFA_SP SP+-9
          CFI (cfiCond106) CFA_SP SP+-9
          CFI (cfiCond107) CFA_SP SP+-2
          CFI (cfiCond108) CFA_SP SP+-2
          CFI (cfiPicker109) CFA_SP SP+0
          CFI EndBlock cfiCond99
          CFI EndBlock cfiCond100
          CFI EndBlock cfiCond101
          CFI EndBlock cfiCond102
          CFI EndBlock cfiCond103
          CFI EndBlock cfiCond104
          CFI EndBlock cfiCond105
          CFI EndBlock cfiCond106
          CFI EndBlock cfiCond107
          CFI EndBlock cfiCond108
          CFI EndBlock cfiPicker109
//  664 
//  665 /***************************************************************************************************
//  666  * @fn          MT_AfIncomingMsg
//  667  *
//  668  * @brief       Process the callback subscription for AF Incoming data.
//  669  *
//  670  * @param       pkt - Incoming AF data.
//  671  *
//  672  * @return      none
//  673  ***************************************************************************************************/

        RSEG BANKED_CODE:CODE:NOROOT(0)
//  674 void MT_AfIncomingMsg(afIncomingMSGPacket_t *pMsg)
MT_AfIncomingMsg:
          CFI Block cfiBlock110 Using cfiCommon0
          CFI Function MT_AfIncomingMsg
        CODE
//  675 {
        FUNCALL MT_AfIncomingMsg, osal_mem_alloc
        LOCFRAME ISTACK, 0, STACK
        LOCFRAME PSTACK, 0, STACK
        LOCFRAME XSTACK, 25, STACK
        LOCFRAME IOVERLAY, 0, STATIC
        LOCFRAME DOVERLAY, 0, STATIC
        ARGFRAME ISTACK, 0, STACK
        ARGFRAME PSTACK, 0, STACK
        ARGFRAME XSTACK, 25, STACK
        ARGFRAME IOVERLAY, 0, STATIC
        ARGFRAME DOVERLAY, 0, STATIC
        FUNCALL MT_AfIncomingMsg, osal_mem_alloc
        LOCFRAME ISTACK, 0, STACK
        LOCFRAME PSTACK, 0, STACK
        LOCFRAME XSTACK, 25, STACK
        LOCFRAME IOVERLAY, 0, STATIC
        LOCFRAME DOVERLAY, 0, STATIC
        ARGFRAME ISTACK, 0, STACK
        ARGFRAME PSTACK, 0, STACK
        ARGFRAME XSTACK, 25, STACK
        ARGFRAME IOVERLAY, 0, STATIC
        ARGFRAME DOVERLAY, 0, STATIC
        FUNCALL MT_AfIncomingMsg, osal_mem_free
        LOCFRAME ISTACK, 0, STACK
        LOCFRAME PSTACK, 0, STACK
        LOCFRAME XSTACK, 25, STACK
        LOCFRAME IOVERLAY, 0, STATIC
        LOCFRAME DOVERLAY, 0, STATIC
        ARGFRAME ISTACK, 0, STACK
        ARGFRAME PSTACK, 0, STACK
        ARGFRAME XSTACK, 25, STACK
        ARGFRAME IOVERLAY, 0, STATIC
        ARGFRAME DOVERLAY, 0, STATIC
        FUNCALL MT_AfIncomingMsg, osal_memcpy
        LOCFRAME ISTACK, 0, STACK
        LOCFRAME PSTACK, 0, STACK
        LOCFRAME XSTACK, 28, STACK
        LOCFRAME IOVERLAY, 0, STATIC
        LOCFRAME DOVERLAY, 0, STATIC
        ARGFRAME ISTACK, 0, STACK
        ARGFRAME PSTACK, 0, STACK
        ARGFRAME XSTACK, 28, STACK
        ARGFRAME IOVERLAY, 0, STATIC
        ARGFRAME DOVERLAY, 0, STATIC
        FUNCALL MT_AfIncomingMsg, osal_start_timerEx
        LOCFRAME ISTACK, 0, STACK
        LOCFRAME PSTACK, 0, STACK
        LOCFRAME XSTACK, 29, STACK
        LOCFRAME IOVERLAY, 0, STATIC
        LOCFRAME DOVERLAY, 0, STATIC
        ARGFRAME ISTACK, 0, STACK
        ARGFRAME PSTACK, 0, STACK
        ARGFRAME XSTACK, 29, STACK
        ARGFRAME IOVERLAY, 0, STATIC
        ARGFRAME DOVERLAY, 0, STATIC
        FUNCALL MT_AfIncomingMsg, osal_set_event
        LOCFRAME ISTACK, 0, STACK
        LOCFRAME PSTACK, 0, STACK
        LOCFRAME XSTACK, 25, STACK
        LOCFRAME IOVERLAY, 0, STATIC
        LOCFRAME DOVERLAY, 0, STATIC
        ARGFRAME ISTACK, 0, STACK
        ARGFRAME PSTACK, 0, STACK
        ARGFRAME XSTACK, 25, STACK
        ARGFRAME IOVERLAY, 0, STATIC
        ARGFRAME DOVERLAY, 0, STATIC
        FUNCALL MT_AfIncomingMsg, osal_memcpy
        LOCFRAME ISTACK, 0, STACK
        LOCFRAME PSTACK, 0, STACK
        LOCFRAME XSTACK, 28, STACK
        LOCFRAME IOVERLAY, 0, STATIC
        LOCFRAME DOVERLAY, 0, STATIC
        ARGFRAME ISTACK, 0, STACK
        ARGFRAME PSTACK, 0, STACK
        ARGFRAME XSTACK, 28, STACK
        ARGFRAME IOVERLAY, 0, STATIC
        ARGFRAME DOVERLAY, 0, STATIC
        FUNCALL MT_AfIncomingMsg, osal_memcpy
        LOCFRAME ISTACK, 0, STACK
        LOCFRAME PSTACK, 0, STACK
        LOCFRAME XSTACK, 28, STACK
        LOCFRAME IOVERLAY, 0, STATIC
        LOCFRAME DOVERLAY, 0, STATIC
        ARGFRAME ISTACK, 0, STACK
        ARGFRAME PSTACK, 0, STACK
        ARGFRAME XSTACK, 28, STACK
        ARGFRAME IOVERLAY, 0, STATIC
        ARGFRAME DOVERLAY, 0, STATIC
        FUNCALL MT_AfIncomingMsg, MT_BuildAndSendZToolResponse
        LOCFRAME ISTACK, 0, STACK
        LOCFRAME PSTACK, 0, STACK
        LOCFRAME XSTACK, 25, STACK
        LOCFRAME IOVERLAY, 0, STATIC
        LOCFRAME DOVERLAY, 0, STATIC
        ARGFRAME ISTACK, 0, STACK
        ARGFRAME PSTACK, 0, STACK
        ARGFRAME XSTACK, 25, STACK
        ARGFRAME IOVERLAY, 0, STATIC
        ARGFRAME DOVERLAY, 0, STATIC
        FUNCALL MT_AfIncomingMsg, osal_mem_free
        LOCFRAME ISTACK, 0, STACK
        LOCFRAME PSTACK, 0, STACK
        LOCFRAME XSTACK, 25, STACK
        LOCFRAME IOVERLAY, 0, STATIC
        LOCFRAME DOVERLAY, 0, STATIC
        ARGFRAME ISTACK, 0, STACK
        ARGFRAME PSTACK, 0, STACK
        ARGFRAME XSTACK, 25, STACK
        ARGFRAME IOVERLAY, 0, STATIC
        ARGFRAME DOVERLAY, 0, STATIC
        REQUIRE ?V0
        REQUIRE ?V1
        REQUIRE ?V2
        REQUIRE ?V3
        REQUIRE ?V4
        REQUIRE ?V5
        REQUIRE ?V6
        REQUIRE ?V7
        REQUIRE ?V8
        REQUIRE ?V9
        REQUIRE ?V10
        REQUIRE ?V11
        REQUIRE ?V12
        REQUIRE ?V13
        REQUIRE ?V14
        REQUIRE ?V15
        MOV     A,#-0x18
        LCALL   ?BANKED_ENTER_XDATA
          CFI DPH0 load(1, XDATA, add(CFA_XSP16, literal(-1)))
          CFI DPL0 load(1, XDATA, add(CFA_XSP16, literal(-2)))
          CFI ?BRET_EXT load(1, XDATA, add(CFA_XSP16, literal(-3)))
          CFI ?RET_HIGH load(1, XDATA, add(CFA_XSP16, literal(-4)))
          CFI ?RET_LOW load(1, XDATA, add(CFA_XSP16, literal(-5)))
          CFI R7 load(1, XDATA, add(CFA_XSP16, literal(-6)))
          CFI V15 load(1, XDATA, add(CFA_XSP16, literal(-7)))
          CFI V14 load(1, XDATA, add(CFA_XSP16, literal(-8)))
          CFI V13 load(1, XDATA, add(CFA_XSP16, literal(-9)))
          CFI V12 load(1, XDATA, add(CFA_XSP16, literal(-10)))
          CFI V11 load(1, XDATA, add(CFA_XSP16, literal(-11)))
          CFI V10 load(1, XDATA, add(CFA_XSP16, literal(-12)))
          CFI V9 load(1, XDATA, add(CFA_XSP16, literal(-13)))
          CFI V8 load(1, XDATA, add(CFA_XSP16, literal(-14)))
          CFI V7 load(1, XDATA, add(CFA_XSP16, literal(-15)))
          CFI V6 load(1, XDATA, add(CFA_XSP16, literal(-16)))
          CFI V5 load(1, XDATA, add(CFA_XSP16, literal(-17)))
          CFI V4 load(1, XDATA, add(CFA_XSP16, literal(-18)))
          CFI V3 load(1, XDATA, add(CFA_XSP16, literal(-19)))
          CFI V2 load(1, XDATA, add(CFA_XSP16, literal(-20)))
          CFI V1 load(1, XDATA, add(CFA_XSP16, literal(-21)))
          CFI V0 load(1, XDATA, add(CFA_XSP16, literal(-22)))
          CFI VB load(1, XDATA, add(CFA_XSP16, literal(-23)))
          CFI R6 load(1, XDATA, add(CFA_XSP16, literal(-24)))
          CFI CFA_SP SP+0
          CFI CFA_XSP16 add(XSP16, 24)
        ; Saved register size: 24
        ; Auto size: 1
        MOV     A,#-0x1
        LCALL   ?ALLOC_XSTACK8
          CFI CFA_XSP16 add(XSP16, 25)
        MOV     ?V8,R2
        MOV     ?V9,R3
//  676   #define MT_AF_INC_MSG_LEN  20
//  677   #define MT_AF_INC_MSG_EXT  10
//  678 
//  679   uint16 dataLen = pMsg->cmd.DataLength;  // Length of the data section in the response packet.
        MOV     A,R2
        ADD     A,#0x20
        LCALL   ?Subroutine45 & 0xFFFF
??CrossCallReturnLabel_76:
        MOV     ?V0,A
        INC     DPTR
        MOVX    A,@DPTR
        MOV     ?V1,A
//  680   uint16 respLen = MT_AF_INC_MSG_LEN + dataLen;
        MOV     A,?V0
        ADD     A,#0x14
        MOV     R6,A
        CLR     A
        ADDC    A,?V1
        MOV     R7,A
//  681   uint8 cmd = MT_AF_INCOMING_MSG;
        MOV     DPL,?XSP + 0
        MOV     DPH,?XSP + 1
        MOV     A,#-0x7f
        MOVX    @DPTR,A
//  682   uint8 *pRsp, *pTmp;
//  683   mtAfInMsgList_t *pItem = NULL;
        MOV     ?V10,#0x0
        MOV     ?V11,#0x0
//  684 
//  685 #if defined INTER_PAN
//  686   if (StubAPS_InterPan(pMsg->srcAddr.panId, pMsg->srcAddr.endPoint))
//  687   {
//  688     cmd = MT_AF_INCOMING_MSG_EXT;
//  689   }
//  690   else
//  691 #endif
//  692   if ((pMsg->srcAddr.addrMode == afAddr64Bit) ||
//  693       (respLen > (uint16)(MT_RPC_DATA_MAX - MT_AF_INC_MSG_EXT)))
        MOV     A,R2
        ADD     A,#0xe
        MOV     ?V4,A
        CLR     A
        ADDC    A,?V9
        MOV     ?V5,A
        MOV     DPL,?V4
        MOV     DPH,A
        MOVX    A,@DPTR
        XRL     A,#0x3
        JZ      ??MT_AfIncomingMsg_0
        CLR     C
        MOV     A,R6
        SUBB    A,#-0xf
        MOV     A,R7
        SUBB    A,#0x0
        JC      ??MT_AfIncomingMsg_1
//  694   {
//  695     cmd = MT_AF_INCOMING_MSG_EXT;
??MT_AfIncomingMsg_0:
        MOV     DPL,?XSP + 0
        MOV     DPH,?XSP + 1
        MOV     A,#-0x7e
        MOVX    @DPTR,A
//  696   }
//  697 
//  698   if (cmd == MT_AF_INCOMING_MSG_EXT)
//  699   {
//  700     respLen += MT_AF_INC_MSG_EXT;
        MOV     A,R6
        ADD     A,#0xa
        MOV     R6,A
        CLR     A
        ADDC    A,R7
        MOV     R7,A
//  701   }
//  702 
//  703   if (respLen > (uint16)MT_RPC_DATA_MAX)
??MT_AfIncomingMsg_1:
        CLR     C
        MOV     A,R6
        SUBB    A,#-0x5
        MOV     A,R7
        SUBB    A,#0x0
        JC      ??MT_AfIncomingMsg_2
//  704   {
//  705     if ((pItem = (mtAfInMsgList_t *)osal_mem_alloc(sizeof(mtAfInMsgList_t) + dataLen)) == NULL)
        ; Setup parameters for call to function osal_mem_alloc
        MOV     A,?V0
        ADD     A,#0x9
        MOV     R2,A
        CLR     A
        ADDC    A,?V1
        MOV     R3,A
        LCALL   `??osal_mem_alloc::?relay`; Banked call to: osal_mem_alloc
        MOV     ?V10,R2
        MOV     ?V11,R3
        MOV     A,R2
        ORL     A,?V11
        JNZ     $+5
        LJMP    ??MT_AfIncomingMsg_3 & 0xFFFF
//  706     {
//  707       return;  // If cannot hold a huge message, cannot give indication at all.
//  708     }
//  709 
//  710     pItem->data = (uint8 *)(pItem+1);
        MOV     A,R2
        ADD     A,#0x9
        MOV     R0,A
        CLR     A
        ADDC    A,?V11
        MOV     R1,A
        MOV     DPL,R2
        MOV     DPH,R3
        INC     DPTR
        INC     DPTR
        LCALL   ?Subroutine27 & 0xFFFF
//  711     respLen -= dataLen;  // Zero data bytes are sent with an over-sized incoming indication.
??CrossCallReturnLabel_38:
        CLR     C
        MOV     A,R6
        SUBB    A,?V0
        MOV     R6,A
        MOV     A,R7
        SUBB    A,?V1
        MOV     R7,A
//  712   }
//  713 
//  714   // Attempt to allocate memory for the response packet.
//  715   if ((pRsp = osal_mem_alloc(respLen)) == NULL)
??MT_AfIncomingMsg_2:
        ; Setup parameters for call to function osal_mem_alloc
        MOV     A,R6
        MOV     R2,A
        MOV     A,R7
        MOV     R3,A
        LCALL   `??osal_mem_alloc::?relay`; Banked call to: osal_mem_alloc
        MOV     ?V12,R2
        MOV     ?V13,R3
        MOV     A,R2
        ORL     A,?V13
        JNZ     ??MT_AfIncomingMsg_4
//  716   {
//  717     if (pItem != NULL)
        MOV     A,?V10
        ORL     A,?V11
        JZ      ??MT_AfIncomingMsg_5
//  718     {
//  719       (void)osal_mem_free(pItem);
        ; Setup parameters for call to function osal_mem_free
        MOV     R2,?V10
        MOV     R3,?V11
        LCALL   `??osal_mem_free::?relay`; Banked call to: osal_mem_free
//  720     }
//  721     return;
??MT_AfIncomingMsg_5:
        LJMP    ??MT_AfIncomingMsg_3 & 0xFFFF
//  722   }
//  723   pTmp = pRsp;
//  724 
//  725   /* Group ID */
//  726   *pTmp++ = LO_UINT16(pMsg->groupId);
??MT_AfIncomingMsg_4:
        MOV     A,?V8
        ADD     A,#0x2
        MOV     R0,A
        CLR     A
        ADDC    A,?V9
        MOV     R1,A
        LCALL   ?Subroutine13 & 0xFFFF
//  727   *pTmp++ = HI_UINT16(pMsg->groupId);
??CrossCallReturnLabel_16:
        MOV     DPL,R2
        MOV     DPH,R3
        INC     DPTR
        MOVX    @DPTR,A
//  728 
//  729   /* Cluster ID */
//  730   *pTmp++ = LO_UINT16(pMsg->clusterId);
        MOV     A,?V8
        ADD     A,#0x4
        MOV     R0,A
        CLR     A
        ADDC    A,?V9
        MOV     R1,A
        LCALL   ?Subroutine37 & 0xFFFF
??CrossCallReturnLabel_108:
        INC     DPTR
        INC     DPTR
        LCALL   ?Subroutine29 & 0xFFFF
//  731   *pTmp++ = HI_UINT16(pMsg->clusterId);
??CrossCallReturnLabel_45:
        LCALL   ??Subroutine53_0 & 0xFFFF
??CrossCallReturnLabel_106:
        INC     DPTR
        INC     DPTR
        INC     DPTR
        MOVX    @DPTR,A
//  732 
//  733   if (cmd == MT_AF_INCOMING_MSG_EXT)
        MOV     A,R2
        ADD     A,#0x5
        MOV     ?V2,A
        CLR     A
        ADDC    A,?V13
        MOV     ?V3,A
        MOV     A,R2
        ADD     A,#0x4
        MOV     R0,A
        CLR     A
        ADDC    A,?V13
        MOV     R1,A
        MOV     A,R0
        MOV     R2,A
        MOV     A,R1
        MOV     R3,A
        MOV     A,?V8
        ADD     A,#0x6
        MOV     R0,A
        CLR     A
        ADDC    A,?V9
        MOV     R1,A
        MOV     DPL,?XSP + 0
        MOV     DPH,?XSP + 1
        MOVX    A,@DPTR
        XRL     A,#0x82
        JNZ     ??MT_AfIncomingMsg_6
//  734   {
//  735     *pTmp++ = pMsg->srcAddr.addrMode;
        MOV     DPL,?V4
        MOV     DPH,?V5
        LCALL   ??Subroutine53_0 & 0xFFFF
??CrossCallReturnLabel_107:
        MOVX    @DPTR,A
//  736 
//  737     if (pMsg->srcAddr.addrMode == afAddr64Bit)
        MOV     DPL,?V4
        MOV     DPH,?V5
        MOVX    A,@DPTR
        XRL     A,#0x3
        JNZ     ??MT_AfIncomingMsg_7
//  738     {
//  739       (void)osal_memcpy(pTmp, pMsg->srcAddr.addr.extAddr, Z_EXTADDR_LEN);
        ; Setup parameters for call to function osal_memcpy
        MOV     ?V4,R0
        MOV     ?V5,R1
        MOV     ?V6,#0x0
        MOV     R0,#?V4
        LCALL   ?PUSH_XSTACK_I_THREE
          CFI CFA_XSP16 add(XSP16, 28)
        MOV     R4,#0x8
        MOV     R5,#0x0
        INC     R2
        MOV     R3,?V3
        LCALL   `??osal_memcpy::?relay`; Banked call to: osal_memcpy
        MOV     A,#0x3
        LCALL   ?DEALLOC_XSTACK8
          CFI CFA_XSP16 add(XSP16, 25)
        SJMP    ??CrossCallReturnLabel_2
//  740     }
//  741     else
//  742     {
//  743       pTmp[0] = LO_UINT16(pMsg->srcAddr.addr.shortAddr);
??MT_AfIncomingMsg_7:
        LCALL   ?Subroutine6 & 0xFFFF
//  744       pTmp[1] = HI_UINT16(pMsg->srcAddr.addr.shortAddr);
//  745     }
//  746     pTmp += Z_EXTADDR_LEN;
//  747 
//  748     *pTmp++ = pMsg->srcAddr.endPoint;
??CrossCallReturnLabel_2:
        MOV     A,?V8
        ADD     A,#0xf
        LCALL   ?Subroutine17 & 0xFFFF
//  749 #if defined INTER_PAN
//  750     *pTmp++ = LO_UINT16(pMsg->srcAddr.panId);
//  751     *pTmp++ = HI_UINT16(pMsg->srcAddr.panId);
//  752 #else
//  753     *pTmp++ = 0;
//  754     *pTmp++ = 0;
//  755 #endif
//  756   }
??CrossCallReturnLabel_22:
        INC     DPTR
        INC     DPTR
        INC     DPTR
        INC     DPTR
        INC     DPTR
        LCALL   ?Subroutine23 & 0xFFFF
??CrossCallReturnLabel_32:
        CLR     A
        LCALL   ?Subroutine23 & 0xFFFF
??CrossCallReturnLabel_33:
        INC     DPTR
        MOVX    @DPTR,A
        MOV     A,?V2
        ADD     A,#0xb
        MOV     ?V2,A
        JNC     ??MT_AfIncomingMsg_8
        INC     ?V3
        SJMP    ??MT_AfIncomingMsg_8
//  757   else
//  758   {
//  759     /* Source Address */
//  760     *pTmp++ = LO_UINT16(pMsg->srcAddr.addr.shortAddr);
??MT_AfIncomingMsg_6:
        LCALL   ?Subroutine13 & 0xFFFF
//  761     *pTmp++ = HI_UINT16(pMsg->srcAddr.addr.shortAddr);
??CrossCallReturnLabel_17:
        MOV     DPL,?V2
        MOV     DPH,?V3
        MOVX    @DPTR,A
//  762 
//  763     /* Source EP */
//  764     *pTmp++ = pMsg->srcAddr.endPoint;
        MOV     A,?V8
        ADD     A,#0xf
        LCALL   ?Subroutine45 & 0xFFFF
//  765   }
??CrossCallReturnLabel_77:
        MOV     DPL,?V12
        MOV     DPH,?V13
        INC     DPTR
        INC     DPTR
        INC     DPTR
        INC     DPTR
        INC     DPTR
        INC     DPTR
        MOVX    @DPTR,A
        MOV     A,?V12
        ADD     A,#0x7
        MOV     ?V2,A
        CLR     A
        ADDC    A,?V13
        MOV     ?V3,A
//  766 
//  767   /* Destination EP */
//  768   *pTmp++ = pMsg->endPoint;
??MT_AfIncomingMsg_8:
        MOV     A,?V8
        ADD     A,#0x14
        LCALL   ?Subroutine33 & 0xFFFF
??CrossCallReturnLabel_52:
        MOVX    @DPTR,A
//  769 
//  770   /* WasBroadCast */
//  771   *pTmp++ = pMsg->wasBroadcast;
        MOV     A,?V8
        ADD     A,#0x15
        LCALL   ?Subroutine33 & 0xFFFF
??CrossCallReturnLabel_53:
        INC     DPTR
        MOVX    @DPTR,A
//  772 
//  773   /* LinkQuality */
//  774   *pTmp++ = pMsg->LinkQuality;
        MOV     A,?V8
        ADD     A,#0x16
        LCALL   ?Subroutine18 & 0xFFFF
//  775 
//  776   /* SecurityUse */
//  777   *pTmp++ = pMsg->SecurityUse;
??CrossCallReturnLabel_24:
        MOV     A,?V8
        ADD     A,#0x19
        LCALL   ?Subroutine17 & 0xFFFF
??CrossCallReturnLabel_23:
        MOVX    @DPTR,A
//  778 
//  779   /* Timestamp */
//  780   *pTmp++ = BREAK_UINT32(pMsg->timestamp, 0);
        MOV     A,?V8
        ADD     A,#0x1a
        MOV     ?V14,A
        CLR     A
        ADDC    A,?V9
        MOV     ?V15,A
        MOV     DPL,?V14
        MOV     DPH,A
        MOV     R0,#?V4
        LCALL   ?L_MOV_X
        MOV     DPL,?V2
        MOV     DPH,?V3
        LCALL   ?Subroutine25 & 0xFFFF
//  781   *pTmp++ = BREAK_UINT32(pMsg->timestamp, 1);
??CrossCallReturnLabel_103:
        LCALL   ?L_MOV_X
        MOV     A,?V5
        MOV     DPL,?V2
        MOV     DPH,?V3
        INC     DPTR
        INC     DPTR
        INC     DPTR
        INC     DPTR
        INC     DPTR
        LCALL   ??Subroutine52_0 & 0xFFFF
//  782   *pTmp++ = BREAK_UINT32(pMsg->timestamp, 2);
??CrossCallReturnLabel_105:
        LCALL   ?L_MOV_X
        MOV     A,#0x10
        MOV     R0,#?V4
        LCALL   ?UL_SHR
        MOV     DPL,?V2
        MOV     DPH,?V3
        INC     DPTR
        INC     DPTR
        LCALL   ?Subroutine25 & 0xFFFF
//  783   *pTmp++ = BREAK_UINT32(pMsg->timestamp, 3);
??CrossCallReturnLabel_104:
        LCALL   ?L_MOV_X
        MOV     A,#0x18
        MOV     R0,#?V4
        LCALL   ?UL_SHR
        MOV     DPL,?V2
        MOV     DPH,?V3
        INC     DPTR
        INC     DPTR
        INC     DPTR
        INC     DPTR
        INC     DPTR
        INC     DPTR
        INC     DPTR
        MOV     A,?V4
        MOVX    @DPTR,A
//  784 
//  785 
//  786   /* Data Length */
//  787   if (cmd == MT_AF_INCOMING_MSG_EXT)
        MOV     A,?V2
        ADD     A,#0xa
        MOV     R0,A
        CLR     A
        ADDC    A,?V3
        MOV     R1,A
        MOV     A,?V2
        ADD     A,#0x9
        MOV     R2,A
        CLR     A
        ADDC    A,?V3
        MOV     R3,A
        MOV     A,?V2
        ADD     A,#0x8
        MOV     R4,A
        CLR     A
        ADDC    A,?V3
        MOV     R5,A
        MOV     DPL,?XSP + 0
        MOV     DPH,?XSP + 1
        MOVX    A,@DPTR
        XRL     A,#0x82
        JNZ     ??MT_AfIncomingMsg_9
//  788   {
//  789     /* Z-Tool apparently takes the last Byte before the data buffer as the dynamic length and
//  790      * ignores the bigger UInt16 length of an EXT incoming message. But no data bytes will be sent
//  791      * with a huge message, so it's necessary to work-around and fake-out Z-Tool with a zero here.
//  792      */
//  793     *pTmp++ = 0;  // TODO - workaround Z-Tool shortcoming; should be: = pMsg->cmd.TransSeqNumber;
        MOV     DPL,R4
        MOV     DPH,R5
        CLR     A
        LCALL   ?Subroutine32 & 0xFFFF
//  794     *pTmp++ = LO_UINT16(dataLen);
//  795     *pTmp++ = HI_UINT16(dataLen);
??CrossCallReturnLabel_50:
        MOV     DPL,R0
        MOV     DPH,R1
        MOV     A,?V1
        MOVX    @DPTR,A
        MOV     A,?V2
        ADD     A,#0xb
        MOV     ?V2,A
        JNC     ??MT_AfIncomingMsg_10
        INC     ?V3
        SJMP    ??MT_AfIncomingMsg_10
//  796   }
//  797   else
//  798   {
//  799     *pTmp++ = pMsg->cmd.TransSeqNumber;
??MT_AfIncomingMsg_9:
        MOV     A,?V8
        ADD     A,#0x1f
        LCALL   ?Subroutine45 & 0xFFFF
//  800     *pTmp++ = dataLen;
//  801   }
??CrossCallReturnLabel_78:
        MOV     DPL,R4
        MOV     DPH,R5
        LCALL   ?Subroutine32 & 0xFFFF
??CrossCallReturnLabel_51:
        MOV     ?V2,R0
        MOV     ?V3,R1
//  802 
//  803   /* Data */
//  804   if (pItem != NULL)
??MT_AfIncomingMsg_10:
        MOV     A,?V10
        ORL     A,?V11
        JNZ     $+5
        LJMP    ??MT_AfIncomingMsg_11 & 0xFFFF
//  805   {
//  806     // Enqueue the new huge incoming item.
//  807     pItem->next = pMtAfInMsgList;
        LCALL   ?Subroutine35 & 0xFFFF
??CrossCallReturnLabel_113:
        MOV     DPL,?V10
        MOV     DPH,?V11
        LCALL   ?Subroutine27 & 0xFFFF
//  808     pMtAfInMsgList = pItem;
??CrossCallReturnLabel_39:
        MOV     DPTR,#pMtAfInMsgList
        MOV     A,?V10
        MOVX    @DPTR,A
        INC     DPTR
        MOV     A,?V11
        MOVX    @DPTR,A
//  809 
//  810     // Setup to time-out the huge incoming item if host does not MT_AF_DATA_RETRIEVE it.
//  811     pItem->tick = MT_AF_EXEC_CNT;
        MOV     DPL,?V10
        MOV     DPH,A
        INC     DPTR
        INC     DPTR
        INC     DPTR
        INC     DPTR
        INC     DPTR
        INC     DPTR
        INC     DPTR
        INC     DPTR
        MOV     A,#0xf
        MOVX    @DPTR,A
//  812     if (ZSuccess != osal_start_timerEx(MT_TaskID, MT_AF_EXEC_EVT, MT_AF_EXEC_DLY))
        ; Setup parameters for call to function osal_start_timerEx
        MOV     DPTR,#__Constant_3e8
        LCALL   ?PUSH_XSTACK8_X_FOUR
          CFI CFA_XSP16 add(XSP16, 29)
        MOV     R2,#0x8
        MOV     R3,#0x0
        MOV     DPTR,#MT_TaskID
        MOVX    A,@DPTR
        MOV     R1,A
        LCALL   `??osal_start_timerEx::?relay`; Banked call to: osal_start_timerEx
        MOV     A,#0x4
        LCALL   ?DEALLOC_XSTACK8
          CFI CFA_XSP16 add(XSP16, 25)
        MOV     A,R1
        JZ      ??MT_AfIncomingMsg_12
//  813     {
//  814       (void)osal_set_event(MT_TaskID, MT_AF_EXEC_EVT);
        ; Setup parameters for call to function osal_set_event
        MOV     R2,#0x8
        MOV     R3,#0x0
        MOV     DPTR,#MT_TaskID
        MOVX    A,@DPTR
        MOV     R1,A
        LCALL   `??osal_set_event::?relay`; Banked call to: osal_set_event
//  815     }
//  816 
//  817     pItem->timestamp = pMsg->timestamp;
??MT_AfIncomingMsg_12:
        MOV     DPL,?V14
        MOV     DPH,?V15
        LCALL   ?XLOAD_R0123
        MOV     DPL,?V10
        MOV     DPH,?V11
        INC     DPTR
        INC     DPTR
        INC     DPTR
        INC     DPTR
        LCALL   ?XSTORE_R0123
//  818     (void)osal_memcpy(pItem->data, pMsg->cmd.Data, dataLen);
        ; Setup parameters for call to function osal_memcpy
        LCALL   ?Subroutine21 & 0xFFFF
//  819   }
??CrossCallReturnLabel_28:
        LCALL   ?PUSH_XSTACK_I_THREE
          CFI CFA_XSP16 add(XSP16, 28)
        MOV     R4,?V0
        MOV     R5,?V1
        MOV     DPL,?V10
        MOV     DPH,?V11
        INC     DPTR
        INC     DPTR
        LCALL   ??Subroutine55_0 & 0xFFFF
??CrossCallReturnLabel_116:
        LCALL   `??osal_memcpy::?relay`; Banked call to: osal_memcpy
        MOV     A,#0x3
        LCALL   ?DEALLOC_XSTACK8
          CFI CFA_XSP16 add(XSP16, 25)
        SJMP    ??MT_AfIncomingMsg_13
//  820   else
//  821   {
//  822     (void)osal_memcpy(pTmp, pMsg->cmd.Data, dataLen);
??MT_AfIncomingMsg_11:
        ; Setup parameters for call to function osal_memcpy
        LCALL   ?Subroutine21 & 0xFFFF
??CrossCallReturnLabel_29:
        LCALL   ?PUSH_XSTACK_I_THREE
          CFI CFA_XSP16 add(XSP16, 28)
        MOV     R4,?V0
        MOV     R5,?V1
        MOV     R2,?V2
        MOV     R3,?V3
        LCALL   `??osal_memcpy::?relay`; Banked call to: osal_memcpy
        MOV     A,#0x3
        LCALL   ?DEALLOC_XSTACK8
          CFI CFA_XSP16 add(XSP16, 25)
//  823     pTmp += dataLen;
        MOV     A,?V2
        ADD     A,?V0
        MOV     ?V2,A
        MOV     A,?V3
        ADDC    A,?V1
        MOV     ?V3,A
//  824   }
//  825 
//  826   // MAC Source address
//  827   *pTmp++ = LO_UINT16(pMsg->macSrcAddr);
??MT_AfIncomingMsg_13:
        MOV     A,?V8
        ADD     A,#0x24
        MOV     R0,A
        CLR     A
        ADDC    A,?V9
        MOV     R1,A
        LCALL   ?Subroutine6 & 0xFFFF
//  828   *pTmp++ = HI_UINT16(pMsg->macSrcAddr);
//  829 
//  830   // messages result radius
//  831   *pTmp = pMsg->radius;
??CrossCallReturnLabel_3:
        MOV     A,?V8
        ADD     A,#0x26
        LCALL   ?Subroutine18 & 0xFFFF
//  832 
//  833   /* Build and send back the response */
//  834   MT_BuildAndSendZToolResponse(((uint8)MT_RPC_CMD_AREQ|(uint8)MT_RPC_SYS_AF), cmd, respLen, pRsp);
??CrossCallReturnLabel_25:
        ; Setup parameters for call to function MT_BuildAndSendZToolResponse
        MOV     R4,?V12
        MOV     R5,?V13
        MOV     A,R6
        MOV     R3,A
        MOV     DPL,?XSP + 0
        MOV     DPH,?XSP + 1
        MOVX    A,@DPTR
        MOV     R2,A
        MOV     R1,#0x44
        LCALL   `??MT_BuildAndSendZToolResponse::?relay`; Banked call to: MT_BuildAndSendZToolResponse
//  835 
//  836   (void)osal_mem_free(pRsp);
        ; Setup parameters for call to function osal_mem_free
        MOV     R2,?V12
        MOV     R3,?V13
        LCALL   `??osal_mem_free::?relay`; Banked call to: osal_mem_free
//  837 }
??MT_AfIncomingMsg_3:
        MOV     A,#0x1
        LCALL   ?DEALLOC_XSTACK8
          CFI CFA_XSP16 add(XSP16, 24)
        MOV     R7,#0x10
        LJMP    ?BANKED_LEAVE_XDATA
          CFI R6 SameValue
          CFI VB SameValue
          CFI V0 SameValue
          CFI V1 SameValue
          CFI V2 SameValue
          CFI V3 SameValue
          CFI V4 SameValue
          CFI V5 SameValue
          CFI V6 SameValue
          CFI V7 SameValue
          CFI V8 SameValue
          CFI V9 SameValue
          CFI V10 SameValue
          CFI V11 SameValue
          CFI V12 SameValue
          CFI V13 SameValue
          CFI V14 SameValue
          CFI V15 SameValue
          CFI R7 SameValue
          CFI ?RET_LOW Frame(CFA_SP, 1)
          CFI ?RET_HIGH Frame(CFA_SP, 2)
          CFI ?BRET_EXT Frame(CFA_SP, 3)
          CFI DPL0 SameValue
          CFI DPH0 SameValue
          CFI CFA_SP SP+-3
          CFI CFA_XSP16 XSP16+0
          CFI EndBlock cfiBlock110

        RSEG BANKED_CODE:CODE:NOROOT(0)
?Subroutine33:
          CFI Block cfiCond111 Using cfiCommon0
          CFI Function MT_AfIncomingMsg
          CFI Conditional ??CrossCallReturnLabel_52
          CFI R6 load(1, XDATA, add(CFA_XSP16, literal(-24)))
          CFI VB load(1, XDATA, add(CFA_XSP16, literal(-23)))
          CFI V0 load(1, XDATA, add(CFA_XSP16, literal(-22)))
          CFI V1 load(1, XDATA, add(CFA_XSP16, literal(-21)))
          CFI V2 load(1, XDATA, add(CFA_XSP16, literal(-20)))
          CFI V3 load(1, XDATA, add(CFA_XSP16, literal(-19)))
          CFI V4 load(1, XDATA, add(CFA_XSP16, literal(-18)))
          CFI V5 load(1, XDATA, add(CFA_XSP16, literal(-17)))
          CFI V6 load(1, XDATA, add(CFA_XSP16, literal(-16)))
          CFI V7 load(1, XDATA, add(CFA_XSP16, literal(-15)))
          CFI V8 load(1, XDATA, add(CFA_XSP16, literal(-14)))
          CFI V9 load(1, XDATA, add(CFA_XSP16, literal(-13)))
          CFI V10 load(1, XDATA, add(CFA_XSP16, literal(-12)))
          CFI V11 load(1, XDATA, add(CFA_XSP16, literal(-11)))
          CFI V12 load(1, XDATA, add(CFA_XSP16, literal(-10)))
          CFI V13 load(1, XDATA, add(CFA_XSP16, literal(-9)))
          CFI V14 load(1, XDATA, add(CFA_XSP16, literal(-8)))
          CFI V15 load(1, XDATA, add(CFA_XSP16, literal(-7)))
          CFI R7 load(1, XDATA, add(CFA_XSP16, literal(-6)))
          CFI ?RET_LOW load(1, XDATA, add(CFA_XSP16, literal(-5)))
          CFI ?RET_HIGH load(1, XDATA, add(CFA_XSP16, literal(-4)))
          CFI ?BRET_EXT load(1, XDATA, add(CFA_XSP16, literal(-3)))
          CFI DPL0 load(1, XDATA, add(CFA_XSP16, literal(-2)))
          CFI DPH0 load(1, XDATA, add(CFA_XSP16, literal(-1)))
          CFI CFA_SP SP+-2
          CFI CFA_XSP16 add(XSP16, 25)
          CFI Block cfiCond112 Using cfiCommon0
          CFI (cfiCond112) Function MT_AfIncomingMsg
          CFI (cfiCond112) Conditional ??CrossCallReturnLabel_53
          CFI (cfiCond112) R6 load(1, XDATA, add(CFA_XSP16, literal(-24)))
          CFI (cfiCond112) VB load(1, XDATA, add(CFA_XSP16, literal(-23)))
          CFI (cfiCond112) V0 load(1, XDATA, add(CFA_XSP16, literal(-22)))
          CFI (cfiCond112) V1 load(1, XDATA, add(CFA_XSP16, literal(-21)))
          CFI (cfiCond112) V2 load(1, XDATA, add(CFA_XSP16, literal(-20)))
          CFI (cfiCond112) V3 load(1, XDATA, add(CFA_XSP16, literal(-19)))
          CFI (cfiCond112) V4 load(1, XDATA, add(CFA_XSP16, literal(-18)))
          CFI (cfiCond112) V5 load(1, XDATA, add(CFA_XSP16, literal(-17)))
          CFI (cfiCond112) V6 load(1, XDATA, add(CFA_XSP16, literal(-16)))
          CFI (cfiCond112) V7 load(1, XDATA, add(CFA_XSP16, literal(-15)))
          CFI (cfiCond112) V8 load(1, XDATA, add(CFA_XSP16, literal(-14)))
          CFI (cfiCond112) V9 load(1, XDATA, add(CFA_XSP16, literal(-13)))
          CFI (cfiCond112) V10 load(1, XDATA, add(CFA_XSP16, literal(-12)))
          CFI (cfiCond112) V11 load(1, XDATA, add(CFA_XSP16, literal(-11)))
          CFI (cfiCond112) V12 load(1, XDATA, add(CFA_XSP16, literal(-10)))
          CFI (cfiCond112) V13 load(1, XDATA, add(CFA_XSP16, literal(-9)))
          CFI (cfiCond112) V14 load(1, XDATA, add(CFA_XSP16, literal(-8)))
          CFI (cfiCond112) V15 load(1, XDATA, add(CFA_XSP16, literal(-7)))
          CFI (cfiCond112) R7 load(1, XDATA, add(CFA_XSP16, literal(-6)))
          CFI (cfiCond112) ?RET_LOW load(1, XDATA, add(CFA_XSP16, literal(-5)))
          CFI (cfiCond112) ?RET_HIGH load(1, XDATA, add(CFA_XSP16, literal(-4)))
          CFI (cfiCond112) ?BRET_EXT load(1, XDATA, add(CFA_XSP16, literal(-3)))
          CFI (cfiCond112) DPL0 load(1, XDATA, add(CFA_XSP16, literal(-2)))
