///////////////////////////////////////////////////////////////////////////////
//
// IAR C/C++ Compiler V9.20.1.2476 for 8051               17/Feb/2016  12:57:08
// Copyright 2004-2015 IAR Systems AB.
// Standalone license - IAR Embedded Workbench for 8051
//
//    Core               =  plain
//    Code model         =  banked
//    Data model         =  large
//    Calling convention =  xdata reentrant
//    Constant location  =  data_rom
//    Dptr setup         =  1,16
//                          
//    Source file        =  
//        E:\Sensordinges\Z-Stack Mesh 1.0.0\Z-Stack Mesh
//        1.0.0\Projects\zstack\Samples\DemoApp\Source\DemoCoordinator.c
//    Command line       =  
//        -f "E:\Sensordinges\Z-Stack Mesh 1.0.0\Z-Stack Mesh
//        1.0.0\Projects\zstack\Samples\DemoApp\CC2530DB\..\..\..\Tools\CC2530DB\f8wCoord.cfg"
//        (-DCPU32MHZ -DROOT=__near_func -DMAC_CFG_APP_PENDING_QUEUE=TRUE
//        -DMAC_CFG_TX_DATA_MAX=5 -DMAC_CFG_TX_MAX=8 -DMAC_CFG_RX_MAX=5
//        -DZDO_COORDINATOR -DRTR_NWK) -f "E:\Sensordinges\Z-Stack Mesh
//        1.0.0\Z-Stack Mesh
//        1.0.0\Projects\zstack\Samples\DemoApp\CC2530DB\..\..\..\Tools\CC2530DB\f8wConfig.cfg"
//        (-DZIGBEEPRO -DSECURE=0 -DZG_SECURE_DYNAMIC=0 -DREFLECTOR
//        -DDEFAULT_CHANLIST=0x00008000 -DZDAPP_CONFIG_PAN_ID=0x0EEE
//        -DNWK_START_DELAY=100 -DEXTENDED_JOINING_RANDOM_MASK=0x007F
//        -DBEACON_REQUEST_DELAY=100 -DBEACON_REQ_DELAY_MASK=0x00FF
//        -DLINK_STATUS_JITTER_MASK=0x007F -DROUTE_EXPIRY_TIME=30
//        -DAPSC_ACK_WAIT_DURATION_POLLED=3000 -DNWK_INDIRECT_MSG_TIMEOUT=7
//        -DMAX_RREQ_ENTRIES=8 -DAPSC_MAX_FRAME_RETRIES=3
//        -DNWK_MAX_DATA_RETRIES=2 -DMAX_POLL_FAILURE_RETRIES=2 -DMAX_BCAST=9
//        -DAPS_MAX_GROUPS=16 -DMAX_RTG_ENTRIES=40 -DNWK_MAX_BINDING_ENTRIES=4
//        -DMAX_BINDING_CLUSTER_IDS=4 "-DDEFAULT_KEY={0x01, 0x03, 0x05, 0x07,
//        0x09, 0x0B, 0x0D, 0x0F, 0x00, 0x02, 0x04, 0x06, 0x08, 0x0A, 0x0C,
//        0x0D}" -DMAC_MAX_FRAME_SIZE=116 -DZDNWKMGR_MIN_TRANSMISSIONS=20
//        "-DCONST=const __code" -DGENERIC=__generic -DRFD_RCVC_ALWAYS_ON=FALSE
//        -DPOLL_RATE=1000 -DQUEUED_POLL_RATE=100 -DRESPONSE_POLL_RATE=100)
//        -DREJOIN_POLL_RATE=440 "E:\Sensordinges\Z-Stack Mesh 1.0.0\Z-Stack
//        Mesh 1.0.0\Projects\zstack\Samples\DemoApp\Source\DemoCoordinator.c"
//        -D HOLD_AUTO_START -D BUILD_ALL_DEVICES -D REFLECTOR -D NV_INIT -D
//        xNV_RESTORE -D ZTOOL_P1 -lC "E:\Sensordinges\Z-Stack Mesh
//        1.0.0\Z-Stack Mesh
//        1.0.0\Projects\zstack\Samples\DemoApp\CC2530DB\CoordinatorEB\List\"
//        -lA "E:\Sensordinges\Z-Stack Mesh 1.0.0\Z-Stack Mesh
//        1.0.0\Projects\zstack\Samples\DemoApp\CC2530DB\CoordinatorEB\List\"
//        --diag_suppress Pe001,Pa010,Pe1665 -o "E:\Sensordinges\Z-Stack Mesh
//        1.0.0\Z-Stack Mesh
//        1.0.0\Projects\zstack\Samples\DemoApp\CC2530DB\CoordinatorEB\Obj\" -e
//        --debug --core=plain --dptr=16,1 --data_model=large
//        --code_model=banked --calling_convention=xdata_reentrant
//        --place_constants=data_rom --nr_virtual_regs 16 -I
//        "E:\Sensordinges\Z-Stack Mesh 1.0.0\Z-Stack Mesh
//        1.0.0\Projects\zstack\Samples\DemoApp\CC2530DB\" -I
//        "E:\Sensordinges\Z-Stack Mesh 1.0.0\Z-Stack Mesh
//        1.0.0\Projects\zstack\Samples\DemoApp\CC2530DB\..\Source\" -I
//        "E:\Sensordinges\Z-Stack Mesh 1.0.0\Z-Stack Mesh
//        1.0.0\Projects\zstack\Samples\DemoApp\CC2530DB\..\..\..\ZMain\TI2530DB\"
//        -I "E:\Sensordinges\Z-Stack Mesh 1.0.0\Z-Stack Mesh
//        1.0.0\Projects\zstack\Samples\DemoApp\CC2530DB\..\..\..\..\..\Components\hal\include\"
//        -I "E:\Sensordinges\Z-Stack Mesh 1.0.0\Z-Stack Mesh
//        1.0.0\Projects\zstack\Samples\DemoApp\CC2530DB\..\..\..\..\..\Components\hal\target\CC2530EB\"
//        -I "E:\Sensordinges\Z-Stack Mesh 1.0.0\Z-Stack Mesh
//        1.0.0\Projects\zstack\Samples\DemoApp\CC2530DB\..\..\..\..\..\Components\mac\include\"
//        -I "E:\Sensordinges\Z-Stack Mesh 1.0.0\Z-Stack Mesh
//        1.0.0\Projects\zstack\Samples\DemoApp\CC2530DB\..\..\..\..\..\Components\mac\high_level\"
//        -I "E:\Sensordinges\Z-Stack Mesh 1.0.0\Z-Stack Mesh
//        1.0.0\Projects\zstack\Samples\DemoApp\CC2530DB\..\..\..\..\..\Components\mac\low_level\srf04\"
//        -I "E:\Sensordinges\Z-Stack Mesh 1.0.0\Z-Stack Mesh
//        1.0.0\Projects\zstack\Samples\DemoApp\CC2530DB\..\..\..\..\..\Components\mac\low_level\srf04\single_chip\"
//        -I "E:\Sensordinges\Z-Stack Mesh 1.0.0\Z-Stack Mesh
//        1.0.0\Projects\zstack\Samples\DemoApp\CC2530DB\..\..\..\..\..\Components\mt\"
//        -I "E:\Sensordinges\Z-Stack Mesh 1.0.0\Z-Stack Mesh
//        1.0.0\Projects\zstack\Samples\DemoApp\CC2530DB\..\..\..\..\..\Components\osal\include\"
//        -I "E:\Sensordinges\Z-Stack Mesh 1.0.0\Z-Stack Mesh
//        1.0.0\Projects\zstack\Samples\DemoApp\CC2530DB\..\..\..\..\..\Components\services\saddr\"
//        -I "E:\Sensordinges\Z-Stack Mesh 1.0.0\Z-Stack Mesh
//        1.0.0\Projects\zstack\Samples\DemoApp\CC2530DB\..\..\..\..\..\Components\services\sdata\"
//        -I "E:\Sensordinges\Z-Stack Mesh 1.0.0\Z-Stack Mesh
//        1.0.0\Projects\zstack\Samples\DemoApp\CC2530DB\..\..\..\..\..\Components\stack\af\"
//        -I "E:\Sensordinges\Z-Stack Mesh 1.0.0\Z-Stack Mesh
//        1.0.0\Projects\zstack\Samples\DemoApp\CC2530DB\..\..\..\..\..\Components\stack\nwk\"
//        -I "E:\Sensordinges\Z-Stack Mesh 1.0.0\Z-Stack Mesh
//        1.0.0\Projects\zstack\Samples\DemoApp\CC2530DB\..\..\..\..\..\Components\stack\sapi\"
//        -I "E:\Sensordinges\Z-Stack Mesh 1.0.0\Z-Stack Mesh
//        1.0.0\Projects\zstack\Samples\DemoApp\CC2530DB\..\..\..\..\..\Components\stack\sec\"
//        -I "E:\Sensordinges\Z-Stack Mesh 1.0.0\Z-Stack Mesh
//        1.0.0\Projects\zstack\Samples\DemoApp\CC2530DB\..\..\..\..\..\Components\stack\sys\"
//        -I "E:\Sensordinges\Z-Stack Mesh 1.0.0\Z-Stack Mesh
//        1.0.0\Projects\zstack\Samples\DemoApp\CC2530DB\..\..\..\..\..\Components\stack\zdo\"
//        -I "E:\Sensordinges\Z-Stack Mesh 1.0.0\Z-Stack Mesh
//        1.0.0\Projects\zstack\Samples\DemoApp\CC2530DB\..\..\..\..\..\Components\zmac\"
//        -I "E:\Sensordinges\Z-Stack Mesh 1.0.0\Z-Stack Mesh
//        1.0.0\Projects\zstack\Samples\DemoApp\CC2530DB\..\..\..\..\..\Components\zmac\f8w\"
//        -Oh --require_prototypes
//    List file          =  
//        E:\Sensordinges\Z-Stack Mesh 1.0.0\Z-Stack Mesh
//        1.0.0\Projects\zstack\Samples\DemoApp\CC2530DB\CoordinatorEB\List\DemoCoordinator.s51
//
///////////////////////////////////////////////////////////////////////////////

        NAME DemoCoordinator

        RTMODEL "__SystemLibrary", "CLib"
        RTMODEL "__calling_convention", "xdata_reentrant"
        RTMODEL "__code_model", "banked"
        RTMODEL "__core", "plain"
        RTMODEL "__data_model", "large"
        RTMODEL "__dptr_size", "16"
        RTMODEL "__extended_stack", "disabled"
        RTMODEL "__location_for_constants", "data"
        RTMODEL "__number_of_dptrs", "1"
        RTMODEL "__rt_version", "1"

        RSEG DOVERLAY:DATA:NOROOT(0)
        RSEG IOVERLAY:IDATA:NOROOT(0)
        RSEG ISTACK:IDATA:NOROOT(0)
        RSEG PSTACK:XDATA:NOROOT(0)
        RSEG XSTACK:XDATA:NOROOT(0)

        EXTERN ?V0
        EXTERN ?V1
        EXTERN ?V2
        EXTERN ?V3
        EXTERN ?ALLOC_XSTACK8
        EXTERN ?BANKED_ENTER_XDATA
        EXTERN ?BANKED_LEAVE_XDATA
        EXTERN ?BDISPATCH
        EXTERN ?BRET
        EXTERN ?DEALLOC_XSTACK8
        EXTERN ?PUSH_XSTACK_I_FOUR
        EXTERN ?XSP
        EXTERN ?XSTACK_DISP0_8
        EXTERN ?XSTACK_DISP101_8
        EXTERN __INIT_XDATA_I
        EXTERN __INIT_XDATA_Z

        FUNCTION `??sendGtwReport::?relay`,0203H
        PUBLIC `??uartRxCB::?relay`
        FUNCTION `??uartRxCB::?relay`,0203H
        PUBLIC `??zb_AllowBindConfirm::?relay`
        FUNCTION `??zb_AllowBindConfirm::?relay`,0203H
        PUBLIC `??zb_BindConfirm::?relay`
        FUNCTION `??zb_BindConfirm::?relay`,0203H
        PUBLIC `??zb_FindDeviceConfirm::?relay`
        FUNCTION `??zb_FindDeviceConfirm::?relay`,0203H
        PUBLIC `??zb_HandleKeys::?relay`
        FUNCTION `??zb_HandleKeys::?relay`,0203H
        PUBLIC `??zb_HandleOsalEvent::?relay`
        FUNCTION `??zb_HandleOsalEvent::?relay`,0203H
        PUBLIC `??zb_ReceiveDataIndication::?relay`
        FUNCTION `??zb_ReceiveDataIndication::?relay`,0203H
        PUBLIC `??zb_SendDataConfirm::?relay`
        FUNCTION `??zb_SendDataConfirm::?relay`,0203H
        PUBLIC `??zb_StartConfirm::?relay`
        FUNCTION `??zb_StartConfirm::?relay`,0203H
        FUNCTION sendGtwReport,021203H
        ARGFRAME XSTACK, 9, STACK
        ARGFRAME IOVERLAY, 0, STATIC
        ARGFRAME DOVERLAY, 0, STATIC
        LOCFRAME ISTACK, 3, STACK
        LOCFRAME XSTACK, 15, STACK
        PUBLIC uartRxCB
        FUNCTION uartRxCB,0a1603H
        ARGFRAME XSTACK, 0, STACK
        LOCFRAME ISTACK, 1, STACK
        LOCFRAME XSTACK, 145, STACK
        PUBLIC zb_AllowBindConfirm
        FUNCTION zb_AllowBindConfirm,0203H
        ARGFRAME XSTACK, 0, STACK
        PUBLIC zb_BindConfirm
        FUNCTION zb_BindConfirm,0203H
        ARGFRAME XSTACK, 0, STACK
        PUBLIC zb_FindDeviceConfirm
        FUNCTION zb_FindDeviceConfirm,0203H
        ARGFRAME XSTACK, 0, STACK
        PUBLIC zb_HandleKeys
        FUNCTION zb_HandleKeys,021203H
        ARGFRAME XSTACK, 0, STACK
        LOCFRAME XSTACK, 9, STACK
        PUBLIC zb_HandleOsalEvent
        FUNCTION zb_HandleOsalEvent,021203H
        ARGFRAME XSTACK, 0, STACK
        LOCFRAME XSTACK, 9, STACK
        PUBLIC zb_InCmdList
        PUBLIC zb_ReceiveDataIndication
        FUNCTION zb_ReceiveDataIndication,021203H
        ARGFRAME XSTACK, 4, STACK
        LOCFRAME XSTACK, 9, STACK
        PUBLIC zb_SendDataConfirm
        FUNCTION zb_SendDataConfirm,0203H
        ARGFRAME XSTACK, 0, STACK
        PUBLIC zb_SimpleDesc
        PUBLIC zb_StartConfirm
        FUNCTION zb_StartConfirm,0a1203H
        ARGFRAME XSTACK, 0, STACK
        LOCFRAME XSTACK, 16, STACK
        
          CFI Names cfiNames0
          CFI StackFrame CFA_SP SP IDATA
          CFI StackFrame CFA_PSP16 PSP16 XDATA
          CFI StackFrame CFA_XSP16 XSP16 XDATA
          CFI StaticOverlayFrame CFA_IOVERLAY IOVERLAY
          CFI StaticOverlayFrame CFA_DOVERLAY DOVERLAY
          CFI Resource `PSW.CY`:1, `B.BR0`:1, `B.BR1`:1, `B.BR2`:1, `B.BR3`:1
          CFI Resource `B.BR4`:1, `B.BR5`:1, `B.BR6`:1, `B.BR7`:1, `VB.BR8`:1
          CFI Resource `VB.BR9`:1, `VB.BR10`:1, `VB.BR11`:1, `VB.BR12`:1
          CFI Resource `VB.BR13`:1, `VB.BR14`:1, `VB.BR15`:1, VB:8, B:8, A:8
          CFI Resource PSW:8, DPL0:8, DPH0:8, R0:8, R1:8, R2:8, R3:8, R4:8, R5:8
          CFI Resource R6:8, R7:8, V0:8, V1:8, V2:8, V3:8, V4:8, V5:8, V6:8, V7:8
          CFI Resource V8:8, V9:8, V10:8, V11:8, V12:8, V13:8, V14:8, V15:8, SP:8
          CFI Resource PSPH:8, PSPL:8, PSP16:16, XSPH:8, XSPL:8, XSP16:16
          CFI VirtualResource ?RET:24
          CFI Resource ?BRET_EXT:8
          CFI VirtualResource ?RET_HIGH:8, ?RET_LOW:8
          CFI ResourceParts PSP16 PSPH, PSPL
          CFI ResourceParts XSP16 XSPH, XSPL
          CFI ResourceParts ?RET ?BRET_EXT, ?RET_HIGH, ?RET_LOW
          CFI EndNames cfiNames0
        
          CFI Common cfiCommon0 Using cfiNames0
          CFI CodeAlign 1
          CFI DataAlign -1
          CFI ReturnAddress ?RET CODE
          CFI CFA_DOVERLAY Used
          CFI CFA_IOVERLAY Used
          CFI CFA_SP SP+-3
          CFI CFA_PSP16 PSP16+0
          CFI CFA_XSP16 XSP16+0
          CFI `PSW.CY` SameValue
          CFI `B.BR0` SameValue
          CFI `B.BR1` SameValue
          CFI `B.BR2` SameValue
          CFI `B.BR3` SameValue
          CFI `B.BR4` SameValue
          CFI `B.BR5` SameValue
          CFI `B.BR6` SameValue
          CFI `B.BR7` SameValue
          CFI `VB.BR8` SameValue
          CFI `VB.BR9` SameValue
          CFI `VB.BR10` SameValue
          CFI `VB.BR11` SameValue
          CFI `VB.BR12` SameValue
          CFI `VB.BR13` SameValue
          CFI `VB.BR14` SameValue
          CFI `VB.BR15` SameValue
          CFI VB SameValue
          CFI B Undefined
          CFI A Undefined
          CFI PSW SameValue
          CFI DPL0 SameValue
          CFI DPH0 SameValue
          CFI R0 Undefined
          CFI R1 Undefined
          CFI R2 Undefined
          CFI R3 Undefined
          CFI R4 Undefined
          CFI R5 Undefined
          CFI R6 SameValue
          CFI R7 SameValue
          CFI V0 SameValue
          CFI V1 SameValue
          CFI V2 SameValue
          CFI V3 SameValue
          CFI V4 SameValue
          CFI V5 SameValue
          CFI V6 SameValue
          CFI V7 SameValue
          CFI V8 SameValue
          CFI V9 SameValue
          CFI V10 SameValue
          CFI V11 SameValue
          CFI V12 SameValue
          CFI V13 SameValue
          CFI V14 SameValue
          CFI V15 SameValue
          CFI PSPH Undefined
          CFI PSPL Undefined
          CFI XSPH Undefined
          CFI XSPL Undefined
          CFI ?RET Concat
          CFI ?BRET_EXT Frame(CFA_SP, 3)
          CFI ?RET_HIGH Frame(CFA_SP, 2)
          CFI ?RET_LOW Frame(CFA_SP, 1)
          CFI EndCommon cfiCommon0
        
        
          CFI Common cfiCommon1 Using cfiNames0
          CFI CodeAlign 1
          CFI DataAlign -1
          CFI ReturnAddress ?RET CODE
          CFI CFA_DOVERLAY Used
          CFI CFA_IOVERLAY Used
          CFI CFA_SP SP+-2
          CFI CFA_PSP16 PSP16+0
          CFI CFA_XSP16 XSP16+0
          CFI `PSW.CY` SameValue
          CFI `B.BR0` SameValue
          CFI `B.BR1` SameValue
          CFI `B.BR2` SameValue
          CFI `B.BR3` SameValue
          CFI `B.BR4` SameValue
          CFI `B.BR5` SameValue
          CFI `B.BR6` SameValue
          CFI `B.BR7` SameValue
          CFI `VB.BR8` SameValue
          CFI `VB.BR9` SameValue
          CFI `VB.BR10` SameValue
          CFI `VB.BR11` SameValue
          CFI `VB.BR12` SameValue
          CFI `VB.BR13` SameValue
          CFI `VB.BR14` SameValue
          CFI `VB.BR15` SameValue
          CFI VB SameValue
          CFI B SameValue
          CFI A SameValue
          CFI PSW SameValue
          CFI DPL0 SameValue
          CFI DPH0 SameValue
          CFI R0 SameValue
          CFI R1 SameValue
          CFI R2 SameValue
          CFI R3 SameValue
          CFI R4 SameValue
          CFI R5 SameValue
          CFI R6 SameValue
          CFI R7 SameValue
          CFI V0 SameValue
          CFI V1 SameValue
          CFI V2 SameValue
          CFI V3 SameValue
          CFI V4 SameValue
          CFI V5 SameValue
          CFI V6 SameValue
          CFI V7 SameValue
          CFI V8 SameValue
          CFI V9 SameValue
          CFI V10 SameValue
          CFI V11 SameValue
          CFI V12 SameValue
          CFI V13 SameValue
          CFI V14 SameValue
          CFI V15 SameValue
          CFI PSPH Undefined
          CFI PSPL Undefined
          CFI XSPH Undefined
          CFI XSPL Undefined
          CFI ?RET Concat
          CFI ?BRET_EXT SameValue
          CFI ?RET_HIGH Frame(CFA_SP, 2)
          CFI ?RET_LOW Frame(CFA_SP, 1)
          CFI EndCommon cfiCommon1
        
HalLedBlink         SYMBOL "HalLedBlink"
`??HalLedBlink::?relay` SYMBOL "?relay", HalLedBlink
HalLedSet           SYMBOL "HalLedSet"
`??HalLedSet::?relay` SYMBOL "?relay", HalLedSet
HalUARTRead         SYMBOL "HalUARTRead"
`??HalUARTRead::?relay` SYMBOL "?relay", HalUARTRead
HalUARTWrite        SYMBOL "HalUARTWrite"
`??HalUARTWrite::?relay` SYMBOL "?relay", HalUARTWrite
initUart            SYMBOL "initUart"
`??initUart::?relay` SYMBOL "?relay", initUart
osal_start_timerEx  SYMBOL "osal_start_timerEx"
`??osal_start_timerEx::?relay` SYMBOL "?relay", osal_start_timerEx
zb_AllowBind        SYMBOL "zb_AllowBind"
`??zb_AllowBind::?relay` SYMBOL "?relay", zb_AllowBind
zb_StartRequest     SYMBOL "zb_StartRequest"
`??zb_StartRequest::?relay` SYMBOL "?relay", zb_StartRequest
uartRxCB            SYMBOL "uartRxCB"
`??uartRxCB::?relay` SYMBOL "?relay", uartRxCB
zb_AllowBindConfirm SYMBOL "zb_AllowBindConfirm"
`??zb_AllowBindConfirm::?relay` SYMBOL "?relay", zb_AllowBindConfirm
zb_BindConfirm      SYMBOL "zb_BindConfirm"
`??zb_BindConfirm::?relay` SYMBOL "?relay", zb_BindConfirm
zb_FindDeviceConfirm SYMBOL "zb_FindDeviceConfirm"
`??zb_FindDeviceConfirm::?relay` SYMBOL "?relay", zb_FindDeviceConfirm
zb_HandleKeys       SYMBOL "zb_HandleKeys"
`??zb_HandleKeys::?relay` SYMBOL "?relay", zb_HandleKeys
zb_HandleOsalEvent  SYMBOL "zb_HandleOsalEvent"
`??zb_HandleOsalEvent::?relay` SYMBOL "?relay", zb_HandleOsalEvent
zb_ReceiveDataIndication SYMBOL "zb_ReceiveDataIndication"
`??zb_ReceiveDataIndication::?relay` SYMBOL "?relay", zb_ReceiveDataIndication
zb_SendDataConfirm  SYMBOL "zb_SendDataConfirm"
`??zb_SendDataConfirm::?relay` SYMBOL "?relay", zb_SendDataConfirm
zb_StartConfirm     SYMBOL "zb_StartConfirm"
`??zb_StartConfirm::?relay` SYMBOL "?relay", zb_StartConfirm

        EXTERN `??HalLedBlink::?relay`
        FUNCTION `??HalLedBlink::?relay`,00H
        EXTERN `??HalLedSet::?relay`
        FUNCTION `??HalLedSet::?relay`,00H
        EXTERN `??HalUARTRead::?relay`
        FUNCTION `??HalUARTRead::?relay`,00H
        EXTERN `??HalUARTWrite::?relay`
        FUNCTION `??HalUARTWrite::?relay`,00H
        EXTERN `??initUart::?relay`
        FUNCTION `??initUart::?relay`,00H
        EXTERN `??osal_start_timerEx::?relay`
        FUNCTION `??osal_start_timerEx::?relay`,00H
        EXTERN `??zb_AllowBind::?relay`
        FUNCTION `??zb_AllowBind::?relay`,00H
        EXTERN `??zb_StartRequest::?relay`
        FUNCTION `??zb_StartRequest::?relay`,00H
        EXTERN HalLedBlink
        FUNCTION HalLedBlink,0202H
        ARGFRAME ISTACK, 0, STACK
        ARGFRAME PSTACK, 0, STACK
        ARGFRAME XSTACK, 9, STACK
        ARGFRAME IOVERLAY, 0, STATIC
        ARGFRAME DOVERLAY, 0, STATIC
        EXTERN HalLedSet
        FUNCTION HalLedSet,0202H
        ARGFRAME ISTACK, 0, STACK
        ARGFRAME PSTACK, 0, STACK
        ARGFRAME XSTACK, 12, STACK
        ARGFRAME IOVERLAY, 0, STATIC
        ARGFRAME DOVERLAY, 0, STATIC
        EXTERN HalUARTRead
        FUNCTION HalUARTRead,0202H
        ARGFRAME ISTACK, 0, STACK
        ARGFRAME PSTACK, 0, STACK
        ARGFRAME XSTACK, 145, STACK
        ARGFRAME IOVERLAY, 0, STATIC
        ARGFRAME DOVERLAY, 0, STATIC
        EXTERN HalUARTWrite
        FUNCTION HalUARTWrite,0202H
        ARGFRAME ISTACK, 2, STACK
        ARGFRAME PSTACK, 0, STACK
        ARGFRAME XSTACK, 145, STACK
        ARGFRAME IOVERLAY, 0, STATIC
        ARGFRAME DOVERLAY, 0, STATIC
        EXTERN initUart
        FUNCTION initUart,0202H
        ARGFRAME ISTACK, 0, STACK
        ARGFRAME PSTACK, 0, STACK
        ARGFRAME XSTACK, 9, STACK
        ARGFRAME IOVERLAY, 0, STATIC
        ARGFRAME DOVERLAY, 0, STATIC
        EXTERN osal_start_timerEx
        FUNCTION osal_start_timerEx,0202H
        ARGFRAME ISTACK, 0, STACK
        ARGFRAME PSTACK, 0, STACK
        ARGFRAME XSTACK, 16, STACK
        ARGFRAME IOVERLAY, 0, STATIC
        ARGFRAME DOVERLAY, 0, STATIC
        EXTERN sapi_TaskID
        EXTERN zb_AllowBind
        FUNCTION zb_AllowBind,0202H
        ARGFRAME ISTACK, 0, STACK
        ARGFRAME PSTACK, 0, STACK
        ARGFRAME XSTACK, 9, STACK
        ARGFRAME IOVERLAY, 0, STATIC
        ARGFRAME DOVERLAY, 0, STATIC
        EXTERN zb_StartRequest
        FUNCTION zb_StartRequest,0202H
        ARGFRAME ISTACK, 0, STACK
        ARGFRAME PSTACK, 0, STACK
        ARGFRAME XSTACK, 9, STACK
        ARGFRAME IOVERLAY, 0, STATIC
        ARGFRAME DOVERLAY, 0, STATIC

// E:\Sensordinges\Z-Stack Mesh 1.0.0\Z-Stack Mesh 1.0.0\Projects\zstack\Samples\DemoApp\Source\DemoCoordinator.c
//    1 /**************************************************************************************************
//    2   Filename:       DemoCoordinator.c
//    3 
//    4   Description:    Coordinator application for the sensor demo utilizing Simple API.
//    5 
//    6                   The collector node can be set in a state where it accepts
//    7                   incoming reports from the sensor nodes, and can send the reports
//    8                   via the UART to a PC tool. The collector node in this state
//    9                   functions as a gateway. The collector nodes that are not in the
//   10                   gateway node function as routers in the network.
//   11 
//   12 
//   13   Copyright 2009 Texas Instruments Incorporated. All rights reserved.
//   14 
//   15   IMPORTANT: Your use of this Software is limited to those specific rights
//   16   granted under the terms of a software license agreement between the user
//   17   who downloaded the software, his/her employer (which must be your employer)
//   18   and Texas Instruments Incorporated (the "License").  You may not use this
//   19   Software unless you agree to abide by the terms of the License. The License
//   20   limits your use, and you acknowledge, that the Software may not be modified,
//   21   copied or distributed unless embedded on a Texas Instruments microcontroller
//   22   or used solely and exclusively in conjunction with a Texas Instruments radio
//   23   frequency transceiver, which is integrated into your product.  Other than for
//   24   the foregoing purpose, you may not use, reproduce, copy, prepare derivative
//   25   works of, modify, distribute, perform, display or sell this Software and/or
//   26   its documentation for any purpose.
//   27 
//   28   YOU FURTHER ACKNOWLEDGE AND AGREE THAT THE SOFTWARE AND DOCUMENTATION ARE
//   29   PROVIDED “AS IS” WITHOUT WARRANTY OF ANY KIND, EITHER EXPRESS OR IMPLIED,
//   30   INCLUDING WITHOUT LIMITATION, ANY WARRANTY OF MERCHANTABILITY, TITLE,
//   31   NON-INFRINGEMENT AND FITNESS FOR A PARTICULAR PURPOSE. IN NO EVENT SHALL
//   32   TEXAS INSTRUMENTS OR ITS LICENSORS BE LIABLE OR OBLIGATED UNDER CONTRACT,
//   33   NEGLIGENCE, STRICT LIABILITY, CONTRIBUTION, BREACH OF WARRANTY, OR OTHER
//   34   LEGAL EQUITABLE THEORY ANY DIRECT OR INDIRECT DAMAGES OR EXPENSES
//   35   INCLUDING BUT NOT LIMITED TO ANY INCIDENTAL, SPECIAL, INDIRECT, PUNITIVE
//   36   OR CONSEQUENTIAL DAMAGES, LOST PROFITS OR LOST DATA, COST OF PROCUREMENT
//   37   OF SUBSTITUTE GOODS, TECHNOLOGY, SERVICES, OR ANY CLAIMS BY THIRD PARTIES
//   38   (INCLUDING BUT NOT LIMITED TO ANY DEFENSE THEREOF), OR OTHER SIMILAR COSTS.
//   39 
//   40   Should you have any questions regarding your right to use this Software,
//   41   contact Texas Instruments Incorporated at www.TI.com.
//   42 **************************************************************************************************/
//   43 
//   44 /******************************************************************************
//   45  * INCLUDES
//   46  */
//   47 
//   48 #include "ZComDef.h"
//   49 #include "OSAL.h"
//   50 #include "OSAL_Nv.h"
//   51 #include "sapi.h"
//   52 #include "hal_key.h"
//   53 #include "hal_led.h"
//   54 #include "hal_lcd.h"
//   55 #include "hal_uart.h"
//   56 #include "DemoApp.h"
//   57 
//   58 /******************************************************************************
//   59  * CONSTANTS
//   60  */
//   61 
//   62 // General UART frame offsets
//   63 #define FRAME_SOF_OFFSET                    0
//   64 #define FRAME_LENGTH_OFFSET                 1
//   65 #define FRAME_CMD0_OFFSET                   2
//   66 #define FRAME_CMD1_OFFSET                   3
//   67 #define FRAME_DATA_OFFSET                   4
//   68 
//   69 // ZB_RECEIVE_DATA_INDICATION offsets
//   70 #define ZB_RECV_SRC_OFFSET                  0
//   71 #define ZB_RECV_CMD_OFFSET                  2
//   72 #define ZB_RECV_LEN_OFFSET                  4
//   73 #define ZB_RECV_DATA_OFFSET                 6
//   74 #define ZB_RECV_FCS_OFFSET                  8
//   75 
//   76 // ZB_RECEIVE_DATA_INDICATION frame length
//   77 #define ZB_RECV_LENGTH                      15
//   78 
//   79 // PING response frame length and offset
//   80 #define SYS_PING_RSP_LENGTH                 7
//   81 #define SYS_PING_CMD_OFFSET                 1
//   82 
//   83 // Stack Profile
//   84 #define ZIGBEE_2007                         0x0040
//   85 #define ZIGBEE_PRO_2007                     0x0041
//   86 
//   87 #ifdef ZIGBEEPRO
//   88 #define STACK_PROFILE                       ZIGBEE_PRO_2007
//   89 #else
//   90 #define STACK_PROFILE                       ZIGBEE_2007
//   91 #endif
//   92 
//   93 #define CPT_SOP                             0xFE
//   94 #define SYS_PING_REQUEST                    0x0021
//   95 #define SYS_PING_RESPONSE                   0x0161
//   96 #define ZB_RECEIVE_DATA_INDICATION          0x8746
//   97 
//   98 // Application States
//   99 #define APP_INIT                            0
//  100 #define APP_START                           2
//  101 
//  102 // Application osal event identifiers
//  103 #define MY_START_EVT                        0x0001
//  104 
//  105 /******************************************************************************
//  106  * TYPEDEFS
//  107  */
//  108 typedef struct
//  109 {
//  110   uint16              source;
//  111   uint16              parent;
//  112   uint8               temp;
//  113   uint8               voltage;
//  114 } gtwData_t;
//  115 
//  116 /******************************************************************************
//  117  * LOCAL VARIABLES
//  118  */
//  119 

        RSEG XDATA_Z:XDATA:NOROOT(0)
        DATA8
//  120 static uint8 appState =             APP_INIT;
appState:
        DS 1
        REQUIRE __INIT_XDATA_Z

        RSEG XDATA_I:XDATA:NOROOT(0)
//  121 static uint8 myStartRetryDelay =    10;          // milliseconds
myStartRetryDelay:
        DATA8
        DS 1
        REQUIRE `?<Initializer for myStartRetryDelay>`
        REQUIRE __INIT_XDATA_I

        RSEG XDATA_Z:XDATA:NOROOT(0)
        DATA8
//  122 static gtwData_t gtwData;
gtwData:
        DS 6
        REQUIRE __INIT_XDATA_Z
//  123 
//  124 /******************************************************************************
//  125  * LOCAL FUNCTIONS
//  126  */
//  127 
//  128 static uint8 calcFCS(uint8 *pBuf, uint8 len);
//  129 static void sysPingReqRcvd(void);
//  130 static void sysPingRsp(void);
//  131 static void sendGtwReport(gtwData_t *gtwData);
//  132 
//  133 /******************************************************************************
//  134  * GLOBAL VARIABLES
//  135  */
//  136 
//  137 // Inputs and Outputs for Collector device
//  138 #define NUM_OUT_CMD_COLLECTOR           0
//  139 #define NUM_IN_CMD_COLLECTOR            1
//  140 
//  141 // List of output and input commands for Collector device

        RSEG XDATA_ROM_C:CONST:REORDER:NOROOT(0)
        DATA16
//  142 const cId_t zb_InCmdList[NUM_IN_CMD_COLLECTOR] =
zb_InCmdList:
        DW 2
//  143 {
//  144   SENSOR_REPORT_CMD_ID,
//  145 };
//  146 
//  147 // Define SimpleDescriptor for Collector device

        RSEG XDATA_ROM_C:CONST:REORDER:NOROOT(0)
        DATA8
//  148 const SimpleDescriptionFormat_t zb_SimpleDesc =
zb_SimpleDesc:
        DB 2
        DATA16
        DW 3872
        DW 2
        DATA8
        DB 1
        DB 1
        DATA16
        DW zb_InCmdList
        DATA8
        DB 0
        DATA16
        DW 0H
//  149 {
//  150   MY_ENDPOINT_ID,             //  Endpoint
//  151   MY_PROFILE_ID,              //  Profile ID
//  152   DEV_ID_COLLECTOR,           //  Device ID
//  153   DEVICE_VERSION_COLLECTOR,   //  Device Version
//  154   0,                          //  Reserved
//  155   NUM_IN_CMD_COLLECTOR,       //  Number of Input Commands
//  156   (cId_t *) zb_InCmdList,     //  Input Command List
//  157   NUM_OUT_CMD_COLLECTOR,      //  Number of Output Commands
//  158   (cId_t *) NULL              //  Output Command List
//  159 };
//  160 
//  161 /******************************************************************************
//  162  * FUNCTIONS
//  163  */
//  164 
//  165 /******************************************************************************
//  166  * @fn          zb_HandleOsalEvent
//  167  *
//  168  * @brief       The zb_HandleOsalEvent function is called by the operating
//  169  *              system when a task event is set
//  170  *
//  171  * @param       event - Bitmask containing the events that have been set
//  172  *
//  173  * @return      none
//  174  */

        RSEG BANKED_CODE:CODE:NOROOT(0)
//  175 void zb_HandleOsalEvent( uint16 event )
zb_HandleOsalEvent:
          CFI Block cfiBlock0 Using cfiCommon0
          CFI Function zb_HandleOsalEvent
        CODE
//  176 {
        FUNCALL zb_HandleOsalEvent, initUart
        LOCFRAME ISTACK, 0, STACK
        LOCFRAME PSTACK, 0, STACK
        LOCFRAME XSTACK, 9, STACK
        LOCFRAME IOVERLAY, 0, STATIC
        LOCFRAME DOVERLAY, 0, STATIC
        ARGFRAME ISTACK, 0, STACK
        ARGFRAME PSTACK, 0, STACK
        ARGFRAME XSTACK, 9, STACK
        ARGFRAME IOVERLAY, 0, STATIC
        ARGFRAME DOVERLAY, 0, STATIC
        FUNCALL zb_HandleOsalEvent, HalLedBlink
        LOCFRAME ISTACK, 0, STACK
        LOCFRAME PSTACK, 0, STACK
        LOCFRAME XSTACK, 9, STACK
        LOCFRAME IOVERLAY, 0, STATIC
        LOCFRAME DOVERLAY, 0, STATIC
        ARGFRAME ISTACK, 0, STACK
        ARGFRAME PSTACK, 0, STACK
        ARGFRAME XSTACK, 9, STACK
        ARGFRAME IOVERLAY, 0, STATIC
        ARGFRAME DOVERLAY, 0, STATIC
        FUNCALL zb_HandleOsalEvent, HalLedSet
        LOCFRAME ISTACK, 0, STACK
        LOCFRAME PSTACK, 0, STACK
        LOCFRAME XSTACK, 9, STACK
        LOCFRAME IOVERLAY, 0, STATIC
        LOCFRAME DOVERLAY, 0, STATIC
        ARGFRAME ISTACK, 0, STACK
        ARGFRAME PSTACK, 0, STACK
        ARGFRAME XSTACK, 9, STACK
        ARGFRAME IOVERLAY, 0, STATIC
        ARGFRAME DOVERLAY, 0, STATIC
        FUNCALL zb_HandleOsalEvent, zb_StartRequest
        LOCFRAME ISTACK, 0, STACK
        LOCFRAME PSTACK, 0, STACK
        LOCFRAME XSTACK, 9, STACK
        LOCFRAME IOVERLAY, 0, STATIC
        LOCFRAME DOVERLAY, 0, STATIC
        ARGFRAME ISTACK, 0, STACK
        ARGFRAME PSTACK, 0, STACK
        ARGFRAME XSTACK, 9, STACK
        ARGFRAME IOVERLAY, 0, STATIC
        ARGFRAME DOVERLAY, 0, STATIC
        FUNCALL zb_HandleOsalEvent, zb_StartRequest
        LOCFRAME ISTACK, 0, STACK
        LOCFRAME PSTACK, 0, STACK
        LOCFRAME XSTACK, 9, STACK
        LOCFRAME IOVERLAY, 0, STATIC
        LOCFRAME DOVERLAY, 0, STATIC
        ARGFRAME ISTACK, 0, STACK
        ARGFRAME PSTACK, 0, STACK
        ARGFRAME XSTACK, 9, STACK
        ARGFRAME IOVERLAY, 0, STATIC
        ARGFRAME DOVERLAY, 0, STATIC
        MOV     A,#-0x9
        LCALL   ?BANKED_ENTER_XDATA
          CFI DPH0 load(1, XDATA, add(CFA_XSP16, literal(-1)))
          CFI DPL0 load(1, XDATA, add(CFA_XSP16, literal(-2)))
          CFI ?BRET_EXT load(1, XDATA, add(CFA_XSP16, literal(-3)))
          CFI ?RET_HIGH load(1, XDATA, add(CFA_XSP16, literal(-4)))
          CFI ?RET_LOW load(1, XDATA, add(CFA_XSP16, literal(-5)))
          CFI R7 load(1, XDATA, add(CFA_XSP16, literal(-6)))
          CFI V0 load(1, XDATA, add(CFA_XSP16, literal(-7)))
          CFI VB load(1, XDATA, add(CFA_XSP16, literal(-8)))
          CFI R6 load(1, XDATA, add(CFA_XSP16, literal(-9)))
          CFI CFA_SP SP+0
          CFI CFA_XSP16 add(XSP16, 9)
        ; Saved register size: 9
        ; Auto size: 0
        MOV     A,R2
        MOV     R6,A
        MOV     A,R3
//  177   if( event & SYS_EVENT_MSG )
//  178   {
//  179   }
//  180 
//  181   if( event & ZB_ENTRY_EVENT )
        ANL     A,#0x10
        JZ      ??zb_HandleOsalEvent_0
//  182   {
//  183     // Initialise UART
//  184     initUart(uartRxCB);
        ; Setup parameters for call to function initUart
        MOV     R2,#`??uartRxCB::?relay` & 0xff
        MOV     R3,#(`??uartRxCB::?relay` >> 8) & 0xff
        LCALL   `??initUart::?relay` ; Banked call to: initUart
//  185 
//  186     // blind LED 1 to indicate starting/joining a network
//  187     HalLedBlink ( HAL_LED_1, 0, 50, 500 );
        ; Setup parameters for call to function HalLedBlink
        MOV     R4,#-0xc
        MOV     R5,#0x1
        MOV     R3,#0x32
        MOV     R2,#0x0
        MOV     R1,#0x1
        LCALL   `??HalLedBlink::?relay`; Banked call to: HalLedBlink
//  188     HalLedSet( HAL_LED_2, HAL_LED_MODE_OFF );
        ; Setup parameters for call to function HalLedSet
        MOV     R2,#0x0
        MOV     R1,#0x2
        LCALL   `??HalLedSet::?relay`; Banked call to: HalLedSet
//  189 
//  190     // Start the device
//  191     zb_StartRequest();
        ; Setup parameters for call to function zb_StartRequest
        LCALL   `??zb_StartRequest::?relay`; Banked call to: zb_StartRequest
//  192   }
//  193 
//  194   if ( event & MY_START_EVT )
??zb_HandleOsalEvent_0:
        MOV     A,R6
        MOV     C,0xE0 /* A   */.0
        JNC     ??zb_HandleOsalEvent_1
//  195   {
//  196     zb_StartRequest();
        ; Setup parameters for call to function zb_StartRequest
        LCALL   `??zb_StartRequest::?relay`; Banked call to: zb_StartRequest
//  197   }
//  198 }
??zb_HandleOsalEvent_1:
          CFI EndBlock cfiBlock0
        REQUIRE ?Subroutine0
        ; // Fall through to label ?Subroutine0

        RSEG BANKED_CODE:CODE:NOROOT(0)
?Subroutine0:
          CFI Block cfiBlock1 Using cfiCommon0
          CFI NoFunction
          CFI CFA_SP SP+0
          CFI CFA_XSP16 add(XSP16, 9)
          CFI VB load(1, XDATA, add(CFA_XSP16, literal(-8)))
          CFI DPL0 load(1, XDATA, add(CFA_XSP16, literal(-2)))
          CFI DPH0 load(1, XDATA, add(CFA_XSP16, literal(-1)))
          CFI R6 load(1, XDATA, add(CFA_XSP16, literal(-9)))
          CFI R7 load(1, XDATA, add(CFA_XSP16, literal(-6)))
          CFI V0 load(1, XDATA, add(CFA_XSP16, literal(-7)))
          CFI ?BRET_EXT load(1, XDATA, add(CFA_XSP16, literal(-3)))
          CFI ?RET_HIGH load(1, XDATA, add(CFA_XSP16, literal(-4)))
          CFI ?RET_LOW load(1, XDATA, add(CFA_XSP16, literal(-5)))
        MOV     R7,#0x1
        LJMP    ?BANKED_LEAVE_XDATA
          CFI CFA_SP SP+-3
          CFI CFA_XSP16 XSP16+0
          CFI VB SameValue
          CFI DPL0 SameValue
          CFI DPH0 SameValue
          CFI R6 SameValue
          CFI R7 SameValue
          CFI V0 SameValue
          CFI ?BRET_EXT Frame(CFA_SP, 3)
          CFI ?RET_HIGH Frame(CFA_SP, 2)
          CFI ?RET_LOW Frame(CFA_SP, 1)
          CFI EndBlock cfiBlock1
//  199 
//  200 /******************************************************************************
//  201  * @fn      zb_HandleKeys
//  202  *
//  203  * @brief   Handles all key events for this device.
//  204  *
//  205  * @param   shift - true if in shift/alt.
//  206  * @param   keys - bit field for key events. Valid entries:
//  207  *                 EVAL_SW4
//  208  *                 EVAL_SW3
//  209  *                 EVAL_SW2
//  210  *                 EVAL_SW1
//  211  *
//  212  * @return  none
//  213  */

        RSEG BANKED_CODE:CODE:NOROOT(0)
//  214 void zb_HandleKeys( uint8 shift, uint8 keys )
zb_HandleKeys:
          CFI Block cfiBlock2 Using cfiCommon0
          CFI Function zb_HandleKeys
        CODE
//  215 {
        FUNCALL zb_HandleKeys, zb_AllowBind
        LOCFRAME ISTACK, 0, STACK
        LOCFRAME PSTACK, 0, STACK
        LOCFRAME XSTACK, 9, STACK
        LOCFRAME IOVERLAY, 0, STATIC
        LOCFRAME DOVERLAY, 0, STATIC
        ARGFRAME ISTACK, 0, STACK
        ARGFRAME PSTACK, 0, STACK
        ARGFRAME XSTACK, 9, STACK
        ARGFRAME IOVERLAY, 0, STATIC
        ARGFRAME DOVERLAY, 0, STATIC
        FUNCALL zb_HandleKeys, HalLedSet
        LOCFRAME ISTACK, 0, STACK
        LOCFRAME PSTACK, 0, STACK
        LOCFRAME XSTACK, 9, STACK
        LOCFRAME IOVERLAY, 0, STATIC
        LOCFRAME DOVERLAY, 0, STATIC
        ARGFRAME ISTACK, 0, STACK
        ARGFRAME PSTACK, 0, STACK
        ARGFRAME XSTACK, 9, STACK
        ARGFRAME IOVERLAY, 0, STATIC
        ARGFRAME DOVERLAY, 0, STATIC
        FUNCALL zb_HandleKeys, zb_AllowBind
        LOCFRAME ISTACK, 0, STACK
        LOCFRAME PSTACK, 0, STACK
        LOCFRAME XSTACK, 9, STACK
        LOCFRAME IOVERLAY, 0, STATIC
        LOCFRAME DOVERLAY, 0, STATIC
        ARGFRAME ISTACK, 0, STACK
        ARGFRAME PSTACK, 0, STACK
        ARGFRAME XSTACK, 9, STACK
        ARGFRAME IOVERLAY, 0, STATIC
        ARGFRAME DOVERLAY, 0, STATIC
        FUNCALL zb_HandleKeys, HalLedSet
        LOCFRAME ISTACK, 0, STACK
        LOCFRAME PSTACK, 0, STACK
        LOCFRAME XSTACK, 9, STACK
        LOCFRAME IOVERLAY, 0, STATIC
        LOCFRAME DOVERLAY, 0, STATIC
        ARGFRAME ISTACK, 0, STACK
        ARGFRAME PSTACK, 0, STACK
        ARGFRAME XSTACK, 9, STACK
        ARGFRAME IOVERLAY, 0, STATIC
        ARGFRAME DOVERLAY, 0, STATIC
        MOV     A,#-0x9
        LCALL   ?BANKED_ENTER_XDATA
          CFI DPH0 load(1, XDATA, add(CFA_XSP16, literal(-1)))
          CFI DPL0 load(1, XDATA, add(CFA_XSP16, literal(-2)))
          CFI ?BRET_EXT load(1, XDATA, add(CFA_XSP16, literal(-3)))
          CFI ?RET_HIGH load(1, XDATA, add(CFA_XSP16, literal(-4)))
          CFI ?RET_LOW load(1, XDATA, add(CFA_XSP16, literal(-5)))
          CFI R7 load(1, XDATA, add(CFA_XSP16, literal(-6)))
          CFI V0 load(1, XDATA, add(CFA_XSP16, literal(-7)))
          CFI VB load(1, XDATA, add(CFA_XSP16, literal(-8)))
          CFI R6 load(1, XDATA, add(CFA_XSP16, literal(-9)))
          CFI CFA_SP SP+0
          CFI CFA_XSP16 add(XSP16, 9)
        ; Saved register size: 9
        ; Auto size: 0
        MOV     A,R1
        MOV     R6,A
        MOV     A,R2
        MOV     R7,A
//  216   static uint8 allowBind = FALSE;
//  217 
//  218   // Shift is used to make each button/switch dual purpose.
//  219   if ( shift )
        MOV     A,R6
        JNZ     ??zb_HandleKeys_0
//  220   {
//  221     if ( keys & HAL_KEY_SW_1 )
//  222     {
//  223     }
//  224     if ( keys & HAL_KEY_SW_2 )
//  225     {
//  226     }
//  227     if ( keys & HAL_KEY_SW_3 )
//  228     {
//  229     }
//  230     if ( keys & HAL_KEY_SW_4 )
//  231     {
//  232     }
//  233   }
//  234   else
//  235   {
//  236     if ( keys & HAL_KEY_SW_1 )
        MOV     A,R7
        MOV     C,0xE0 /* A   */.0
        JNC     ??zb_HandleKeys_0
//  237     {
//  238       if ( appState == APP_START )
        MOV     DPTR,#appState
        MOVX    A,@DPTR
        XRL     A,#0x2
        JNZ     ??zb_HandleKeys_0
//  239       {
//  240         allowBind ^= 1;
        MOV     DPTR,#??allowBind
        MOVX    A,@DPTR
        XRL     A,#0x1
        MOVX    @DPTR,A
//  241         if ( allowBind )
        JZ      ??zb_HandleKeys_1
//  242         {
//  243           // Turn ON Allow Bind mode infinitly
//  244           zb_AllowBind( 0xFF );
        ; Setup parameters for call to function zb_AllowBind
        MOV     R1,#-0x1
        LCALL   `??zb_AllowBind::?relay`; Banked call to: zb_AllowBind
//  245           HalLedSet( HAL_LED_2, HAL_LED_MODE_ON );
        ; Setup parameters for call to function HalLedSet
        MOV     R2,#0x1
        SJMP    ??zb_HandleKeys_2
//  246         }
//  247         else
//  248         {
//  249           // Turn OFF Allow Bind mode infinitly
//  250           zb_AllowBind( 0x00 );
??zb_HandleKeys_1:
        ; Setup parameters for call to function zb_AllowBind
        MOV     R1,#0x0
        LCALL   `??zb_AllowBind::?relay`; Banked call to: zb_AllowBind
//  251           HalLedSet( HAL_LED_2, HAL_LED_MODE_OFF );
        ; Setup parameters for call to function HalLedSet
        MOV     R2,#0x0
??zb_HandleKeys_2:
        MOV     R1,#0x2
        LCALL   `??HalLedSet::?relay`; Banked call to: HalLedSet
//  252         }
//  253       }
//  254     }
//  255     if ( keys & HAL_KEY_SW_2 )
//  256     {
//  257     }
//  258     if ( keys & HAL_KEY_SW_3 )
//  259     {
//  260     }
//  261     if ( keys & HAL_KEY_SW_4 )
//  262     {
//  263     }
//  264   }
//  265 }
??zb_HandleKeys_0:
        SJMP    ?Subroutine0
          CFI EndBlock cfiBlock2

        RSEG XDATA_Z:XDATA:NOROOT(0)
        DATA8
??allowBind:
        DS 1
        REQUIRE __INIT_XDATA_Z
//  266 
//  267 /******************************************************************************
//  268  * @fn          zb_StartConfirm
//  269  *
//  270  * @brief       The zb_StartConfirm callback is called by the ZigBee stack
//  271  *              after a start request operation completes
//  272  *
//  273  * @param       status - The status of the start operation.  Status of
//  274  *                       ZB_SUCCESS indicates the start operation completed
//  275  *                       successfully.  Else the status is an error code.
//  276  *
//  277  * @return      none
//  278  */

        RSEG BANKED_CODE:CODE:NOROOT(0)
//  279 void zb_StartConfirm( uint8 status )
zb_StartConfirm:
          CFI Block cfiBlock3 Using cfiCommon0
          CFI Function zb_StartConfirm
        CODE
//  280 {
        FUNCALL zb_StartConfirm, HalLedSet
        LOCFRAME ISTACK, 0, STACK
        LOCFRAME PSTACK, 0, STACK
        LOCFRAME XSTACK, 12, STACK
        LOCFRAME IOVERLAY, 0, STATIC
        LOCFRAME DOVERLAY, 0, STATIC
        ARGFRAME ISTACK, 0, STACK
        ARGFRAME PSTACK, 0, STACK
        ARGFRAME XSTACK, 12, STACK
        ARGFRAME IOVERLAY, 0, STATIC
        ARGFRAME DOVERLAY, 0, STATIC
        FUNCALL zb_StartConfirm, osal_start_timerEx
        LOCFRAME ISTACK, 0, STACK
        LOCFRAME PSTACK, 0, STACK
        LOCFRAME XSTACK, 16, STACK
        LOCFRAME IOVERLAY, 0, STATIC
        LOCFRAME DOVERLAY, 0, STATIC
        ARGFRAME ISTACK, 0, STACK
        ARGFRAME PSTACK, 0, STACK
        ARGFRAME XSTACK, 16, STACK
        ARGFRAME IOVERLAY, 0, STATIC
        ARGFRAME DOVERLAY, 0, STATIC
        REQUIRE ?V0
        REQUIRE ?V1
        REQUIRE ?V2
        REQUIRE ?V3
        MOV     A,#-0xc
        LCALL   ?BANKED_ENTER_XDATA
          CFI DPH0 load(1, XDATA, add(CFA_XSP16, literal(-1)))
          CFI DPL0 load(1, XDATA, add(CFA_XSP16, literal(-2)))
          CFI ?BRET_EXT load(1, XDATA, add(CFA_XSP16, literal(-3)))
          CFI ?RET_HIGH load(1, XDATA, add(CFA_XSP16, literal(-4)))
          CFI ?RET_LOW load(1, XDATA, add(CFA_XSP16, literal(-5)))
          CFI R7 load(1, XDATA, add(CFA_XSP16, literal(-6)))
          CFI V3 load(1, XDATA, add(CFA_XSP16, literal(-7)))
          CFI V2 load(1, XDATA, add(CFA_XSP16, literal(-8)))
          CFI V1 load(1, XDATA, add(CFA_XSP16, literal(-9)))
          CFI V0 load(1, XDATA, add(CFA_XSP16, literal(-10)))
          CFI VB load(1, XDATA, add(CFA_XSP16, literal(-11)))
          CFI R6 load(1, XDATA, add(CFA_XSP16, literal(-12)))
          CFI CFA_SP SP+0
          CFI CFA_XSP16 add(XSP16, 12)
        ; Saved register size: 12
        ; Auto size: 0
        MOV     A,R1
//  281   // If the device sucessfully started, change state to running
//  282   if ( status == ZB_SUCCESS )
        JNZ     ??zb_StartConfirm_0
//  283   {
//  284     // Set LED 1 to indicate that node is operational on the network
//  285     HalLedSet( HAL_LED_1, HAL_LED_MODE_ON );
        ; Setup parameters for call to function HalLedSet
        MOV     R2,#0x1
        MOV     R1,#0x1
        LCALL   `??HalLedSet::?relay`; Banked call to: HalLedSet
//  286 
//  287     // Change application state
//  288     appState = APP_START;
        MOV     DPTR,#appState
        MOV     A,#0x2
        MOVX    @DPTR,A
        SJMP    ??zb_StartConfirm_1
//  289   }
//  290   else
//  291   {
//  292     // Try again later with a delay
//  293     osal_start_timerEx( sapi_TaskID, MY_START_EVT, myStartRetryDelay );
??zb_StartConfirm_0:
        ; Setup parameters for call to function osal_start_timerEx
        MOV     DPTR,#myStartRetryDelay
        MOVX    A,@DPTR
        MOV     ?V0,A
        CLR     A
        MOV     ?V1,A
        MOV     ?V2,A
        MOV     ?V3,A
        MOV     R0,#?V0
        LCALL   ?PUSH_XSTACK_I_FOUR
          CFI CFA_XSP16 add(XSP16, 16)
        MOV     R2,#0x1
        MOV     R3,#0x0
        MOV     DPTR,#sapi_TaskID
        MOVX    A,@DPTR
        MOV     R1,A
        LCALL   `??osal_start_timerEx::?relay`; Banked call to: osal_start_timerEx
        MOV     A,#0x4
        LCALL   ?DEALLOC_XSTACK8
          CFI CFA_XSP16 add(XSP16, 12)
//  294   }
//  295 }
??zb_StartConfirm_1:
        MOV     R7,#0x4
        LJMP    ?BANKED_LEAVE_XDATA
          CFI R6 SameValue
          CFI VB SameValue
          CFI V0 SameValue
          CFI V1 SameValue
          CFI V2 SameValue
          CFI V3 SameValue
          CFI R7 SameValue
          CFI ?RET_LOW Frame(CFA_SP, 1)
          CFI ?RET_HIGH Frame(CFA_SP, 2)
          CFI ?BRET_EXT Frame(CFA_SP, 3)
          CFI DPL0 SameValue
          CFI DPH0 SameValue
          CFI CFA_SP SP+-3
          CFI CFA_XSP16 XSP16+0
          CFI EndBlock cfiBlock3
//  296 
//  297 /******************************************************************************
//  298  * @fn          zb_SendDataConfirm
//  299  *
//  300  * @brief       The zb_SendDataConfirm callback function is called by the
//  301  *              ZigBee stack after a send data operation completes
//  302  *
//  303  * @param       handle - The handle identifying the data transmission.
//  304  *              status - The status of the operation.
//  305  *
//  306  * @return      none
//  307  */

        RSEG BANKED_CODE:CODE:NOROOT(0)
//  308 void zb_SendDataConfirm( uint8 handle, uint8 status )
zb_SendDataConfirm:
          CFI Block cfiBlock4 Using cfiCommon0
          CFI Function zb_SendDataConfirm
        CODE
//  309 {
        ; Saved register size: 0
        ; Auto size: 0
//  310   (void)handle;
//  311   (void)status;
//  312 }
        LJMP    ?BRET
          CFI EndBlock cfiBlock4
//  313 
//  314 /******************************************************************************
//  315  * @fn          zb_BindConfirm
//  316  *
//  317  * @brief       The zb_BindConfirm callback is called by the ZigBee stack
//  318  *              after a bind operation completes.
//  319  *
//  320  * @param       commandId - The command ID of the binding being confirmed.
//  321  *              status - The status of the bind operation.
//  322  *
//  323  * @return      none
//  324  */

        RSEG BANKED_CODE:CODE:NOROOT(0)
//  325 void zb_BindConfirm( uint16 commandId, uint8 status )
zb_BindConfirm:
          CFI Block cfiBlock5 Using cfiCommon0
          CFI Function zb_BindConfirm
        CODE
//  326 {
        ; Saved register size: 0
        ; Auto size: 0
//  327   (void)commandId;
//  328   (void)status;
//  329 }
        LJMP    ?BRET
          CFI EndBlock cfiBlock5
//  330 
//  331 /******************************************************************************
//  332  * @fn          zb_AllowBindConfirm
//  333  *
//  334  * @brief       Indicates when another device attempted to bind to this device
//  335  *
//  336  * @param
//  337  *
//  338  * @return      none
//  339  */

        RSEG BANKED_CODE:CODE:NOROOT(0)
//  340 void zb_AllowBindConfirm( uint16 source )
zb_AllowBindConfirm:
          CFI Block cfiBlock6 Using cfiCommon0
          CFI Function zb_AllowBindConfirm
        CODE
//  341 {
        ; Saved register size: 0
        ; Auto size: 0
//  342   (void)source;
//  343 }
        LJMP    ?BRET
          CFI EndBlock cfiBlock6
//  344 
//  345 /******************************************************************************
//  346  * @fn          zb_FindDeviceConfirm
//  347  *
//  348  * @brief       The zb_FindDeviceConfirm callback function is called by the
//  349  *              ZigBee stack when a find device operation completes.
//  350  *
//  351  * @param       searchType - The type of search that was performed.
//  352  *              searchKey - Value that the search was executed on.
//  353  *              result - The result of the search.
//  354  *
//  355  * @return      none
//  356  */

        RSEG BANKED_CODE:CODE:NOROOT(0)
//  357 void zb_FindDeviceConfirm( uint8 searchType, uint8 *searchKey, uint8 *result )
zb_FindDeviceConfirm:
          CFI Block cfiBlock7 Using cfiCommon0
          CFI Function zb_FindDeviceConfirm
        CODE
//  358 {
        ; Saved register size: 0
        ; Auto size: 0
//  359   (void)searchType;
//  360   (void)searchKey;
//  361   (void)result;
//  362 }
        LJMP    ?BRET
          CFI EndBlock cfiBlock7
//  363 
//  364 /******************************************************************************
//  365  * @fn          zb_ReceiveDataIndication
//  366  *
//  367  * @brief       The zb_ReceiveDataIndication callback function is called
//  368  *              asynchronously by the ZigBee stack to notify the application
//  369  *              when data is received from a peer device.
//  370  *
//  371  * @param       source - The short address of the peer device that sent the data
//  372  *              command - The commandId associated with the data
//  373  *              len - The number of bytes in the pData parameter
//  374  *              pData - The data sent by the peer device
//  375  *
//  376  * @return      none
//  377  */

        RSEG BANKED_CODE:CODE:NOROOT(0)
//  378 void zb_ReceiveDataIndication( uint16 source, uint16 command, uint16 len, uint8 *pData  )
zb_ReceiveDataIndication:
          CFI Block cfiBlock8 Using cfiCommon0
          CFI Function zb_ReceiveDataIndication
        CODE
//  379 {
        FUNCALL zb_ReceiveDataIndication, HalLedSet
        LOCFRAME ISTACK, 0, STACK
        LOCFRAME PSTACK, 0, STACK
        LOCFRAME XSTACK, 9, STACK
        LOCFRAME IOVERLAY, 0, STATIC
        LOCFRAME DOVERLAY, 0, STATIC
        ARGFRAME ISTACK, 0, STACK
        ARGFRAME PSTACK, 0, STACK
        ARGFRAME XSTACK, 9, STACK
        ARGFRAME IOVERLAY, 0, STATIC
        ARGFRAME DOVERLAY, 0, STATIC
        FUNCALL zb_ReceiveDataIndication, sendGtwReport
        LOCFRAME ISTACK, 0, STACK
        LOCFRAME PSTACK, 0, STACK
        LOCFRAME XSTACK, 9, STACK
        LOCFRAME IOVERLAY, 0, STATIC
        LOCFRAME DOVERLAY, 0, STATIC
        ARGFRAME ISTACK, 0, STACK
        ARGFRAME PSTACK, 0, STACK
        ARGFRAME XSTACK, 9, STACK
        ARGFRAME IOVERLAY, 0, STATIC
        ARGFRAME DOVERLAY, 0, STATIC
        MOV     A,#-0x9
        LCALL   ?BANKED_ENTER_XDATA
          CFI DPH0 load(1, XDATA, add(CFA_XSP16, literal(-1)))
          CFI DPL0 load(1, XDATA, add(CFA_XSP16, literal(-2)))
          CFI ?BRET_EXT load(1, XDATA, add(CFA_XSP16, literal(-3)))
          CFI ?RET_HIGH load(1, XDATA, add(CFA_XSP16, literal(-4)))
          CFI ?RET_LOW load(1, XDATA, add(CFA_XSP16, literal(-5)))
          CFI R7 load(1, XDATA, add(CFA_XSP16, literal(-6)))
          CFI V0 load(1, XDATA, add(CFA_XSP16, literal(-7)))
          CFI VB load(1, XDATA, add(CFA_XSP16, literal(-8)))
          CFI R6 load(1, XDATA, add(CFA_XSP16, literal(-9)))
          CFI CFA_SP SP+0
          CFI CFA_XSP16 add(XSP16, 9)
        ; Saved register size: 9
        ; Auto size: 0
        MOV     A,#0xb
        LCALL   ?XSTACK_DISP0_8
        MOVX    A,@DPTR
        MOV     R0,A
        INC     DPTR
        MOVX    A,@DPTR
        MOV     R1,A
//  380   (void)command;
//  381   (void)len;
//  382 
//  383   gtwData.parent = BUILD_UINT16(pData[SENSOR_PARENT_OFFSET+ 1], pData[SENSOR_PARENT_OFFSET]);
        MOV     DPL,R0
        MOV     DPH,R1
        INC     DPTR
        INC     DPTR
        INC     DPTR
        MOVX    A,@DPTR
        MOV     R6,A
        MOV     DPL,R0
        MOV     DPH,R1
        INC     DPTR
        INC     DPTR
        MOVX    A,@DPTR
        MOV     R5,A
        MOV     A,R6
        MOV     DPTR,#gtwData + 2
        MOVX    @DPTR,A
        INC     DPTR
        MOV     A,R5
        MOVX    @DPTR,A
//  384   gtwData.source = source;
        MOV     DPTR,#gtwData
        MOV     A,R2
        MOVX    @DPTR,A
        INC     DPTR
        MOV     A,R3
        MOVX    @DPTR,A
//  385   gtwData.temp = *pData;
        MOV     DPL,R0
        MOV     DPH,R1
        MOVX    A,@DPTR
        MOV     DPTR,#gtwData + 4
        MOVX    @DPTR,A
//  386   gtwData.voltage = *(pData+1);
        MOV     DPL,R0
        MOV     DPH,R1
        INC     DPTR
        MOVX    A,@DPTR
        MOV     DPTR,#gtwData + 5
        MOVX    @DPTR,A
//  387 
//  388   // Flash LED 2 once to indicate data reception
//  389   HalLedSet ( HAL_LED_2, HAL_LED_MODE_FLASH );
        ; Setup parameters for call to function HalLedSet
        MOV     R2,#0x4
        MOV     R1,#0x2
        LCALL   `??HalLedSet::?relay`; Banked call to: HalLedSet
//  390 
//  391   // Send gateway report
//  392   sendGtwReport(&gtwData);
        ; Setup parameters for call to function sendGtwReport
        MOV     R2,#gtwData & 0xff
        MOV     R3,#(gtwData >> 8) & 0xff
        LCALL   `??sendGtwReport::?relay`; Banked call to: sendGtwReport
//  393 }
        LJMP    ?Subroutine0 & 0xFFFF
          CFI EndBlock cfiBlock8
//  394 
//  395 /******************************************************************************
//  396  * @fn          uartRxCB
//  397  *
//  398  * @brief       Callback function for UART
//  399  *
//  400  * @param       port - UART port
//  401  *              event - UART event that caused callback
//  402  *
//  403  * @return      none
//  404  */

        RSEG BANKED_CODE:CODE:NOROOT(0)
//  405 void uartRxCB( uint8 port, uint8 event )
uartRxCB:
          CFI Block cfiBlock9 Using cfiCommon0
          CFI Function uartRxCB
        CODE
//  406 {
        FUNCALL uartRxCB, HalUARTRead
        LOCFRAME ISTACK, 0, STACK
        LOCFRAME PSTACK, 0, STACK
        LOCFRAME XSTACK, 145, STACK
        LOCFRAME IOVERLAY, 0, STATIC
        LOCFRAME DOVERLAY, 0, STATIC
        ARGFRAME ISTACK, 0, STACK
        ARGFRAME PSTACK, 0, STACK
        ARGFRAME XSTACK, 145, STACK
        ARGFRAME IOVERLAY, 0, STATIC
        ARGFRAME DOVERLAY, 0, STATIC
        FUNCALL uartRxCB, HalUARTWrite
        LOCFRAME ISTACK, 0, STACK
        LOCFRAME PSTACK, 0, STACK
        LOCFRAME XSTACK, 145, STACK
        LOCFRAME IOVERLAY, 0, STATIC
        LOCFRAME DOVERLAY, 0, STATIC
        ARGFRAME ISTACK, 0, STACK
        ARGFRAME PSTACK, 0, STACK
        ARGFRAME XSTACK, 145, STACK
        ARGFRAME IOVERLAY, 0, STATIC
        ARGFRAME DOVERLAY, 0, STATIC
        REQUIRE ?V0
        REQUIRE ?V1
        MOV     A,#-0xa
        LCALL   ?BANKED_ENTER_XDATA
          CFI DPH0 load(1, XDATA, add(CFA_XSP16, literal(-1)))
          CFI DPL0 load(1, XDATA, add(CFA_XSP16, literal(-2)))
          CFI ?BRET_EXT load(1, XDATA, add(CFA_XSP16, literal(-3)))
          CFI ?RET_HIGH load(1, XDATA, add(CFA_XSP16, literal(-4)))
          CFI ?RET_LOW load(1, XDATA, add(CFA_XSP16, literal(-5)))
          CFI R7 load(1, XDATA, add(CFA_XSP16, literal(-6)))
          CFI V1 load(1, XDATA, add(CFA_XSP16, literal(-7)))
          CFI V0 load(1, XDATA, add(CFA_XSP16, literal(-8)))
          CFI VB load(1, XDATA, add(CFA_XSP16, literal(-9)))
          CFI R6 load(1, XDATA, add(CFA_XSP16, literal(-10)))
          CFI CFA_SP SP+0
          CFI CFA_XSP16 add(XSP16, 10)
        ; Saved register size: 10
        ; Auto size: 135
        MOV     A,#0x79
        LCALL   ?ALLOC_XSTACK8
          CFI CFA_XSP16 add(XSP16, 145)
        MOV     A,R2
        MOV     R6,A
//  407   (void)port;
//  408 
//  409   uint8 pBuf[RX_BUF_LEN];
//  410   uint16 cmd;
//  411   uint16 len;
//  412 
//  413   if ( event != HAL_UART_TX_EMPTY )
        MOV     A,#0x10
        XRL     A,R6
        JNZ     $+5
        LJMP    ??uartRxCB_0 & 0xFFFF
//  414   {
//  415     // Read from UART
//  416     len = HalUARTRead( HAL_UART_PORT_0, pBuf, RX_BUF_LEN );
//  417 
//  418     if ( len > 0 )
        ; Setup parameters for call to function HalUARTRead
        MOV     R4,#-0x80
        MOV     R5,#0x0
        MOV     A,#0x7
        LCALL   ?XSTACK_DISP101_8
        MOV     R1,#0x0
        LCALL   `??HalUARTRead::?relay`; Banked call to: HalUARTRead
        MOV     ?V1,R3
        MOV     A,R2
        ORL     A,?V1
        JZ      ??uartRxCB_0
//  419     {
//  420       cmd = BUILD_UINT16(pBuf[SYS_PING_CMD_OFFSET + 1], pBuf[SYS_PING_CMD_OFFSET]);
//  421 
//  422       if( (pBuf[FRAME_SOF_OFFSET] == CPT_SOP) && (cmd == SYS_PING_REQUEST) )
        MOV     A,#0x7
        LCALL   ?XSTACK_DISP0_8
        MOVX    A,@DPTR
        XRL     A,#0xfe
        JNZ     ??uartRxCB_0
        MOV     A,#0x9
        LCALL   ?XSTACK_DISP0_8
        MOVX    A,@DPTR
        MOV     R2,A
        MOV     A,#0x8
        LCALL   ?XSTACK_DISP0_8
        MOVX    A,@DPTR
        MOV     R1,A
        MOV     A,R2
        MOV     R0,A
        MOV     A,#0x21
        XRL     A,R0
        ORL     A,R1
        JNZ     ??uartRxCB_0
//  423       {
//  424         sysPingReqRcvd();
        MOV     DPL,?XSP + 0
        MOV     DPH,?XSP + 1
        MOV     A,#-0x2
        MOVX    @DPTR,A
        MOV     A,#0x1
        LCALL   ?XSTACK_DISP0_8
        MOV     A,#0x2
        MOVX    @DPTR,A
        LCALL   ?XSTACK_DISP0_8
        MOV     A,#0x61
        MOVX    @DPTR,A
        MOV     A,#0x3
        LCALL   ?XSTACK_DISP0_8
        MOV     A,#0x1
        MOVX    @DPTR,A
        MOV     A,#0x4
        LCALL   ?XSTACK_DISP0_8
        MOV     A,#0x41
        MOVX    @DPTR,A
        MOV     A,#0x5
        LCALL   ?XSTACK_DISP0_8
        CLR     A
        MOVX    @DPTR,A
        INC     A
        LCALL   ?XSTACK_DISP0_8
        MOV     R0,#0x0
        MOV     R1,#0x5
??uartRxCB_1:
        MOVX    A,@DPTR
        XCH     A,R0
        XRL     A,R0
        MOV     R0,A
        INC     DPTR
        DJNZ    R1,??uartRxCB_1
        MOV     A,#0x6
        LCALL   ?XSTACK_DISP0_8
        MOV     A,R0
        MOVX    @DPTR,A
        ; Setup parameters for call to function HalUARTWrite
        MOV     R4,#0x7
        MOV     R5,#0x0
        MOV     R2,?XSP + 0
        MOV     R3,?XSP + 1
        MOV     R1,#0x0
        LCALL   `??HalUARTWrite::?relay`; Banked call to: HalUARTWrite
//  425       }
//  426     }
//  427   }
//  428 }
??uartRxCB_0:
        MOV     A,#-0x79
        LCALL   ?DEALLOC_XSTACK8
          CFI CFA_XSP16 add(XSP16, 10)
        MOV     R7,#0x2
        LJMP    ?BANKED_LEAVE_XDATA
          CFI R6 SameValue
          CFI VB SameValue
          CFI V0 SameValue
          CFI V1 SameValue
          CFI R7 SameValue
          CFI ?RET_LOW Frame(CFA_SP, 1)
          CFI ?RET_HIGH Frame(CFA_SP, 2)
          CFI ?BRET_EXT Frame(CFA_SP, 3)
          CFI DPL0 SameValue
          CFI DPH0 SameValue
          CFI CFA_SP SP+-3
          CFI CFA_XSP16 XSP16+0
          CFI EndBlock cfiBlock9
//  429 
//  430 /******************************************************************************
//  431  * @fn          sysPingReqRcvd
//  432  *
//  433  * @brief       Ping request received
//  434  *
//  435  * @param       none
//  436  *
//  437  * @return      none
//  438  */
//  439 static void sysPingReqRcvd(void)
//  440 {
//  441    sysPingRsp();
//  442 }
//  443 
//  444 /******************************************************************************
//  445  * @fn          sysPingRsp
//  446  *
//  447  * @brief       Build and send Ping response
//  448  *
//  449  * @param       none
//  450  *
//  451  * @return      none
//  452  */
//  453 static void sysPingRsp(void)
//  454 {
//  455   uint8 pBuf[SYS_PING_RSP_LENGTH];
//  456 
//  457   // Start of Frame Delimiter
//  458   pBuf[FRAME_SOF_OFFSET] = CPT_SOP;
//  459 
//  460   // Length
//  461   pBuf[FRAME_LENGTH_OFFSET] = 2;
//  462 
//  463   // Command type
//  464   pBuf[FRAME_CMD0_OFFSET] = LO_UINT16(SYS_PING_RESPONSE);
//  465   pBuf[FRAME_CMD1_OFFSET] = HI_UINT16(SYS_PING_RESPONSE);
//  466 
//  467   // Stack profile
//  468   pBuf[FRAME_DATA_OFFSET] = LO_UINT16(STACK_PROFILE);
//  469   pBuf[FRAME_DATA_OFFSET + 1] = HI_UINT16(STACK_PROFILE);
//  470 
//  471   // Frame Check Sequence
//  472   pBuf[SYS_PING_RSP_LENGTH - 1] = calcFCS(&pBuf[FRAME_LENGTH_OFFSET], (SYS_PING_RSP_LENGTH - 2));
//  473 
//  474   // Write frame to UART
//  475   HalUARTWrite(HAL_UART_PORT_0,pBuf, SYS_PING_RSP_LENGTH);
//  476 }
//  477 
//  478 /******************************************************************************
//  479  * @fn          sendGtwReport
//  480  *
//  481  * @brief       Build and send gateway report
//  482  *
//  483  * @param       none
//  484  *
//  485  * @return      none
//  486  */

        RSEG BANKED_CODE:CODE:NOROOT(0)
//  487 static void sendGtwReport(gtwData_t *gtwData)
sendGtwReport:
          CFI Block cfiBlock10 Using cfiCommon0
          CFI Function sendGtwReport
        CODE
//  488 {
        FUNCALL sendGtwReport, HalUARTWrite
        LOCFRAME ISTACK, 2, STACK
        LOCFRAME PSTACK, 0, STACK
        LOCFRAME XSTACK, 15, STACK
        LOCFRAME IOVERLAY, 0, STATIC
        LOCFRAME DOVERLAY, 0, STATIC
        ARGFRAME ISTACK, 2, STACK
        ARGFRAME PSTACK, 0, STACK
        ARGFRAME XSTACK, 15, STACK
        ARGFRAME IOVERLAY, 0, STATIC
        ARGFRAME DOVERLAY, 0, STATIC
        PUSH    DPL
          CFI DPL0 Frame(CFA_SP, 4)
          CFI CFA_SP SP+-4
        PUSH    DPH
          CFI DPH0 Frame(CFA_SP, 5)
          CFI CFA_SP SP+-5
        ; Saved register size: 2
        ; Auto size: 15
        MOV     A,#-0xf
        LCALL   ?ALLOC_XSTACK8
          CFI CFA_XSP16 add(XSP16, 15)
//  489   uint8 pFrame[ZB_RECV_LENGTH];
//  490 
//  491   // Start of Frame Delimiter
//  492   pFrame[FRAME_SOF_OFFSET] = CPT_SOP; // Start of Frame Delimiter
        MOV     DPL,?XSP + 0
        MOV     DPH,?XSP + 1
        MOV     A,#-0x2
        MOVX    @DPTR,A
//  493 
//  494   // Length
//  495   pFrame[FRAME_LENGTH_OFFSET] = 10;
        MOV     A,#0x1
        LCALL   ?XSTACK_DISP0_8
        MOV     A,#0xa
        MOVX    @DPTR,A
//  496 
//  497   // Command type
//  498   pFrame[FRAME_CMD0_OFFSET] = LO_UINT16(ZB_RECEIVE_DATA_INDICATION);
        MOV     A,#0x2
        LCALL   ?XSTACK_DISP0_8
        MOV     A,#0x46
        MOVX    @DPTR,A
//  499   pFrame[FRAME_CMD1_OFFSET] = HI_UINT16(ZB_RECEIVE_DATA_INDICATION);
        MOV     A,#0x3
        LCALL   ?XSTACK_DISP0_8
        MOV     A,#-0x79
        MOVX    @DPTR,A
//  500 
//  501   // Source address
//  502   pFrame[FRAME_DATA_OFFSET + ZB_RECV_SRC_OFFSET] = LO_UINT16(gtwData->source);
        MOV     DPL,R2
        MOV     DPH,R3
        MOVX    A,@DPTR
        PUSH    A
          CFI CFA_SP SP+-6
        MOV     A,#0x4
        LCALL   ?XSTACK_DISP0_8
        POP     A
          CFI CFA_SP SP+-5
        MOVX    @DPTR,A
//  503   pFrame[FRAME_DATA_OFFSET + ZB_RECV_SRC_OFFSET+ 1] = HI_UINT16(gtwData->source);
        MOV     DPL,R2
        MOV     DPH,R3
        INC     DPTR
        MOVX    A,@DPTR
        PUSH    A
          CFI CFA_SP SP+-6
        MOV     A,#0x5
        LCALL   ?XSTACK_DISP0_8
        POP     A
          CFI CFA_SP SP+-5
        MOVX    @DPTR,A
//  504 
//  505   // Command ID
//  506   pFrame[FRAME_DATA_OFFSET + ZB_RECV_CMD_OFFSET] = LO_UINT16(SENSOR_REPORT_CMD_ID);
        MOV     A,#0x6
        LCALL   ?XSTACK_DISP0_8
        MOV     A,#0x2
        MOVX    @DPTR,A
//  507   pFrame[FRAME_DATA_OFFSET + ZB_RECV_CMD_OFFSET+ 1] = HI_UINT16(SENSOR_REPORT_CMD_ID);
        MOV     A,#0x7
        LCALL   ?XSTACK_DISP0_8
        CLR     A
        MOVX    @DPTR,A
//  508 
//  509   // Length
//  510   pFrame[FRAME_DATA_OFFSET + ZB_RECV_LEN_OFFSET] = LO_UINT16(4);
        MOV     A,#0x8
        LCALL   ?XSTACK_DISP0_8
        MOV     A,#0x4
        MOVX    @DPTR,A
//  511   pFrame[FRAME_DATA_OFFSET + ZB_RECV_LEN_OFFSET+ 1] = HI_UINT16(4);
        MOV     A,#0x9
        LCALL   ?XSTACK_DISP0_8
        CLR     A
        LCALL   ?Subroutine1 & 0xFFFF
//  512 
//  513   // Data
//  514   pFrame[FRAME_DATA_OFFSET + ZB_RECV_DATA_OFFSET] = gtwData->temp;
??CrossCallReturnLabel_0:
        MOVX    A,@DPTR
        PUSH    A
          CFI CFA_SP SP+-6
        MOV     A,#0xa
        LCALL   ?XSTACK_DISP0_8
        POP     A
          CFI CFA_SP SP+-5
        LCALL   ?Subroutine1 & 0xFFFF
//  515   pFrame[FRAME_DATA_OFFSET + ZB_RECV_DATA_OFFSET+ 1] = gtwData->voltage;
??CrossCallReturnLabel_1:
        INC     DPTR
        MOVX    A,@DPTR
        PUSH    A
          CFI CFA_SP SP+-6
        MOV     A,#0xb
        LCALL   ?XSTACK_DISP0_8
        POP     A
          CFI CFA_SP SP+-5
        MOVX    @DPTR,A
//  516   pFrame[FRAME_DATA_OFFSET + ZB_RECV_DATA_OFFSET+ 2] = LO_UINT16(gtwData->parent);
        MOV     A,R2
        ADD     A,#0x2
        MOV     R0,A
        CLR     A
        ADDC    A,R3
        MOV     R1,A
        MOV     DPL,R0
        MOV     DPH,R1
        MOVX    A,@DPTR
        PUSH    A
          CFI CFA_SP SP+-6
        MOV     A,#0xc
        LCALL   ?XSTACK_DISP0_8
        POP     A
          CFI CFA_SP SP+-5
        MOVX    @DPTR,A
//  517   pFrame[FRAME_DATA_OFFSET + ZB_RECV_DATA_OFFSET+ 3] = HI_UINT16(gtwData->parent);
        MOV     DPL,R0
        MOV     DPH,R1
        INC     DPTR
        MOVX    A,@DPTR
        PUSH    A
          CFI CFA_SP SP+-6
        MOV     A,#0xd
        LCALL   ?XSTACK_DISP0_8
        POP     A
          CFI CFA_SP SP+-5
        MOVX    @DPTR,A
//  518 
//  519   // Frame Check Sequence
//  520   pFrame[ZB_RECV_LENGTH - 1] = calcFCS(&pFrame[FRAME_LENGTH_OFFSET], (ZB_RECV_LENGTH - 2) );
        MOV     A,#0x1
        LCALL   ?XSTACK_DISP0_8
        MOV     R0,#0x0
        MOV     R1,#0xd
??sendGtwReport_0:
        MOVX    A,@DPTR
        XCH     A,R0
        XRL     A,R0
        MOV     R0,A
        INC     DPTR
        DJNZ    R1,??sendGtwReport_0
        MOV     A,#0xe
        LCALL   ?XSTACK_DISP0_8
        MOV     A,R0
        MOVX    @DPTR,A
//  521 
//  522   // Write report to UART
//  523   HalUARTWrite(HAL_UART_PORT_0,pFrame, ZB_RECV_LENGTH);
        ; Setup parameters for call to function HalUARTWrite
        MOV     R4,#0xf
        MOV     R5,#0x0
        MOV     R2,?XSP + 0
        MOV     R3,?XSP + 1
        MOV     R1,#0x0
        LCALL   `??HalUARTWrite::?relay`; Banked call to: HalUARTWrite
//  524 }
        MOV     A,#0xf
        LCALL   ?DEALLOC_XSTACK8
          CFI CFA_XSP16 XSP16+0
        POP     DPH
          CFI DPH0 SameValue
          CFI CFA_SP SP+-4
        POP     DPL
          CFI DPL0 SameValue
          CFI CFA_SP SP+-3
        LJMP    ?BRET
          CFI EndBlock cfiBlock10

        RSEG BANKED_CODE:CODE:NOROOT(0)
?Subroutine1:
          CFI Block cfiCond11 Using cfiCommon0
          CFI Function sendGtwReport
          CFI Conditional ??CrossCallReturnLabel_0
          CFI DPL0 Frame(CFA_SP, 4)
          CFI DPH0 Frame(CFA_SP, 5)
          CFI CFA_SP SP+-7
          CFI CFA_XSP16 add(XSP16, 15)
          CFI Block cfiCond12 Using cfiCommon0
          CFI (cfiCond12) Function sendGtwReport
          CFI (cfiCond12) Conditional ??CrossCallReturnLabel_1
          CFI (cfiCond12) DPL0 Frame(CFA_SP, 4)
          CFI (cfiCond12) DPH0 Frame(CFA_SP, 5)
          CFI (cfiCond12) CFA_SP SP+-7
          CFI (cfiCond12) CFA_XSP16 add(XSP16, 15)
          CFI Block cfiPicker13 Using cfiCommon1
          CFI (cfiPicker13) NoFunction
          CFI (cfiPicker13) Picker
        MOVX    @DPTR,A
        MOV     DPL,R2
        MOV     DPH,R3
        INC     DPTR
        INC     DPTR
        INC     DPTR
        INC     DPTR
        RET
          CFI (cfiCond11) CFA_SP SP+-5
          CFI (cfiCond12) CFA_SP SP+-5
          CFI (cfiPicker13) CFA_SP SP+0
          CFI EndBlock cfiCond11
          CFI EndBlock cfiCond12
          CFI EndBlock cfiPicker13

        RSEG XDATA_ID:CODE:NOROOT(0)
`?<Initializer for myStartRetryDelay>`:
        DATA8
        DB 10

        RSEG BANK_RELAYS:CODE:REORDER:NOROOT(0)
`??zb_HandleOsalEvent::?relay`:
        CODE
        LCALL   ?BDISPATCH
        DATA24
        DC24    zb_HandleOsalEvent

        RSEG BANK_RELAYS:CODE:REORDER:NOROOT(0)
`??zb_HandleKeys::?relay`:
        CODE
        LCALL   ?BDISPATCH
        DATA24
        DC24    zb_HandleKeys

        RSEG BANK_RELAYS:CODE:REORDER:NOROOT(0)
`??zb_StartConfirm::?relay`:
        CODE
        LCALL   ?BDISPATCH
        DATA24
        DC24    zb_StartConfirm

        RSEG BANK_RELAYS:CODE:REORDER:NOROOT(0)
`??zb_SendDataConfirm::?relay`:
        CODE
        LCALL   ?BDISPATCH
        DATA24
        DC24    zb_SendDataConfirm

        RSEG BANK_RELAYS:CODE:REORDER:NOROOT(0)
`??zb_BindConfirm::?relay`:
        CODE
        LCALL   ?BDISPATCH
        DATA24
        DC24    zb_BindConfirm

        RSEG BANK_RELAYS:CODE:REORDER:NOROOT(0)
`??zb_AllowBindConfirm::?relay`:
        CODE
        LCALL   ?BDISPATCH
        DATA24
        DC24    zb_AllowBindConfirm

        RSEG BANK_RELAYS:CODE:REORDER:NOROOT(0)
`??zb_FindDeviceConfirm::?relay`:
        CODE
        LCALL   ?BDISPATCH
        DATA24
        DC24    zb_FindDeviceConfirm

        RSEG BANK_RELAYS:CODE:REORDER:NOROOT(0)
`??zb_ReceiveDataIndication::?relay`:
        CODE
        LCALL   ?BDISPATCH
        DATA24
        DC24    zb_ReceiveDataIndication

        RSEG BANK_RELAYS:CODE:REORDER:NOROOT(0)
`??uartRxCB::?relay`:
        CODE
        LCALL   ?BDISPATCH
        DATA24
        DC24    uartRxCB

        RSEG BANK_RELAYS:CODE:REORDER:NOROOT(0)
`??sendGtwReport::?relay`:
        CODE
        LCALL   ?BDISPATCH
        DATA24
        DC24    sendGtwReport

        END
//  525 
//  526 /******************************************************************************
//  527  * @fn          calcFCS
//  528  *
//  529  * @brief       This function calculates the FCS checksum for the serial message
//  530  *
//  531  * @param       pBuf - Pointer to the end of a buffer to calculate the FCS.
//  532  *              len - Length of the pBuf.
//  533  *
//  534  * @return      The calculated FCS.
//  535  ******************************************************************************
//  536  */
//  537 static uint8 calcFCS(uint8 *pBuf, uint8 len)
//  538 {
//  539   uint8 rtrn = 0;
//  540 
//  541   while ( len-- )
//  542   {
//  543     rtrn ^= *pBuf++;
//  544   }
//  545 
//  546   return rtrn;
//  547 }
// 
// 661 bytes in segment BANKED_CODE
//  60 bytes in segment BANK_RELAYS
//   1 byte  in segment XDATA_I
//   1 byte  in segment XDATA_ID
//  14 bytes in segment XDATA_ROM_C
//   8 bytes in segment XDATA_Z
// 
// 722 bytes of CODE  memory
//  14 bytes of CONST memory
//   9 bytes of XDATA memory
//
//Errors: none
//Warnings: none
