///////////////////////////////////////////////////////////////////////////////
//
// IAR C/C++ Compiler V9.20.1.2476 for 8051               17/Feb/2016  12:57:47
// Copyright 2004-2015 IAR Systems AB.
// Standalone license - IAR Embedded Workbench for 8051
//
//    Core               =  plain
//    Code model         =  banked
//    Data model         =  large
//    Calling convention =  xdata reentrant
//    Constant location  =  data_rom
//    Dptr setup         =  1,16
//                          
//    Source file        =  
//        E:\Sensordinges\Z-Stack Mesh 1.0.0\Z-Stack Mesh
//        1.0.0\Components\stack\zdo\ZDSecMgr.c
//    Command line       =  
//        -f "E:\Sensordinges\Z-Stack Mesh 1.0.0\Z-Stack Mesh
//        1.0.0\Projects\zstack\Samples\DemoApp\CC2530DB\..\..\..\Tools\CC2530DB\f8wCoord.cfg"
//        (-DCPU32MHZ -DROOT=__near_func -DMAC_CFG_APP_PENDING_QUEUE=TRUE
//        -DMAC_CFG_TX_DATA_MAX=5 -DMAC_CFG_TX_MAX=8 -DMAC_CFG_RX_MAX=5
//        -DZDO_COORDINATOR -DRTR_NWK) -f "E:\Sensordinges\Z-Stack Mesh
//        1.0.0\Z-Stack Mesh
//        1.0.0\Projects\zstack\Samples\DemoApp\CC2530DB\..\..\..\Tools\CC2530DB\f8wConfig.cfg"
//        (-DZIGBEEPRO -DSECURE=0 -DZG_SECURE_DYNAMIC=0 -DREFLECTOR
//        -DDEFAULT_CHANLIST=0x00008000 -DZDAPP_CONFIG_PAN_ID=0x0EEE
//        -DNWK_START_DELAY=100 -DEXTENDED_JOINING_RANDOM_MASK=0x007F
//        -DBEACON_REQUEST_DELAY=100 -DBEACON_REQ_DELAY_MASK=0x00FF
//        -DLINK_STATUS_JITTER_MASK=0x007F -DROUTE_EXPIRY_TIME=30
//        -DAPSC_ACK_WAIT_DURATION_POLLED=3000 -DNWK_INDIRECT_MSG_TIMEOUT=7
//        -DMAX_RREQ_ENTRIES=8 -DAPSC_MAX_FRAME_RETRIES=3
//        -DNWK_MAX_DATA_RETRIES=2 -DMAX_POLL_FAILURE_RETRIES=2 -DMAX_BCAST=9
//        -DAPS_MAX_GROUPS=16 -DMAX_RTG_ENTRIES=40 -DNWK_MAX_BINDING_ENTRIES=4
//        -DMAX_BINDING_CLUSTER_IDS=4 "-DDEFAULT_KEY={0x01, 0x03, 0x05, 0x07,
//        0x09, 0x0B, 0x0D, 0x0F, 0x00, 0x02, 0x04, 0x06, 0x08, 0x0A, 0x0C,
//        0x0D}" -DMAC_MAX_FRAME_SIZE=116 -DZDNWKMGR_MIN_TRANSMISSIONS=20
//        "-DCONST=const __code" -DGENERIC=__generic -DRFD_RCVC_ALWAYS_ON=FALSE
//        -DPOLL_RATE=1000 -DQUEUED_POLL_RATE=100 -DRESPONSE_POLL_RATE=100)
//        -DREJOIN_POLL_RATE=440 "E:\Sensordinges\Z-Stack Mesh 1.0.0\Z-Stack
//        Mesh 1.0.0\Components\stack\zdo\ZDSecMgr.c" -D HOLD_AUTO_START -D
//        BUILD_ALL_DEVICES -D REFLECTOR -D NV_INIT -D xNV_RESTORE -D ZTOOL_P1
//        -lC "E:\Sensordinges\Z-Stack Mesh 1.0.0\Z-Stack Mesh
//        1.0.0\Projects\zstack\Samples\DemoApp\CC2530DB\CoordinatorEB\List\"
//        -lA "E:\Sensordinges\Z-Stack Mesh 1.0.0\Z-Stack Mesh
//        1.0.0\Projects\zstack\Samples\DemoApp\CC2530DB\CoordinatorEB\List\"
//        --diag_suppress Pe001,Pa010,Pe1665 -o "E:\Sensordinges\Z-Stack Mesh
//        1.0.0\Z-Stack Mesh
//        1.0.0\Projects\zstack\Samples\DemoApp\CC2530DB\CoordinatorEB\Obj\" -e
//        --debug --core=plain --dptr=16,1 --data_model=large
//        --code_model=banked --calling_convention=xdata_reentrant
//        --place_constants=data_rom --nr_virtual_regs 16 -I
//        "E:\Sensordinges\Z-Stack Mesh 1.0.0\Z-Stack Mesh
//        1.0.0\Projects\zstack\Samples\DemoApp\CC2530DB\" -I
//        "E:\Sensordinges\Z-Stack Mesh 1.0.0\Z-Stack Mesh
//        1.0.0\Projects\zstack\Samples\DemoApp\CC2530DB\..\Source\" -I
//        "E:\Sensordinges\Z-Stack Mesh 1.0.0\Z-Stack Mesh
//        1.0.0\Projects\zstack\Samples\DemoApp\CC2530DB\..\..\..\ZMain\TI2530DB\"
//        -I "E:\Sensordinges\Z-Stack Mesh 1.0.0\Z-Stack Mesh
//        1.0.0\Projects\zstack\Samples\DemoApp\CC2530DB\..\..\..\..\..\Components\hal\include\"
//        -I "E:\Sensordinges\Z-Stack Mesh 1.0.0\Z-Stack Mesh
//        1.0.0\Projects\zstack\Samples\DemoApp\CC2530DB\..\..\..\..\..\Components\hal\target\CC2530EB\"
//        -I "E:\Sensordinges\Z-Stack Mesh 1.0.0\Z-Stack Mesh
//        1.0.0\Projects\zstack\Samples\DemoApp\CC2530DB\..\..\..\..\..\Components\mac\include\"
//        -I "E:\Sensordinges\Z-Stack Mesh 1.0.0\Z-Stack Mesh
//        1.0.0\Projects\zstack\Samples\DemoApp\CC2530DB\..\..\..\..\..\Components\mac\high_level\"
//        -I "E:\Sensordinges\Z-Stack Mesh 1.0.0\Z-Stack Mesh
//        1.0.0\Projects\zstack\Samples\DemoApp\CC2530DB\..\..\..\..\..\Components\mac\low_level\srf04\"
//        -I "E:\Sensordinges\Z-Stack Mesh 1.0.0\Z-Stack Mesh
//        1.0.0\Projects\zstack\Samples\DemoApp\CC2530DB\..\..\..\..\..\Components\mac\low_level\srf04\single_chip\"
//        -I "E:\Sensordinges\Z-Stack Mesh 1.0.0\Z-Stack Mesh
//        1.0.0\Projects\zstack\Samples\DemoApp\CC2530DB\..\..\..\..\..\Components\mt\"
//        -I "E:\Sensordinges\Z-Stack Mesh 1.0.0\Z-Stack Mesh
//        1.0.0\Projects\zstack\Samples\DemoApp\CC2530DB\..\..\..\..\..\Components\osal\include\"
//        -I "E:\Sensordinges\Z-Stack Mesh 1.0.0\Z-Stack Mesh
//        1.0.0\Projects\zstack\Samples\DemoApp\CC2530DB\..\..\..\..\..\Components\services\saddr\"
//        -I "E:\Sensordinges\Z-Stack Mesh 1.0.0\Z-Stack Mesh
//        1.0.0\Projects\zstack\Samples\DemoApp\CC2530DB\..\..\..\..\..\Components\services\sdata\"
//        -I "E:\Sensordinges\Z-Stack Mesh 1.0.0\Z-Stack Mesh
//        1.0.0\Projects\zstack\Samples\DemoApp\CC2530DB\..\..\..\..\..\Components\stack\af\"
//        -I "E:\Sensordinges\Z-Stack Mesh 1.0.0\Z-Stack Mesh
//        1.0.0\Projects\zstack\Samples\DemoApp\CC2530DB\..\..\..\..\..\Components\stack\nwk\"
//        -I "E:\Sensordinges\Z-Stack Mesh 1.0.0\Z-Stack Mesh
//        1.0.0\Projects\zstack\Samples\DemoApp\CC2530DB\..\..\..\..\..\Components\stack\sapi\"
//        -I "E:\Sensordinges\Z-Stack Mesh 1.0.0\Z-Stack Mesh
//        1.0.0\Projects\zstack\Samples\DemoApp\CC2530DB\..\..\..\..\..\Components\stack\sec\"
//        -I "E:\Sensordinges\Z-Stack Mesh 1.0.0\Z-Stack Mesh
//        1.0.0\Projects\zstack\Samples\DemoApp\CC2530DB\..\..\..\..\..\Components\stack\sys\"
//        -I "E:\Sensordinges\Z-Stack Mesh 1.0.0\Z-Stack Mesh
//        1.0.0\Projects\zstack\Samples\DemoApp\CC2530DB\..\..\..\..\..\Components\stack\zdo\"
//        -I "E:\Sensordinges\Z-Stack Mesh 1.0.0\Z-Stack Mesh
//        1.0.0\Projects\zstack\Samples\DemoApp\CC2530DB\..\..\..\..\..\Components\zmac\"
//        -I "E:\Sensordinges\Z-Stack Mesh 1.0.0\Z-Stack Mesh
//        1.0.0\Projects\zstack\Samples\DemoApp\CC2530DB\..\..\..\..\..\Components\zmac\f8w\"
//        -Oh --require_prototypes
//    List file          =  
//        E:\Sensordinges\Z-Stack Mesh 1.0.0\Z-Stack Mesh
//        1.0.0\Projects\zstack\Samples\DemoApp\CC2530DB\CoordinatorEB\List\ZDSecMgr.s51
//
///////////////////////////////////////////////////////////////////////////////

        NAME ZDSecMgr

        RTMODEL "__SystemLibrary", "CLib"
        RTMODEL "__calling_convention", "xdata_reentrant"
        RTMODEL "__code_model", "banked"
        RTMODEL "__core", "plain"
        RTMODEL "__data_model", "large"
        RTMODEL "__dptr_size", "16"
        RTMODEL "__extended_stack", "disabled"
        RTMODEL "__location_for_constants", "data"
        RTMODEL "__number_of_dptrs", "1"
        RTMODEL "__rt_version", "1"

        RSEG DOVERLAY:DATA:NOROOT(0)
        RSEG IOVERLAY:IDATA:NOROOT(0)
        RSEG ISTACK:IDATA:NOROOT(0)
        RSEG PSTACK:XDATA:NOROOT(0)
        RSEG XSTACK:XDATA:NOROOT(0)

        EXTERN ?V0
        EXTERN ?V1
        EXTERN ?V2
        EXTERN ?V3
        EXTERN ?V4
        EXTERN ?V5
        EXTERN ?V6
        EXTERN ?V7
        EXTERN ?V8
        EXTERN ?V9
        EXTERN ?V10
        EXTERN ?V11
        EXTERN ?V12
        EXTERN ?V13
        EXTERN ?ALLOC_XSTACK8
        EXTERN ?BANKED_ENTER_XDATA
        EXTERN ?BANKED_LEAVE_XDATA
        EXTERN ?BDISPATCH
        EXTERN ?BRET
        EXTERN ?CALL_IND
        EXTERN ?DEALLOC_XSTACK8
        EXTERN ?L_ADD_TO_X
        EXTERN ?L_ADD_X
        EXTERN ?L_MOV_TO_X
        EXTERN ?L_MOV_X
        EXTERN ?MOVE_LONG8_XDATA_XDATA
        EXTERN ?PUSH_XSTACK_I_THREE
        EXTERN ?PUSH_XSTACK_I_TWO
        EXTERN ?UL_GE_X
        EXTERN ?XLOAD_R0123
        EXTERN ?XSP
        EXTERN ?XSTACK_DISP0_8
        EXTERN ?XSTACK_DISP100_8
        EXTERN ?XSTACK_DISP101_8
        EXTERN ?XSTACK_DISP102_8
        EXTERN ?XSTORE_R0123
        EXTERN __INIT_XDATA_I
        EXTERN __INIT_XDATA_Z

        PUBLIC `??APSME_IsDefaultTCLK::?relay`
        FUNCTION `??APSME_IsDefaultTCLK::?relay`,0203H
        PUBLIC `??APSME_IsLinkKeyValid::?relay`
        FUNCTION `??APSME_IsLinkKeyValid::?relay`,0203H
        PUBLIC `??APSME_KeyFwdToChild::?relay`
        FUNCTION `??APSME_KeyFwdToChild::?relay`,0203H
        PUBLIC `??APSME_LinkKeyNVIdGet::?relay`
        FUNCTION `??APSME_LinkKeyNVIdGet::?relay`,0203H
        PUBLIC `??APSME_LinkKeySet::?relay`
        FUNCTION `??APSME_LinkKeySet::?relay`,0203H
        PUBLIC `??APSME_TCLinkKeyInit::?relay`
        FUNCTION `??APSME_TCLinkKeyInit::?relay`,0203H
        PUBLIC `??APSME_TCLinkKeyLoad::?relay`
        FUNCTION `??APSME_TCLinkKeyLoad::?relay`,0203H
        PUBLIC `??APSME_TCLinkKeySync::?relay`
        FUNCTION `??APSME_TCLinkKeySync::?relay`,0203H
        PUBLIC `??ZDSecMgrAPSRemove::?relay`
        FUNCTION `??ZDSecMgrAPSRemove::?relay`,0203H
        PUBLIC `??ZDSecMgrAddLinkKey::?relay`
        FUNCTION `??ZDSecMgrAddLinkKey::?relay`,0203H
        PUBLIC `??ZDSecMgrAddrClear::?relay`
        FUNCTION `??ZDSecMgrAddrClear::?relay`,0203H
        PUBLIC `??ZDSecMgrAddrStore::?relay`
        FUNCTION `??ZDSecMgrAddrStore::?relay`,0203H
        PUBLIC `??ZDSecMgrAppKeyGet::?relay`
        FUNCTION `??ZDSecMgrAppKeyGet::?relay`,0203H
        PUBLIC `??ZDSecMgrAppKeyReq::?relay`
        FUNCTION `??ZDSecMgrAppKeyReq::?relay`,0203H
        PUBLIC `??ZDSecMgrAppKeyTypeSet::?relay`
        FUNCTION `??ZDSecMgrAppKeyTypeSet::?relay`,0203H
        PUBLIC `??ZDSecMgrApsLinkKeyInit::?relay`
        FUNCTION `??ZDSecMgrApsLinkKeyInit::?relay`,0203H
        PUBLIC `??ZDSecMgrAssocDeviceAuth::?relay`
        FUNCTION `??ZDSecMgrAssocDeviceAuth::?relay`,0203H
        PUBLIC `??ZDSecMgrAuthNwkKey::?relay`
        FUNCTION `??ZDSecMgrAuthNwkKey::?relay`,0203H
        PUBLIC `??ZDSecMgrAuthenticationCheck::?relay`
        FUNCTION `??ZDSecMgrAuthenticationCheck::?relay`,0203H
        PUBLIC `??ZDSecMgrAuthenticationSet::?relay`
        FUNCTION `??ZDSecMgrAuthenticationSet::?relay`,0203H
        PUBLIC `??ZDSecMgrConfig::?relay`
        FUNCTION `??ZDSecMgrConfig::?relay`,0203H
        PUBLIC `??ZDSecMgrDeviceJoin::?relay`
        FUNCTION `??ZDSecMgrDeviceJoin::?relay`,0203H
        PUBLIC `??ZDSecMgrDeviceJoinDirect::?relay`
        FUNCTION `??ZDSecMgrDeviceJoinDirect::?relay`,0203H
        PUBLIC `??ZDSecMgrDeviceJoinFwd::?relay`
        FUNCTION `??ZDSecMgrDeviceJoinFwd::?relay`,0203H
        PUBLIC `??ZDSecMgrDeviceNew::?relay`
        FUNCTION `??ZDSecMgrDeviceNew::?relay`,0203H
        PUBLIC `??ZDSecMgrDeviceRemove::?relay`
        FUNCTION `??ZDSecMgrDeviceRemove::?relay`,0203H
        PUBLIC `??ZDSecMgrDeviceRemoveByExtAddr::?relay`
        FUNCTION `??ZDSecMgrDeviceRemoveByExtAddr::?relay`,0203H
        PUBLIC `??ZDSecMgrDeviceValidate::?relay`
        FUNCTION `??ZDSecMgrDeviceValidate::?relay`,0203H
        PUBLIC `??ZDSecMgrDeviceValidateRM::?relay`
        FUNCTION `??ZDSecMgrDeviceValidateRM::?relay`,0203H
        PUBLIC `??ZDSecMgrEntryFree::?relay`
        FUNCTION `??ZDSecMgrEntryFree::?relay`,0203H
        PUBLIC `??ZDSecMgrEntryInit::?relay`
        FUNCTION `??ZDSecMgrEntryInit::?relay`,0203H
        PUBLIC `??ZDSecMgrEntryLookup::?relay`
        FUNCTION `??ZDSecMgrEntryLookup::?relay`,0203H
        PUBLIC `??ZDSecMgrEntryLookupAMI::?relay`
        FUNCTION `??ZDSecMgrEntryLookupAMI::?relay`,0203H
        PUBLIC `??ZDSecMgrEntryLookupAMIGetIndex::?relay`
        FUNCTION `??ZDSecMgrEntryLookupAMIGetIndex::?relay`,0203H
        PUBLIC `??ZDSecMgrEntryLookupExt::?relay`
        FUNCTION `??ZDSecMgrEntryLookupExt::?relay`,0203H
        PUBLIC `??ZDSecMgrEntryLookupExtGetIndex::?relay`
        FUNCTION `??ZDSecMgrEntryLookupExtGetIndex::?relay`,0203H
        PUBLIC `??ZDSecMgrEntryNew::?relay`
        FUNCTION `??ZDSecMgrEntryNew::?relay`,0203H
        PUBLIC `??ZDSecMgrExtAddrLookup::?relay`
        FUNCTION `??ZDSecMgrExtAddrLookup::?relay`,0203H
        PUBLIC `??ZDSecMgrExtAddrStore::?relay`
        FUNCTION `??ZDSecMgrExtAddrStore::?relay`,0203H
        PUBLIC `??ZDSecMgrInit::?relay`
        FUNCTION `??ZDSecMgrInit::?relay`,0203H
        PUBLIC `??ZDSecMgrInitNV::?relay`
        FUNCTION `??ZDSecMgrInitNV::?relay`,0203H
        PUBLIC `??ZDSecMgrInitNVKeyTables::?relay`
        FUNCTION `??ZDSecMgrInitNVKeyTables::?relay`,0203H
        PUBLIC `??ZDSecMgrNewDeviceEvent::?relay`
        FUNCTION `??ZDSecMgrNewDeviceEvent::?relay`,0203H
        PUBLIC `??ZDSecMgrNwkKeyInit::?relay`
        FUNCTION `??ZDSecMgrNwkKeyInit::?relay`,0203H
        PUBLIC `??ZDSecMgrPermitJoining::?relay`
        FUNCTION `??ZDSecMgrPermitJoining::?relay`,0203H
        PUBLIC `??ZDSecMgrPermitJoiningTimeout::?relay`
        FUNCTION `??ZDSecMgrPermitJoiningTimeout::?relay`,0203H
        PUBLIC `??ZDSecMgrReadKeyFromNv::?relay`
        FUNCTION `??ZDSecMgrReadKeyFromNv::?relay`,0203H
        PUBLIC `??ZDSecMgrRemoveDeviceInd::?relay`
        FUNCTION `??ZDSecMgrRemoveDeviceInd::?relay`,0203H
        PUBLIC `??ZDSecMgrRequestAppKey::?relay`
        FUNCTION `??ZDSecMgrRequestAppKey::?relay`,0203H
        PUBLIC `??ZDSecMgrRequestKeyInd::?relay`
        FUNCTION `??ZDSecMgrRequestKeyInd::?relay`,0203H
        PUBLIC `??ZDSecMgrSaveApsLinkKey::?relay`
        FUNCTION `??ZDSecMgrSaveApsLinkKey::?relay`,0203H
        PUBLIC `??ZDSecMgrSaveTCLinkKey::?relay`
        FUNCTION `??ZDSecMgrSaveTCLinkKey::?relay`,0203H
        PUBLIC `??ZDSecMgrSendNwkKey::?relay`
        FUNCTION `??ZDSecMgrSendNwkKey::?relay`,0203H
        PUBLIC `??ZDSecMgrSetDefaultNV::?relay`
        FUNCTION `??ZDSecMgrSetDefaultNV::?relay`,0203H
        PUBLIC `??ZDSecMgrSetupPartner::?relay`
        FUNCTION `??ZDSecMgrSetupPartner::?relay`,0203H
        PUBLIC `??ZDSecMgrSwitchKeyInd::?relay`
        FUNCTION `??ZDSecMgrSwitchKeyInd::?relay`,0203H
        PUBLIC `??ZDSecMgrSwitchNwkKey::?relay`
        FUNCTION `??ZDSecMgrSwitchNwkKey::?relay`,0203H
        PUBLIC `??ZDSecMgrTCDataLoad::?relay`
        FUNCTION `??ZDSecMgrTCDataLoad::?relay`,0203H
        PUBLIC `??ZDSecMgrTCExtAddrCheck::?relay`
        FUNCTION `??ZDSecMgrTCExtAddrCheck::?relay`,0203H
        PUBLIC `??ZDSecMgrTransportKeyInd::?relay`
        FUNCTION `??ZDSecMgrTransportKeyInd::?relay`,0203H
        PUBLIC `??ZDSecMgrUpdateDeviceInd::?relay`
        FUNCTION `??ZDSecMgrUpdateDeviceInd::?relay`,0203H
        PUBLIC `??ZDSecMgrUpdateNwkKey::?relay`
        FUNCTION `??ZDSecMgrUpdateNwkKey::?relay`,0203H
        PUBLIC `??ZDSecMgrUpdateTCAddress::?relay`
        FUNCTION `??ZDSecMgrUpdateTCAddress::?relay`,0203H
        PUBLIC APSME_IsDefaultTCLK
        FUNCTION APSME_IsDefaultTCLK,021203H
        ARGFRAME XSTACK, 0, STACK
        LOCFRAME ISTACK, 2, STACK
        PUBLIC APSME_IsLinkKeyValid
        FUNCTION APSME_IsLinkKeyValid,0a1203H
        ARGFRAME XSTACK, 0, STACK
        LOCFRAME XSTACK, 48, STACK
        PUBLIC APSME_KeyFwdToChild
        FUNCTION APSME_KeyFwdToChild,0a1203H
        ARGFRAME XSTACK, 0, STACK
        LOCFRAME XSTACK, 10, STACK
        PUBLIC APSME_LinkKeyNVIdGet
        FUNCTION APSME_LinkKeyNVIdGet,0a1203H
        ARGFRAME XSTACK, 0, STACK
        LOCFRAME XSTACK, 23, STACK
        PUBLIC APSME_LinkKeySet
        FUNCTION APSME_LinkKeySet,0a1203H
        ARGFRAME XSTACK, 22, STACK
        ARGFRAME IOVERLAY, 0, STATIC
        ARGFRAME DOVERLAY, 0, STATIC
        LOCFRAME XSTACK, 36, STACK
        PUBLIC APSME_TCLinkKeyInit
        FUNCTION APSME_TCLinkKeyInit,0a1203H
        ARGFRAME XSTACK, 9, STACK
        ARGFRAME IOVERLAY, 0, STATIC
        ARGFRAME DOVERLAY, 0, STATIC
        LOCFRAME XSTACK, 47, STACK
        PUBLIC APSME_TCLinkKeyLoad
        FUNCTION APSME_TCLinkKeyLoad,0a1203H
        ARGFRAME XSTACK, 0, STACK
        LOCFRAME XSTACK, 63, STACK
        PUBLIC APSME_TCLinkKeySync
        FUNCTION APSME_TCLinkKeySync,0a1203H
        ARGFRAME XSTACK, 0, STACK
        LOCFRAME XSTACK, 52, STACK
        PUBLIC ApsLinkKeyFrmCntr
        PUBLIC TCLinkKeyFrmCntr
        PUBLIC TrustCenterLinkKey
        PUBLIC ZDSecMgrAPSRemove
        FUNCTION ZDSecMgrAPSRemove,021203H
        ARGFRAME XSTACK, 2, STACK
        LOCFRAME ISTACK, 2, STACK
        LOCFRAME XSTACK, 8, STACK
        PUBLIC ZDSecMgrAddLinkKey
        FUNCTION ZDSecMgrAddLinkKey,0a1203H
        ARGFRAME XSTACK, 2, STACK
        LOCFRAME XSTACK, 22, STACK
        PUBLIC ZDSecMgrAddrClear
        FUNCTION ZDSecMgrAddrClear,021203H
        ARGFRAME XSTACK, 38, STACK
        ARGFRAME IOVERLAY, 0, STATIC
        ARGFRAME DOVERLAY, 0, STATIC
        LOCFRAME XSTACK, 35, STACK
        PUBLIC ZDSecMgrAddrStore
        FUNCTION ZDSecMgrAddrStore,021203H
        ARGFRAME XSTACK, 2, STACK
        LOCFRAME XSTACK, 22, STACK
        PUBLIC ZDSecMgrAppKeyGet
        FUNCTION ZDSecMgrAppKeyGet,021203H
        ARGFRAME XSTACK, 8, STACK
        LOCFRAME ISTACK, 3, STACK
        PUBLIC ZDSecMgrAppKeyReq
        FUNCTION ZDSecMgrAppKeyReq,0a1203H
        ARGFRAME XSTACK, 0, STACK
        ARGFRAME IOVERLAY, 0, STATIC
        ARGFRAME DOVERLAY, 0, STATIC
        LOCFRAME ISTACK, 1, STACK
        LOCFRAME XSTACK, 49, STACK
        PUBLIC ZDSecMgrAppKeyType
        PUBLIC ZDSecMgrAppKeyTypeSet
        FUNCTION ZDSecMgrAppKeyTypeSet,0203H
        ARGFRAME XSTACK, 0, STACK
        LOCFRAME ISTACK, 2, STACK
        PUBLIC ZDSecMgrApsLinkKeyInit
        FUNCTION ZDSecMgrApsLinkKeyInit,0a1203H
        ARGFRAME XSTACK, 9, STACK
        ARGFRAME IOVERLAY, 0, STATIC
        ARGFRAME DOVERLAY, 0, STATIC
        LOCFRAME XSTACK, 40, STACK
        PUBLIC ZDSecMgrAssocDeviceAuth
        FUNCTION ZDSecMgrAssocDeviceAuth,0203H
        ARGFRAME XSTACK, 0, STACK
        LOCFRAME ISTACK, 2, STACK
        PUBLIC ZDSecMgrAuthNwkKey
        FUNCTION ZDSecMgrAuthNwkKey,021203H
        ARGFRAME XSTACK, 0, STACK
        LOCFRAME ISTACK, 2, STACK
        PUBLIC ZDSecMgrAuthenticationCheck
        FUNCTION ZDSecMgrAuthenticationCheck,0203H
        ARGFRAME XSTACK, 0, STACK
        PUBLIC ZDSecMgrAuthenticationSet
        FUNCTION ZDSecMgrAuthenticationSet,0a1203H
        ARGFRAME XSTACK, 0, STACK
        LOCFRAME ISTACK, 1, STACK
        LOCFRAME XSTACK, 22, STACK
        PUBLIC ZDSecMgrConfig
        FUNCTION ZDSecMgrConfig,021203H
        ARGFRAME XSTACK, 0, STACK
        LOCFRAME ISTACK, 2, STACK
        PUBLIC ZDSecMgrDeviceJoin
        FUNCTION ZDSecMgrDeviceJoin,0a1203H
        ARGFRAME XSTACK, 35, STACK
        ARGFRAME IOVERLAY, 0, STATIC
        ARGFRAME DOVERLAY, 0, STATIC
        LOCFRAME XSTACK, 41, STACK
        PUBLIC ZDSecMgrDeviceJoinDirect
        FUNCTION ZDSecMgrDeviceJoinDirect,0a1203H
        ARGFRAME XSTACK, 0, STACK
        LOCFRAME XSTACK, 12, STACK
        PUBLIC ZDSecMgrDeviceJoinFwd
        FUNCTION ZDSecMgrDeviceJoinFwd,0a1203H
        ARGFRAME XSTACK, 35, STACK
        ARGFRAME IOVERLAY, 0, STATIC
        ARGFRAME DOVERLAY, 0, STATIC
        LOCFRAME XSTACK, 18, STACK
        PUBLIC ZDSecMgrDeviceNew
        FUNCTION ZDSecMgrDeviceNew,0a1203H
        ARGFRAME XSTACK, 0, STACK
        LOCFRAME XSTACK, 12, STACK
        PUBLIC ZDSecMgrDeviceRemove
        FUNCTION ZDSecMgrDeviceRemove,0a1203H
        ARGFRAME XSTACK, 38, STACK
        ARGFRAME IOVERLAY, 0, STATIC
        ARGFRAME DOVERLAY, 0, STATIC
        LOCFRAME XSTACK, 20, STACK
        PUBLIC ZDSecMgrDeviceRemoveByExtAddr
        FUNCTION ZDSecMgrDeviceRemoveByExtAddr,021203H
        ARGFRAME XSTACK, 0, STACK
        LOCFRAME XSTACK, 22, STACK
        PUBLIC ZDSecMgrDeviceValidate
        FUNCTION ZDSecMgrDeviceValidate,0203H
        ARGFRAME XSTACK, 0, STACK
        LOCFRAME ISTACK, 2, STACK
        PUBLIC ZDSecMgrDeviceValidateRM
        FUNCTION ZDSecMgrDeviceValidateRM,0203H
        ARGFRAME XSTACK, 0, STACK
        LOCFRAME ISTACK, 2, STACK
        PUBLIC ZDSecMgrEntries
        PUBLIC ZDSecMgrEntryFree
        FUNCTION ZDSecMgrEntryFree,0a1203H
        ARGFRAME XSTACK, 22, STACK
        ARGFRAME IOVERLAY, 0, STATIC
        ARGFRAME DOVERLAY, 0, STATIC
        LOCFRAME XSTACK, 18, STACK
        PUBLIC ZDSecMgrEntryInit
        FUNCTION ZDSecMgrEntryInit,021203H
        ARGFRAME XSTACK, 0, STACK
        LOCFRAME ISTACK, 2, STACK
        PUBLIC ZDSecMgrEntryLookup
        FUNCTION ZDSecMgrEntryLookup,0a1203H
        ARGFRAME XSTACK, 0, STACK
        LOCFRAME XSTACK, 22, STACK
        PUBLIC ZDSecMgrEntryLookupAMI
        FUNCTION ZDSecMgrEntryLookupAMI,080203H
        ARGFRAME XSTACK, 0, STACK
        LOCFRAME XSTACK, 9, STACK
        PUBLIC ZDSecMgrEntryLookupAMIGetIndex
        FUNCTION ZDSecMgrEntryLookupAMIGetIndex,080203H
        ARGFRAME XSTACK, 0, STACK
        LOCFRAME XSTACK, 9, STACK
        PUBLIC ZDSecMgrEntryLookupExt
        FUNCTION ZDSecMgrEntryLookupExt,0a1203H
        ARGFRAME XSTACK, 0, STACK
        LOCFRAME XSTACK, 23, STACK
        PUBLIC ZDSecMgrEntryLookupExtGetIndex
        FUNCTION ZDSecMgrEntryLookupExtGetIndex,0a1203H
        ARGFRAME XSTACK, 2, STACK
        LOCFRAME XSTACK, 22, STACK
        PUBLIC ZDSecMgrEntryNew
        FUNCTION ZDSecMgrEntryNew,0203H
        ARGFRAME XSTACK, 0, STACK
        LOCFRAME XSTACK, 9, STACK
        PUBLIC ZDSecMgrExtAddrLookup
        FUNCTION ZDSecMgrExtAddrLookup,021203H
        ARGFRAME XSTACK, 0, STACK
        LOCFRAME XSTACK, 22, STACK
        PUBLIC ZDSecMgrExtAddrStore
        FUNCTION ZDSecMgrExtAddrStore,021203H
        ARGFRAME XSTACK, 2, STACK
        LOCFRAME XSTACK, 22, STACK
        PUBLIC ZDSecMgrInit
        FUNCTION ZDSecMgrInit,021203H
        ARGFRAME XSTACK, 0, STACK
        LOCFRAME ISTACK, 2, STACK
        PUBLIC ZDSecMgrInitNV
        FUNCTION ZDSecMgrInitNV,0a1203H
        ARGFRAME XSTACK, 0, STACK
        LOCFRAME XSTACK, 16, STACK
        PUBLIC ZDSecMgrInitNVKeyTables
        FUNCTION ZDSecMgrInitNVKeyTables,021203H
        ARGFRAME XSTACK, 0, STACK
        LOCFRAME XSTACK, 9, STACK
        PUBLIC ZDSecMgrNewDeviceEvent
        FUNCTION ZDSecMgrNewDeviceEvent,0a1203H
        ARGFRAME XSTACK, 0, STACK
        LOCFRAME ISTACK, 1, STACK
        LOCFRAME XSTACK, 35, STACK
        PUBLIC ZDSecMgrNwkKeyInit
        FUNCTION ZDSecMgrNwkKeyInit,0a1203H
        ARGFRAME XSTACK, 9, STACK
        ARGFRAME IOVERLAY, 0, STATIC
        ARGFRAME DOVERLAY, 0, STATIC
        LOCFRAME XSTACK, 52, STACK
        PUBLIC ZDSecMgrPermitJoining
        FUNCTION ZDSecMgrPermitJoining,0203H
        ARGFRAME XSTACK, 0, STACK
        LOCFRAME ISTACK, 2, STACK
        PUBLIC ZDSecMgrPermitJoiningEnabled
        PUBLIC ZDSecMgrPermitJoiningTimed
        PUBLIC ZDSecMgrPermitJoiningTimeout
        FUNCTION ZDSecMgrPermitJoiningTimeout,0203H
        ARGFRAME XSTACK, 0, STACK
        LOCFRAME ISTACK, 2, STACK
        PUBLIC ZDSecMgrReadKeyFromNv
        FUNCTION ZDSecMgrReadKeyFromNv,0a1203H
        ARGFRAME XSTACK, 0, STACK
        LOCFRAME XSTACK, 14, STACK
        PUBLIC ZDSecMgrRemoveDeviceInd
        FUNCTION ZDSecMgrRemoveDeviceInd,021203H
        ARGFRAME XSTACK, 0, STACK
        LOCFRAME XSTACK, 17, STACK
        PUBLIC ZDSecMgrRequestAppKey
        FUNCTION ZDSecMgrRequestAppKey,021203H
        ARGFRAME XSTACK, 0, STACK
        LOCFRAME ISTACK, 2, STACK
        LOCFRAME XSTACK, 4, STACK
        PUBLIC ZDSecMgrRequestKeyInd
        FUNCTION ZDSecMgrRequestKeyInd,021203H
        ARGFRAME XSTACK, 0, STACK
        LOCFRAME ISTACK, 2, STACK
        PUBLIC ZDSecMgrSaveApsLinkKey
        FUNCTION ZDSecMgrSaveApsLinkKey,0a1203H
        ARGFRAME XSTACK, 0, STACK
        LOCFRAME XSTACK, 26, STACK
        PUBLIC ZDSecMgrSaveTCLinkKey
        FUNCTION ZDSecMgrSaveTCLinkKey,0a1203H
        ARGFRAME XSTACK, 0, STACK
        LOCFRAME XSTACK, 16, STACK
        PUBLIC ZDSecMgrSendNwkKey
        FUNCTION ZDSecMgrSendNwkKey,0a1203H
        ARGFRAME XSTACK, 38, STACK
        ARGFRAME IOVERLAY, 0, STATIC
        ARGFRAME DOVERLAY, 0, STATIC
        LOCFRAME ISTACK, 1, STACK
        LOCFRAME XSTACK, 44, STACK
        PUBLIC ZDSecMgrSetDefaultNV
        FUNCTION ZDSecMgrSetDefaultNV,0a1203H
        ARGFRAME XSTACK, 0, STACK
        LOCFRAME XSTACK, 23, STACK
        PUBLIC ZDSecMgrSetupPartner
        FUNCTION ZDSecMgrSetupPartner,0a1203H
        ARGFRAME XSTACK, 0, STACK
        LOCFRAME XSTACK, 25, STACK
        PUBLIC ZDSecMgrSwitchKeyInd
        FUNCTION ZDSecMgrSwitchKeyInd,021203H
        ARGFRAME XSTACK, 0, STACK
        LOCFRAME ISTACK, 2, STACK
        PUBLIC ZDSecMgrSwitchNwkKey
        FUNCTION ZDSecMgrSwitchNwkKey,021203H
        ARGFRAME XSTACK, 0, STACK
        LOCFRAME ISTACK, 1, STACK
        LOCFRAME XSTACK, 13, STACK
        PUBLIC ZDSecMgrTCAuthenticated
        PUBLIC ZDSecMgrTCDataLoad
        FUNCTION ZDSecMgrTCDataLoad,021203H
        ARGFRAME XSTACK, 36, STACK
        ARGFRAME IOVERLAY, 0, STATIC
        ARGFRAME DOVERLAY, 0, STATIC
        LOCFRAME XSTACK, 35, STACK
        PUBLIC ZDSecMgrTCExtAddr
        PUBLIC ZDSecMgrTCExtAddrCheck
        FUNCTION ZDSecMgrTCExtAddrCheck,021203H
        ARGFRAME XSTACK, 0, STACK
        LOCFRAME XSTACK, 17, STACK
        PUBLIC ZDSecMgrTransportKeyInd
        FUNCTION ZDSecMgrTransportKeyInd,0a1203H
        ARGFRAME XSTACK, 0, STACK
        LOCFRAME XSTACK, 40, STACK
        PUBLIC ZDSecMgrUpdateDeviceInd
        FUNCTION ZDSecMgrUpdateDeviceInd,021203H
        ARGFRAME XSTACK, 0, STACK
        LOCFRAME ISTACK, 2, STACK
        LOCFRAME XSTACK, 8, STACK
        PUBLIC ZDSecMgrUpdateNwkKey
        FUNCTION ZDSecMgrUpdateNwkKey,0a1203H
        ARGFRAME XSTACK, 0, STACK
        LOCFRAME ISTACK, 1, STACK
        LOCFRAME XSTACK, 23, STACK
        PUBLIC ZDSecMgrUpdateTCAddress
        FUNCTION ZDSecMgrUpdateTCAddress,0a1203H
        ARGFRAME XSTACK, 0, STACK
        LOCFRAME XSTACK, 18, STACK
        PUBWEAK __Constant_1
        
          CFI Names cfiNames0
          CFI StackFrame CFA_SP SP IDATA
          CFI StackFrame CFA_PSP16 PSP16 XDATA
          CFI StackFrame CFA_XSP16 XSP16 XDATA
          CFI StaticOverlayFrame CFA_IOVERLAY IOVERLAY
          CFI StaticOverlayFrame CFA_DOVERLAY DOVERLAY
          CFI Resource `PSW.CY`:1, `B.BR0`:1, `B.BR1`:1, `B.BR2`:1, `B.BR3`:1
          CFI Resource `B.BR4`:1, `B.BR5`:1, `B.BR6`:1, `B.BR7`:1, `VB.BR8`:1
          CFI Resource `VB.BR9`:1, `VB.BR10`:1, `VB.BR11`:1, `VB.BR12`:1
          CFI Resource `VB.BR13`:1, `VB.BR14`:1, `VB.BR15`:1, VB:8, B:8, A:8
          CFI Resource PSW:8, DPL0:8, DPH0:8, R0:8, R1:8, R2:8, R3:8, R4:8, R5:8
          CFI Resource R6:8, R7:8, V0:8, V1:8, V2:8, V3:8, V4:8, V5:8, V6:8, V7:8
          CFI Resource V8:8, V9:8, V10:8, V11:8, V12:8, V13:8, V14:8, V15:8, SP:8
          CFI Resource PSPH:8, PSPL:8, PSP16:16, XSPH:8, XSPL:8, XSP16:16
          CFI VirtualResource ?RET:24
          CFI Resource ?BRET_EXT:8
          CFI VirtualResource ?RET_HIGH:8, ?RET_LOW:8
          CFI ResourceParts PSP16 PSPH, PSPL
          CFI ResourceParts XSP16 XSPH, XSPL
          CFI ResourceParts ?RET ?BRET_EXT, ?RET_HIGH, ?RET_LOW
          CFI EndNames cfiNames0
        
          CFI Common cfiCommon0 Using cfiNames0
          CFI CodeAlign 1
          CFI DataAlign -1
          CFI ReturnAddress ?RET CODE
          CFI CFA_DOVERLAY Used
          CFI CFA_IOVERLAY Used
          CFI CFA_SP SP+-3
          CFI CFA_PSP16 PSP16+0
          CFI CFA_XSP16 XSP16+0
          CFI `PSW.CY` SameValue
          CFI `B.BR0` SameValue
          CFI `B.BR1` SameValue
          CFI `B.BR2` SameValue
          CFI `B.BR3` SameValue
          CFI `B.BR4` SameValue
          CFI `B.BR5` SameValue
          CFI `B.BR6` SameValue
          CFI `B.BR7` SameValue
          CFI `VB.BR8` SameValue
          CFI `VB.BR9` SameValue
          CFI `VB.BR10` SameValue
          CFI `VB.BR11` SameValue
          CFI `VB.BR12` SameValue
          CFI `VB.BR13` SameValue
          CFI `VB.BR14` SameValue
          CFI `VB.BR15` SameValue
          CFI VB SameValue
          CFI B Undefined
          CFI A Undefined
          CFI PSW SameValue
          CFI DPL0 SameValue
          CFI DPH0 SameValue
          CFI R0 Undefined
          CFI R1 Undefined
          CFI R2 Undefined
          CFI R3 Undefined
          CFI R4 Undefined
          CFI R5 Undefined
          CFI R6 SameValue
          CFI R7 SameValue
          CFI V0 SameValue
          CFI V1 SameValue
          CFI V2 SameValue
          CFI V3 SameValue
          CFI V4 SameValue
          CFI V5 SameValue
          CFI V6 SameValue
          CFI V7 SameValue
          CFI V8 SameValue
          CFI V9 SameValue
          CFI V10 SameValue
          CFI V11 SameValue
          CFI V12 SameValue
          CFI V13 SameValue
          CFI V14 SameValue
          CFI V15 SameValue
          CFI PSPH Undefined
          CFI PSPL Undefined
          CFI XSPH Undefined
          CFI XSPL Undefined
          CFI ?RET Concat
          CFI ?BRET_EXT Frame(CFA_SP, 3)
          CFI ?RET_HIGH Frame(CFA_SP, 2)
          CFI ?RET_LOW Frame(CFA_SP, 1)
          CFI EndCommon cfiCommon0
        
        
          CFI Common cfiCommon1 Using cfiNames0
          CFI CodeAlign 1
          CFI DataAlign -1
          CFI ReturnAddress ?RET CODE
          CFI CFA_DOVERLAY Used
          CFI CFA_IOVERLAY Used
          CFI CFA_SP SP+-2
          CFI CFA_PSP16 PSP16+0
          CFI CFA_XSP16 XSP16+0
          CFI `PSW.CY` SameValue
          CFI `B.BR0` SameValue
          CFI `B.BR1` SameValue
          CFI `B.BR2` SameValue
          CFI `B.BR3` SameValue
          CFI `B.BR4` SameValue
          CFI `B.BR5` SameValue
          CFI `B.BR6` SameValue
          CFI `B.BR7` SameValue
          CFI `VB.BR8` SameValue
          CFI `VB.BR9` SameValue
          CFI `VB.BR10` SameValue
          CFI `VB.BR11` SameValue
          CFI `VB.BR12` SameValue
          CFI `VB.BR13` SameValue
          CFI `VB.BR14` SameValue
          CFI `VB.BR15` SameValue
          CFI VB SameValue
          CFI B SameValue
          CFI A SameValue
          CFI PSW SameValue
          CFI DPL0 SameValue
          CFI DPH0 SameValue
          CFI R0 SameValue
          CFI R1 SameValue
          CFI R2 SameValue
          CFI R3 SameValue
          CFI R4 SameValue
          CFI R5 SameValue
          CFI R6 SameValue
          CFI R7 SameValue
          CFI V0 SameValue
          CFI V1 SameValue
          CFI V2 SameValue
          CFI V3 SameValue
          CFI V4 SameValue
          CFI V5 SameValue
          CFI V6 SameValue
          CFI V7 SameValue
          CFI V8 SameValue
          CFI V9 SameValue
          CFI V10 SameValue
          CFI V11 SameValue
          CFI V12 SameValue
          CFI V13 SameValue
          CFI V14 SameValue
          CFI V15 SameValue
          CFI PSPH Undefined
          CFI PSPL Undefined
          CFI XSPH Undefined
          CFI XSPL Undefined
          CFI ?RET Concat
          CFI ?BRET_EXT SameValue
          CFI ?RET_HIGH Frame(CFA_SP, 2)
          CFI ?RET_LOW Frame(CFA_SP, 1)
          CFI EndCommon cfiCommon1
        
APSME_GetRequest    SYMBOL "APSME_GetRequest"
`??APSME_GetRequest::?relay` SYMBOL "?relay", APSME_GetRequest
APSME_IsDistributedSecurity SYMBOL "APSME_IsDistributedSecurity"
`??APSME_IsDistributedSecurity::?relay` SYMBOL "?relay", APSME_IsDistributedSecurity
APSME_LookupExtAddr SYMBOL "APSME_LookupExtAddr"
`??APSME_LookupExtAddr::?relay` SYMBOL "?relay", APSME_LookupExtAddr
APSME_LookupNwkAddr SYMBOL "APSME_LookupNwkAddr"
`??APSME_LookupNwkAddr::?relay` SYMBOL "?relay", APSME_LookupNwkAddr
APSME_RemoveDeviceReq SYMBOL "APSME_RemoveDeviceReq"
`??APSME_RemoveDeviceReq::?relay` SYMBOL "?relay", APSME_RemoveDeviceReq
APSME_RequestKeyReq SYMBOL "APSME_RequestKeyReq"
`??APSME_RequestKeyReq::?relay` SYMBOL "?relay", APSME_RequestKeyReq
APSME_SecurityNM    SYMBOL "APSME_SecurityNM"
`??APSME_SecurityNM::?relay` SYMBOL "?relay", APSME_SecurityNM
APSME_SetRequest    SYMBOL "APSME_SetRequest"
`??APSME_SetRequest::?relay` SYMBOL "?relay", APSME_SetRequest
APSME_SwitchKeyReq  SYMBOL "APSME_SwitchKeyReq"
`??APSME_SwitchKeyReq::?relay` SYMBOL "?relay", APSME_SwitchKeyReq
APSME_TransportKeyReq SYMBOL "APSME_TransportKeyReq"
`??APSME_TransportKeyReq::?relay` SYMBOL "?relay", APSME_TransportKeyReq
APSME_UpdateDeviceReq SYMBOL "APSME_UpdateDeviceReq"
`??APSME_UpdateDeviceReq::?relay` SYMBOL "?relay", APSME_UpdateDeviceReq
AddrMgrEntryGet     SYMBOL "AddrMgrEntryGet"
`??AddrMgrEntryGet::?relay` SYMBOL "?relay", AddrMgrEntryGet
AddrMgrEntryLookupExt SYMBOL "AddrMgrEntryLookupExt"
`??AddrMgrEntryLookupExt::?relay` SYMBOL "?relay", AddrMgrEntryLookupExt
AddrMgrEntryLookupNwk SYMBOL "AddrMgrEntryLookupNwk"
`??AddrMgrEntryLookupNwk::?relay` SYMBOL "?relay", AddrMgrEntryLookupNwk
AddrMgrEntryRelease SYMBOL "AddrMgrEntryRelease"
`??AddrMgrEntryRelease::?relay` SYMBOL "?relay", AddrMgrEntryRelease
AddrMgrEntryUpdate  SYMBOL "AddrMgrEntryUpdate"
`??AddrMgrEntryUpdate::?relay` SYMBOL "?relay", AddrMgrEntryUpdate
AddrMgrExtAddrEqual SYMBOL "AddrMgrExtAddrEqual"
`??AddrMgrExtAddrEqual::?relay` SYMBOL "?relay", AddrMgrExtAddrEqual
AddrMgrExtAddrSet   SYMBOL "AddrMgrExtAddrSet"
`??AddrMgrExtAddrSet::?relay` SYMBOL "?relay", AddrMgrExtAddrSet
AddrMgrExtAddrValid SYMBOL "AddrMgrExtAddrValid"
`??AddrMgrExtAddrValid::?relay` SYMBOL "?relay", AddrMgrExtAddrValid
AssocGetWithExt     SYMBOL "AssocGetWithExt"
`??AssocGetWithExt::?relay` SYMBOL "?relay", AssocGetWithExt
AssocGetWithShort   SYMBOL "AssocGetWithShort"
`??AssocGetWithShort::?relay` SYMBOL "?relay", AssocGetWithShort
AssocRemove         SYMBOL "AssocRemove"
`??AssocRemove::?relay` SYMBOL "?relay", AssocRemove
NLME_GetShortAddr   SYMBOL "NLME_GetShortAddr"
`??NLME_GetShortAddr::?relay` SYMBOL "?relay", NLME_GetShortAddr
NLME_LeaveReq       SYMBOL "NLME_LeaveReq"
`??NLME_LeaveReq::?relay` SYMBOL "?relay", NLME_LeaveReq
NLME_ReadNwkKeyInfo SYMBOL "NLME_ReadNwkKeyInfo"
`??NLME_ReadNwkKeyInfo::?relay` SYMBOL "?relay", NLME_ReadNwkKeyInfo
SSP_GetTrueRand     SYMBOL "SSP_GetTrueRand"
`??SSP_GetTrueRand::?relay` SYMBOL "?relay", SSP_GetTrueRand
SSP_SwitchNwkKey    SYMBOL "SSP_SwitchNwkKey"
`??SSP_SwitchNwkKey::?relay` SYMBOL "?relay", SSP_SwitchNwkKey
SSP_UpdateNwkKey    SYMBOL "SSP_UpdateNwkKey"
`??SSP_UpdateNwkKey::?relay` SYMBOL "?relay", SSP_UpdateNwkKey
ZDApp_NVUpdate      SYMBOL "ZDApp_NVUpdate"
`??ZDApp_NVUpdate::?relay` SYMBOL "?relay", ZDApp_NVUpdate
ZDP_IEEEAddrReq     SYMBOL "ZDP_IEEEAddrReq"
`??ZDP_IEEEAddrReq::?relay` SYMBOL "?relay", ZDP_IEEEAddrReq
ZDP_NwkAddrReq      SYMBOL "ZDP_NwkAddrReq"
`??ZDP_NwkAddrReq::?relay` SYMBOL "?relay", ZDP_NwkAddrReq
osal_isbufset       SYMBOL "osal_isbufset"
`??osal_isbufset::?relay` SYMBOL "?relay", osal_isbufset
osal_mem_alloc      SYMBOL "osal_mem_alloc"
`??osal_mem_alloc::?relay` SYMBOL "?relay", osal_mem_alloc
osal_mem_free       SYMBOL "osal_mem_free"
`??osal_mem_free::?relay` SYMBOL "?relay", osal_mem_free
osal_memcmp         SYMBOL "osal_memcmp"
`??osal_memcmp::?relay` SYMBOL "?relay", osal_memcmp
osal_memcpy         SYMBOL "osal_memcpy"
`??osal_memcpy::?relay` SYMBOL "?relay", osal_memcpy
osal_memset         SYMBOL "osal_memset"
`??osal_memset::?relay` SYMBOL "?relay", osal_memset
osal_nv_item_init   SYMBOL "osal_nv_item_init"
`??osal_nv_item_init::?relay` SYMBOL "?relay", osal_nv_item_init
osal_nv_read        SYMBOL "osal_nv_read"
`??osal_nv_read::?relay` SYMBOL "?relay", osal_nv_read
osal_nv_write       SYMBOL "osal_nv_write"
`??osal_nv_write::?relay` SYMBOL "?relay", osal_nv_write
osal_set_event      SYMBOL "osal_set_event"
`??osal_set_event::?relay` SYMBOL "?relay", osal_set_event
sAddrExtCmp         SYMBOL "sAddrExtCmp"
`??sAddrExtCmp::?relay` SYMBOL "?relay", sAddrExtCmp
sAddrExtCpy         SYMBOL "sAddrExtCpy"
`??sAddrExtCpy::?relay` SYMBOL "?relay", sAddrExtCpy
APSME_IsDefaultTCLK SYMBOL "APSME_IsDefaultTCLK"
`??APSME_IsDefaultTCLK::?relay` SYMBOL "?relay", APSME_IsDefaultTCLK
APSME_IsLinkKeyValid SYMBOL "APSME_IsLinkKeyValid"
`??APSME_IsLinkKeyValid::?relay` SYMBOL "?relay", APSME_IsLinkKeyValid
APSME_KeyFwdToChild SYMBOL "APSME_KeyFwdToChild"
`??APSME_KeyFwdToChild::?relay` SYMBOL "?relay", APSME_KeyFwdToChild
APSME_LinkKeyNVIdGet SYMBOL "APSME_LinkKeyNVIdGet"
`??APSME_LinkKeyNVIdGet::?relay` SYMBOL "?relay", APSME_LinkKeyNVIdGet
APSME_LinkKeySet    SYMBOL "APSME_LinkKeySet"
`??APSME_LinkKeySet::?relay` SYMBOL "?relay", APSME_LinkKeySet
APSME_TCLinkKeyInit SYMBOL "APSME_TCLinkKeyInit"
`??APSME_TCLinkKeyInit::?relay` SYMBOL "?relay", APSME_TCLinkKeyInit
APSME_TCLinkKeyLoad SYMBOL "APSME_TCLinkKeyLoad"
`??APSME_TCLinkKeyLoad::?relay` SYMBOL "?relay", APSME_TCLinkKeyLoad
APSME_TCLinkKeySync SYMBOL "APSME_TCLinkKeySync"
`??APSME_TCLinkKeySync::?relay` SYMBOL "?relay", APSME_TCLinkKeySync
ZDSecMgrAPSRemove   SYMBOL "ZDSecMgrAPSRemove"
`??ZDSecMgrAPSRemove::?relay` SYMBOL "?relay", ZDSecMgrAPSRemove
ZDSecMgrAddLinkKey  SYMBOL "ZDSecMgrAddLinkKey"
`??ZDSecMgrAddLinkKey::?relay` SYMBOL "?relay", ZDSecMgrAddLinkKey
ZDSecMgrAddrClear   SYMBOL "ZDSecMgrAddrClear"
`??ZDSecMgrAddrClear::?relay` SYMBOL "?relay", ZDSecMgrAddrClear
ZDSecMgrAddrStore   SYMBOL "ZDSecMgrAddrStore"
`??ZDSecMgrAddrStore::?relay` SYMBOL "?relay", ZDSecMgrAddrStore
ZDSecMgrAppKeyGet   SYMBOL "ZDSecMgrAppKeyGet"
`??ZDSecMgrAppKeyGet::?relay` SYMBOL "?relay", ZDSecMgrAppKeyGet
ZDSecMgrAppKeyReq   SYMBOL "ZDSecMgrAppKeyReq"
`??ZDSecMgrAppKeyReq::?relay` SYMBOL "?relay", ZDSecMgrAppKeyReq
ZDSecMgrAppKeyTypeSet SYMBOL "ZDSecMgrAppKeyTypeSet"
`??ZDSecMgrAppKeyTypeSet::?relay` SYMBOL "?relay", ZDSecMgrAppKeyTypeSet
ZDSecMgrApsLinkKeyInit SYMBOL "ZDSecMgrApsLinkKeyInit"
`??ZDSecMgrApsLinkKeyInit::?relay` SYMBOL "?relay", ZDSecMgrApsLinkKeyInit
ZDSecMgrAssocDeviceAuth SYMBOL "ZDSecMgrAssocDeviceAuth"
`??ZDSecMgrAssocDeviceAuth::?relay` SYMBOL "?relay", ZDSecMgrAssocDeviceAuth
ZDSecMgrAuthNwkKey  SYMBOL "ZDSecMgrAuthNwkKey"
`??ZDSecMgrAuthNwkKey::?relay` SYMBOL "?relay", ZDSecMgrAuthNwkKey
ZDSecMgrAuthenticationCheck SYMBOL "ZDSecMgrAuthenticationCheck"
`??ZDSecMgrAuthenticationCheck::?relay` SYMBOL "?relay", ZDSecMgrAuthenticationCheck
ZDSecMgrAuthenticationSet SYMBOL "ZDSecMgrAuthenticationSet"
`??ZDSecMgrAuthenticationSet::?relay` SYMBOL "?relay", ZDSecMgrAuthenticationSet
ZDSecMgrConfig      SYMBOL "ZDSecMgrConfig"
`??ZDSecMgrConfig::?relay` SYMBOL "?relay", ZDSecMgrConfig
ZDSecMgrDeviceJoin  SYMBOL "ZDSecMgrDeviceJoin"
`??ZDSecMgrDeviceJoin::?relay` SYMBOL "?relay", ZDSecMgrDeviceJoin
ZDSecMgrDeviceJoinDirect SYMBOL "ZDSecMgrDeviceJoinDirect"
`??ZDSecMgrDeviceJoinDirect::?relay` SYMBOL "?relay", ZDSecMgrDeviceJoinDirect
ZDSecMgrDeviceJoinFwd SYMBOL "ZDSecMgrDeviceJoinFwd"
`??ZDSecMgrDeviceJoinFwd::?relay` SYMBOL "?relay", ZDSecMgrDeviceJoinFwd
ZDSecMgrDeviceNew   SYMBOL "ZDSecMgrDeviceNew"
`??ZDSecMgrDeviceNew::?relay` SYMBOL "?relay", ZDSecMgrDeviceNew
ZDSecMgrDeviceRemove SYMBOL "ZDSecMgrDeviceRemove"
`??ZDSecMgrDeviceRemove::?relay` SYMBOL "?relay", ZDSecMgrDeviceRemove
ZDSecMgrDeviceRemoveByExtAddr SYMBOL "ZDSecMgrDeviceRemoveByExtAddr"
`??ZDSecMgrDeviceRemoveByExtAddr::?relay` SYMBOL "?relay", ZDSecMgrDeviceRemoveByExtAddr
ZDSecMgrDeviceValidate SYMBOL "ZDSecMgrDeviceValidate"
`??ZDSecMgrDeviceValidate::?relay` SYMBOL "?relay", ZDSecMgrDeviceValidate
ZDSecMgrDeviceValidateRM SYMBOL "ZDSecMgrDeviceValidateRM"
`??ZDSecMgrDeviceValidateRM::?relay` SYMBOL "?relay", ZDSecMgrDeviceValidateRM
ZDSecMgrEntryFree   SYMBOL "ZDSecMgrEntryFree"
`??ZDSecMgrEntryFree::?relay` SYMBOL "?relay", ZDSecMgrEntryFree
ZDSecMgrEntryInit   SYMBOL "ZDSecMgrEntryInit"
`??ZDSecMgrEntryInit::?relay` SYMBOL "?relay", ZDSecMgrEntryInit
ZDSecMgrEntryLookup SYMBOL "ZDSecMgrEntryLookup"
`??ZDSecMgrEntryLookup::?relay` SYMBOL "?relay", ZDSecMgrEntryLookup
ZDSecMgrEntryLookupAMI SYMBOL "ZDSecMgrEntryLookupAMI"
`??ZDSecMgrEntryLookupAMI::?relay` SYMBOL "?relay", ZDSecMgrEntryLookupAMI
ZDSecMgrEntryLookupAMIGetIndex SYMBOL "ZDSecMgrEntryLookupAMIGetIndex"
`??ZDSecMgrEntryLookupAMIGetIndex::?relay` SYMBOL "?relay", ZDSecMgrEntryLookupAMIGetIndex
ZDSecMgrEntryLookupExt SYMBOL "ZDSecMgrEntryLookupExt"
`??ZDSecMgrEntryLookupExt::?relay` SYMBOL "?relay", ZDSecMgrEntryLookupExt
ZDSecMgrEntryLookupExtGetIndex SYMBOL "ZDSecMgrEntryLookupExtGetIndex"
`??ZDSecMgrEntryLookupExtGetIndex::?relay` SYMBOL "?relay", ZDSecMgrEntryLookupExtGetIndex
ZDSecMgrEntryNew    SYMBOL "ZDSecMgrEntryNew"
`??ZDSecMgrEntryNew::?relay` SYMBOL "?relay", ZDSecMgrEntryNew
ZDSecMgrExtAddrLookup SYMBOL "ZDSecMgrExtAddrLookup"
`??ZDSecMgrExtAddrLookup::?relay` SYMBOL "?relay", ZDSecMgrExtAddrLookup
ZDSecMgrExtAddrStore SYMBOL "ZDSecMgrExtAddrStore"
`??ZDSecMgrExtAddrStore::?relay` SYMBOL "?relay", ZDSecMgrExtAddrStore
ZDSecMgrInit        SYMBOL "ZDSecMgrInit"
`??ZDSecMgrInit::?relay` SYMBOL "?relay", ZDSecMgrInit
ZDSecMgrInitNV      SYMBOL "ZDSecMgrInitNV"
`??ZDSecMgrInitNV::?relay` SYMBOL "?relay", ZDSecMgrInitNV
ZDSecMgrInitNVKeyTables SYMBOL "ZDSecMgrInitNVKeyTables"
`??ZDSecMgrInitNVKeyTables::?relay` SYMBOL "?relay", ZDSecMgrInitNVKeyTables
ZDSecMgrNewDeviceEvent SYMBOL "ZDSecMgrNewDeviceEvent"
`??ZDSecMgrNewDeviceEvent::?relay` SYMBOL "?relay", ZDSecMgrNewDeviceEvent
ZDSecMgrNwkKeyInit  SYMBOL "ZDSecMgrNwkKeyInit"
`??ZDSecMgrNwkKeyInit::?relay` SYMBOL "?relay", ZDSecMgrNwkKeyInit
ZDSecMgrPermitJoining SYMBOL "ZDSecMgrPermitJoining"
`??ZDSecMgrPermitJoining::?relay` SYMBOL "?relay", ZDSecMgrPermitJoining
ZDSecMgrPermitJoiningTimeout SYMBOL "ZDSecMgrPermitJoiningTimeout"
`??ZDSecMgrPermitJoiningTimeout::?relay` SYMBOL "?relay", ZDSecMgrPermitJoiningTimeout
ZDSecMgrReadKeyFromNv SYMBOL "ZDSecMgrReadKeyFromNv"
`??ZDSecMgrReadKeyFromNv::?relay` SYMBOL "?relay", ZDSecMgrReadKeyFromNv
ZDSecMgrRemoveDeviceInd SYMBOL "ZDSecMgrRemoveDeviceInd"
`??ZDSecMgrRemoveDeviceInd::?relay` SYMBOL "?relay", ZDSecMgrRemoveDeviceInd
ZDSecMgrRequestAppKey SYMBOL "ZDSecMgrRequestAppKey"
`??ZDSecMgrRequestAppKey::?relay` SYMBOL "?relay", ZDSecMgrRequestAppKey
ZDSecMgrRequestKeyInd SYMBOL "ZDSecMgrRequestKeyInd"
`??ZDSecMgrRequestKeyInd::?relay` SYMBOL "?relay", ZDSecMgrRequestKeyInd
ZDSecMgrSaveApsLinkKey SYMBOL "ZDSecMgrSaveApsLinkKey"
`??ZDSecMgrSaveApsLinkKey::?relay` SYMBOL "?relay", ZDSecMgrSaveApsLinkKey
ZDSecMgrSaveTCLinkKey SYMBOL "ZDSecMgrSaveTCLinkKey"
`??ZDSecMgrSaveTCLinkKey::?relay` SYMBOL "?relay", ZDSecMgrSaveTCLinkKey
ZDSecMgrSendNwkKey  SYMBOL "ZDSecMgrSendNwkKey"
`??ZDSecMgrSendNwkKey::?relay` SYMBOL "?relay", ZDSecMgrSendNwkKey
ZDSecMgrSetDefaultNV SYMBOL "ZDSecMgrSetDefaultNV"
`??ZDSecMgrSetDefaultNV::?relay` SYMBOL "?relay", ZDSecMgrSetDefaultNV
ZDSecMgrSetupPartner SYMBOL "ZDSecMgrSetupPartner"
`??ZDSecMgrSetupPartner::?relay` SYMBOL "?relay", ZDSecMgrSetupPartner
ZDSecMgrSwitchKeyInd SYMBOL "ZDSecMgrSwitchKeyInd"
`??ZDSecMgrSwitchKeyInd::?relay` SYMBOL "?relay", ZDSecMgrSwitchKeyInd
ZDSecMgrSwitchNwkKey SYMBOL "ZDSecMgrSwitchNwkKey"
`??ZDSecMgrSwitchNwkKey::?relay` SYMBOL "?relay", ZDSecMgrSwitchNwkKey
ZDSecMgrTCDataLoad  SYMBOL "ZDSecMgrTCDataLoad"
`??ZDSecMgrTCDataLoad::?relay` SYMBOL "?relay", ZDSecMgrTCDataLoad
ZDSecMgrTCExtAddrCheck SYMBOL "ZDSecMgrTCExtAddrCheck"
`??ZDSecMgrTCExtAddrCheck::?relay` SYMBOL "?relay", ZDSecMgrTCExtAddrCheck
ZDSecMgrTransportKeyInd SYMBOL "ZDSecMgrTransportKeyInd"
`??ZDSecMgrTransportKeyInd::?relay` SYMBOL "?relay", ZDSecMgrTransportKeyInd
ZDSecMgrUpdateDeviceInd SYMBOL "ZDSecMgrUpdateDeviceInd"
`??ZDSecMgrUpdateDeviceInd::?relay` SYMBOL "?relay", ZDSecMgrUpdateDeviceInd
ZDSecMgrUpdateNwkKey SYMBOL "ZDSecMgrUpdateNwkKey"
`??ZDSecMgrUpdateNwkKey::?relay` SYMBOL "?relay", ZDSecMgrUpdateNwkKey
ZDSecMgrUpdateTCAddress SYMBOL "ZDSecMgrUpdateTCAddress"
`??ZDSecMgrUpdateTCAddress::?relay` SYMBOL "?relay", ZDSecMgrUpdateTCAddress

        EXTERN `??APSME_GetRequest::?relay`
        FUNCTION `??APSME_GetRequest::?relay`,00H
        EXTERN `??APSME_IsDistributedSecurity::?relay`
        FUNCTION `??APSME_IsDistributedSecurity::?relay`,00H
        EXTERN `??APSME_LookupExtAddr::?relay`
        FUNCTION `??APSME_LookupExtAddr::?relay`,00H
        EXTERN `??APSME_LookupNwkAddr::?relay`
        FUNCTION `??APSME_LookupNwkAddr::?relay`,00H
        EXTERN `??APSME_RemoveDeviceReq::?relay`
        FUNCTION `??APSME_RemoveDeviceReq::?relay`,00H
        EXTERN `??APSME_RequestKeyReq::?relay`
        FUNCTION `??APSME_RequestKeyReq::?relay`,00H
        EXTERN `??APSME_SecurityNM::?relay`
        FUNCTION `??APSME_SecurityNM::?relay`,00H
        EXTERN `??APSME_SetRequest::?relay`
        FUNCTION `??APSME_SetRequest::?relay`,00H
        EXTERN `??APSME_SwitchKeyReq::?relay`
        FUNCTION `??APSME_SwitchKeyReq::?relay`,00H
        EXTERN `??APSME_TransportKeyReq::?relay`
        FUNCTION `??APSME_TransportKeyReq::?relay`,00H
        EXTERN `??APSME_UpdateDeviceReq::?relay`
        FUNCTION `??APSME_UpdateDeviceReq::?relay`,00H
        EXTERN `??AddrMgrEntryGet::?relay`
        FUNCTION `??AddrMgrEntryGet::?relay`,00H
        EXTERN `??AddrMgrEntryLookupExt::?relay`
        FUNCTION `??AddrMgrEntryLookupExt::?relay`,00H
        EXTERN `??AddrMgrEntryLookupNwk::?relay`
        FUNCTION `??AddrMgrEntryLookupNwk::?relay`,00H
        EXTERN `??AddrMgrEntryRelease::?relay`
        FUNCTION `??AddrMgrEntryRelease::?relay`,00H
        EXTERN `??AddrMgrEntryUpdate::?relay`
        FUNCTION `??AddrMgrEntryUpdate::?relay`,00H
        EXTERN `??AddrMgrExtAddrEqual::?relay`
        FUNCTION `??AddrMgrExtAddrEqual::?relay`,00H
        EXTERN `??AddrMgrExtAddrSet::?relay`
        FUNCTION `??AddrMgrExtAddrSet::?relay`,00H
        EXTERN `??AddrMgrExtAddrValid::?relay`
        FUNCTION `??AddrMgrExtAddrValid::?relay`,00H
        EXTERN `??AssocGetWithExt::?relay`
        FUNCTION `??AssocGetWithExt::?relay`,00H
        EXTERN `??AssocGetWithShort::?relay`
        FUNCTION `??AssocGetWithShort::?relay`,00H
        EXTERN `??AssocRemove::?relay`
        FUNCTION `??AssocRemove::?relay`,00H
        EXTERN `??NLME_GetShortAddr::?relay`
        FUNCTION `??NLME_GetShortAddr::?relay`,00H
        EXTERN `??NLME_LeaveReq::?relay`
        FUNCTION `??NLME_LeaveReq::?relay`,00H
        EXTERN `??NLME_ReadNwkKeyInfo::?relay`
        FUNCTION `??NLME_ReadNwkKeyInfo::?relay`,00H
        EXTERN `??SSP_GetTrueRand::?relay`
        FUNCTION `??SSP_GetTrueRand::?relay`,00H
        EXTERN `??SSP_SwitchNwkKey::?relay`
        FUNCTION `??SSP_SwitchNwkKey::?relay`,00H
        EXTERN `??SSP_UpdateNwkKey::?relay`
        FUNCTION `??SSP_UpdateNwkKey::?relay`,00H
        EXTERN `??ZDApp_NVUpdate::?relay`
        FUNCTION `??ZDApp_NVUpdate::?relay`,00H
        EXTERN `??ZDP_IEEEAddrReq::?relay`
        FUNCTION `??ZDP_IEEEAddrReq::?relay`,00H
        EXTERN `??ZDP_NwkAddrReq::?relay`
        FUNCTION `??ZDP_NwkAddrReq::?relay`,00H
        EXTERN `??osal_isbufset::?relay`
        FUNCTION `??osal_isbufset::?relay`,00H
        EXTERN `??osal_mem_alloc::?relay`
        FUNCTION `??osal_mem_alloc::?relay`,00H
        EXTERN `??osal_mem_free::?relay`
        FUNCTION `??osal_mem_free::?relay`,00H
        EXTERN `??osal_memcmp::?relay`
        FUNCTION `??osal_memcmp::?relay`,00H
        EXTERN `??osal_memcpy::?relay`
        FUNCTION `??osal_memcpy::?relay`,00H
        EXTERN `??osal_memset::?relay`
        FUNCTION `??osal_memset::?relay`,00H
        EXTERN `??osal_nv_item_init::?relay`
        FUNCTION `??osal_nv_item_init::?relay`,00H
        EXTERN `??osal_nv_read::?relay`
        FUNCTION `??osal_nv_read::?relay`,00H
        EXTERN `??osal_nv_write::?relay`
        FUNCTION `??osal_nv_write::?relay`,00H
        EXTERN `??osal_set_event::?relay`
        FUNCTION `??osal_set_event::?relay`,00H
        EXTERN `??sAddrExtCmp::?relay`
        FUNCTION `??sAddrExtCmp::?relay`,00H
        EXTERN `??sAddrExtCpy::?relay`
        FUNCTION `??sAddrExtCpy::?relay`,00H
        EXTERN APSME_GetRequest
        FUNCTION APSME_GetRequest,0202H
        ARGFRAME ISTACK, 0, STACK
        ARGFRAME PSTACK, 0, STACK
        ARGFRAME XSTACK, 17, STACK
        ARGFRAME IOVERLAY, 0, STATIC
        ARGFRAME DOVERLAY, 0, STATIC
        EXTERN APSME_IsDistributedSecurity
        FUNCTION APSME_IsDistributedSecurity,0202H
        ARGFRAME ISTACK, 0, STACK
        ARGFRAME PSTACK, 0, STACK
        ARGFRAME XSTACK, 59, STACK
        ARGFRAME IOVERLAY, 0, STATIC
        ARGFRAME DOVERLAY, 0, STATIC
        EXTERN APSME_LookupExtAddr
        FUNCTION APSME_LookupExtAddr,0202H
        ARGFRAME ISTACK, 0, STACK
        ARGFRAME PSTACK, 0, STACK
        ARGFRAME XSTACK, 49, STACK
        ARGFRAME IOVERLAY, 0, STATIC
        ARGFRAME DOVERLAY, 0, STATIC
        EXTERN APSME_LookupNwkAddr
        FUNCTION APSME_LookupNwkAddr,0202H
        ARGFRAME ISTACK, 0, STACK
        ARGFRAME PSTACK, 0, STACK
        ARGFRAME XSTACK, 49, STACK
        ARGFRAME IOVERLAY, 0, STATIC
        ARGFRAME DOVERLAY, 0, STATIC
        EXTERN APSME_RemoveDeviceReq
        FUNCTION APSME_RemoveDeviceReq,0202H
        ARGFRAME ISTACK, 0, STACK
        ARGFRAME PSTACK, 0, STACK
        ARGFRAME XSTACK, 20, STACK
        ARGFRAME IOVERLAY, 0, STATIC
        ARGFRAME DOVERLAY, 0, STATIC
        EXTERN APSME_RequestKeyReq
        FUNCTION APSME_RequestKeyReq,0202H
        ARGFRAME ISTACK, 2, STACK
        ARGFRAME PSTACK, 0, STACK
        ARGFRAME XSTACK, 4, STACK
        ARGFRAME IOVERLAY, 0, STATIC
        ARGFRAME DOVERLAY, 0, STATIC
        EXTERN APSME_SecurityNM
        FUNCTION APSME_SecurityNM,0202H
        ARGFRAME ISTACK, 2, STACK
        ARGFRAME PSTACK, 0, STACK
        ARGFRAME XSTACK, 0, STACK
        ARGFRAME IOVERLAY, 0, STATIC
        ARGFRAME DOVERLAY, 0, STATIC
        EXTERN APSME_SetRequest
        FUNCTION APSME_SetRequest,0202H
        ARGFRAME ISTACK, 0, STACK
        ARGFRAME PSTACK, 0, STACK
        ARGFRAME XSTACK, 36, STACK
        ARGFRAME IOVERLAY, 0, STATIC
        ARGFRAME DOVERLAY, 0, STATIC
        EXTERN APSME_SwitchKeyReq
        FUNCTION APSME_SwitchKeyReq,0202H
        ARGFRAME ISTACK, 0, STACK
        ARGFRAME PSTACK, 0, STACK
        ARGFRAME XSTACK, 13, STACK
        ARGFRAME IOVERLAY, 0, STATIC
        ARGFRAME DOVERLAY, 0, STATIC
        EXTERN APSME_TransportKeyReq
        FUNCTION APSME_TransportKeyReq,0202H
        ARGFRAME ISTACK, 0, STACK
        ARGFRAME PSTACK, 0, STACK
        ARGFRAME XSTACK, 49, STACK
        ARGFRAME IOVERLAY, 0, STATIC
        ARGFRAME DOVERLAY, 0, STATIC
        EXTERN APSME_UpdateDeviceReq
        FUNCTION APSME_UpdateDeviceReq,0202H
        ARGFRAME ISTACK, 0, STACK
        ARGFRAME PSTACK, 0, STACK
        ARGFRAME XSTACK, 18, STACK
        ARGFRAME IOVERLAY, 0, STATIC
        ARGFRAME DOVERLAY, 0, STATIC
        EXTERN AddrMgrEntryGet
        FUNCTION AddrMgrEntryGet,0202H
        ARGFRAME ISTACK, 0, STACK
        ARGFRAME PSTACK, 0, STACK
        ARGFRAME XSTACK, 35, STACK
        ARGFRAME IOVERLAY, 0, STATIC
        ARGFRAME DOVERLAY, 0, STATIC
        EXTERN AddrMgrEntryLookupExt
        FUNCTION AddrMgrEntryLookupExt,0202H
        ARGFRAME ISTACK, 0, STACK
        ARGFRAME PSTACK, 0, STACK
        ARGFRAME XSTACK, 44, STACK
        ARGFRAME IOVERLAY, 0, STATIC
        ARGFRAME DOVERLAY, 0, STATIC
        EXTERN AddrMgrEntryLookupNwk
        FUNCTION AddrMgrEntryLookupNwk,0202H
        ARGFRAME ISTACK, 0, STACK
        ARGFRAME PSTACK, 0, STACK
        ARGFRAME XSTACK, 59, STACK
        ARGFRAME IOVERLAY, 0, STATIC
        ARGFRAME DOVERLAY, 0, STATIC
        EXTERN AddrMgrEntryRelease
        FUNCTION AddrMgrEntryRelease,0202H
        ARGFRAME ISTACK, 0, STACK
        ARGFRAME PSTACK, 0, STACK
        ARGFRAME XSTACK, 59, STACK
        ARGFRAME IOVERLAY, 0, STATIC
        ARGFRAME DOVERLAY, 0, STATIC
        EXTERN AddrMgrEntryUpdate
        FUNCTION AddrMgrEntryUpdate,0202H
        ARGFRAME ISTACK, 0, STACK
        ARGFRAME PSTACK, 0, STACK
        ARGFRAME XSTACK, 38, STACK
        ARGFRAME IOVERLAY, 0, STATIC
        ARGFRAME DOVERLAY, 0, STATIC
        EXTERN AddrMgrExtAddrEqual
        FUNCTION AddrMgrExtAddrEqual,0202H
        ARGFRAME ISTACK, 0, STACK
        ARGFRAME PSTACK, 0, STACK
        ARGFRAME XSTACK, 59, STACK
        ARGFRAME IOVERLAY, 0, STATIC
        ARGFRAME DOVERLAY, 0, STATIC
        EXTERN AddrMgrExtAddrSet
        FUNCTION AddrMgrExtAddrSet,0202H
        ARGFRAME ISTACK, 0, STACK
        ARGFRAME PSTACK, 0, STACK
        ARGFRAME XSTACK, 44, STACK
        ARGFRAME IOVERLAY, 0, STATIC
        ARGFRAME DOVERLAY, 0, STATIC
        EXTERN AddrMgrExtAddrValid
        FUNCTION AddrMgrExtAddrValid,0202H
        ARGFRAME ISTACK, 0, STACK
        ARGFRAME PSTACK, 0, STACK
        ARGFRAME XSTACK, 59, STACK
        ARGFRAME IOVERLAY, 0, STATIC
        ARGFRAME DOVERLAY, 0, STATIC
        EXTERN AssocGetWithExt
        FUNCTION AssocGetWithExt,0202H
        ARGFRAME ISTACK, 0, STACK
        ARGFRAME PSTACK, 0, STACK
        ARGFRAME XSTACK, 20, STACK
        ARGFRAME IOVERLAY, 0, STATIC
        ARGFRAME DOVERLAY, 0, STATIC
        EXTERN AssocGetWithShort
        FUNCTION AssocGetWithShort,0202H
        ARGFRAME ISTACK, 0, STACK
        ARGFRAME PSTACK, 0, STACK
        ARGFRAME XSTACK, 35, STACK
        ARGFRAME IOVERLAY, 0, STATIC
        ARGFRAME DOVERLAY, 0, STATIC
        EXTERN AssocRemove
        FUNCTION AssocRemove,0202H
        ARGFRAME ISTACK, 0, STACK
        ARGFRAME PSTACK, 0, STACK
        ARGFRAME XSTACK, 35, STACK
        ARGFRAME IOVERLAY, 0, STATIC
        ARGFRAME DOVERLAY, 0, STATIC
        EXTERN NLME_GetShortAddr
        FUNCTION NLME_GetShortAddr,0202H
        ARGFRAME ISTACK, 0, STACK
        ARGFRAME PSTACK, 0, STACK
        ARGFRAME XSTACK, 40, STACK
        ARGFRAME IOVERLAY, 0, STATIC
        ARGFRAME DOVERLAY, 0, STATIC
        EXTERN NLME_LeaveReq
        FUNCTION NLME_LeaveReq,0202H
        ARGFRAME ISTACK, 0, STACK
        ARGFRAME PSTACK, 0, STACK
        ARGFRAME XSTACK, 20, STACK
        ARGFRAME IOVERLAY, 0, STATIC
        ARGFRAME DOVERLAY, 0, STATIC
        EXTERN NLME_ReadNwkKeyInfo
        FUNCTION NLME_ReadNwkKeyInfo,0202H
        ARGFRAME ISTACK, 0, STACK
        ARGFRAME PSTACK, 0, STACK
        ARGFRAME XSTACK, 44, STACK
        ARGFRAME IOVERLAY, 0, STATIC
        ARGFRAME DOVERLAY, 0, STATIC
        EXTERN SSP_GetTrueRand
        FUNCTION SSP_GetTrueRand,0202H
        ARGFRAME ISTACK, 2, STACK
        ARGFRAME PSTACK, 0, STACK
        ARGFRAME XSTACK, 49, STACK
        ARGFRAME IOVERLAY, 0, STATIC
        ARGFRAME DOVERLAY, 0, STATIC
        EXTERN SSP_SwitchNwkKey
        FUNCTION SSP_SwitchNwkKey,0202H
        ARGFRAME ISTACK, 2, STACK
        ARGFRAME PSTACK, 0, STACK
        ARGFRAME XSTACK, 36, STACK
        ARGFRAME IOVERLAY, 0, STATIC
        ARGFRAME DOVERLAY, 0, STATIC
        EXTERN SSP_UpdateNwkKey
        FUNCTION SSP_UpdateNwkKey,0202H
        ARGFRAME ISTACK, 0, STACK
        ARGFRAME PSTACK, 0, STACK
        ARGFRAME XSTACK, 36, STACK
        ARGFRAME IOVERLAY, 0, STATIC
        ARGFRAME DOVERLAY, 0, STATIC
        EXTERN ZDAppTaskID
        EXTERN ZDApp_NVUpdate
        FUNCTION ZDApp_NVUpdate,0202H
        ARGFRAME ISTACK, 2, STACK
        ARGFRAME PSTACK, 0, STACK
        ARGFRAME XSTACK, 23, STACK
        ARGFRAME IOVERLAY, 0, STATIC
        ARGFRAME DOVERLAY, 0, STATIC
        EXTERN ZDP_IEEEAddrReq
        FUNCTION ZDP_IEEEAddrReq,0202H
        ARGFRAME ISTACK, 0, STACK
        ARGFRAME PSTACK, 0, STACK
        ARGFRAME XSTACK, 25, STACK
        ARGFRAME IOVERLAY, 0, STATIC
        ARGFRAME DOVERLAY, 0, STATIC
        EXTERN ZDP_NwkAddrReq
        FUNCTION ZDP_NwkAddrReq,0202H
        ARGFRAME ISTACK, 0, STACK
        ARGFRAME PSTACK, 0, STACK
        ARGFRAME XSTACK, 25, STACK
        ARGFRAME IOVERLAY, 0, STATIC
        ARGFRAME DOVERLAY, 0, STATIC
        EXTERN _NIB
        EXTERN defaultTCLinkKey
        EXTERN devState
        EXTERN osal_isbufset
        FUNCTION osal_isbufset,0202H
        ARGFRAME ISTACK, 2, STACK
        ARGFRAME PSTACK, 0, STACK
        ARGFRAME XSTACK, 59, STACK
        ARGFRAME IOVERLAY, 0, STATIC
        ARGFRAME DOVERLAY, 0, STATIC
        EXTERN osal_mem_alloc
        FUNCTION osal_mem_alloc,0202H
        ARGFRAME ISTACK, 2, STACK
        ARGFRAME PSTACK, 0, STACK
        ARGFRAME XSTACK, 44, STACK
        ARGFRAME IOVERLAY, 0, STATIC
        ARGFRAME DOVERLAY, 0, STATIC
        EXTERN osal_mem_free
        FUNCTION osal_mem_free,0202H
        ARGFRAME ISTACK, 0, STACK
        ARGFRAME PSTACK, 0, STACK
        ARGFRAME XSTACK, 44, STACK
        ARGFRAME IOVERLAY, 0, STATIC
        ARGFRAME DOVERLAY, 0, STATIC
        EXTERN osal_memcmp
        FUNCTION osal_memcmp,0202H
        ARGFRAME ISTACK, 0, STACK
        ARGFRAME PSTACK, 0, STACK
        ARGFRAME XSTACK, 47, STACK
        ARGFRAME IOVERLAY, 0, STATIC
        ARGFRAME DOVERLAY, 0, STATIC
        EXTERN osal_memcpy
        FUNCTION osal_memcpy,0202H
        ARGFRAME ISTACK, 0, STACK
        ARGFRAME PSTACK, 0, STACK
        ARGFRAME XSTACK, 46, STACK
        ARGFRAME IOVERLAY, 0, STATIC
        ARGFRAME DOVERLAY, 0, STATIC
        EXTERN osal_memset
        FUNCTION osal_memset,0202H
        ARGFRAME ISTACK, 0, STACK
        ARGFRAME PSTACK, 0, STACK
        ARGFRAME XSTACK, 59, STACK
        ARGFRAME IOVERLAY, 0, STATIC
        ARGFRAME DOVERLAY, 0, STATIC
        EXTERN osal_nv_item_init
        FUNCTION osal_nv_item_init,0202H
        ARGFRAME ISTACK, 0, STACK
        ARGFRAME PSTACK, 0, STACK
        ARGFRAME XSTACK, 50, STACK
        ARGFRAME IOVERLAY, 0, STATIC
        ARGFRAME DOVERLAY, 0, STATIC
        EXTERN osal_nv_read
        FUNCTION osal_nv_read,0202H
        ARGFRAME ISTACK, 0, STACK
        ARGFRAME PSTACK, 0, STACK
        ARGFRAME XSTACK, 63, STACK
        ARGFRAME IOVERLAY, 0, STATIC
        ARGFRAME DOVERLAY, 0, STATIC
        EXTERN osal_nv_write
        FUNCTION osal_nv_write,0202H
        ARGFRAME ISTACK, 0, STACK
        ARGFRAME PSTACK, 0, STACK
        ARGFRAME XSTACK, 52, STACK
        ARGFRAME IOVERLAY, 0, STATIC
        ARGFRAME DOVERLAY, 0, STATIC
        EXTERN osal_set_event
        FUNCTION osal_set_event,0202H
        ARGFRAME ISTACK, 2, STACK
        ARGFRAME PSTACK, 0, STACK
        ARGFRAME XSTACK, 36, STACK
        ARGFRAME IOVERLAY, 0, STATIC
        ARGFRAME DOVERLAY, 0, STATIC
        EXTERN sAddrExtCmp
        FUNCTION sAddrExtCmp,0202H
        ARGFRAME ISTACK, 0, STACK
        ARGFRAME PSTACK, 0, STACK
        ARGFRAME XSTACK, 48, STACK
        ARGFRAME IOVERLAY, 0, STATIC
        ARGFRAME DOVERLAY, 0, STATIC
        EXTERN sAddrExtCpy
        FUNCTION sAddrExtCpy,0202H
        ARGFRAME ISTACK, 0, STACK
        ARGFRAME PSTACK, 0, STACK
        ARGFRAME XSTACK, 35, STACK
        ARGFRAME IOVERLAY, 0, STATIC
        ARGFRAME DOVERLAY, 0, STATIC
        EXTERN zdoCBFunc
        EXTERN zgApsLinkKeyType
        EXTERN zgApsTrustCenterAddr
        EXTERN zgDeviceLogicalType
        EXTERN zgPreConfigKeys
        EXTERN zgSecurePermitJoin
        EXTERN zgUseDefaultTCLK

// E:\Sensordinges\Z-Stack Mesh 1.0.0\Z-Stack Mesh 1.0.0\Components\stack\zdo\ZDSecMgr.c
//    1 /******************************************************************************
//    2   Filename:       ZDSecMgr.c
//    3   Revised:        $Date: 2014-06-05 11:25:00 -0700 (Thu, 05 Jun 2014) $
//    4   Revision:       $Revision: 38833 $
//    5 
//    6   Description:    The ZigBee Device Security Manager.
//    7 
//    8 
//    9   Copyright 2005-2014 Texas Instruments Incorporated. All rights reserved.
//   10 
//   11   IMPORTANT: Your use of this Software is limited to those specific rights
//   12   granted under the terms of a software license agreement between the user
//   13   who downloaded the software, his/her employer (which must be your employer)
//   14   and Texas Instruments Incorporated (the "License"). You may not use this
//   15   Software unless you agree to abide by the terms of the License. The License
//   16   limits your use, and you acknowledge, that the Software may not be modified,
//   17   copied or distributed unless embedded on a Texas Instruments microcontroller
//   18   or used solely and exclusively in conjunction with a Texas Instruments radio
//   19   frequency transceiver, which is integrated into your product. Other than for
//   20   the foregoing purpose, you may not use, reproduce, copy, prepare derivative
//   21   works of, modify, distribute, perform, display or sell this Software and/or
//   22   its documentation for any purpose.
//   23 
//   24   YOU FURTHER ACKNOWLEDGE AND AGREE THAT THE SOFTWARE AND DOCUMENTATION ARE
//   25   PROVIDED "AS IS" WITHOUT WARRANTY OF ANY KIND, EITHER EXPRESS OR IMPLIED,
//   26   INCLUDING WITHOUT LIMITATION, ANY WARRANTY OF MERCHANTABILITY, TITLE,
//   27   NON-INFRINGEMENT AND FITNESS FOR A PARTICULAR PURPOSE. IN NO EVENT SHALL
//   28   TEXAS INSTRUMENTS OR ITS LICENSORS BE LIABLE OR OBLIGATED UNDER CONTRACT,
//   29   NEGLIGENCE, STRICT LIABILITY, CONTRIBUTION, BREACH OF WARRANTY, OR OTHER
//   30   LEGAL EQUITABLE THEORY ANY DIRECT OR INDIRECT DAMAGES OR EXPENSES
//   31   INCLUDING BUT NOT LIMITED TO ANY INCIDENTAL, SPECIAL, INDIRECT, PUNITIVE
//   32   OR CONSEQUENTIAL DAMAGES, LOST PROFITS OR LOST DATA, COST OF PROCUREMENT
//   33   OF SUBSTITUTE GOODS, TECHNOLOGY, SERVICES, OR ANY CLAIMS BY THIRD PARTIES
//   34   (INCLUDING BUT NOT LIMITED TO ANY DEFENSE THEREOF), OR OTHER SIMILAR COSTS.
//   35 
//   36   Should you have any questions regarding your right to use this Software,
//   37   contact Texas Instruments Incorporated at www.TI.com.
//   38 ******************************************************************************/
//   39 
//   40 #ifdef __cplusplus
//   41 extern "C"
//   42 {
//   43 #endif
//   44 
//   45 /******************************************************************************
//   46  * INCLUDES
//   47  */
//   48 #include "ZComDef.h"
//   49 #include "OSAL.h"
//   50 #include "OSAL_Nv.h"
//   51 #include "ZGlobals.h"
//   52 #include "ssp.h"
//   53 #include "nwk_globals.h"
//   54 #include "nwk.h"
//   55 #include "NLMEDE.h"
//   56 #include "AddrMgr.h"
//   57 #include "AssocList.h"
//   58 #include "APSMEDE.h"
//   59 #include "ZDConfig.h"
//   60 #include "ZDSecMgr.h"
//   61 
//   62 /******************************************************************************
//   63  * CONSTANTS
//   64  */
//   65 // maximum number of devices managed by this Security Manager
//   66 #if !defined ( ZDSECMGR_DEVICE_MAX )
//   67   #define ZDSECMGR_DEVICE_MAX 3
//   68 #endif
//   69 
//   70 // maximum number of LINK keys this device may store
//   71 #define ZDSECMGR_ENTRY_MAX ZDSECMGR_DEVICE_MAX
//   72 
//   73 // total number of stored devices
//   74 #if !defined ( ZDSECMGR_STORED_DEVICES )
//   75   #define ZDSECMGR_STORED_DEVICES 3
//   76 #endif
//   77 
//   78 // Total number of preconfigured trust center link key
//   79 #if !defined ( ZDSECMGR_TC_DEVICE_MAX )
//   80   #define ZDSECMGR_TC_DEVICE_MAX 1
//   81 #endif
//   82 
//   83 #if ( ZDSECMGR_TC_DEVICE_MAX < 1 ) || ( ZDSECMGR_TC_DEVICE_MAX > 255 )
//   84   #error "ZDSECMGR_TC_DEVICE_MAX shall be between 1 and 255 !"
//   85 #endif
//   86 
//   87 // APSME Stub Implementations
//   88 #define ZDSecMgrLinkKeySet     APSME_LinkKeySet
//   89 #define ZDSecMgrLinkKeyNVIdGet APSME_LinkKeyNVIdGet
//   90 #define ZDSecMgrKeyFwdToChild  APSME_KeyFwdToChild
//   91 #define ZDSecMgrIsLinkKeyValid APSME_IsLinkKeyValid
//   92 
//   93 /******************************************************************************
//   94  * TYPEDEFS
//   95  */
//   96 typedef struct
//   97 {
//   98   uint16            ami;
//   99   uint16            keyNvId;   // index to the Link Key table in NV
//  100   ZDSecMgr_Authentication_Option authenticateOption;
//  101 } ZDSecMgrEntry_t;
//  102 
//  103 typedef struct
//  104 {
//  105   uint16          nwkAddr;
//  106   uint8*          extAddr;
//  107   uint16          parentAddr;
//  108   uint8           secure;
//  109   uint8           devStatus;
//  110 } ZDSecMgrDevice_t;
//  111 
//  112 /******************************************************************************
//  113  * EXTERNAL VARIABLES
//  114  */
//  115 extern pfnZdoCb zdoCBFunc[MAX_ZDO_CB_FUNC];
//  116 
//  117 /******************************************************************************
//  118  * LOCAL VARIABLES
//  119  */
//  120 #if 0 // Taken out because the following functionality is only used for test
//  121       // purpose. A more efficient (above) way is used. It can be put
//  122       // back in if customers request for a white/black list feature.
//  123 uint8 ZDSecMgrStoredDeviceList[ZDSECMGR_STORED_DEVICES][Z_EXTADDR_LEN] =
//  124 {
//  125   { 0x01, 0x00, 0x00, 0x00, 0x00, 0x00, 0x00, 0x00 },
//  126   { 0x00, 0x00, 0x00, 0x00, 0x00, 0x00, 0x00, 0x01 },
//  127   { 0x00, 0x00, 0x00, 0x00, 0x00, 0x00, 0x00, 0x00 },
//  128 };
//  129 #endif
//  130 

        RSEG XDATA_Z:XDATA:NOROOT(0)
        DATA8
//  131 uint8 ZDSecMgrTCExtAddr[Z_EXTADDR_LEN]=
ZDSecMgrTCExtAddr:
        DS 8
        REQUIRE __INIT_XDATA_Z
//  132   { 0x00, 0x00, 0x00, 0x00, 0x00, 0x00, 0x00, 0x00 };
//  133 

        RSEG XDATA_Z:XDATA:NOROOT(0)
        DATA8
//  134 uint8 ZDSecMgrTCAuthenticated = FALSE;
ZDSecMgrTCAuthenticated:
        DS 1
        REQUIRE __INIT_XDATA_Z
//  135 

        RSEG XDATA_Z:XDATA:NOROOT(0)
        DATA16
//  136 ZDSecMgrEntry_t* ZDSecMgrEntries  = NULL;
ZDSecMgrEntries:
        DS 2
        REQUIRE __INIT_XDATA_Z
//  137 
//  138 void ZDSecMgrAddrMgrCB( uint8 update, AddrMgrEntry_t* newEntry, AddrMgrEntry_t* oldEntry );
//  139 

        RSEG XDATA_Z:XDATA:NOROOT(0)
        DATA8
//  140 uint8 ZDSecMgrPermitJoiningEnabled;
ZDSecMgrPermitJoiningEnabled:
        DS 1
        REQUIRE __INIT_XDATA_Z

        RSEG XDATA_Z:XDATA:NOROOT(0)
        DATA8
//  141 uint8 ZDSecMgrPermitJoiningTimed;
ZDSecMgrPermitJoiningTimed:
        DS 1
        REQUIRE __INIT_XDATA_Z
//  142 

        RSEG XDATA_Z:XDATA:NOROOT(0)
        DATA8
//  143 APSME_TCLinkKey_t TrustCenterLinkKey;
TrustCenterLinkKey:
        DS 32
        REQUIRE __INIT_XDATA_Z
//  144 

        RSEG XDATA_Z:XDATA:NOROOT(0)
        DATA8
//  145 APSME_ApsLinkKeyFrmCntr_t ApsLinkKeyFrmCntr[ZDSECMGR_ENTRY_MAX];
ApsLinkKeyFrmCntr:
        DS 27
        REQUIRE __INIT_XDATA_Z

        RSEG XDATA_Z:XDATA:NOROOT(0)
        DATA8
//  146 APSME_TCLinkKeyFrmCntr_t TCLinkKeyFrmCntr[ZDSECMGR_TC_DEVICE_MAX];
TCLinkKeyFrmCntr:
        DS 9
        REQUIRE __INIT_XDATA_Z
//  147 
//  148 /******************************************************************************
//  149  * PRIVATE FUNCTIONS
//  150  *
//  151  *   ZDSecMgrAddrStore
//  152  *   ZDSecMgrExtAddrStore
//  153  *   ZDSecMgrExtAddrLookup
//  154  *   ZDSecMgrEntryInit
//  155  *   ZDSecMgrEntryLookup
//  156  *   ZDSecMgrEntryLookupAMI
//  157  *   ZDSecMgrEntryLookupExt
//  158  *   ZDSecMgrEntryLookupExtGetIndex
//  159  *   ZDSecMgrEntryFree
//  160  *   ZDSecMgrEntryNew
//  161  *   ZDSecMgrAppKeyGet
//  162  *   ZDSecMgrAppKeyReq
//  163  *   ZDSecMgrSendNwkKey
//  164  *   ZDSecMgrDeviceRemove
//  165  *   ZDSecMgrDeviceValidateRM
//  166  *   ZDSecMgrDeviceValidate
//  167  *   ZDSecMgrDeviceJoin
//  168  *   ZDSecMgrDeviceJoinDirect
//  169  *   ZDSecMgrDeviceJoinFwd
//  170  *   ZDSecMgrDeviceNew
//  171  *   ZDSecMgrAssocDeviceAuth
//  172  *   ZDSecMgrAuthNwkKey
//  173  *   APSME_TCLinkKeyInit
//  174  *   APSME_IsDefaultTCLK
//  175  */
//  176 
//  177 //-----------------------------------------------------------------------------
//  178 // address management
//  179 //-----------------------------------------------------------------------------
//  180 ZStatus_t ZDSecMgrAddrStore( uint16 nwkAddr, uint8* extAddr, uint16* ami );
//  181 ZStatus_t ZDSecMgrExtAddrStore( uint16 nwkAddr, uint8* extAddr, uint16* ami );
//  182 ZStatus_t ZDSecMgrExtAddrLookup( uint8* extAddr, uint16* ami );
//  183 
//  184 //-----------------------------------------------------------------------------
//  185 // Trust Center management
//  186 //-----------------------------------------------------------------------------
//  187 uint8 ZDSecMgrTCExtAddrCheck( uint8* extAddr );
//  188 void ZDSecMgrTCDataLoad( uint8* extAddr );
//  189 
//  190 //-----------------------------------------------------------------------------
//  191 // entry data
//  192 //-----------------------------------------------------------------------------
//  193 void ZDSecMgrEntryInit(uint8 state);
//  194 ZStatus_t ZDSecMgrEntryLookup( uint16 nwkAddr, ZDSecMgrEntry_t** entry );
//  195 ZStatus_t ZDSecMgrEntryLookupAMI( uint16 ami, ZDSecMgrEntry_t** entry );
//  196 ZStatus_t ZDSecMgrEntryLookupExt( uint8* extAddr, ZDSecMgrEntry_t** entry );
//  197 ZStatus_t ZDSecMgrEntryLookupExtGetIndex( uint8* extAddr, ZDSecMgrEntry_t** entry, uint16* entryIndex );
//  198 ZStatus_t ZDSecMgrEntryLookupAMIGetIndex( uint16 ami, uint16* entryIndex );
//  199 void ZDSecMgrEntryFree( ZDSecMgrEntry_t* entry );
//  200 ZStatus_t ZDSecMgrEntryNew( ZDSecMgrEntry_t** entry );
//  201 ZStatus_t ZDSecMgrAuthenticationSet( uint8* extAddr, ZDSecMgr_Authentication_Option option );
//  202 void ZDSecMgrApsLinkKeyInit(void);
//  203 #if defined ( NV_RESTORE )
//  204 static void ZDSecMgrWriteNV(void);
//  205 static void ZDSecMgrRestoreFromNV(void);
//  206 static void ZDSecMgrUpdateNV( uint16 index );
//  207 #endif
//  208 
//  209 //-----------------------------------------------------------------------------
//  210 // key support
//  211 //-----------------------------------------------------------------------------
//  212 ZStatus_t ZDSecMgrAppKeyGet( uint16  initNwkAddr,
//  213                              uint8*  initExtAddr,
//  214                              uint16  partNwkAddr,
//  215                              uint8*  partExtAddr,
//  216                              uint8** key,
//  217                              uint8*  keyType );
//  218 void ZDSecMgrAppKeyReq( ZDO_RequestKeyInd_t* ind );
//  219 ZStatus_t ZDSecMgrSendNwkKey( ZDSecMgrDevice_t* device );
//  220 void ZDSecMgrNwkKeyInit(uint8 setDefault);
//  221 
//  222 //-----------------------------------------------------------------------------
//  223 // device management
//  224 //-----------------------------------------------------------------------------
//  225 void ZDSecMgrDeviceRemove( ZDSecMgrDevice_t* device );
//  226 ZStatus_t ZDSecMgrDeviceValidateRM( ZDSecMgrDevice_t* device );
//  227 ZStatus_t ZDSecMgrDeviceValidate( ZDSecMgrDevice_t* device );
//  228 ZStatus_t ZDSecMgrDeviceJoin( ZDSecMgrDevice_t* device );
//  229 ZStatus_t ZDSecMgrDeviceJoinDirect( ZDSecMgrDevice_t* device );
//  230 ZStatus_t ZDSecMgrDeviceJoinFwd( ZDSecMgrDevice_t* device );
//  231 ZStatus_t ZDSecMgrDeviceNew( ZDSecMgrDevice_t* device );
//  232 
//  233 //-----------------------------------------------------------------------------
//  234 // association management
//  235 //-----------------------------------------------------------------------------
//  236 void ZDSecMgrAssocDeviceAuth( associated_devices_t* assoc );
//  237 
//  238 //-----------------------------------------------------------------------------
//  239 // authentication management
//  240 //-----------------------------------------------------------------------------
//  241 void ZDSecMgrAuthNwkKey( void );
//  242 
//  243 //-----------------------------------------------------------------------------
//  244 // APSME function
//  245 //-----------------------------------------------------------------------------
//  246 void APSME_TCLinkKeyInit( uint8 setDefault );
//  247 uint8 APSME_IsDefaultTCLK( uint8 *extAddr );
//  248 
//  249 /******************************************************************************
//  250  * @fn          ZDSecMgrAddrStore
//  251  *
//  252  * @brief       Store device addresses.
//  253  *
//  254  * @param       nwkAddr - [in] NWK address
//  255  * @param       extAddr - [in] EXT address
//  256  * @param       ami     - [out] Address Manager index
//  257  *
//  258  * @return      ZStatus_t
//  259  */

        RSEG BANKED_CODE:CODE:NOROOT(0)
//  260 ZStatus_t ZDSecMgrAddrStore( uint16 nwkAddr, uint8* extAddr, uint16* ami )
ZDSecMgrAddrStore:
          CFI Block cfiBlock0 Using cfiCommon0
          CFI Function ZDSecMgrAddrStore
        CODE
//  261 {
        FUNCALL ZDSecMgrAddrStore, AddrMgrExtAddrSet
        LOCFRAME ISTACK, 0, STACK
        LOCFRAME PSTACK, 0, STACK
        LOCFRAME XSTACK, 22, STACK
        LOCFRAME IOVERLAY, 0, STATIC
        LOCFRAME DOVERLAY, 0, STATIC
        ARGFRAME ISTACK, 0, STACK
        ARGFRAME PSTACK, 0, STACK
        ARGFRAME XSTACK, 22, STACK
        ARGFRAME IOVERLAY, 0, STATIC
        ARGFRAME DOVERLAY, 0, STATIC
        FUNCALL ZDSecMgrAddrStore, AddrMgrEntryUpdate
        LOCFRAME ISTACK, 0, STACK
        LOCFRAME PSTACK, 0, STACK
        LOCFRAME XSTACK, 22, STACK
        LOCFRAME IOVERLAY, 0, STATIC
        LOCFRAME DOVERLAY, 0, STATIC
        ARGFRAME ISTACK, 0, STACK
        ARGFRAME PSTACK, 0, STACK
        ARGFRAME XSTACK, 22, STACK
        ARGFRAME IOVERLAY, 0, STATIC
        ARGFRAME DOVERLAY, 0, STATIC
        MOV     A,#-0x9
        LCALL   ?BANKED_ENTER_XDATA
          CFI DPH0 load(1, XDATA, add(CFA_XSP16, literal(-1)))
          CFI DPL0 load(1, XDATA, add(CFA_XSP16, literal(-2)))
          CFI ?BRET_EXT load(1, XDATA, add(CFA_XSP16, literal(-3)))
          CFI ?RET_HIGH load(1, XDATA, add(CFA_XSP16, literal(-4)))
          CFI ?RET_LOW load(1, XDATA, add(CFA_XSP16, literal(-5)))
          CFI R7 load(1, XDATA, add(CFA_XSP16, literal(-6)))
          CFI V0 load(1, XDATA, add(CFA_XSP16, literal(-7)))
          CFI VB load(1, XDATA, add(CFA_XSP16, literal(-8)))
          CFI R6 load(1, XDATA, add(CFA_XSP16, literal(-9)))
          CFI CFA_SP SP+0
          CFI CFA_XSP16 add(XSP16, 9)
        ; Saved register size: 9
        ; Auto size: 13
        MOV     A,#-0xd
        LCALL   ?ALLOC_XSTACK8
          CFI CFA_XSP16 add(XSP16, 22)
//  262   ZStatus_t      status;
//  263   AddrMgrEntry_t entry;
//  264 
//  265 
//  266   // add entry
//  267   entry.user    = ADDRMGR_USER_SECURITY;
        MOV     DPL,?XSP + 0
        MOV     DPH,?XSP + 1
        MOV     A,#0x2
        MOVX    @DPTR,A
//  268   entry.nwkAddr = nwkAddr;
        DEC     A
        LCALL   ?XSTACK_DISP0_8
        LCALL   ?Subroutine18 & 0xFFFF
//  269   AddrMgrExtAddrSet( entry.extAddr, extAddr );
??CrossCallReturnLabel_4:
        LCALL   ?XSTACK_DISP0_8
        MOV     R2,DPL
        MOV     R3,DPH
        LCALL   `??AddrMgrExtAddrSet::?relay`; Banked call to: AddrMgrExtAddrSet
        MOV     A,#0x16
        LCALL   ?XSTACK_DISP0_8
        LCALL   ?Subroutine29 & 0xFFFF
//  270 
//  271   if ( AddrMgrEntryUpdate( &entry ) == TRUE )
??CrossCallReturnLabel_26:
        LCALL   `??AddrMgrEntryUpdate::?relay`; Banked call to: AddrMgrEntryUpdate
        MOV     A,R1
        XRL     A,#0x1
        JNZ     ??ZDSecMgrAddrStore_0
//  272   {
//  273     // return successful results
//  274     *ami   = entry.index;
        MOV     A,#0xb
        LCALL   ?XSTACK_DISP0_8
        LCALL   ?Subroutine15 & 0xFFFF
//  275     status = ZSuccess;
//  276   }
??CrossCallReturnLabel_78:
        SJMP    ??CrossCallReturnLabel_10
//  277   else
//  278   {
//  279     // return failed results
//  280     *ami   = entry.index;
??ZDSecMgrAddrStore_0:
        MOV     A,#0xb
        LCALL   ?XSTACK_DISP0_8
        LCALL   ?Subroutine21 & 0xFFFF
//  281     status = ZNwkUnknownDevice;
//  282   }
//  283 
//  284   return status;
??CrossCallReturnLabel_10:
        LJMP    ??Subroutine61_0 & 0xFFFF
//  285 }
          CFI EndBlock cfiBlock0

        RSEG BANKED_CODE:CODE:NOROOT(0)
?Subroutine15:
          CFI Block cfiCond1 Using cfiCommon0
          CFI Function ZDSecMgrAddrStore
          CFI Conditional ??CrossCallReturnLabel_78
          CFI R6 load(1, XDATA, add(CFA_XSP16, literal(-9)))
          CFI VB load(1, XDATA, add(CFA_XSP16, literal(-8)))
          CFI V0 load(1, XDATA, add(CFA_XSP16, literal(-7)))
          CFI R7 load(1, XDATA, add(CFA_XSP16, literal(-6)))
          CFI ?RET_LOW load(1, XDATA, add(CFA_XSP16, literal(-5)))
          CFI ?RET_HIGH load(1, XDATA, add(CFA_XSP16, literal(-4)))
          CFI ?BRET_EXT load(1, XDATA, add(CFA_XSP16, literal(-3)))
          CFI DPL0 load(1, XDATA, add(CFA_XSP16, literal(-2)))
          CFI DPH0 load(1, XDATA, add(CFA_XSP16, literal(-1)))
          CFI CFA_SP SP+-2
          CFI CFA_XSP16 add(XSP16, 22)
          CFI Block cfiCond2 Using cfiCommon0
          CFI (cfiCond2) Function ZDSecMgrExtAddrStore
          CFI (cfiCond2) Conditional ??CrossCallReturnLabel_79
          CFI (cfiCond2) R6 load(1, XDATA, add(CFA_XSP16, literal(-9)))
          CFI (cfiCond2) VB load(1, XDATA, add(CFA_XSP16, literal(-8)))
          CFI (cfiCond2) V0 load(1, XDATA, add(CFA_XSP16, literal(-7)))
          CFI (cfiCond2) R7 load(1, XDATA, add(CFA_XSP16, literal(-6)))
          CFI (cfiCond2) ?RET_LOW load(1, XDATA, add(CFA_XSP16, literal(-5)))
          CFI (cfiCond2) ?RET_HIGH load(1, XDATA, add(CFA_XSP16, literal(-4)))
          CFI (cfiCond2) ?BRET_EXT load(1, XDATA, add(CFA_XSP16, literal(-3)))
          CFI (cfiCond2) DPL0 load(1, XDATA, add(CFA_XSP16, literal(-2)))
          CFI (cfiCond2) DPH0 load(1, XDATA, add(CFA_XSP16, literal(-1)))
          CFI (cfiCond2) CFA_SP SP+-2
          CFI (cfiCond2) CFA_XSP16 add(XSP16, 22)
          CFI Block cfiCond3 Using cfiCommon0
          CFI (cfiCond3) Function ZDSecMgrExtAddrLookup
          CFI (cfiCond3) Conditional ??CrossCallReturnLabel_80
          CFI (cfiCond3) R6 load(1, XDATA, add(CFA_XSP16, literal(-9)))
          CFI (cfiCond3) VB load(1, XDATA, add(CFA_XSP16, literal(-8)))
          CFI (cfiCond3) V0 load(1, XDATA, add(CFA_XSP16, literal(-7)))
          CFI (cfiCond3) R7 load(1, XDATA, add(CFA_XSP16, literal(-6)))
          CFI (cfiCond3) ?RET_LOW load(1, XDATA, add(CFA_XSP16, literal(-5)))
          CFI (cfiCond3) ?RET_HIGH load(1, XDATA, add(CFA_XSP16, literal(-4)))
          CFI (cfiCond3) ?BRET_EXT load(1, XDATA, add(CFA_XSP16, literal(-3)))
          CFI (cfiCond3) DPL0 load(1, XDATA, add(CFA_XSP16, literal(-2)))
          CFI (cfiCond3) DPH0 load(1, XDATA, add(CFA_XSP16, literal(-1)))
          CFI (cfiCond3) CFA_SP SP+-2
          CFI (cfiCond3) CFA_XSP16 add(XSP16, 22)
          CFI Block cfiPicker4 Using cfiCommon1
          CFI (cfiPicker4) NoFunction
          CFI (cfiPicker4) Picker
        MOVX    A,@DPTR
        MOV     R0,A
        INC     DPTR
        MOVX    A,@DPTR
          CFI EndBlock cfiCond1
          CFI EndBlock cfiCond2
          CFI EndBlock cfiCond3
          CFI EndBlock cfiPicker4
        REQUIRE ??Subroutine48_0
        ; // Fall through to label ??Subroutine48_0

        RSEG BANKED_CODE:CODE:NOROOT(0)
??Subroutine48_0:
          CFI Block cfiCond5 Using cfiCommon0
          CFI Function ZDSecMgrEntryLookup
          CFI Conditional ??CrossCallReturnLabel_81
          CFI R6 load(1, XDATA, add(CFA_XSP16, literal(-9)))
          CFI VB load(1, XDATA, add(CFA_XSP16, literal(-8)))
          CFI V0 load(1, XDATA, add(CFA_XSP16, literal(-7)))
          CFI R7 load(1, XDATA, add(CFA_XSP16, literal(-6)))
          CFI ?RET_LOW load(1, XDATA, add(CFA_XSP16, literal(-5)))
          CFI ?RET_HIGH load(1, XDATA, add(CFA_XSP16, literal(-4)))
          CFI ?BRET_EXT load(1, XDATA, add(CFA_XSP16, literal(-3)))
          CFI DPL0 load(1, XDATA, add(CFA_XSP16, literal(-2)))
          CFI DPH0 load(1, XDATA, add(CFA_XSP16, literal(-1)))
          CFI CFA_SP SP+-2
          CFI CFA_XSP16 add(XSP16, 22)
          CFI Block cfiCond6 Using cfiCommon0
          CFI (cfiCond6) Function ZDSecMgrAddrStore
          CFI (cfiCond6) Conditional ??CrossCallReturnLabel_78
          CFI (cfiCond6) R6 load(1, XDATA, add(CFA_XSP16, literal(-9)))
          CFI (cfiCond6) VB load(1, XDATA, add(CFA_XSP16, literal(-8)))
          CFI (cfiCond6) V0 load(1, XDATA, add(CFA_XSP16, literal(-7)))
          CFI (cfiCond6) R7 load(1, XDATA, add(CFA_XSP16, literal(-6)))
          CFI (cfiCond6) ?RET_LOW load(1, XDATA, add(CFA_XSP16, literal(-5)))
          CFI (cfiCond6) ?RET_HIGH load(1, XDATA, add(CFA_XSP16, literal(-4)))
          CFI (cfiCond6) ?BRET_EXT load(1, XDATA, add(CFA_XSP16, literal(-3)))
          CFI (cfiCond6) DPL0 load(1, XDATA, add(CFA_XSP16, literal(-2)))
          CFI (cfiCond6) DPH0 load(1, XDATA, add(CFA_XSP16, literal(-1)))
          CFI (cfiCond6) CFA_SP SP+-2
          CFI (cfiCond6) CFA_XSP16 add(XSP16, 22)
          CFI Block cfiCond7 Using cfiCommon0
          CFI (cfiCond7) Function ZDSecMgrExtAddrStore
          CFI (cfiCond7) Conditional ??CrossCallReturnLabel_79
          CFI (cfiCond7) R6 load(1, XDATA, add(CFA_XSP16, literal(-9)))
          CFI (cfiCond7) VB load(1, XDATA, add(CFA_XSP16, literal(-8)))
          CFI (cfiCond7) V0 load(1, XDATA, add(CFA_XSP16, literal(-7)))
          CFI (cfiCond7) R7 load(1, XDATA, add(CFA_XSP16, literal(-6)))
          CFI (cfiCond7) ?RET_LOW load(1, XDATA, add(CFA_XSP16, literal(-5)))
          CFI (cfiCond7) ?RET_HIGH load(1, XDATA, add(CFA_XSP16, literal(-4)))
          CFI (cfiCond7) ?BRET_EXT load(1, XDATA, add(CFA_XSP16, literal(-3)))
          CFI (cfiCond7) DPL0 load(1, XDATA, add(CFA_XSP16, literal(-2)))
          CFI (cfiCond7) DPH0 load(1, XDATA, add(CFA_XSP16, literal(-1)))
          CFI (cfiCond7) CFA_SP SP+-2
          CFI (cfiCond7) CFA_XSP16 add(XSP16, 22)
          CFI Block cfiCond8 Using cfiCommon0
          CFI (cfiCond8) Function ZDSecMgrExtAddrLookup
          CFI (cfiCond8) Conditional ??CrossCallReturnLabel_80
          CFI (cfiCond8) R6 load(1, XDATA, add(CFA_XSP16, literal(-9)))
          CFI (cfiCond8) VB load(1, XDATA, add(CFA_XSP16, literal(-8)))
          CFI (cfiCond8) V0 load(1, XDATA, add(CFA_XSP16, literal(-7)))
          CFI (cfiCond8) R7 load(1, XDATA, add(CFA_XSP16, literal(-6)))
          CFI (cfiCond8) ?RET_LOW load(1, XDATA, add(CFA_XSP16, literal(-5)))
          CFI (cfiCond8) ?RET_HIGH load(1, XDATA, add(CFA_XSP16, literal(-4)))
          CFI (cfiCond8) ?BRET_EXT load(1, XDATA, add(CFA_XSP16, literal(-3)))
          CFI (cfiCond8) DPL0 load(1, XDATA, add(CFA_XSP16, literal(-2)))
          CFI (cfiCond8) DPH0 load(1, XDATA, add(CFA_XSP16, literal(-1)))
          CFI (cfiCond8) CFA_SP SP+-2
          CFI (cfiCond8) CFA_XSP16 add(XSP16, 22)
          CFI Block cfiPicker9 Using cfiCommon1
          CFI (cfiPicker9) NoFunction
          CFI (cfiPicker9) Picker
        MOV     R1,A
        MOV     DPL,R6
        MOV     DPH,R7
          CFI EndBlock cfiCond5
          CFI EndBlock cfiCond6
          CFI EndBlock cfiCond7
          CFI EndBlock cfiCond8
          CFI EndBlock cfiPicker9
        REQUIRE ??Subroutine49_0
        ; // Fall through to label ??Subroutine49_0

        RSEG BANKED_CODE:CODE:NOROOT(0)
??Subroutine49_0:
          CFI Block cfiCond10 Using cfiCommon0
          CFI Function ZDSecMgrEntryLookupAMI
          CFI Conditional ??CrossCallReturnLabel_82
          CFI R6 load(1, XDATA, add(CFA_XSP16, literal(-9)))
          CFI VB load(1, XDATA, add(CFA_XSP16, literal(-8)))
          CFI V0 load(1, XDATA, add(CFA_XSP16, literal(-7)))
          CFI R7 load(1, XDATA, add(CFA_XSP16, literal(-6)))
          CFI ?RET_LOW load(1, XDATA, add(CFA_XSP16, literal(-5)))
          CFI ?RET_HIGH load(1, XDATA, add(CFA_XSP16, literal(-4)))
          CFI ?BRET_EXT load(1, XDATA, add(CFA_XSP16, literal(-3)))
          CFI DPL0 load(1, XDATA, add(CFA_XSP16, literal(-2)))
          CFI DPH0 load(1, XDATA, add(CFA_XSP16, literal(-1)))
          CFI CFA_SP SP+-2
          CFI CFA_XSP16 add(XSP16, 9)
          CFI Block cfiCond11 Using cfiCommon0
          CFI (cfiCond11) Function ZDSecMgrEntryLookupExtGetIndex
          CFI (cfiCond11) Conditional ??CrossCallReturnLabel_83
          CFI (cfiCond11) R6 load(1, XDATA, add(CFA_XSP16, literal(-9)))
          CFI (cfiCond11) VB load(1, XDATA, add(CFA_XSP16, literal(-8)))
          CFI (cfiCond11) V0 load(1, XDATA, add(CFA_XSP16, literal(-7)))
          CFI (cfiCond11) R7 load(1, XDATA, add(CFA_XSP16, literal(-6)))
          CFI (cfiCond11) ?RET_LOW load(1, XDATA, add(CFA_XSP16, literal(-5)))
          CFI (cfiCond11) ?RET_HIGH load(1, XDATA, add(CFA_XSP16, literal(-4)))
          CFI (cfiCond11) ?BRET_EXT load(1, XDATA, add(CFA_XSP16, literal(-3)))
          CFI (cfiCond11) DPL0 load(1, XDATA, add(CFA_XSP16, literal(-2)))
          CFI (cfiCond11) DPH0 load(1, XDATA, add(CFA_XSP16, literal(-1)))
          CFI (cfiCond11) CFA_SP SP+-2
          CFI (cfiCond11) CFA_XSP16 add(XSP16, 22)
          CFI Block cfiCond12 Using cfiCommon0
          CFI (cfiCond12) Function ZDSecMgrEntryLookup
          CFI (cfiCond12) Conditional ??CrossCallReturnLabel_81
          CFI (cfiCond12) R6 load(1, XDATA, add(CFA_XSP16, literal(-9)))
          CFI (cfiCond12) VB load(1, XDATA, add(CFA_XSP16, literal(-8)))
          CFI (cfiCond12) V0 load(1, XDATA, add(CFA_XSP16, literal(-7)))
          CFI (cfiCond12) R7 load(1, XDATA, add(CFA_XSP16, literal(-6)))
          CFI (cfiCond12) ?RET_LOW load(1, XDATA, add(CFA_XSP16, literal(-5)))
          CFI (cfiCond12) ?RET_HIGH load(1, XDATA, add(CFA_XSP16, literal(-4)))
          CFI (cfiCond12) ?BRET_EXT load(1, XDATA, add(CFA_XSP16, literal(-3)))
          CFI (cfiCond12) DPL0 load(1, XDATA, add(CFA_XSP16, literal(-2)))
          CFI (cfiCond12) DPH0 load(1, XDATA, add(CFA_XSP16, literal(-1)))
          CFI (cfiCond12) CFA_SP SP+-2
          CFI (cfiCond12) CFA_XSP16 add(XSP16, 22)
          CFI Block cfiCond13 Using cfiCommon0
          CFI (cfiCond13) Function ZDSecMgrAddrStore
          CFI (cfiCond13) Conditional ??CrossCallReturnLabel_78
          CFI (cfiCond13) R6 load(1, XDATA, add(CFA_XSP16, literal(-9)))
          CFI (cfiCond13) VB load(1, XDATA, add(CFA_XSP16, literal(-8)))
          CFI (cfiCond13) V0 load(1, XDATA, add(CFA_XSP16, literal(-7)))
          CFI (cfiCond13) R7 load(1, XDATA, add(CFA_XSP16, literal(-6)))
          CFI (cfiCond13) ?RET_LOW load(1, XDATA, add(CFA_XSP16, literal(-5)))
          CFI (cfiCond13) ?RET_HIGH load(1, XDATA, add(CFA_XSP16, literal(-4)))
          CFI (cfiCond13) ?BRET_EXT load(1, XDATA, add(CFA_XSP16, literal(-3)))
          CFI (cfiCond13) DPL0 load(1, XDATA, add(CFA_XSP16, literal(-2)))
          CFI (cfiCond13) DPH0 load(1, XDATA, add(CFA_XSP16, literal(-1)))
          CFI (cfiCond13) CFA_SP SP+-2
          CFI (cfiCond13) CFA_XSP16 add(XSP16, 22)
          CFI Block cfiCond14 Using cfiCommon0
          CFI (cfiCond14) Function ZDSecMgrExtAddrStore
          CFI (cfiCond14) Conditional ??CrossCallReturnLabel_79
          CFI (cfiCond14) R6 load(1, XDATA, add(CFA_XSP16, literal(-9)))
          CFI (cfiCond14) VB load(1, XDATA, add(CFA_XSP16, literal(-8)))
          CFI (cfiCond14) V0 load(1, XDATA, add(CFA_XSP16, literal(-7)))
          CFI (cfiCond14) R7 load(1, XDATA, add(CFA_XSP16, literal(-6)))
          CFI (cfiCond14) ?RET_LOW load(1, XDATA, add(CFA_XSP16, literal(-5)))
          CFI (cfiCond14) ?RET_HIGH load(1, XDATA, add(CFA_XSP16, literal(-4)))
          CFI (cfiCond14) ?BRET_EXT load(1, XDATA, add(CFA_XSP16, literal(-3)))
          CFI (cfiCond14) DPL0 load(1, XDATA, add(CFA_XSP16, literal(-2)))
          CFI (cfiCond14) DPH0 load(1, XDATA, add(CFA_XSP16, literal(-1)))
          CFI (cfiCond14) CFA_SP SP+-2
          CFI (cfiCond14) CFA_XSP16 add(XSP16, 22)
          CFI Block cfiCond15 Using cfiCommon0
          CFI (cfiCond15) Function ZDSecMgrExtAddrLookup
          CFI (cfiCond15) Conditional ??CrossCallReturnLabel_80
          CFI (cfiCond15) R6 load(1, XDATA, add(CFA_XSP16, literal(-9)))
          CFI (cfiCond15) VB load(1, XDATA, add(CFA_XSP16, literal(-8)))
          CFI (cfiCond15) V0 load(1, XDATA, add(CFA_XSP16, literal(-7)))
          CFI (cfiCond15) R7 load(1, XDATA, add(CFA_XSP16, literal(-6)))
          CFI (cfiCond15) ?RET_LOW load(1, XDATA, add(CFA_XSP16, literal(-5)))
          CFI (cfiCond15) ?RET_HIGH load(1, XDATA, add(CFA_XSP16, literal(-4)))
          CFI (cfiCond15) ?BRET_EXT load(1, XDATA, add(CFA_XSP16, literal(-3)))
          CFI (cfiCond15) DPL0 load(1, XDATA, add(CFA_XSP16, literal(-2)))
          CFI (cfiCond15) DPH0 load(1, XDATA, add(CFA_XSP16, literal(-1)))
          CFI (cfiCond15) CFA_SP SP+-2
          CFI (cfiCond15) CFA_XSP16 add(XSP16, 22)
          CFI Block cfiPicker16 Using cfiCommon1
          CFI (cfiPicker16) NoFunction
          CFI (cfiPicker16) Picker
        MOV     A,R0
        MOVX    @DPTR,A
        INC     DPTR
        MOV     A,R1
        MOVX    @DPTR,A
        MOV     R1,#0x0
        RET
          CFI (cfiCond10) CFA_SP SP+0
          CFI (cfiCond11) CFA_SP SP+0
          CFI (cfiCond12) CFA_SP SP+0
          CFI (cfiCond13) CFA_SP SP+0
          CFI (cfiCond14) CFA_SP SP+0
          CFI (cfiCond15) CFA_SP SP+0
          CFI (cfiPicker16) CFA_SP SP+0
          CFI EndBlock cfiCond10
          CFI EndBlock cfiCond11
          CFI EndBlock cfiCond12
          CFI EndBlock cfiCond13
          CFI EndBlock cfiCond14
          CFI EndBlock cfiCond15
          CFI EndBlock cfiPicker16
//  286 
//  287 /******************************************************************************
//  288  * @fn          ZDSecMgrExtAddrStore
//  289  *
//  290  * @brief       Store EXT address.
//  291  *
//  292  * @param       extAddr - [in] EXT address
//  293  * @param       ami     - [out] Address Manager index
//  294  *
//  295  * @return      ZStatus_t
//  296  */

        RSEG BANKED_CODE:CODE:NOROOT(0)
//  297 ZStatus_t ZDSecMgrExtAddrStore( uint16 nwkAddr, uint8* extAddr, uint16* ami )
ZDSecMgrExtAddrStore:
          CFI Block cfiBlock17 Using cfiCommon0
          CFI Function ZDSecMgrExtAddrStore
        CODE
//  298 {
        FUNCALL ZDSecMgrExtAddrStore, AddrMgrExtAddrSet
        LOCFRAME ISTACK, 0, STACK
        LOCFRAME PSTACK, 0, STACK
        LOCFRAME XSTACK, 22, STACK
        LOCFRAME IOVERLAY, 0, STATIC
        LOCFRAME DOVERLAY, 0, STATIC
        ARGFRAME ISTACK, 0, STACK
        ARGFRAME PSTACK, 0, STACK
        ARGFRAME XSTACK, 22, STACK
        ARGFRAME IOVERLAY, 0, STATIC
        ARGFRAME DOVERLAY, 0, STATIC
        FUNCALL ZDSecMgrExtAddrStore, AddrMgrEntryUpdate
        LOCFRAME ISTACK, 0, STACK
        LOCFRAME PSTACK, 0, STACK
        LOCFRAME XSTACK, 22, STACK
        LOCFRAME IOVERLAY, 0, STATIC
        LOCFRAME DOVERLAY, 0, STATIC
        ARGFRAME ISTACK, 0, STACK
        ARGFRAME PSTACK, 0, STACK
        ARGFRAME XSTACK, 22, STACK
        ARGFRAME IOVERLAY, 0, STATIC
        ARGFRAME DOVERLAY, 0, STATIC
        MOV     A,#-0x9
        LCALL   ?BANKED_ENTER_XDATA
          CFI DPH0 load(1, XDATA, add(CFA_XSP16, literal(-1)))
          CFI DPL0 load(1, XDATA, add(CFA_XSP16, literal(-2)))
          CFI ?BRET_EXT load(1, XDATA, add(CFA_XSP16, literal(-3)))
          CFI ?RET_HIGH load(1, XDATA, add(CFA_XSP16, literal(-4)))
          CFI ?RET_LOW load(1, XDATA, add(CFA_XSP16, literal(-5)))
          CFI R7 load(1, XDATA, add(CFA_XSP16, literal(-6)))
          CFI V0 load(1, XDATA, add(CFA_XSP16, literal(-7)))
          CFI VB load(1, XDATA, add(CFA_XSP16, literal(-8)))
          CFI R6 load(1, XDATA, add(CFA_XSP16, literal(-9)))
          CFI CFA_SP SP+0
          CFI CFA_XSP16 add(XSP16, 9)
        ; Saved register size: 9
        ; Auto size: 13
        MOV     A,#-0xd
        LCALL   ?ALLOC_XSTACK8
          CFI CFA_XSP16 add(XSP16, 22)
//  299   ZStatus_t      status;
//  300   AddrMgrEntry_t entry;
//  301 
//  302 
//  303   // add entry
//  304   entry.user    = ADDRMGR_USER_SECURITY;
        MOV     DPL,?XSP + 0
        MOV     DPH,?XSP + 1
        MOV     A,#0x2
        MOVX    @DPTR,A
//  305   entry.nwkAddr = nwkAddr;
        DEC     A
        LCALL   ?XSTACK_DISP0_8
        LCALL   ?Subroutine18 & 0xFFFF
//  306   AddrMgrExtAddrSet( entry.extAddr, extAddr );
??CrossCallReturnLabel_5:
        LCALL   ?XSTACK_DISP0_8
        MOV     R2,DPL
        MOV     R3,DPH
        LCALL   `??AddrMgrExtAddrSet::?relay`; Banked call to: AddrMgrExtAddrSet
        MOV     A,#0x16
        LCALL   ?XSTACK_DISP0_8
        LCALL   ?Subroutine29 & 0xFFFF
//  307 
//  308   if ( AddrMgrEntryUpdate( &entry ) == TRUE )
??CrossCallReturnLabel_27:
        LCALL   `??AddrMgrEntryUpdate::?relay`; Banked call to: AddrMgrEntryUpdate
        MOV     A,R1
        XRL     A,#0x1
        JNZ     ??ZDSecMgrExtAddrStore_0
//  309   {
//  310     // return successful results
//  311     *ami   = entry.index;
        MOV     A,#0xb
        LCALL   ?XSTACK_DISP0_8
        LCALL   ?Subroutine15 & 0xFFFF
//  312     status = ZSuccess;
//  313   }
??CrossCallReturnLabel_79:
        SJMP    ??CrossCallReturnLabel_11
//  314   else
//  315   {
//  316     // return failed results
//  317     *ami   = entry.index;
??ZDSecMgrExtAddrStore_0:
        MOV     A,#0xb
        LCALL   ?XSTACK_DISP0_8
        LCALL   ?Subroutine21 & 0xFFFF
//  318     status = ZNwkUnknownDevice;
//  319   }
//  320 
//  321   return status;
??CrossCallReturnLabel_11:
        LJMP    ??Subroutine61_0 & 0xFFFF
//  322 }
          CFI EndBlock cfiBlock17

        RSEG BANKED_CODE:CODE:NOROOT(0)
?Subroutine29:
          CFI Block cfiCond18 Using cfiCommon0
          CFI Function ZDSecMgrAddrStore
          CFI Conditional ??CrossCallReturnLabel_26
          CFI R6 load(1, XDATA, add(CFA_XSP16, literal(-9)))
          CFI VB load(1, XDATA, add(CFA_XSP16, literal(-8)))
          CFI V0 load(1, XDATA, add(CFA_XSP16, literal(-7)))
          CFI R7 load(1, XDATA, add(CFA_XSP16, literal(-6)))
          CFI ?RET_LOW load(1, XDATA, add(CFA_XSP16, literal(-5)))
          CFI ?RET_HIGH load(1, XDATA, add(CFA_XSP16, literal(-4)))
          CFI ?BRET_EXT load(1, XDATA, add(CFA_XSP16, literal(-3)))
          CFI DPL0 load(1, XDATA, add(CFA_XSP16, literal(-2)))
          CFI DPH0 load(1, XDATA, add(CFA_XSP16, literal(-1)))
          CFI CFA_SP SP+-2
          CFI CFA_XSP16 add(XSP16, 22)
          CFI Block cfiCond19 Using cfiCommon0
          CFI (cfiCond19) Function ZDSecMgrExtAddrStore
          CFI (cfiCond19) Conditional ??CrossCallReturnLabel_27
          CFI (cfiCond19) R6 load(1, XDATA, add(CFA_XSP16, literal(-9)))
          CFI (cfiCond19) VB load(1, XDATA, add(CFA_XSP16, literal(-8)))
          CFI (cfiCond19) V0 load(1, XDATA, add(CFA_XSP16, literal(-7)))
          CFI (cfiCond19) R7 load(1, XDATA, add(CFA_XSP16, literal(-6)))
          CFI (cfiCond19) ?RET_LOW load(1, XDATA, add(CFA_XSP16, literal(-5)))
          CFI (cfiCond19) ?RET_HIGH load(1, XDATA, add(CFA_XSP16, literal(-4)))
          CFI (cfiCond19) ?BRET_EXT load(1, XDATA, add(CFA_XSP16, literal(-3)))
          CFI (cfiCond19) DPL0 load(1, XDATA, add(CFA_XSP16, literal(-2)))
          CFI (cfiCond19) DPH0 load(1, XDATA, add(CFA_XSP16, literal(-1)))
          CFI (cfiCond19) CFA_SP SP+-2
          CFI (cfiCond19) CFA_XSP16 add(XSP16, 22)
          CFI Block cfiPicker20 Using cfiCommon1
          CFI (cfiPicker20) NoFunction
          CFI (cfiPicker20) Picker
        LCALL   ?Subroutine46 & 0xFFFF
??CrossCallReturnLabel_130:
        MOV     A,R0
        MOV     R6,A
        MOV     A,R1
        MOV     R7,A
        ; Setup parameters for call to function AddrMgrEntryUpdate
        ; Setup parameters for call to function AddrMgrEntryUpdate
        MOV     R2,?XSP + 0
        MOV     R3,?XSP + 1
        RET
          CFI (cfiCond18) CFA_SP SP+0
          CFI (cfiCond19) CFA_SP SP+0
          CFI (cfiPicker20) CFA_SP SP+0
          CFI EndBlock cfiCond18
          CFI EndBlock cfiCond19
          CFI EndBlock cfiPicker20

        RSEG BANKED_CODE:CODE:NOROOT(0)
?Subroutine21:
          CFI Block cfiCond21 Using cfiCommon0
          CFI Function ZDSecMgrAddrStore
          CFI Conditional ??CrossCallReturnLabel_10
          CFI R6 load(1, XDATA, add(CFA_XSP16, literal(-9)))
          CFI VB load(1, XDATA, add(CFA_XSP16, literal(-8)))
          CFI V0 load(1, XDATA, add(CFA_XSP16, literal(-7)))
          CFI R7 load(1, XDATA, add(CFA_XSP16, literal(-6)))
          CFI ?RET_LOW load(1, XDATA, add(CFA_XSP16, literal(-5)))
          CFI ?RET_HIGH load(1, XDATA, add(CFA_XSP16, literal(-4)))
          CFI ?BRET_EXT load(1, XDATA, add(CFA_XSP16, literal(-3)))
          CFI DPL0 load(1, XDATA, add(CFA_XSP16, literal(-2)))
          CFI DPH0 load(1, XDATA, add(CFA_XSP16, literal(-1)))
          CFI CFA_SP SP+-2
          CFI CFA_XSP16 add(XSP16, 22)
          CFI Block cfiCond22 Using cfiCommon0
          CFI (cfiCond22) Function ZDSecMgrExtAddrStore
          CFI (cfiCond22) Conditional ??CrossCallReturnLabel_11
          CFI (cfiCond22) R6 load(1, XDATA, add(CFA_XSP16, literal(-9)))
          CFI (cfiCond22) VB load(1, XDATA, add(CFA_XSP16, literal(-8)))
          CFI (cfiCond22) V0 load(1, XDATA, add(CFA_XSP16, literal(-7)))
          CFI (cfiCond22) R7 load(1, XDATA, add(CFA_XSP16, literal(-6)))
          CFI (cfiCond22) ?RET_LOW load(1, XDATA, add(CFA_XSP16, literal(-5)))
          CFI (cfiCond22) ?RET_HIGH load(1, XDATA, add(CFA_XSP16, literal(-4)))
          CFI (cfiCond22) ?BRET_EXT load(1, XDATA, add(CFA_XSP16, literal(-3)))
          CFI (cfiCond22) DPL0 load(1, XDATA, add(CFA_XSP16, literal(-2)))
          CFI (cfiCond22) DPH0 load(1, XDATA, add(CFA_XSP16, literal(-1)))
          CFI (cfiCond22) CFA_SP SP+-2
          CFI (cfiCond22) CFA_XSP16 add(XSP16, 22)
          CFI Block cfiCond23 Using cfiCommon0
          CFI (cfiCond23) Function ZDSecMgrExtAddrLookup
          CFI (cfiCond23) Conditional ??CrossCallReturnLabel_12
          CFI (cfiCond23) R6 load(1, XDATA, add(CFA_XSP16, literal(-9)))
          CFI (cfiCond23) VB load(1, XDATA, add(CFA_XSP16, literal(-8)))
          CFI (cfiCond23) V0 load(1, XDATA, add(CFA_XSP16, literal(-7)))
          CFI (cfiCond23) R7 load(1, XDATA, add(CFA_XSP16, literal(-6)))
          CFI (cfiCond23) ?RET_LOW load(1, XDATA, add(CFA_XSP16, literal(-5)))
          CFI (cfiCond23) ?RET_HIGH load(1, XDATA, add(CFA_XSP16, literal(-4)))
          CFI (cfiCond23) ?BRET_EXT load(1, XDATA, add(CFA_XSP16, literal(-3)))
          CFI (cfiCond23) DPL0 load(1, XDATA, add(CFA_XSP16, literal(-2)))
          CFI (cfiCond23) DPH0 load(1, XDATA, add(CFA_XSP16, literal(-1)))
          CFI (cfiCond23) CFA_SP SP+-2
          CFI (cfiCond23) CFA_XSP16 add(XSP16, 22)
          CFI Block cfiPicker24 Using cfiCommon1
          CFI (cfiPicker24) NoFunction
          CFI (cfiPicker24) Picker
        LCALL   ?Subroutine46 & 0xFFFF
??CrossCallReturnLabel_128:
        MOV     DPL,R6
        MOV     DPH,R7
        MOV     A,R0
        MOVX    @DPTR,A
        INC     DPTR
        MOV     A,R1
        MOVX    @DPTR,A
        MOV     R1,#-0x38
        RET
          CFI (cfiCond21) CFA_SP SP+0
          CFI (cfiCond22) CFA_SP SP+0
          CFI (cfiCond23) CFA_SP SP+0
          CFI (cfiPicker24) CFA_SP SP+0
          CFI EndBlock cfiCond21
          CFI EndBlock cfiCond22
          CFI EndBlock cfiCond23
          CFI EndBlock cfiPicker24
//  323 
//  324 /******************************************************************************
//  325  * @fn          ZDSecMgrExtAddrLookup
//  326  *
//  327  * @brief       Lookup index for specified EXT address.
//  328  *
//  329  * @param       extAddr - [in] EXT address
//  330  * @param       ami     - [out] Address Manager index
//  331  *
//  332  * @return      ZStatus_t
//  333  */

        RSEG BANKED_CODE:CODE:NOROOT(0)
//  334 ZStatus_t ZDSecMgrExtAddrLookup( uint8* extAddr, uint16* ami )
ZDSecMgrExtAddrLookup:
          CFI Block cfiBlock25 Using cfiCommon0
          CFI Function ZDSecMgrExtAddrLookup
        CODE
//  335 {
        FUNCALL ZDSecMgrExtAddrLookup, AddrMgrExtAddrSet
        LOCFRAME ISTACK, 0, STACK
        LOCFRAME PSTACK, 0, STACK
        LOCFRAME XSTACK, 22, STACK
        LOCFRAME IOVERLAY, 0, STATIC
        LOCFRAME DOVERLAY, 0, STATIC
        ARGFRAME ISTACK, 0, STACK
        ARGFRAME PSTACK, 0, STACK
        ARGFRAME XSTACK, 22, STACK
        ARGFRAME IOVERLAY, 0, STATIC
        ARGFRAME DOVERLAY, 0, STATIC
        FUNCALL ZDSecMgrExtAddrLookup, AddrMgrEntryLookupExt
        LOCFRAME ISTACK, 0, STACK
        LOCFRAME PSTACK, 0, STACK
        LOCFRAME XSTACK, 22, STACK
        LOCFRAME IOVERLAY, 0, STATIC
        LOCFRAME DOVERLAY, 0, STATIC
        ARGFRAME ISTACK, 0, STACK
        ARGFRAME PSTACK, 0, STACK
        ARGFRAME XSTACK, 22, STACK
        ARGFRAME IOVERLAY, 0, STATIC
        ARGFRAME DOVERLAY, 0, STATIC
        MOV     A,#-0x9
        LCALL   ?BANKED_ENTER_XDATA
          CFI DPH0 load(1, XDATA, add(CFA_XSP16, literal(-1)))
          CFI DPL0 load(1, XDATA, add(CFA_XSP16, literal(-2)))
          CFI ?BRET_EXT load(1, XDATA, add(CFA_XSP16, literal(-3)))
          CFI ?RET_HIGH load(1, XDATA, add(CFA_XSP16, literal(-4)))
          CFI ?RET_LOW load(1, XDATA, add(CFA_XSP16, literal(-5)))
          CFI R7 load(1, XDATA, add(CFA_XSP16, literal(-6)))
          CFI V0 load(1, XDATA, add(CFA_XSP16, literal(-7)))
          CFI VB load(1, XDATA, add(CFA_XSP16, literal(-8)))
          CFI R6 load(1, XDATA, add(CFA_XSP16, literal(-9)))
          CFI CFA_SP SP+0
          CFI CFA_XSP16 add(XSP16, 9)
        ; Saved register size: 9
        ; Auto size: 13
        MOV     A,#-0xd
        LCALL   ?ALLOC_XSTACK8
          CFI CFA_XSP16 add(XSP16, 22)
        LCALL   ?Subroutine12 & 0xFFFF
//  336   ZStatus_t      status;
//  337   AddrMgrEntry_t entry;
//  338 
//  339 
//  340   // lookup entry
//  341   entry.user = ADDRMGR_USER_SECURITY;
//  342   AddrMgrExtAddrSet( entry.extAddr, extAddr );
??CrossCallReturnLabel_152:
        LCALL   ?XSTACK_DISP0_8
        MOV     R2,DPL
        MOV     R3,DPH
        LCALL   `??AddrMgrExtAddrSet::?relay`; Banked call to: AddrMgrExtAddrSet
//  343 
//  344   if ( AddrMgrEntryLookupExt( &entry ) == TRUE )
        ; Setup parameters for call to function AddrMgrEntryLookupExt
        MOV     R2,?XSP + 0
        MOV     R3,?XSP + 1
        LCALL   `??AddrMgrEntryLookupExt::?relay`; Banked call to: AddrMgrEntryLookupExt
        MOV     A,R1
        XRL     A,#0x1
        JNZ     ??ZDSecMgrExtAddrLookup_0
//  345   {
//  346     // return successful results
//  347     *ami   = entry.index;
        MOV     A,#0xb
        LCALL   ?XSTACK_DISP0_8
        LCALL   ?Subroutine15 & 0xFFFF
//  348     status = ZSuccess;
//  349   }
??CrossCallReturnLabel_80:
        SJMP    ??CrossCallReturnLabel_12
//  350   else
//  351   {
//  352     // return failed results
//  353     *ami   = entry.index;
??ZDSecMgrExtAddrLookup_0:
        MOV     A,#0xb
        LCALL   ?XSTACK_DISP0_8
        LCALL   ?Subroutine21 & 0xFFFF
//  354     status = ZNwkUnknownDevice;
//  355   }
//  356 
//  357   return status;
??CrossCallReturnLabel_12:
        LJMP    ??Subroutine61_0 & 0xFFFF
//  358 }
          CFI EndBlock cfiBlock25
//  359 
//  360 /******************************************************************************
//  361  * @fn          ZDSecMgrAddrClear
//  362  *
//  363  * @brief       Clear security bit from Address Manager for specific device.
//  364  *
//  365  * @param       extAddr - [in] EXT address
//  366  *
//  367  * @return      ZStatus_t
//  368  */

        RSEG BANKED_CODE:CODE:NOROOT(0)
//  369 ZStatus_t ZDSecMgrAddrClear( uint8* extAddr )
ZDSecMgrAddrClear:
          CFI Block cfiBlock26 Using cfiCommon0
          CFI Function ZDSecMgrAddrClear
        CODE
//  370 {
        FUNCALL ZDSecMgrAddrClear, AddrMgrExtAddrSet
        LOCFRAME ISTACK, 0, STACK
        LOCFRAME PSTACK, 0, STACK
        LOCFRAME XSTACK, 35, STACK
        LOCFRAME IOVERLAY, 0, STATIC
        LOCFRAME DOVERLAY, 0, STATIC
        ARGFRAME ISTACK, 0, STACK
        ARGFRAME PSTACK, 0, STACK
        ARGFRAME XSTACK, 35, STACK
        ARGFRAME IOVERLAY, 0, STATIC
        ARGFRAME DOVERLAY, 0, STATIC
        FUNCALL ZDSecMgrAddrClear, AddrMgrEntryLookupExt
        LOCFRAME ISTACK, 0, STACK
        LOCFRAME PSTACK, 0, STACK
        LOCFRAME XSTACK, 35, STACK
        LOCFRAME IOVERLAY, 0, STATIC
        LOCFRAME DOVERLAY, 0, STATIC
        ARGFRAME ISTACK, 0, STACK
        ARGFRAME PSTACK, 0, STACK
        ARGFRAME XSTACK, 35, STACK
        ARGFRAME IOVERLAY, 0, STATIC
        ARGFRAME DOVERLAY, 0, STATIC
        FUNCALL ZDSecMgrAddrClear, AddrMgrEntryRelease
        LOCFRAME ISTACK, 0, STACK
        LOCFRAME PSTACK, 0, STACK
        LOCFRAME XSTACK, 35, STACK
        LOCFRAME IOVERLAY, 0, STATIC
        LOCFRAME DOVERLAY, 0, STATIC
        ARGFRAME ISTACK, 0, STACK
        ARGFRAME PSTACK, 0, STACK
        ARGFRAME XSTACK, 35, STACK
        ARGFRAME IOVERLAY, 0, STATIC
        ARGFRAME DOVERLAY, 0, STATIC
        MOV     A,#-0x9
        LCALL   ?BANKED_ENTER_XDATA
          CFI DPH0 load(1, XDATA, add(CFA_XSP16, literal(-1)))
          CFI DPL0 load(1, XDATA, add(CFA_XSP16, literal(-2)))
          CFI ?BRET_EXT load(1, XDATA, add(CFA_XSP16, literal(-3)))
          CFI ?RET_HIGH load(1, XDATA, add(CFA_XSP16, literal(-4)))
          CFI ?RET_LOW load(1, XDATA, add(CFA_XSP16, literal(-5)))
          CFI R7 load(1, XDATA, add(CFA_XSP16, literal(-6)))
          CFI V0 load(1, XDATA, add(CFA_XSP16, literal(-7)))
          CFI VB load(1, XDATA, add(CFA_XSP16, literal(-8)))
          CFI R6 load(1, XDATA, add(CFA_XSP16, literal(-9)))
          CFI CFA_SP SP+0
          CFI CFA_XSP16 add(XSP16, 9)
        ; Saved register size: 9
        ; Auto size: 26
        MOV     A,#-0x1a
        LCALL   ?ALLOC_XSTACK8
          CFI CFA_XSP16 add(XSP16, 35)
//  371   ZStatus_t status;
//  372   uint16 entryAmi;
//  373 
//  374   // get Address Manager Index
//  375   status = ZDSecMgrExtAddrLookup( extAddr, &entryAmi );
        LCALL   ??Subroutine70_0 & 0xFFFF
??CrossCallReturnLabel_155:
        LCALL   ?XSTACK_DISP0_8
        MOV     R2,DPL
        MOV     R3,DPH
        LCALL   `??AddrMgrExtAddrSet::?relay`; Banked call to: AddrMgrExtAddrSet
        ; Setup parameters for call to function AddrMgrEntryLookupExt
        MOV     R2,?XSP + 0
        MOV     R3,?XSP + 1
        LCALL   `??AddrMgrEntryLookupExt::?relay`; Banked call to: AddrMgrEntryLookupExt
        MOV     A,R1
        XRL     A,#0x1
        JNZ     ??ZDSecMgrAddrClear_0
        MOV     R6,#0x0
//  376 
//  377   if ( status == ZSuccess )
//  378   {
//  379     AddrMgrEntry_t addrEntry;
//  380 
//  381     // Clear SECURITY User bit from the address manager
//  382     addrEntry.user = ADDRMGR_USER_SECURITY;
        MOV     A,#0xd
        LCALL   ?XSTACK_DISP0_8
        MOV     A,#0x2
        MOVX    @DPTR,A
//  383     addrEntry.index = entryAmi;
        MOV     A,#0xb
        LCALL   ?XSTACK_DISP0_8
        LCALL   ??Subroutine60_0 & 0xFFFF
??CrossCallReturnLabel_118:
        MOV     A,#0x18
        LCALL   ?XSTACK_DISP0_8
        LCALL   ??Subroutine54_0 & 0xFFFF
//  384 
//  385     if ( AddrMgrEntryRelease( &addrEntry ) != TRUE )
??CrossCallReturnLabel_93:
        ; Setup parameters for call to function AddrMgrEntryRelease
        MOV     A,#0xd
        LCALL   ?XSTACK_DISP101_8
        LCALL   `??AddrMgrEntryRelease::?relay`; Banked call to: AddrMgrEntryRelease
        MOV     A,R1
        XRL     A,#0x1
        JZ      ??ZDSecMgrAddrClear_1
//  386     {
//  387       // return failure results
//  388       status = ZFailure;
        MOV     R6,#0x1
//  389     }
//  390   }
//  391 
//  392   return status;
??ZDSecMgrAddrClear_1:
        MOV     A,R6
        MOV     R1,A
        LJMP    ?Subroutine5 & 0xFFFF
??ZDSecMgrAddrClear_0:
        MOV     R6,#-0x38
        SJMP    ??ZDSecMgrAddrClear_1
//  393 }
          CFI EndBlock cfiBlock26
//  394 
//  395 /******************************************************************************
//  396  * @fn          ZDSecMgrEntryInit
//  397  *
//  398  * @brief       Initialize entry sub module
//  399  *
//  400  * @param       state - device initialization state
//  401  *
//  402  * @return      none
//  403  */

        RSEG BANKED_CODE:CODE:NOROOT(0)
//  404 void ZDSecMgrEntryInit(uint8 state)
ZDSecMgrEntryInit:
          CFI Block cfiBlock27 Using cfiCommon0
          CFI Function ZDSecMgrEntryInit
        CODE
//  405 {
        FUNCALL ZDSecMgrEntryInit, osal_mem_alloc
        LOCFRAME ISTACK, 2, STACK
        LOCFRAME PSTACK, 0, STACK
        LOCFRAME XSTACK, 0, STACK
        LOCFRAME IOVERLAY, 0, STATIC
        LOCFRAME DOVERLAY, 0, STATIC
        ARGFRAME ISTACK, 2, STACK
        ARGFRAME PSTACK, 0, STACK
        ARGFRAME XSTACK, 0, STACK
        ARGFRAME IOVERLAY, 0, STATIC
        ARGFRAME DOVERLAY, 0, STATIC
        PUSH    DPL
          CFI DPL0 Frame(CFA_SP, 4)
          CFI CFA_SP SP+-4
        PUSH    DPH
          CFI DPH0 Frame(CFA_SP, 5)
          CFI CFA_SP SP+-5
        ; Saved register size: 2
        ; Auto size: 0
//  406   if (ZDSecMgrEntries == NULL)
        LCALL   ?Subroutine26 & 0xFFFF
??CrossCallReturnLabel_163:
        JNZ     ??ZDSecMgrEntryInit_0
//  407   {
//  408     uint16 index;
//  409 
//  410     if ((ZDSecMgrEntries = osal_mem_alloc(sizeof(ZDSecMgrEntry_t) * ZDSECMGR_ENTRY_MAX)) == NULL)
        ; Setup parameters for call to function osal_mem_alloc
        MOV     R2,#0xf
        MOV     R3,#0x0
        LCALL   `??osal_mem_alloc::?relay`; Banked call to: osal_mem_alloc
        MOV     DPTR,#ZDSecMgrEntries
        MOV     A,R2
        MOVX    @DPTR,A
        INC     DPTR
        MOV     A,R3
        LCALL   ??Subroutine51_0 & 0xFFFF
??CrossCallReturnLabel_87:
        JZ      ??ZDSecMgrEntryInit_0
//  411     {
//  412       return;
//  413     }
//  414 
//  415     for (index = 0; index < ZDSECMGR_ENTRY_MAX; index++)
        MOV     A,R0
        ADD     A,#0xf
        MOV     R2,A
        CLR     A
        ADDC    A,R1
        MOV     R3,A
//  416     {
//  417       ZDSecMgrEntries[index].ami = INVALID_NODE_ADDR;
??ZDSecMgrEntryInit_1:
        MOV     DPL,R0
        MOV     DPH,R1
        MOV     A,#-0x2
        MOVX    @DPTR,A
        INC     DPTR
        INC     A
        LCALL   ??Subroutine52_0 & 0xFFFF
//  418 
//  419       ZDSecMgrEntries[index].keyNvId = SEC_NO_KEY_NV_ID;
//  420     }
??CrossCallReturnLabel_91:
        INC     DPTR
        INC     DPTR
        CLR     A
        MOVX    @DPTR,A
        INC     DPTR
        MOVX    @DPTR,A
        MOV     A,R0
        ADD     A,#0x5
        MOV     R0,A
        JNC     ??ZDSecMgrEntryInit_2
        INC     R1
??ZDSecMgrEntryInit_2:
        MOV     A,R2
        XRL     A,R0
        JNZ     ??ZDSecMgrEntryInit_3
        MOV     A,R3
        XRL     A,R1
??ZDSecMgrEntryInit_3:
        JNZ     ??ZDSecMgrEntryInit_1
//  421   }
//  422 
//  423 #if defined NV_RESTORE
//  424   if (state == ZDO_INITDEV_RESTORED_NETWORK_STATE)
//  425   {
//  426     ZDSecMgrRestoreFromNV();
//  427   }
//  428 #else
//  429   (void)state;
//  430 #endif
//  431 }
??ZDSecMgrEntryInit_0:
        LJMP    ??Subroutine58_0 & 0xFFFF
          CFI EndBlock cfiBlock27
//  432 
//  433 /******************************************************************************
//  434  * @fn          ZDSecMgrEntryLookup
//  435  *
//  436  * @brief       Lookup entry index using specified NWK address.
//  437  *
//  438  * @param       nwkAddr - [in] NWK address
//  439  * @param       entry   - [out] valid entry
//  440  *
//  441  * @return      ZStatus_t
//  442  */

        RSEG BANKED_CODE:CODE:NOROOT(0)
//  443 ZStatus_t ZDSecMgrEntryLookup( uint16 nwkAddr, ZDSecMgrEntry_t** entry )
ZDSecMgrEntryLookup:
          CFI Block cfiBlock28 Using cfiCommon0
          CFI Function ZDSecMgrEntryLookup
        CODE
//  444 {
        FUNCALL ZDSecMgrEntryLookup, AddrMgrEntryLookupNwk
        LOCFRAME ISTACK, 0, STACK
        LOCFRAME PSTACK, 0, STACK
        LOCFRAME XSTACK, 22, STACK
        LOCFRAME IOVERLAY, 0, STATIC
        LOCFRAME DOVERLAY, 0, STATIC
        ARGFRAME ISTACK, 0, STACK
        ARGFRAME PSTACK, 0, STACK
        ARGFRAME XSTACK, 22, STACK
        ARGFRAME IOVERLAY, 0, STATIC
        ARGFRAME DOVERLAY, 0, STATIC
        REQUIRE ?V0
        MOV     A,#-0x9
        LCALL   ?BANKED_ENTER_XDATA
          CFI DPH0 load(1, XDATA, add(CFA_XSP16, literal(-1)))
          CFI DPL0 load(1, XDATA, add(CFA_XSP16, literal(-2)))
          CFI ?BRET_EXT load(1, XDATA, add(CFA_XSP16, literal(-3)))
          CFI ?RET_HIGH load(1, XDATA, add(CFA_XSP16, literal(-4)))
          CFI ?RET_LOW load(1, XDATA, add(CFA_XSP16, literal(-5)))
          CFI R7 load(1, XDATA, add(CFA_XSP16, literal(-6)))
          CFI V0 load(1, XDATA, add(CFA_XSP16, literal(-7)))
          CFI VB load(1, XDATA, add(CFA_XSP16, literal(-8)))
          CFI R6 load(1, XDATA, add(CFA_XSP16, literal(-9)))
          CFI CFA_SP SP+0
          CFI CFA_XSP16 add(XSP16, 9)
        ; Saved register size: 9
        ; Auto size: 13
        MOV     A,#-0xd
        LCALL   ?ALLOC_XSTACK8
          CFI CFA_XSP16 add(XSP16, 22)
        MOV     A,R4
        MOV     R6,A
        MOV     A,R5
        MOV     R7,A
//  445   uint16         index;
//  446   AddrMgrEntry_t addrMgrEntry;
//  447 
//  448   // initialize results
//  449   *entry = NULL;
        LCALL   ?Subroutine11 & 0xFFFF
//  450 
//  451   // verify data is available
//  452   if ( ZDSecMgrEntries != NULL )
??CrossCallReturnLabel_84:
        JZ      ??ZDSecMgrEntryLookup_0
//  453   {
//  454     addrMgrEntry.user    = ADDRMGR_USER_SECURITY;
        MOV     DPL,?XSP + 0
        MOV     DPH,?XSP + 1
        MOV     A,#0x2
        MOVX    @DPTR,A
//  455     addrMgrEntry.nwkAddr = nwkAddr;
        DEC     A
        LCALL   ?XSTACK_DISP0_8
        LCALL   ?Subroutine14 & 0xFFFF
//  456 
//  457     if ( AddrMgrEntryLookupNwk( &addrMgrEntry ) == TRUE )
??CrossCallReturnLabel_133:
        LCALL   `??AddrMgrEntryLookupNwk::?relay`; Banked call to: AddrMgrEntryLookupNwk
        MOV     A,R1
        XRL     A,#0x1
        JNZ     ??ZDSecMgrEntryLookup_0
//  458     {
//  459       for ( index = 0; index < ZDSECMGR_ENTRY_MAX ; index++ )
        LCALL   ?Subroutine25 & 0xFFFF
??CrossCallReturnLabel_182:
        MOV     A,#0xb
        LCALL   ?XSTACK_DISP0_8
        LCALL   ?Subroutine34 & 0xFFFF
//  460       {
//  461         if ( addrMgrEntry.index == ZDSecMgrEntries[index].ami )
??CrossCallReturnLabel_36:
        MOV     DPL,R2
        MOV     DPH,R3
        MOVX    A,@DPTR
        XRL     A,R4
        JNZ     ??ZDSecMgrEntryLookup_1
        INC     DPTR
        MOVX    A,@DPTR
        XRL     A,R5
??ZDSecMgrEntryLookup_1:
        JNZ     ??ZDSecMgrEntryLookup_2
//  462         {
//  463           // return successful results
//  464           *entry = &ZDSecMgrEntries[index];
        LCALL   ?Subroutine47 & 0xFFFF
//  465 
//  466           // break from loop
//  467           return ZSuccess;
//  468         }
//  469       }
??CrossCallReturnLabel_76:
        LCALL   ??Subroutine48_0 & 0xFFFF
??CrossCallReturnLabel_81:
        SJMP    ??ZDSecMgrEntryLookup_3
??ZDSecMgrEntryLookup_2:
        INC     R0
        MOV     A,R0
        JNZ     ??ZDSecMgrEntryLookup_4
        INC     R1
??ZDSecMgrEntryLookup_4:
        MOV     A,R2
        ADD     A,#0x5
        MOV     R2,A
        JNC     ??ZDSecMgrEntryLookup_5
        INC     R3
??ZDSecMgrEntryLookup_5:
        LCALL   ?Subroutine37 & 0xFFFF
//  470     }
//  471   }
??CrossCallReturnLabel_44:
        JC      ??CrossCallReturnLabel_36
//  472 
//  473   return ZNwkUnknownDevice;
??ZDSecMgrEntryLookup_0:
        MOV     R1,#-0x38
??ZDSecMgrEntryLookup_3:
        LJMP    ??Subroutine61_0 & 0xFFFF
//  474 }
          CFI EndBlock cfiBlock28
//  475 
//  476 /******************************************************************************
//  477  * @fn          ZDSecMgrEntryLookupAMI
//  478  *
//  479  * @brief       Lookup entry using specified address index
//  480  *
//  481  * @param       ami   - [in] Address Manager index
//  482  * @param       entry - [out] valid entry
//  483  *
//  484  * @return      ZStatus_t
//  485  */

        RSEG BANKED_CODE:CODE:NOROOT(0)
//  486 ZStatus_t ZDSecMgrEntryLookupAMI( uint16 ami, ZDSecMgrEntry_t** entry )
ZDSecMgrEntryLookupAMI:
          CFI Block cfiBlock29 Using cfiCommon0
          CFI Function ZDSecMgrEntryLookupAMI
        CODE
//  487 {
        REQUIRE ?V0
        MOV     A,#-0x9
        LCALL   ?BANKED_ENTER_XDATA
          CFI DPH0 load(1, XDATA, add(CFA_XSP16, literal(-1)))
          CFI DPL0 load(1, XDATA, add(CFA_XSP16, literal(-2)))
          CFI ?BRET_EXT load(1, XDATA, add(CFA_XSP16, literal(-3)))
          CFI ?RET_HIGH load(1, XDATA, add(CFA_XSP16, literal(-4)))
          CFI ?RET_LOW load(1, XDATA, add(CFA_XSP16, literal(-5)))
          CFI R7 load(1, XDATA, add(CFA_XSP16, literal(-6)))
          CFI V0 load(1, XDATA, add(CFA_XSP16, literal(-7)))
          CFI VB load(1, XDATA, add(CFA_XSP16, literal(-8)))
          CFI R6 load(1, XDATA, add(CFA_XSP16, literal(-9)))
          CFI CFA_SP SP+0
          CFI CFA_XSP16 add(XSP16, 9)
        ; Saved register size: 9
        ; Auto size: 0
        MOV     A,R2
        MOV     R6,A
        MOV     A,R3
        MOV     R7,A
//  488   uint16 index;
//  489 
//  490   // initialize results
//  491   *entry = NULL;
        MOV     DPL,R4
        MOV     DPH,R5
        LCALL   ??Subroutine50_0 & 0xFFFF
//  492 
//  493   // verify data is available
//  494   if ( ZDSecMgrEntries != NULL )
??CrossCallReturnLabel_85:
        JZ      ??ZDSecMgrEntryLookupAMI_0
//  495   {
//  496     for ( index = 0; index < ZDSECMGR_ENTRY_MAX ; index++ )
        LCALL   ?Subroutine25 & 0xFFFF
//  497     {
//  498       if ( ZDSecMgrEntries[index].ami == ami )
??CrossCallReturnLabel_183:
        MOV     DPL,R2
        MOV     DPH,R3
        MOVX    A,@DPTR
        XRL     A,R6
        JNZ     ??ZDSecMgrEntryLookupAMI_1
        INC     DPTR
        MOVX    A,@DPTR
        XRL     A,R7
??ZDSecMgrEntryLookupAMI_1:
        JNZ     ??ZDSecMgrEntryLookupAMI_2
//  499       {
//  500         // return successful results
//  501         *entry = &ZDSecMgrEntries[index];
        LCALL   ?Subroutine27 & 0xFFFF
//  502 
//  503         // break from loop
//  504         return ZSuccess;
//  505       }
//  506     }
??CrossCallReturnLabel_20:
        MOV     DPL,R4
        MOV     DPH,R5
        LCALL   ??Subroutine49_0 & 0xFFFF
??CrossCallReturnLabel_82:
        SJMP    ??ZDSecMgrEntryLookupAMI_3
??ZDSecMgrEntryLookupAMI_2:
        INC     R0
        MOV     A,R0
        JNZ     ??ZDSecMgrEntryLookupAMI_4
        INC     R1
??ZDSecMgrEntryLookupAMI_4:
        MOV     A,R2
        ADD     A,#0x5
        MOV     R2,A
        JNC     ??ZDSecMgrEntryLookupAMI_5
        INC     R3
??ZDSecMgrEntryLookupAMI_5:
        LCALL   ?Subroutine37 & 0xFFFF
//  507   }
??CrossCallReturnLabel_45:
        JC      ??CrossCallReturnLabel_183
//  508 
//  509   return ZNwkUnknownDevice;
??ZDSecMgrEntryLookupAMI_0:
        MOV     R1,#-0x38
??ZDSecMgrEntryLookupAMI_3:
        LJMP    ??Subroutine63_0 & 0xFFFF
//  510 }
          CFI EndBlock cfiBlock29
//  511 
//  512 /******************************************************************************
//  513  * @fn          ZDSecMgrEntryLookupExt
//  514  *
//  515  * @brief       Lookup entry index using specified EXT address.
//  516  *
//  517  * @param       extAddr - [in] EXT address
//  518  * @param       entry   - [out] valid entry
//  519  *
//  520  * @return      ZStatus_t
//  521  */

        RSEG BANKED_CODE:CODE:NOROOT(0)
//  522 ZStatus_t ZDSecMgrEntryLookupExt( uint8* extAddr, ZDSecMgrEntry_t** entry )
ZDSecMgrEntryLookupExt:
          CFI Block cfiBlock30 Using cfiCommon0
          CFI Function ZDSecMgrEntryLookupExt
        CODE
//  523 {
        FUNCALL ZDSecMgrEntryLookupExt, AddrMgrExtAddrSet
        LOCFRAME ISTACK, 0, STACK
        LOCFRAME PSTACK, 0, STACK
        LOCFRAME XSTACK, 23, STACK
        LOCFRAME IOVERLAY, 0, STATIC
        LOCFRAME DOVERLAY, 0, STATIC
        ARGFRAME ISTACK, 0, STACK
        ARGFRAME PSTACK, 0, STACK
        ARGFRAME XSTACK, 23, STACK
        ARGFRAME IOVERLAY, 0, STATIC
        ARGFRAME DOVERLAY, 0, STATIC
        FUNCALL ZDSecMgrEntryLookupExt, AddrMgrEntryLookupExt
        LOCFRAME ISTACK, 0, STACK
        LOCFRAME PSTACK, 0, STACK
        LOCFRAME XSTACK, 23, STACK
        LOCFRAME IOVERLAY, 0, STATIC
        LOCFRAME DOVERLAY, 0, STATIC
        ARGFRAME ISTACK, 0, STACK
        ARGFRAME PSTACK, 0, STACK
        ARGFRAME XSTACK, 23, STACK
        ARGFRAME IOVERLAY, 0, STATIC
        ARGFRAME DOVERLAY, 0, STATIC
        REQUIRE ?V0
        REQUIRE ?V1
        MOV     A,#-0xa
        LCALL   ?BANKED_ENTER_XDATA
          CFI DPH0 load(1, XDATA, add(CFA_XSP16, literal(-1)))
          CFI DPL0 load(1, XDATA, add(CFA_XSP16, literal(-2)))
          CFI ?BRET_EXT load(1, XDATA, add(CFA_XSP16, literal(-3)))
          CFI ?RET_HIGH load(1, XDATA, add(CFA_XSP16, literal(-4)))
          CFI ?RET_LOW load(1, XDATA, add(CFA_XSP16, literal(-5)))
          CFI R7 load(1, XDATA, add(CFA_XSP16, literal(-6)))
          CFI V1 load(1, XDATA, add(CFA_XSP16, literal(-7)))
          CFI V0 load(1, XDATA, add(CFA_XSP16, literal(-8)))
          CFI VB load(1, XDATA, add(CFA_XSP16, literal(-9)))
          CFI R6 load(1, XDATA, add(CFA_XSP16, literal(-10)))
          CFI CFA_SP SP+0
          CFI CFA_XSP16 add(XSP16, 10)
        ; Saved register size: 10
        ; Auto size: 13
        MOV     A,#-0xd
        LCALL   ?ALLOC_XSTACK8
          CFI CFA_XSP16 add(XSP16, 23)
        MOV     A,R4
        MOV     R6,A
        MOV     A,R5
        MOV     R7,A
//  524   ZStatus_t status;
//  525   uint16    ami;
//  526 
//  527   // initialize results
//  528   *entry = NULL;
        MOV     DPL,R6
        MOV     DPH,R7
        CLR     A
        MOVX    @DPTR,A
        INC     DPTR
        MOVX    @DPTR,A
//  529   status = ZNwkUnknownDevice;
        MOV     ?V0,#-0x38
//  530 
//  531   // lookup address index
//  532   if ( ZDSecMgrExtAddrLookup( extAddr, &ami ) == ZSuccess )
        LCALL   ??Subroutine70_0 & 0xFFFF
??CrossCallReturnLabel_156:
        LCALL   ?XSTACK_DISP0_8
        MOV     R2,DPL
        MOV     R3,DPH
        LCALL   `??AddrMgrExtAddrSet::?relay`; Banked call to: AddrMgrExtAddrSet
        ; Setup parameters for call to function AddrMgrEntryLookupExt
        MOV     R2,?XSP + 0
        MOV     R3,?XSP + 1
        LCALL   `??AddrMgrEntryLookupExt::?relay`; Banked call to: AddrMgrEntryLookupExt
        MOV     A,R1
        XRL     A,#0x1
        JNZ     ??ZDSecMgrEntryLookupExt_0
        MOV     A,#0xb
        LCALL   ?XSTACK_DISP0_8
        LCALL   ?Subroutine34 & 0xFFFF
//  533   {
//  534     status = ZDSecMgrEntryLookupAMI( ami, entry );
??CrossCallReturnLabel_37:
        LCALL   ?Subroutine11 & 0xFFFF
//  535   }
??CrossCallReturnLabel_88:
        JZ      ??ZDSecMgrEntryLookupExt_0
        LCALL   ?Subroutine25 & 0xFFFF
??CrossCallReturnLabel_184:
        MOV     DPL,R2
        MOV     DPH,R3
        MOVX    A,@DPTR
        XRL     A,R4
        JNZ     ??ZDSecMgrEntryLookupExt_1
        INC     DPTR
        MOVX    A,@DPTR
        XRL     A,R5
??ZDSecMgrEntryLookupExt_1:
        JZ      ??ZDSecMgrEntryLookupExt_2
        INC     R0
        MOV     A,R0
        JNZ     ??ZDSecMgrEntryLookupExt_3
        INC     R1
??ZDSecMgrEntryLookupExt_3:
        MOV     A,R2
        ADD     A,#0x5
        MOV     R2,A
        JNC     ??ZDSecMgrEntryLookupExt_4
        INC     R3
??ZDSecMgrEntryLookupExt_4:
        LCALL   ?Subroutine37 & 0xFFFF
??CrossCallReturnLabel_46:
        JNC     ??ZDSecMgrEntryLookupExt_0
        SJMP    ??CrossCallReturnLabel_184
??ZDSecMgrEntryLookupExt_2:
        LCALL   ?Subroutine27 & 0xFFFF
??CrossCallReturnLabel_21:
        MOV     DPL,R6
        MOV     DPH,R7
        LCALL   ??Subroutine54_0 & 0xFFFF
??CrossCallReturnLabel_94:
        MOV     ?V0,#0x0
//  536 
//  537   return status;
??ZDSecMgrEntryLookupExt_0:
        LJMP    ?Subroutine2 & 0xFFFF
//  538 }
          CFI EndBlock cfiBlock30

        RSEG BANKED_CODE:CODE:NOROOT(0)
?Subroutine27:
          CFI Block cfiCond31 Using cfiCommon0
          CFI Function ZDSecMgrEntryLookupAMI
          CFI Conditional ??CrossCallReturnLabel_20
          CFI R6 load(1, XDATA, add(CFA_XSP16, literal(-9)))
          CFI VB load(1, XDATA, add(CFA_XSP16, literal(-8)))
          CFI V0 load(1, XDATA, add(CFA_XSP16, literal(-7)))
          CFI R7 load(1, XDATA, add(CFA_XSP16, literal(-6)))
          CFI ?RET_LOW load(1, XDATA, add(CFA_XSP16, literal(-5)))
          CFI ?RET_HIGH load(1, XDATA, add(CFA_XSP16, literal(-4)))
          CFI ?BRET_EXT load(1, XDATA, add(CFA_XSP16, literal(-3)))
          CFI DPL0 load(1, XDATA, add(CFA_XSP16, literal(-2)))
          CFI DPH0 load(1, XDATA, add(CFA_XSP16, literal(-1)))
          CFI CFA_SP SP+-2
          CFI CFA_XSP16 add(XSP16, 9)
          CFI Block cfiCond32 Using cfiCommon0
          CFI (cfiCond32) Function ZDSecMgrEntryLookupExt
          CFI (cfiCond32) Conditional ??CrossCallReturnLabel_21
          CFI (cfiCond32) R6 load(1, XDATA, add(CFA_XSP16, literal(-10)))
          CFI (cfiCond32) VB load(1, XDATA, add(CFA_XSP16, literal(-9)))
          CFI (cfiCond32) V0 load(1, XDATA, add(CFA_XSP16, literal(-8)))
          CFI (cfiCond32) V1 load(1, XDATA, add(CFA_XSP16, literal(-7)))
          CFI (cfiCond32) R7 load(1, XDATA, add(CFA_XSP16, literal(-6)))
          CFI (cfiCond32) ?RET_LOW load(1, XDATA, add(CFA_XSP16, literal(-5)))
          CFI (cfiCond32) ?RET_HIGH load(1, XDATA, add(CFA_XSP16, literal(-4)))
          CFI (cfiCond32) ?BRET_EXT load(1, XDATA, add(CFA_XSP16, literal(-3)))
          CFI (cfiCond32) DPL0 load(1, XDATA, add(CFA_XSP16, literal(-2)))
          CFI (cfiCond32) DPH0 load(1, XDATA, add(CFA_XSP16, literal(-1)))
          CFI (cfiCond32) CFA_SP SP+-2
          CFI (cfiCond32) CFA_XSP16 add(XSP16, 23)
          CFI Block cfiCond33 Using cfiCommon0
          CFI (cfiCond33) Function ZDSecMgrAddLinkKey
          CFI (cfiCond33) Conditional ??CrossCallReturnLabel_22
          CFI (cfiCond33) R6 load(1, XDATA, add(CFA_XSP16, literal(-9)))
          CFI (cfiCond33) VB load(1, XDATA, add(CFA_XSP16, literal(-8)))
          CFI (cfiCond33) V0 load(1, XDATA, add(CFA_XSP16, literal(-7)))
          CFI (cfiCond33) R7 load(1, XDATA, add(CFA_XSP16, literal(-6)))
          CFI (cfiCond33) ?RET_LOW load(1, XDATA, add(CFA_XSP16, literal(-5)))
          CFI (cfiCond33) ?RET_HIGH load(1, XDATA, add(CFA_XSP16, literal(-4)))
          CFI (cfiCond33) ?BRET_EXT load(1, XDATA, add(CFA_XSP16, literal(-3)))
          CFI (cfiCond33) DPL0 load(1, XDATA, add(CFA_XSP16, literal(-2)))
          CFI (cfiCond33) DPH0 load(1, XDATA, add(CFA_XSP16, literal(-1)))
          CFI (cfiCond33) CFA_SP SP+-2
          CFI (cfiCond33) CFA_XSP16 add(XSP16, 22)
          CFI Block cfiCond34 Using cfiCommon0
          CFI (cfiCond34) Function ZDSecMgrAddLinkKey
          CFI (cfiCond34) Conditional ??CrossCallReturnLabel_23
          CFI (cfiCond34) R6 load(1, XDATA, add(CFA_XSP16, literal(-9)))
          CFI (cfiCond34) VB load(1, XDATA, add(CFA_XSP16, literal(-8)))
          CFI (cfiCond34) V0 load(1, XDATA, add(CFA_XSP16, literal(-7)))
          CFI (cfiCond34) R7 load(1, XDATA, add(CFA_XSP16, literal(-6)))
          CFI (cfiCond34) ?RET_LOW load(1, XDATA, add(CFA_XSP16, literal(-5)))
          CFI (cfiCond34) ?RET_HIGH load(1, XDATA, add(CFA_XSP16, literal(-4)))
          CFI (cfiCond34) ?BRET_EXT load(1, XDATA, add(CFA_XSP16, literal(-3)))
          CFI (cfiCond34) DPL0 load(1, XDATA, add(CFA_XSP16, literal(-2)))
          CFI (cfiCond34) DPH0 load(1, XDATA, add(CFA_XSP16, literal(-1)))
          CFI (cfiCond34) CFA_SP SP+-2
          CFI (cfiCond34) CFA_XSP16 add(XSP16, 22)
          CFI Block cfiPicker35 Using cfiCommon1
          CFI (cfiPicker35) NoFunction
          CFI (cfiPicker35) Picker
        LCALL   ?Subroutine47 & 0xFFFF
??CrossCallReturnLabel_77:
        MOV     R1,A
        RET
          CFI (cfiCond31) CFA_SP SP+0
          CFI (cfiCond32) CFA_SP SP+0
          CFI (cfiCond33) CFA_SP SP+0
          CFI (cfiCond34) CFA_SP SP+0
          CFI (cfiPicker35) CFA_SP SP+0
          CFI EndBlock cfiCond31
          CFI EndBlock cfiCond32
          CFI EndBlock cfiCond33
          CFI EndBlock cfiCond34
          CFI EndBlock cfiPicker35

        RSEG BANKED_CODE:CODE:NOROOT(0)
?Subroutine47:
          CFI Block cfiCond36 Using cfiCommon0
          CFI Function ZDSecMgrEntryLookup
          CFI Conditional ??CrossCallReturnLabel_76
          CFI R6 load(1, XDATA, add(CFA_XSP16, literal(-9)))
          CFI VB load(1, XDATA, add(CFA_XSP16, literal(-8)))
          CFI V0 load(1, XDATA, add(CFA_XSP16, literal(-7)))
          CFI R7 load(1, XDATA, add(CFA_XSP16, literal(-6)))
          CFI ?RET_LOW load(1, XDATA, add(CFA_XSP16, literal(-5)))
          CFI ?RET_HIGH load(1, XDATA, add(CFA_XSP16, literal(-4)))
          CFI ?BRET_EXT load(1, XDATA, add(CFA_XSP16, literal(-3)))
          CFI DPL0 load(1, XDATA, add(CFA_XSP16, literal(-2)))
          CFI DPH0 load(1, XDATA, add(CFA_XSP16, literal(-1)))
          CFI CFA_SP SP+-2
          CFI CFA_XSP16 add(XSP16, 22)
          CFI Block cfiCond37 Using cfiCommon0
          CFI (cfiCond37) Function ZDSecMgrEntryLookupAMI
          CFI (cfiCond37) Conditional ??CrossCallReturnLabel_77, ??CrossCallReturnLabel_20
          CFI (cfiCond37) R6 load(1, XDATA, add(CFA_XSP16, literal(-9)))
          CFI (cfiCond37) VB load(1, XDATA, add(CFA_XSP16, literal(-8)))
          CFI (cfiCond37) V0 load(1, XDATA, add(CFA_XSP16, literal(-7)))
          CFI (cfiCond37) R7 load(1, XDATA, add(CFA_XSP16, literal(-6)))
          CFI (cfiCond37) ?RET_LOW load(1, XDATA, add(CFA_XSP16, literal(-5)))
          CFI (cfiCond37) ?RET_HIGH load(1, XDATA, add(CFA_XSP16, literal(-4)))
          CFI (cfiCond37) ?BRET_EXT load(1, XDATA, add(CFA_XSP16, literal(-3)))
          CFI (cfiCond37) DPL0 load(1, XDATA, add(CFA_XSP16, literal(-2)))
          CFI (cfiCond37) DPH0 load(1, XDATA, add(CFA_XSP16, literal(-1)))
          CFI (cfiCond37) CFA_SP SP+-4
          CFI (cfiCond37) CFA_XSP16 add(XSP16, 9)
          CFI Block cfiCond38 Using cfiCommon0
          CFI (cfiCond38) Function ZDSecMgrEntryLookupExt
          CFI (cfiCond38) Conditional ??CrossCallReturnLabel_77, ??CrossCallReturnLabel_21
          CFI (cfiCond38) R6 load(1, XDATA, add(CFA_XSP16, literal(-10)))
          CFI (cfiCond38) VB load(1, XDATA, add(CFA_XSP16, literal(-9)))
          CFI (cfiCond38) V0 load(1, XDATA, add(CFA_XSP16, literal(-8)))
          CFI (cfiCond38) V1 load(1, XDATA, add(CFA_XSP16, literal(-7)))
          CFI (cfiCond38) R7 load(1, XDATA, add(CFA_XSP16, literal(-6)))
          CFI (cfiCond38) ?RET_LOW load(1, XDATA, add(CFA_XSP16, literal(-5)))
          CFI (cfiCond38) ?RET_HIGH load(1, XDATA, add(CFA_XSP16, literal(-4)))
          CFI (cfiCond38) ?BRET_EXT load(1, XDATA, add(CFA_XSP16, literal(-3)))
          CFI (cfiCond38) DPL0 load(1, XDATA, add(CFA_XSP16, literal(-2)))
          CFI (cfiCond38) DPH0 load(1, XDATA, add(CFA_XSP16, literal(-1)))
          CFI (cfiCond38) CFA_SP SP+-4
          CFI (cfiCond38) CFA_XSP16 add(XSP16, 23)
          CFI Block cfiCond39 Using cfiCommon0
          CFI (cfiCond39) Function ZDSecMgrAddLinkKey
          CFI (cfiCond39) Conditional ??CrossCallReturnLabel_77, ??CrossCallReturnLabel_22
          CFI (cfiCond39) R6 load(1, XDATA, add(CFA_XSP16, literal(-9)))
          CFI (cfiCond39) VB load(1, XDATA, add(CFA_XSP16, literal(-8)))
          CFI (cfiCond39) V0 load(1, XDATA, add(CFA_XSP16, literal(-7)))
          CFI (cfiCond39) R7 load(1, XDATA, add(CFA_XSP16, literal(-6)))
          CFI (cfiCond39) ?RET_LOW load(1, XDATA, add(CFA_XSP16, literal(-5)))
          CFI (cfiCond39) ?RET_HIGH load(1, XDATA, add(CFA_XSP16, literal(-4)))
          CFI (cfiCond39) ?BRET_EXT load(1, XDATA, add(CFA_XSP16, literal(-3)))
          CFI (cfiCond39) DPL0 load(1, XDATA, add(CFA_XSP16, literal(-2)))
          CFI (cfiCond39) DPH0 load(1, XDATA, add(CFA_XSP16, literal(-1)))
          CFI (cfiCond39) CFA_SP SP+-4
          CFI (cfiCond39) CFA_XSP16 add(XSP16, 22)
          CFI Block cfiCond40 Using cfiCommon0
          CFI (cfiCond40) Function ZDSecMgrAddLinkKey
          CFI (cfiCond40) Conditional ??CrossCallReturnLabel_77, ??CrossCallReturnLabel_23
          CFI (cfiCond40) R6 load(1, XDATA, add(CFA_XSP16, literal(-9)))
          CFI (cfiCond40) VB load(1, XDATA, add(CFA_XSP16, literal(-8)))
          CFI (cfiCond40) V0 load(1, XDATA, add(CFA_XSP16, literal(-7)))
          CFI (cfiCond40) R7 load(1, XDATA, add(CFA_XSP16, literal(-6)))
          CFI (cfiCond40) ?RET_LOW load(1, XDATA, add(CFA_XSP16, literal(-5)))
          CFI (cfiCond40) ?RET_HIGH load(1, XDATA, add(CFA_XSP16, literal(-4)))
          CFI (cfiCond40) ?BRET_EXT load(1, XDATA, add(CFA_XSP16, literal(-3)))
          CFI (cfiCond40) DPL0 load(1, XDATA, add(CFA_XSP16, literal(-2)))
          CFI (cfiCond40) DPH0 load(1, XDATA, add(CFA_XSP16, literal(-1)))
          CFI (cfiCond40) CFA_SP SP+-4
          CFI (cfiCond40) CFA_XSP16 add(XSP16, 22)
          CFI Block cfiPicker41 Using cfiCommon1
          CFI (cfiPicker41) NoFunction
          CFI (cfiPicker41) Picker
        MOV     A,R0
        MOV     B,#0x5
        MUL     AB
        MOV     R0,A
        MOV     R2,B
        MOV     B,#0x5
        MOV     A,R1
        MUL     AB
        ADD     A,R2
        MOV     R1,A
        MOV     DPTR,#ZDSecMgrEntries
        MOVX    A,@DPTR
        ADD     A,R0
        MOV     R0,A
        INC     DPTR
        MOVX    A,@DPTR
        ADDC    A,R1
        RET
          CFI (cfiCond36) CFA_SP SP+0
          CFI (cfiCond37) CFA_SP SP+-2
          CFI (cfiCond38) CFA_SP SP+-2
          CFI (cfiCond39) CFA_SP SP+-2
          CFI (cfiCond40) CFA_SP SP+-2
          CFI (cfiPicker41) CFA_SP SP+0
          CFI EndBlock cfiCond36
          CFI EndBlock cfiCond37
          CFI EndBlock cfiCond38
          CFI EndBlock cfiCond39
          CFI EndBlock cfiCond40
          CFI EndBlock cfiPicker41
//  539 
//  540 /******************************************************************************
//  541  * @fn          ZDSecMgrEntryLookupExtGetIndex
//  542  *
//  543  * @brief       Lookup entry index using specified EXT address.
//  544  *
//  545  * @param       extAddr - [in] EXT address
//  546  * @param       entryIndex - [out] valid index to the entry table
//  547  *
//  548  * @return      ZStatus_t
//  549  */

        RSEG BANKED_CODE:CODE:NOROOT(0)
//  550 ZStatus_t ZDSecMgrEntryLookupExtGetIndex( uint8* extAddr, ZDSecMgrEntry_t** entry, uint16* entryIndex )
ZDSecMgrEntryLookupExtGetIndex:
          CFI Block cfiBlock42 Using cfiCommon0
          CFI Function ZDSecMgrEntryLookupExtGetIndex
        CODE
//  551 {
        FUNCALL ZDSecMgrEntryLookupExtGetIndex, AddrMgrExtAddrSet
        LOCFRAME ISTACK, 0, STACK
        LOCFRAME PSTACK, 0, STACK
        LOCFRAME XSTACK, 22, STACK
        LOCFRAME IOVERLAY, 0, STATIC
        LOCFRAME DOVERLAY, 0, STATIC
        ARGFRAME ISTACK, 0, STACK
        ARGFRAME PSTACK, 0, STACK
        ARGFRAME XSTACK, 22, STACK
        ARGFRAME IOVERLAY, 0, STATIC
        ARGFRAME DOVERLAY, 0, STATIC
        FUNCALL ZDSecMgrEntryLookupExtGetIndex, AddrMgrEntryLookupExt
        LOCFRAME ISTACK, 0, STACK
        LOCFRAME PSTACK, 0, STACK
        LOCFRAME XSTACK, 22, STACK
        LOCFRAME IOVERLAY, 0, STATIC
        LOCFRAME DOVERLAY, 0, STATIC
        ARGFRAME ISTACK, 0, STACK
        ARGFRAME PSTACK, 0, STACK
        ARGFRAME XSTACK, 22, STACK
        ARGFRAME IOVERLAY, 0, STATIC
        ARGFRAME DOVERLAY, 0, STATIC
        REQUIRE ?V0
        MOV     A,#-0x9
        LCALL   ?BANKED_ENTER_XDATA
          CFI DPH0 load(1, XDATA, add(CFA_XSP16, literal(-1)))
          CFI DPL0 load(1, XDATA, add(CFA_XSP16, literal(-2)))
          CFI ?BRET_EXT load(1, XDATA, add(CFA_XSP16, literal(-3)))
          CFI ?RET_HIGH load(1, XDATA, add(CFA_XSP16, literal(-4)))
          CFI ?RET_LOW load(1, XDATA, add(CFA_XSP16, literal(-5)))
          CFI R7 load(1, XDATA, add(CFA_XSP16, literal(-6)))
          CFI V0 load(1, XDATA, add(CFA_XSP16, literal(-7)))
          CFI VB load(1, XDATA, add(CFA_XSP16, literal(-8)))
          CFI R6 load(1, XDATA, add(CFA_XSP16, literal(-9)))
          CFI CFA_SP SP+0
          CFI CFA_XSP16 add(XSP16, 9)
        ; Saved register size: 9
        ; Auto size: 13
        MOV     A,#-0xd
        LCALL   ?ALLOC_XSTACK8
          CFI CFA_XSP16 add(XSP16, 22)
        LCALL   ?Subroutine12 & 0xFFFF
//  552   uint16 ami;
//  553   uint16 index;
//  554 
//  555   // lookup address index
//  556   if ( ZDSecMgrExtAddrLookup( extAddr, &ami ) == ZSuccess )
??CrossCallReturnLabel_153:
        LCALL   ?XSTACK_DISP0_8
        MOV     R2,DPL
        MOV     R3,DPH
        LCALL   `??AddrMgrExtAddrSet::?relay`; Banked call to: AddrMgrExtAddrSet
        ; Setup parameters for call to function AddrMgrEntryLookupExt
        MOV     R2,?XSP + 0
        MOV     R3,?XSP + 1
        LCALL   `??AddrMgrEntryLookupExt::?relay`; Banked call to: AddrMgrEntryLookupExt
        MOV     A,R1
        XRL     A,#0x1
        JNZ     ??ZDSecMgrEntryLookupExtGetIndex_0
        MOV     A,#0xb
        LCALL   ?XSTACK_DISP0_8
        LCALL   ?Subroutine24 & 0xFFFF
//  557   {
//  558     // verify data is available
//  559     if ( ZDSecMgrEntries != NULL )
??CrossCallReturnLabel_13:
        JZ      ??ZDSecMgrEntryLookupExtGetIndex_0
//  560     {
//  561       for ( index = 0; index < ZDSECMGR_ENTRY_MAX ; index++ )
        LCALL   ?Subroutine25 & 0xFFFF
//  562       {
//  563         if ( ZDSecMgrEntries[index].ami == ami )
??CrossCallReturnLabel_185:
        MOV     DPL,R2
        MOV     DPH,R3
        MOVX    A,@DPTR
        XRL     A,R4
        JNZ     ??ZDSecMgrEntryLookupExtGetIndex_1
        INC     DPTR
        MOVX    A,@DPTR
        XRL     A,R5
??ZDSecMgrEntryLookupExtGetIndex_1:
        JNZ     ??ZDSecMgrEntryLookupExtGetIndex_2
//  564         {
//  565           // return successful results
//  566           *entry = &ZDSecMgrEntries[index];
        LCALL   ?Subroutine38 & 0xFFFF
??CrossCallReturnLabel_57:
        MOV     DPL,R6
        MOV     DPH,R7
        MOV     A,R2
        MOVX    @DPTR,A
        INC     DPTR
        MOV     A,R3
        MOVX    @DPTR,A
//  567           *entryIndex = index;
        MOV     A,#0x16
        LCALL   ?XSTACK_DISP0_8
        MOVX    A,@DPTR
        MOV     R2,A
        INC     DPTR
        MOVX    A,@DPTR
        MOV     DPH,A
        MOV     DPL,R2
        LCALL   ??Subroutine49_0 & 0xFFFF
//  568 
//  569           // break from loop
//  570           return ZSuccess;
//  571         }
//  572       }
??CrossCallReturnLabel_83:
        SJMP    ??ZDSecMgrEntryLookupExtGetIndex_3
??ZDSecMgrEntryLookupExtGetIndex_2:
        INC     R0
        MOV     A,R0
        JNZ     ??ZDSecMgrEntryLookupExtGetIndex_4
        INC     R1
??ZDSecMgrEntryLookupExtGetIndex_4:
        MOV     A,R2
        ADD     A,#0x5
        MOV     R2,A
        JNC     ??ZDSecMgrEntryLookupExtGetIndex_5
        INC     R3
??ZDSecMgrEntryLookupExtGetIndex_5:
        LCALL   ?Subroutine37 & 0xFFFF
//  573     }
//  574   }
??CrossCallReturnLabel_47:
        JC      ??CrossCallReturnLabel_185
//  575 
//  576   return ZNwkUnknownDevice;
??ZDSecMgrEntryLookupExtGetIndex_0:
        MOV     R1,#-0x38
??ZDSecMgrEntryLookupExtGetIndex_3:
        LJMP    ??Subroutine61_0 & 0xFFFF
//  577 }
          CFI EndBlock cfiBlock42
//  578 
//  579 /******************************************************************************
//  580  * @fn          ZDSecMgrEntryLookupAMIGetIndex
//  581  *
//  582  * @brief       Lookup entry using specified address index
//  583  *
//  584  * @param       ami   - [in] Address Manager index
//  585  * @param       entryIndex - [out] valid index to the entry table
//  586  *
//  587  * @return      ZStatus_t
//  588  */

        RSEG BANKED_CODE:CODE:NOROOT(0)
//  589 ZStatus_t ZDSecMgrEntryLookupAMIGetIndex( uint16 ami, uint16* entryIndex )
ZDSecMgrEntryLookupAMIGetIndex:
          CFI Block cfiBlock43 Using cfiCommon0
          CFI Function ZDSecMgrEntryLookupAMIGetIndex
        CODE
//  590 {
        REQUIRE ?V0
        MOV     A,#-0x9
        LCALL   ?BANKED_ENTER_XDATA
          CFI DPH0 load(1, XDATA, add(CFA_XSP16, literal(-1)))
          CFI DPL0 load(1, XDATA, add(CFA_XSP16, literal(-2)))
          CFI ?BRET_EXT load(1, XDATA, add(CFA_XSP16, literal(-3)))
          CFI ?RET_HIGH load(1, XDATA, add(CFA_XSP16, literal(-4)))
          CFI ?RET_LOW load(1, XDATA, add(CFA_XSP16, literal(-5)))
          CFI R7 load(1, XDATA, add(CFA_XSP16, literal(-6)))
          CFI V0 load(1, XDATA, add(CFA_XSP16, literal(-7)))
          CFI VB load(1, XDATA, add(CFA_XSP16, literal(-8)))
          CFI R6 load(1, XDATA, add(CFA_XSP16, literal(-9)))
          CFI CFA_SP SP+0
          CFI CFA_XSP16 add(XSP16, 9)
        ; Saved register size: 9
        ; Auto size: 0
//  591   uint16 index;
//  592 
//  593   // verify data is available
//  594   if ( ZDSecMgrEntries != NULL )
        LCALL   ?Subroutine26 & 0xFFFF
??CrossCallReturnLabel_164:
        JZ      ??ZDSecMgrEntryLookupAMIGetIndex_0
//  595   {
//  596     for ( index = 0; index < ZDSECMGR_ENTRY_MAX ; index++ )
        MOV     R6,#0x0
        MOV     R7,#0x0
        MOVX    A,@DPTR
        MOV     R1,A
//  597     {
//  598       if ( ZDSecMgrEntries[index].ami == ami )
??ZDSecMgrEntryLookupAMIGetIndex_1:
        MOV     DPL,R0
        MOV     DPH,R1
        MOVX    A,@DPTR
        XRL     A,R2
        JNZ     ??ZDSecMgrEntryLookupAMIGetIndex_2
        INC     DPTR
        MOVX    A,@DPTR
        XRL     A,R3
??ZDSecMgrEntryLookupAMIGetIndex_2:
        JNZ     ??ZDSecMgrEntryLookupAMIGetIndex_3
//  599       {
//  600         // return successful results
//  601         *entryIndex = index;
        MOV     DPL,R4
        MOV     DPH,R5
        MOV     A,R6
        MOVX    @DPTR,A
        INC     DPTR
        MOV     A,R7
        MOVX    @DPTR,A
//  602 
//  603         // break from loop
//  604         return ZSuccess;
        MOV     R1,#0x0
        SJMP    ??ZDSecMgrEntryLookupAMIGetIndex_4
//  605       }
//  606     }
??ZDSecMgrEntryLookupAMIGetIndex_3:
        INC     R6
        MOV     A,R6
        JNZ     ??ZDSecMgrEntryLookupAMIGetIndex_5
        INC     R7
??ZDSecMgrEntryLookupAMIGetIndex_5:
        MOV     A,R0
        ADD     A,#0x5
        MOV     R0,A
        JNC     ??ZDSecMgrEntryLookupAMIGetIndex_6
        INC     R1
??ZDSecMgrEntryLookupAMIGetIndex_6:
        CLR     C
        MOV     A,R6
        SUBB    A,#0x3
        MOV     A,R7
        SUBB    A,#0x0
        JC      ??ZDSecMgrEntryLookupAMIGetIndex_1
//  607   }
//  608 
//  609   return ZNwkUnknownDevice;
??ZDSecMgrEntryLookupAMIGetIndex_0:
        MOV     R1,#-0x38
??ZDSecMgrEntryLookupAMIGetIndex_4:
        LJMP    ??Subroutine63_0 & 0xFFFF
//  610 }
          CFI EndBlock cfiBlock43
//  611 
//  612 /******************************************************************************
//  613  * @fn          ZDSecMgrEntryFree
//  614  *
//  615  * @brief       Free entry.
//  616  *
//  617  * @param       entry - [in] valid entry
//  618  *
//  619  * @return      ZStatus_t
//  620  */

        RSEG BANKED_CODE:CODE:NOROOT(0)
//  621 void ZDSecMgrEntryFree( ZDSecMgrEntry_t* entry )
ZDSecMgrEntryFree:
          CFI Block cfiBlock44 Using cfiCommon0
          CFI Function ZDSecMgrEntryFree
        CODE
//  622 {
        FUNCALL ZDSecMgrEntryFree, osal_mem_alloc
        LOCFRAME ISTACK, 0, STACK
        LOCFRAME PSTACK, 0, STACK
        LOCFRAME XSTACK, 14, STACK
        LOCFRAME IOVERLAY, 0, STATIC
        LOCFRAME DOVERLAY, 0, STATIC
        ARGFRAME ISTACK, 0, STACK
        ARGFRAME PSTACK, 0, STACK
        ARGFRAME XSTACK, 14, STACK
        ARGFRAME IOVERLAY, 0, STATIC
        ARGFRAME DOVERLAY, 0, STATIC
        FUNCALL ZDSecMgrEntryFree, osal_memset
        LOCFRAME ISTACK, 0, STACK
        LOCFRAME PSTACK, 0, STACK
        LOCFRAME XSTACK, 14, STACK
        LOCFRAME IOVERLAY, 0, STATIC
        LOCFRAME DOVERLAY, 0, STATIC
        ARGFRAME ISTACK, 0, STACK
        ARGFRAME PSTACK, 0, STACK
        ARGFRAME XSTACK, 14, STACK
        ARGFRAME IOVERLAY, 0, STATIC
        ARGFRAME DOVERLAY, 0, STATIC
        FUNCALL ZDSecMgrEntryFree, osal_nv_write
        LOCFRAME ISTACK, 0, STACK
        LOCFRAME PSTACK, 0, STACK
        LOCFRAME XSTACK, 18, STACK
        LOCFRAME IOVERLAY, 0, STATIC
        LOCFRAME DOVERLAY, 0, STATIC
        ARGFRAME ISTACK, 0, STACK
        ARGFRAME PSTACK, 0, STACK
        ARGFRAME XSTACK, 18, STACK
        ARGFRAME IOVERLAY, 0, STATIC
        ARGFRAME DOVERLAY, 0, STATIC
        FUNCALL ZDSecMgrEntryFree, osal_mem_free
        LOCFRAME ISTACK, 0, STACK
        LOCFRAME PSTACK, 0, STACK
        LOCFRAME XSTACK, 14, STACK
        LOCFRAME IOVERLAY, 0, STATIC
        LOCFRAME DOVERLAY, 0, STATIC
        ARGFRAME ISTACK, 0, STACK
        ARGFRAME PSTACK, 0, STACK
        ARGFRAME XSTACK, 14, STACK
        ARGFRAME IOVERLAY, 0, STATIC
        ARGFRAME DOVERLAY, 0, STATIC
        REQUIRE ?V0
        REQUIRE ?V1
        REQUIRE ?V2
        REQUIRE ?V3
        REQUIRE ?V4
        REQUIRE ?V5
        MOV     A,#-0xe
        LCALL   ?BANKED_ENTER_XDATA
          CFI DPH0 load(1, XDATA, add(CFA_XSP16, literal(-1)))
          CFI DPL0 load(1, XDATA, add(CFA_XSP16, literal(-2)))
          CFI ?BRET_EXT load(1, XDATA, add(CFA_XSP16, literal(-3)))
          CFI ?RET_HIGH load(1, XDATA, add(CFA_XSP16, literal(-4)))
          CFI ?RET_LOW load(1, XDATA, add(CFA_XSP16, literal(-5)))
          CFI R7 load(1, XDATA, add(CFA_XSP16, literal(-6)))
          CFI V5 load(1, XDATA, add(CFA_XSP16, literal(-7)))
          CFI V4 load(1, XDATA, add(CFA_XSP16, literal(-8)))
          CFI V3 load(1, XDATA, add(CFA_XSP16, literal(-9)))
          CFI V2 load(1, XDATA, add(CFA_XSP16, literal(-10)))
          CFI V1 load(1, XDATA, add(CFA_XSP16, literal(-11)))
          CFI V0 load(1, XDATA, add(CFA_XSP16, literal(-12)))
          CFI VB load(1, XDATA, add(CFA_XSP16, literal(-13)))
          CFI R6 load(1, XDATA, add(CFA_XSP16, literal(-14)))
          CFI CFA_SP SP+0
          CFI CFA_XSP16 add(XSP16, 14)
        ; Saved register size: 14
        ; Auto size: 0
        MOV     A,R2
        MOV     R6,A
        MOV     A,R3
        MOV     R7,A
//  623   APSME_LinkKeyData_t   *pApsLinkKey = NULL;
//  624 
//  625 #if defined ( NV_RESTORE )
//  626   ZStatus_t status;
//  627   uint16 entryIndex;
//  628 
//  629   status = ZDSecMgrEntryLookupAMIGetIndex( entry->ami, &entryIndex );
//  630 #endif
//  631 
//  632   pApsLinkKey = (APSME_LinkKeyData_t *)osal_mem_alloc(sizeof(APSME_LinkKeyData_t));
        ; Setup parameters for call to function osal_mem_alloc
        MOV     R2,#0x18
        MOV     R3,#0x0
        LCALL   `??osal_mem_alloc::?relay`; Banked call to: osal_mem_alloc
        MOV     ?V2,R2
        MOV     ?V3,R3
//  633 
//  634   if (pApsLinkKey != NULL)
        MOV     A,R2
        ORL     A,?V3
        JZ      ??ZDSecMgrEntryFree_0
//  635   {
//  636     osal_memset( pApsLinkKey, 0x00, sizeof(APSME_LinkKeyData_t) );
        ; Setup parameters for call to function osal_memset
        MOV     R4,#0x18
        MOV     R5,#0x0
        MOV     R1,#0x0
        LCALL   `??osal_memset::?relay`; Banked call to: osal_memset
//  637 
//  638     // Clear the APS Link key in NV
//  639     osal_nv_write( entry->keyNvId, 0,
//  640                         sizeof(APSME_LinkKeyData_t), pApsLinkKey);
        LCALL   ?Subroutine39 & 0xFFFF
??CrossCallReturnLabel_59:
        MOV     ?V0,R0
        MOV     ?V1,R1
        ; Setup parameters for call to function osal_nv_write
        MOV     R0,#?V2
        LCALL   ?PUSH_XSTACK_I_TWO
          CFI CFA_XSP16 add(XSP16, 16)
        MOV     ?V4,#0x18
        MOV     ?V5,#0x0
        MOV     R0,#?V4
        LCALL   ?PUSH_XSTACK_I_TWO
          CFI CFA_XSP16 add(XSP16, 18)
        MOV     R4,#0x0
        MOV     R5,#0x0
        MOV     DPL,?V0
        MOV     DPH,R1
        LCALL   ??Subroutine72_0 & 0xFFFF
??CrossCallReturnLabel_168:
        LCALL   `??osal_nv_write::?relay`; Banked call to: osal_nv_write
        MOV     A,#0x4
        LCALL   ?DEALLOC_XSTACK8
          CFI CFA_XSP16 add(XSP16, 14)
//  641 
//  642     // set entry to invalid Key
//  643     entry->keyNvId = SEC_NO_KEY_NV_ID;
        MOV     DPL,?V0
        MOV     DPH,?V1
        CLR     A
        MOVX    @DPTR,A
        INC     DPTR
        MOVX    @DPTR,A
//  644 
//  645     osal_mem_free(pApsLinkKey);
        ; Setup parameters for call to function osal_mem_free
        MOV     R2,?V2
        MOV     R3,?V3
        LCALL   `??osal_mem_free::?relay`; Banked call to: osal_mem_free
//  646   }
//  647 
//  648   // marking the entry as INVALID_NODE_ADDR
//  649   entry->ami = INVALID_NODE_ADDR;
??ZDSecMgrEntryFree_0:
        MOV     DPL,R6
        MOV     DPH,R7
        MOV     A,#-0x2
        MOVX    @DPTR,A
        INC     DPTR
        INC     A
        LCALL   ?Subroutine42 & 0xFFFF
//  650 
//  651   // set to default value
//  652   entry->authenticateOption = ZDSecMgr_Not_Authenticated;
??CrossCallReturnLabel_66:
        INC     DPTR
        INC     DPTR
        INC     DPTR
        INC     DPTR
        CLR     A
        MOVX    @DPTR,A
//  653 
//  654 #if defined ( NV_RESTORE )
//  655   if ( status == ZSuccess )
//  656   {
//  657     ZDSecMgrUpdateNV(entryIndex);
//  658   }
//  659 #endif
//  660 }
        LJMP    ??Subroutine59_0 & 0xFFFF
          CFI EndBlock cfiBlock44
//  661 
//  662 /******************************************************************************
//  663  * @fn          ZDSecMgrEntryNew
//  664  *
//  665  * @brief       Get a new entry.
//  666  *
//  667  * @param       entry - [out] valid entry
//  668  *
//  669  * @return      ZStatus_t
//  670  */

        RSEG BANKED_CODE:CODE:NOROOT(0)
//  671 ZStatus_t ZDSecMgrEntryNew( ZDSecMgrEntry_t** entry )
ZDSecMgrEntryNew:
          CFI Block cfiBlock45 Using cfiCommon0
          CFI Function ZDSecMgrEntryNew
        CODE
//  672 {
        MOV     A,#-0x9
        LCALL   ?BANKED_ENTER_XDATA
          CFI DPH0 load(1, XDATA, add(CFA_XSP16, literal(-1)))
          CFI DPL0 load(1, XDATA, add(CFA_XSP16, literal(-2)))
          CFI ?BRET_EXT load(1, XDATA, add(CFA_XSP16, literal(-3)))
          CFI ?RET_HIGH load(1, XDATA, add(CFA_XSP16, literal(-4)))
          CFI ?RET_LOW load(1, XDATA, add(CFA_XSP16, literal(-5)))
          CFI R7 load(1, XDATA, add(CFA_XSP16, literal(-6)))
          CFI V0 load(1, XDATA, add(CFA_XSP16, literal(-7)))
          CFI VB load(1, XDATA, add(CFA_XSP16, literal(-8)))
          CFI R6 load(1, XDATA, add(CFA_XSP16, literal(-9)))
          CFI CFA_SP SP+0
          CFI CFA_XSP16 add(XSP16, 9)
        ; Saved register size: 9
        ; Auto size: 0
//  673   uint16 index;
//  674 
//  675   // initialize results
//  676   *entry = NULL;
        MOV     DPL,R2
        MOV     DPH,R3
        LCALL   ??Subroutine50_0 & 0xFFFF
//  677 
//  678   // verify data is available
//  679   if ( ZDSecMgrEntries != NULL )
??CrossCallReturnLabel_86:
        JZ      ??ZDSecMgrEntryNew_0
//  680   {
//  681     // find available entry
//  682     for ( index = 0; index < ZDSECMGR_ENTRY_MAX ; index++ )
        MOV     R0,#0x0
        MOV     R1,#0x0
        MOV     DPTR,#ZDSecMgrEntries
        LCALL   ?Subroutine34 & 0xFFFF
//  683     {
//  684       if ( ZDSecMgrEntries[index].ami == INVALID_NODE_ADDR )
??CrossCallReturnLabel_38:
        MOV     DPL,R4
        MOV     DPH,R5
        MOVX    A,@DPTR
        XRL     A,#0xfe
        JNZ     ??ZDSecMgrEntryNew_1
        INC     DPTR
        MOVX    A,@DPTR
        CPL     A
??ZDSecMgrEntryNew_1:
        JNZ     ??ZDSecMgrEntryNew_2
//  685       {
//  686         // return successful result
//  687         *entry = &ZDSecMgrEntries[index];
        MOV     A,R0
        MOV     B,#0x5
        MUL     AB
        MOV     R0,A
        MOV     R4,B
        MOV     B,#0x5
        MOV     A,R1
        MUL     AB
        ADD     A,R4
        MOV     R1,A
        MOV     DPTR,#ZDSecMgrEntries
        MOVX    A,@DPTR
        ADD     A,R0
        MOV     R4,A
        INC     DPTR
        MOVX    A,@DPTR
        ADDC    A,R1
        MOV     R5,A
        MOV     DPL,R2
        MOV     DPH,R3
        MOV     A,R4
        MOVX    @DPTR,A
        INC     DPTR
        MOV     A,R5
        MOVX    @DPTR,A
//  688 
//  689         // Set the authentication option to default
//  690         ZDSecMgrEntries[index].authenticateOption = ZDSecMgr_Not_Authenticated;
        LCALL   ?Subroutine28 & 0xFFFF
??CrossCallReturnLabel_24:
        CLR     A
        MOVX    @DPTR,A
//  691 
//  692         // break from loop
//  693         return ZSuccess;
        MOV     R1,A
        SJMP    ??ZDSecMgrEntryNew_3
//  694       }
//  695     }
??ZDSecMgrEntryNew_2:
        INC     R0
        MOV     A,R0
        JNZ     ??ZDSecMgrEntryNew_4
        INC     R1
??ZDSecMgrEntryNew_4:
        MOV     A,R4
        ADD     A,#0x5
        MOV     R4,A
        JNC     ??ZDSecMgrEntryNew_5
        INC     R5
??ZDSecMgrEntryNew_5:
        LCALL   ?Subroutine37 & 0xFFFF
//  696   }
??CrossCallReturnLabel_48:
        JC      ??CrossCallReturnLabel_38
//  697 
//  698   return ZNwkUnknownDevice;
??ZDSecMgrEntryNew_0:
        MOV     R1,#-0x38
??ZDSecMgrEntryNew_3:
        LJMP    ??Subroutine63_0 & 0xFFFF
//  699 }
          CFI EndBlock cfiBlock45

        RSEG BANKED_CODE:CODE:NOROOT(0)
?Subroutine34:
          CFI Block cfiCond46 Using cfiCommon0
          CFI Function ZDSecMgrEntryLookup
          CFI Conditional ??CrossCallReturnLabel_36
          CFI R6 load(1, XDATA, add(CFA_XSP16, literal(-9)))
          CFI VB load(1, XDATA, add(CFA_XSP16, literal(-8)))
          CFI V0 load(1, XDATA, add(CFA_XSP16, literal(-7)))
          CFI R7 load(1, XDATA, add(CFA_XSP16, literal(-6)))
          CFI ?RET_LOW load(1, XDATA, add(CFA_XSP16, literal(-5)))
          CFI ?RET_HIGH load(1, XDATA, add(CFA_XSP16, literal(-4)))
          CFI ?BRET_EXT load(1, XDATA, add(CFA_XSP16, literal(-3)))
          CFI DPL0 load(1, XDATA, add(CFA_XSP16, literal(-2)))
          CFI DPH0 load(1, XDATA, add(CFA_XSP16, literal(-1)))
          CFI CFA_SP SP+-2
          CFI CFA_XSP16 add(XSP16, 22)
          CFI Block cfiCond47 Using cfiCommon0
          CFI (cfiCond47) Function ZDSecMgrEntryLookupExt
          CFI (cfiCond47) Conditional ??CrossCallReturnLabel_37
          CFI (cfiCond47) R6 load(1, XDATA, add(CFA_XSP16, literal(-10)))
          CFI (cfiCond47) VB load(1, XDATA, add(CFA_XSP16, literal(-9)))
          CFI (cfiCond47) V0 load(1, XDATA, add(CFA_XSP16, literal(-8)))
          CFI (cfiCond47) V1 load(1, XDATA, add(CFA_XSP16, literal(-7)))
          CFI (cfiCond47) R7 load(1, XDATA, add(CFA_XSP16, literal(-6)))
          CFI (cfiCond47) ?RET_LOW load(1, XDATA, add(CFA_XSP16, literal(-5)))
          CFI (cfiCond47) ?RET_HIGH load(1, XDATA, add(CFA_XSP16, literal(-4)))
          CFI (cfiCond47) ?BRET_EXT load(1, XDATA, add(CFA_XSP16, literal(-3)))
          CFI (cfiCond47) DPL0 load(1, XDATA, add(CFA_XSP16, literal(-2)))
          CFI (cfiCond47) DPH0 load(1, XDATA, add(CFA_XSP16, literal(-1)))
          CFI (cfiCond47) CFA_SP SP+-2
          CFI (cfiCond47) CFA_XSP16 add(XSP16, 23)
          CFI Block cfiCond48 Using cfiCommon0
          CFI (cfiCond48) Function ZDSecMgrEntryNew
          CFI (cfiCond48) Conditional ??CrossCallReturnLabel_38
          CFI (cfiCond48) R6 load(1, XDATA, add(CFA_XSP16, literal(-9)))
          CFI (cfiCond48) VB load(1, XDATA, add(CFA_XSP16, literal(-8)))
          CFI (cfiCond48) V0 load(1, XDATA, add(CFA_XSP16, literal(-7)))
          CFI (cfiCond48) R7 load(1, XDATA, add(CFA_XSP16, literal(-6)))
          CFI (cfiCond48) ?RET_LOW load(1, XDATA, add(CFA_XSP16, literal(-5)))
          CFI (cfiCond48) ?RET_HIGH load(1, XDATA, add(CFA_XSP16, literal(-4)))
          CFI (cfiCond48) ?BRET_EXT load(1, XDATA, add(CFA_XSP16, literal(-3)))
          CFI (cfiCond48) DPL0 load(1, XDATA, add(CFA_XSP16, literal(-2)))
          CFI (cfiCond48) DPH0 load(1, XDATA, add(CFA_XSP16, literal(-1)))
          CFI (cfiCond48) CFA_SP SP+-2
          CFI (cfiCond48) CFA_XSP16 add(XSP16, 9)
          CFI Block cfiCond49 Using cfiCommon0
          CFI (cfiCond49) Function ZDSecMgrDeviceJoin
          CFI (cfiCond49) Conditional ??CrossCallReturnLabel_39
          CFI (cfiCond49) R6 load(1, XDATA, add(CFA_XSP16, literal(-13)))
          CFI (cfiCond49) VB load(1, XDATA, add(CFA_XSP16, literal(-12)))
          CFI (cfiCond49) V0 load(1, XDATA, add(CFA_XSP16, literal(-11)))
          CFI (cfiCond49) V1 load(1, XDATA, add(CFA_XSP16, literal(-10)))
          CFI (cfiCond49) V2 load(1, XDATA, add(CFA_XSP16, literal(-9)))
          CFI (cfiCond49) V3 load(1, XDATA, add(CFA_XSP16, literal(-8)))
          CFI (cfiCond49) V4 load(1, XDATA, add(CFA_XSP16, literal(-7)))
          CFI (cfiCond49) R7 load(1, XDATA, add(CFA_XSP16, literal(-6)))
          CFI (cfiCond49) ?RET_LOW load(1, XDATA, add(CFA_XSP16, literal(-5)))
          CFI (cfiCond49) ?RET_HIGH load(1, XDATA, add(CFA_XSP16, literal(-4)))
          CFI (cfiCond49) ?BRET_EXT load(1, XDATA, add(CFA_XSP16, literal(-3)))
          CFI (cfiCond49) DPL0 load(1, XDATA, add(CFA_XSP16, literal(-2)))
          CFI (cfiCond49) DPH0 load(1, XDATA, add(CFA_XSP16, literal(-1)))
          CFI (cfiCond49) CFA_SP SP+-2
          CFI (cfiCond49) CFA_XSP16 add(XSP16, 38)
          CFI Block cfiCond50 Using cfiCommon0
          CFI (cfiCond50) Function ZDSecMgrAddLinkKey
          CFI (cfiCond50) Conditional ??CrossCallReturnLabel_40
          CFI (cfiCond50) R6 load(1, XDATA, add(CFA_XSP16, literal(-9)))
          CFI (cfiCond50) VB load(1, XDATA, add(CFA_XSP16, literal(-8)))
          CFI (cfiCond50) V0 load(1, XDATA, add(CFA_XSP16, literal(-7)))
          CFI (cfiCond50) R7 load(1, XDATA, add(CFA_XSP16, literal(-6)))
          CFI (cfiCond50) ?RET_LOW load(1, XDATA, add(CFA_XSP16, literal(-5)))
          CFI (cfiCond50) ?RET_HIGH load(1, XDATA, add(CFA_XSP16, literal(-4)))
          CFI (cfiCond50) ?BRET_EXT load(1, XDATA, add(CFA_XSP16, literal(-3)))
          CFI (cfiCond50) DPL0 load(1, XDATA, add(CFA_XSP16, literal(-2)))
          CFI (cfiCond50) DPH0 load(1, XDATA, add(CFA_XSP16, literal(-1)))
          CFI (cfiCond50) CFA_SP SP+-2
          CFI (cfiCond50) CFA_XSP16 add(XSP16, 22)
          CFI Block cfiPicker51 Using cfiCommon1
          CFI (cfiPicker51) NoFunction
          CFI (cfiPicker51) Picker
        MOVX    A,@DPTR
        MOV     R4,A
        INC     DPTR
        MOVX    A,@DPTR
        MOV     R5,A
        RET
          CFI (cfiCond46) CFA_SP SP+0
          CFI (cfiCond47) CFA_SP SP+0
          CFI (cfiCond48) CFA_SP SP+0
          CFI (cfiCond49) CFA_SP SP+0
          CFI (cfiCond50) CFA_SP SP+0
          CFI (cfiPicker51) CFA_SP SP+0
          CFI EndBlock cfiCond46
          CFI EndBlock cfiCond47
          CFI EndBlock cfiCond48
          CFI EndBlock cfiCond49
          CFI EndBlock cfiCond50
          CFI EndBlock cfiPicker51

        RSEG BANKED_CODE:CODE:NOROOT(0)
?Subroutine11:
          CFI Block cfiCond52 Using cfiCommon0
          CFI Function ZDSecMgrEntryLookup
          CFI Conditional ??CrossCallReturnLabel_84
          CFI R6 load(1, XDATA, add(CFA_XSP16, literal(-9)))
          CFI VB load(1, XDATA, add(CFA_XSP16, literal(-8)))
          CFI V0 load(1, XDATA, add(CFA_XSP16, literal(-7)))
          CFI R7 load(1, XDATA, add(CFA_XSP16, literal(-6)))
          CFI ?RET_LOW load(1, XDATA, add(CFA_XSP16, literal(-5)))
          CFI ?RET_HIGH load(1, XDATA, add(CFA_XSP16, literal(-4)))
          CFI ?BRET_EXT load(1, XDATA, add(CFA_XSP16, literal(-3)))
          CFI DPL0 load(1, XDATA, add(CFA_XSP16, literal(-2)))
          CFI DPH0 load(1, XDATA, add(CFA_XSP16, literal(-1)))
          CFI CFA_SP SP+-2
          CFI CFA_XSP16 add(XSP16, 22)
          CFI Block cfiCond53 Using cfiCommon0
          CFI (cfiCond53) Function ZDSecMgrEntryLookupExt
          CFI (cfiCond53) Conditional ??CrossCallReturnLabel_88
          CFI (cfiCond53) R6 load(1, XDATA, add(CFA_XSP16, literal(-10)))
          CFI (cfiCond53) VB load(1, XDATA, add(CFA_XSP16, literal(-9)))
          CFI (cfiCond53) V0 load(1, XDATA, add(CFA_XSP16, literal(-8)))
          CFI (cfiCond53) V1 load(1, XDATA, add(CFA_XSP16, literal(-7)))
          CFI (cfiCond53) R7 load(1, XDATA, add(CFA_XSP16, literal(-6)))
          CFI (cfiCond53) ?RET_LOW load(1, XDATA, add(CFA_XSP16, literal(-5)))
          CFI (cfiCond53) ?RET_HIGH load(1, XDATA, add(CFA_XSP16, literal(-4)))
          CFI (cfiCond53) ?BRET_EXT load(1, XDATA, add(CFA_XSP16, literal(-3)))
          CFI (cfiCond53) DPL0 load(1, XDATA, add(CFA_XSP16, literal(-2)))
          CFI (cfiCond53) DPH0 load(1, XDATA, add(CFA_XSP16, literal(-1)))
          CFI (cfiCond53) CFA_SP SP+-2
          CFI (cfiCond53) CFA_XSP16 add(XSP16, 23)
          CFI Block cfiPicker54 Using cfiCommon1
          CFI (cfiPicker54) NoFunction
          CFI (cfiPicker54) Picker
        MOV     DPL,R6
        MOV     DPH,R7
          CFI EndBlock cfiCond52
          CFI EndBlock cfiCond53
          CFI EndBlock cfiPicker54
        REQUIRE ??Subroutine50_0
        ; // Fall through to label ??Subroutine50_0

        RSEG BANKED_CODE:CODE:NOROOT(0)
??Subroutine50_0:
          CFI Block cfiCond55 Using cfiCommon0
          CFI Function ZDSecMgrEntryLookupAMI
          CFI Conditional ??CrossCallReturnLabel_85
          CFI R6 load(1, XDATA, add(CFA_XSP16, literal(-9)))
          CFI VB load(1, XDATA, add(CFA_XSP16, literal(-8)))
          CFI V0 load(1, XDATA, add(CFA_XSP16, literal(-7)))
          CFI R7 load(1, XDATA, add(CFA_XSP16, literal(-6)))
          CFI ?RET_LOW load(1, XDATA, add(CFA_XSP16, literal(-5)))
          CFI ?RET_HIGH load(1, XDATA, add(CFA_XSP16, literal(-4)))
          CFI ?BRET_EXT load(1, XDATA, add(CFA_XSP16, literal(-3)))
          CFI DPL0 load(1, XDATA, add(CFA_XSP16, literal(-2)))
          CFI DPH0 load(1, XDATA, add(CFA_XSP16, literal(-1)))
          CFI CFA_SP SP+-2
          CFI CFA_XSP16 add(XSP16, 9)
          CFI Block cfiCond56 Using cfiCommon0
          CFI (cfiCond56) Function ZDSecMgrEntryNew
          CFI (cfiCond56) Conditional ??CrossCallReturnLabel_86
          CFI (cfiCond56) R6 load(1, XDATA, add(CFA_XSP16, literal(-9)))
          CFI (cfiCond56) VB load(1, XDATA, add(CFA_XSP16, literal(-8)))
          CFI (cfiCond56) V0 load(1, XDATA, add(CFA_XSP16, literal(-7)))
          CFI (cfiCond56) R7 load(1, XDATA, add(CFA_XSP16, literal(-6)))
          CFI (cfiCond56) ?RET_LOW load(1, XDATA, add(CFA_XSP16, literal(-5)))
          CFI (cfiCond56) ?RET_HIGH load(1, XDATA, add(CFA_XSP16, literal(-4)))
          CFI (cfiCond56) ?BRET_EXT load(1, XDATA, add(CFA_XSP16, literal(-3)))
          CFI (cfiCond56) DPL0 load(1, XDATA, add(CFA_XSP16, literal(-2)))
          CFI (cfiCond56) DPH0 load(1, XDATA, add(CFA_XSP16, literal(-1)))
          CFI (cfiCond56) CFA_SP SP+-2
          CFI (cfiCond56) CFA_XSP16 add(XSP16, 9)
          CFI Block cfiCond57 Using cfiCommon0
          CFI (cfiCond57) Function ZDSecMgrEntryLookup
          CFI (cfiCond57) Conditional ??CrossCallReturnLabel_84
          CFI (cfiCond57) R6 load(1, XDATA, add(CFA_XSP16, literal(-9)))
          CFI (cfiCond57) VB load(1, XDATA, add(CFA_XSP16, literal(-8)))
          CFI (cfiCond57) V0 load(1, XDATA, add(CFA_XSP16, literal(-7)))
          CFI (cfiCond57) R7 load(1, XDATA, add(CFA_XSP16, literal(-6)))
          CFI (cfiCond57) ?RET_LOW load(1, XDATA, add(CFA_XSP16, literal(-5)))
          CFI (cfiCond57) ?RET_HIGH load(1, XDATA, add(CFA_XSP16, literal(-4)))
          CFI (cfiCond57) ?BRET_EXT load(1, XDATA, add(CFA_XSP16, literal(-3)))
          CFI (cfiCond57) DPL0 load(1, XDATA, add(CFA_XSP16, literal(-2)))
          CFI (cfiCond57) DPH0 load(1, XDATA, add(CFA_XSP16, literal(-1)))
          CFI (cfiCond57) CFA_SP SP+-2
          CFI (cfiCond57) CFA_XSP16 add(XSP16, 22)
          CFI Block cfiCond58 Using cfiCommon0
          CFI (cfiCond58) Function ZDSecMgrEntryLookupExt
          CFI (cfiCond58) Conditional ??CrossCallReturnLabel_88
          CFI (cfiCond58) R6 load(1, XDATA, add(CFA_XSP16, literal(-10)))
          CFI (cfiCond58) VB load(1, XDATA, add(CFA_XSP16, literal(-9)))
          CFI (cfiCond58) V0 load(1, XDATA, add(CFA_XSP16, literal(-8)))
          CFI (cfiCond58) V1 load(1, XDATA, add(CFA_XSP16, literal(-7)))
          CFI (cfiCond58) R7 load(1, XDATA, add(CFA_XSP16, literal(-6)))
          CFI (cfiCond58) ?RET_LOW load(1, XDATA, add(CFA_XSP16, literal(-5)))
          CFI (cfiCond58) ?RET_HIGH load(1, XDATA, add(CFA_XSP16, literal(-4)))
          CFI (cfiCond58) ?BRET_EXT load(1, XDATA, add(CFA_XSP16, literal(-3)))
          CFI (cfiCond58) DPL0 load(1, XDATA, add(CFA_XSP16, literal(-2)))
          CFI (cfiCond58) DPH0 load(1, XDATA, add(CFA_XSP16, literal(-1)))
          CFI (cfiCond58) CFA_SP SP+-2
          CFI (cfiCond58) CFA_XSP16 add(XSP16, 23)
          CFI Block cfiPicker59 Using cfiCommon1
          CFI (cfiPicker59) NoFunction
          CFI (cfiPicker59) Picker
        CLR     A
        MOVX    @DPTR,A
        INC     DPTR
          CFI EndBlock cfiCond55
          CFI EndBlock cfiCond56
          CFI EndBlock cfiCond57
          CFI EndBlock cfiCond58
          CFI EndBlock cfiPicker59
        REQUIRE ??Subroutine51_0
        ; // Fall through to label ??Subroutine51_0

        RSEG BANKED_CODE:CODE:NOROOT(0)
??Subroutine51_0:
          CFI Block cfiCond60 Using cfiCommon0
          CFI Function ZDSecMgrEntryInit
          CFI Conditional ??CrossCallReturnLabel_87
          CFI DPL0 Frame(CFA_SP, 4)
          CFI DPH0 Frame(CFA_SP, 5)
          CFI CFA_SP SP+-7
          CFI Block cfiCond61 Using cfiCommon0
          CFI (cfiCond61) Function ZDSecMgrEntryLookupAMI
          CFI (cfiCond61) Conditional ??CrossCallReturnLabel_85
          CFI (cfiCond61) R6 load(1, XDATA, add(CFA_XSP16, literal(-9)))
          CFI (cfiCond61) VB load(1, XDATA, add(CFA_XSP16, literal(-8)))
          CFI (cfiCond61) V0 load(1, XDATA, add(CFA_XSP16, literal(-7)))
          CFI (cfiCond61) R7 load(1, XDATA, add(CFA_XSP16, literal(-6)))
          CFI (cfiCond61) ?RET_LOW load(1, XDATA, add(CFA_XSP16, literal(-5)))
          CFI (cfiCond61) ?RET_HIGH load(1, XDATA, add(CFA_XSP16, literal(-4)))
          CFI (cfiCond61) ?BRET_EXT load(1, XDATA, add(CFA_XSP16, literal(-3)))
          CFI (cfiCond61) DPL0 load(1, XDATA, add(CFA_XSP16, literal(-2)))
          CFI (cfiCond61) DPH0 load(1, XDATA, add(CFA_XSP16, literal(-1)))
          CFI (cfiCond61) CFA_SP SP+-2
          CFI (cfiCond61) CFA_XSP16 add(XSP16, 9)
          CFI Block cfiCond62 Using cfiCommon0
          CFI (cfiCond62) Function ZDSecMgrEntryNew
          CFI (cfiCond62) Conditional ??CrossCallReturnLabel_86
          CFI (cfiCond62) R6 load(1, XDATA, add(CFA_XSP16, literal(-9)))
          CFI (cfiCond62) VB load(1, XDATA, add(CFA_XSP16, literal(-8)))
          CFI (cfiCond62) V0 load(1, XDATA, add(CFA_XSP16, literal(-7)))
          CFI (cfiCond62) R7 load(1, XDATA, add(CFA_XSP16, literal(-6)))
          CFI (cfiCond62) ?RET_LOW load(1, XDATA, add(CFA_XSP16, literal(-5)))
          CFI (cfiCond62) ?RET_HIGH load(1, XDATA, add(CFA_XSP16, literal(-4)))
          CFI (cfiCond62) ?BRET_EXT load(1, XDATA, add(CFA_XSP16, literal(-3)))
          CFI (cfiCond62) DPL0 load(1, XDATA, add(CFA_XSP16, literal(-2)))
          CFI (cfiCond62) DPH0 load(1, XDATA, add(CFA_XSP16, literal(-1)))
          CFI (cfiCond62) CFA_SP SP+-2
          CFI (cfiCond62) CFA_XSP16 add(XSP16, 9)
          CFI Block cfiCond63 Using cfiCommon0
          CFI (cfiCond63) Function ZDSecMgrEntryLookup
          CFI (cfiCond63) Conditional ??CrossCallReturnLabel_84
          CFI (cfiCond63) R6 load(1, XDATA, add(CFA_XSP16, literal(-9)))
          CFI (cfiCond63) VB load(1, XDATA, add(CFA_XSP16, literal(-8)))
          CFI (cfiCond63) V0 load(1, XDATA, add(CFA_XSP16, literal(-7)))
          CFI (cfiCond63) R7 load(1, XDATA, add(CFA_XSP16, literal(-6)))
          CFI (cfiCond63) ?RET_LOW load(1, XDATA, add(CFA_XSP16, literal(-5)))
          CFI (cfiCond63) ?RET_HIGH load(1, XDATA, add(CFA_XSP16, literal(-4)))
          CFI (cfiCond63) ?BRET_EXT load(1, XDATA, add(CFA_XSP16, literal(-3)))
          CFI (cfiCond63) DPL0 load(1, XDATA, add(CFA_XSP16, literal(-2)))
          CFI (cfiCond63) DPH0 load(1, XDATA, add(CFA_XSP16, literal(-1)))
          CFI (cfiCond63) CFA_SP SP+-2
          CFI (cfiCond63) CFA_XSP16 add(XSP16, 22)
          CFI Block cfiCond64 Using cfiCommon0
          CFI (cfiCond64) Function ZDSecMgrEntryLookupExt
          CFI (cfiCond64) Conditional ??CrossCallReturnLabel_88
          CFI (cfiCond64) R6 load(1, XDATA, add(CFA_XSP16, literal(-10)))
          CFI (cfiCond64) VB load(1, XDATA, add(CFA_XSP16, literal(-9)))
          CFI (cfiCond64) V0 load(1, XDATA, add(CFA_XSP16, literal(-8)))
          CFI (cfiCond64) V1 load(1, XDATA, add(CFA_XSP16, literal(-7)))
          CFI (cfiCond64) R7 load(1, XDATA, add(CFA_XSP16, literal(-6)))
          CFI (cfiCond64) ?RET_LOW load(1, XDATA, add(CFA_XSP16, literal(-5)))
          CFI (cfiCond64) ?RET_HIGH load(1, XDATA, add(CFA_XSP16, literal(-4)))
          CFI (cfiCond64) ?BRET_EXT load(1, XDATA, add(CFA_XSP16, literal(-3)))
          CFI (cfiCond64) DPL0 load(1, XDATA, add(CFA_XSP16, literal(-2)))
          CFI (cfiCond64) DPH0 load(1, XDATA, add(CFA_XSP16, literal(-1)))
          CFI (cfiCond64) CFA_SP SP+-2
          CFI (cfiCond64) CFA_XSP16 add(XSP16, 23)
          CFI Block cfiPicker65 Using cfiCommon1
          CFI (cfiPicker65) NoFunction
          CFI (cfiPicker65) Picker
        MOVX    @DPTR,A
        LCALL   ?Subroutine45 & 0xFFFF
??CrossCallReturnLabel_166:
        RET
          CFI (cfiCond60) CFA_SP SP+-5
          CFI (cfiCond61) CFA_SP SP+0
          CFI (cfiCond62) CFA_SP SP+0
          CFI (cfiCond63) CFA_SP SP+0
          CFI (cfiCond64) CFA_SP SP+0
          CFI (cfiPicker65) CFA_SP SP+0
          CFI EndBlock cfiCond60
          CFI EndBlock cfiCond61
          CFI EndBlock cfiCond62
          CFI EndBlock cfiCond63
          CFI EndBlock cfiCond64
          CFI EndBlock cfiPicker65
//  700 
//  701 /******************************************************************************
//  702  * @fn          ZDSecMgrAppKeyGet
//  703  *
//  704  * @brief       get an APP key - option APP(MASTER or LINK) key
//  705  *
//  706  * @param       initNwkAddr - [in] NWK address of initiator device
//  707  * @param       initExtAddr - [in] EXT address of initiator device
//  708  * @param       partNwkAddr - [in] NWK address of partner device
//  709  * @param       partExtAddr - [in] EXT address of partner device
//  710  * @param       key         - [out] APP(MASTER or LINK) key
//  711  * @param       keyType     - [out] APP(MASTER or LINK) key type
//  712  *
//  713  * @return      ZStatus_t
//  714  */

        RSEG XDATA_I:XDATA:NOROOT(0)
//  715 uint8 ZDSecMgrAppKeyType = KEY_TYPE_APP_LINK;    // Set the default key type
ZDSecMgrAppKeyType:
        DATA8
        DS 1
        REQUIRE `?<Initializer for ZDSecMgrAppKeyType>`
        REQUIRE __INIT_XDATA_I
//  716                                                  // to KEY_TYPE_APP_LINK since
//  717                                                  // only specific requirement
//  718                                                  // right now comes from SE profile
//  719 

        RSEG BANKED_CODE:CODE:NOROOT(0)
//  720 ZStatus_t ZDSecMgrAppKeyGet( uint16  initNwkAddr,
ZDSecMgrAppKeyGet:
          CFI Block cfiBlock66 Using cfiCommon0
          CFI Function ZDSecMgrAppKeyGet
        CODE
//  721                              uint8*  initExtAddr,
//  722                              uint16  partNwkAddr,
//  723                              uint8*  partExtAddr,
//  724                              uint8** key,
//  725                              uint8*  keyType )
//  726 {
        FUNCALL ZDSecMgrAppKeyGet, SSP_GetTrueRand
        LOCFRAME ISTACK, 2, STACK
        LOCFRAME PSTACK, 0, STACK
        LOCFRAME XSTACK, 0, STACK
        LOCFRAME IOVERLAY, 0, STATIC
        LOCFRAME DOVERLAY, 0, STATIC
        ARGFRAME ISTACK, 2, STACK
        ARGFRAME PSTACK, 0, STACK
        ARGFRAME XSTACK, 0, STACK
        ARGFRAME IOVERLAY, 0, STATIC
        ARGFRAME DOVERLAY, 0, STATIC
        PUSH    DPL
          CFI DPL0 Frame(CFA_SP, 4)
          CFI CFA_SP SP+-4
        PUSH    DPH
          CFI DPH0 Frame(CFA_SP, 5)
          CFI CFA_SP SP+-5
        ; Saved register size: 2
        ; Auto size: 0
//  727   // Intentionally unreferenced parameters
//  728   (void)initNwkAddr;
//  729   (void)initExtAddr;
//  730   (void)partNwkAddr;
//  731   (void)partExtAddr;
//  732 
//  733   //---------------------------------------------------------------------------
//  734   // note:
//  735   // should use a robust mechanism to generate keys, for example
//  736   // combine EXT addresses and call a hash function
//  737   //---------------------------------------------------------------------------
//  738   SSP_GetTrueRand( SEC_KEY_LEN, *key );
        ; Setup parameters for call to function SSP_GetTrueRand
        MOV     A,#0x4
        LCALL   ?XSTACK_DISP0_8
        LCALL   ?Subroutine30 & 0xFFFF
??CrossCallReturnLabel_28:
        LCALL   ??Subroutine72_0 & 0xFFFF
??CrossCallReturnLabel_169:
        MOV     R1,#0x10
        LCALL   `??SSP_GetTrueRand::?relay`; Banked call to: SSP_GetTrueRand
//  739 
//  740   *keyType = ZDSecMgrAppKeyType;
        MOV     DPTR,#ZDSecMgrAppKeyType
        MOVX    A,@DPTR
        PUSH    A
          CFI CFA_SP SP+-6
        MOV     A,#0x6
        LCALL   ?XSTACK_DISP0_8
        LCALL   ?Subroutine30 & 0xFFFF
??CrossCallReturnLabel_29:
        POP     A
          CFI CFA_SP SP+-5
          CFI EndBlock cfiBlock66
        REQUIRE ?Subroutine8
        ; // Fall through to label ?Subroutine8
//  741 
//  742   return ZSuccess;
//  743 }

        RSEG BANKED_CODE:CODE:NOROOT(0)
?Subroutine8:
          CFI Block cfiBlock67 Using cfiCommon0
          CFI NoFunction
          CFI CFA_SP SP+-5
          CFI DPL0 Frame(CFA_SP, 4)
          CFI DPH0 Frame(CFA_SP, 5)
        MOVX    @DPTR,A
        MOV     R1,#0x0
        LJMP    ??Subroutine58_0 & 0xFFFF
          CFI EndBlock cfiBlock67
//  744 
//  745 /******************************************************************************
//  746  * @fn          ZDSecMgrAppKeyReq
//  747  *
//  748  * @brief       Process request for APP key between two devices.
//  749  *
//  750  * @param       device - [in] ZDO_RequestKeyInd_t, request info
//  751  *
//  752  * @return      none
//  753  */

        RSEG BANKED_CODE:CODE:NOROOT(0)
//  754 void ZDSecMgrAppKeyReq( ZDO_RequestKeyInd_t* ind )
ZDSecMgrAppKeyReq:
          CFI Block cfiBlock68 Using cfiCommon0
          CFI Function ZDSecMgrAppKeyReq
        CODE
//  755 {
        FUNCALL ZDSecMgrAppKeyReq, APSME_LookupNwkAddr
        LOCFRAME ISTACK, 0, STACK
        LOCFRAME PSTACK, 0, STACK
        LOCFRAME XSTACK, 49, STACK
        LOCFRAME IOVERLAY, 0, STATIC
        LOCFRAME DOVERLAY, 0, STATIC
        ARGFRAME ISTACK, 0, STACK
        ARGFRAME PSTACK, 0, STACK
        ARGFRAME XSTACK, 49, STACK
        ARGFRAME IOVERLAY, 0, STATIC
        ARGFRAME DOVERLAY, 0, STATIC
        FUNCALL ZDSecMgrAppKeyReq, APSME_LookupExtAddr
        LOCFRAME ISTACK, 0, STACK
        LOCFRAME PSTACK, 0, STACK
        LOCFRAME XSTACK, 49, STACK
        LOCFRAME IOVERLAY, 0, STATIC
        LOCFRAME DOVERLAY, 0, STATIC
        ARGFRAME ISTACK, 0, STACK
        ARGFRAME PSTACK, 0, STACK
        ARGFRAME XSTACK, 49, STACK
        ARGFRAME IOVERLAY, 0, STATIC
        ARGFRAME DOVERLAY, 0, STATIC
        FUNCALL ZDSecMgrAppKeyReq, SSP_GetTrueRand
        LOCFRAME ISTACK, 0, STACK
        LOCFRAME PSTACK, 0, STACK
        LOCFRAME XSTACK, 49, STACK
        LOCFRAME IOVERLAY, 0, STATIC
        LOCFRAME DOVERLAY, 0, STATIC
        ARGFRAME ISTACK, 0, STACK
        ARGFRAME PSTACK, 0, STACK
        ARGFRAME XSTACK, 49, STACK
        ARGFRAME IOVERLAY, 0, STATIC
        ARGFRAME DOVERLAY, 0, STATIC
        FUNCALL ZDSecMgrAppKeyReq, APSME_TransportKeyReq
        LOCFRAME ISTACK, 0, STACK
        LOCFRAME PSTACK, 0, STACK
        LOCFRAME XSTACK, 49, STACK
        LOCFRAME IOVERLAY, 0, STATIC
        LOCFRAME DOVERLAY, 0, STATIC
        ARGFRAME ISTACK, 0, STACK
        ARGFRAME PSTACK, 0, STACK
        ARGFRAME XSTACK, 49, STACK
        ARGFRAME IOVERLAY, 0, STATIC
        ARGFRAME DOVERLAY, 0, STATIC
        FUNCALL ZDSecMgrAppKeyReq, APSME_TransportKeyReq
        LOCFRAME ISTACK, 0, STACK
        LOCFRAME PSTACK, 0, STACK
        LOCFRAME XSTACK, 49, STACK
        LOCFRAME IOVERLAY, 0, STATIC
        LOCFRAME DOVERLAY, 0, STATIC
        ARGFRAME ISTACK, 0, STACK
        ARGFRAME PSTACK, 0, STACK
        ARGFRAME XSTACK, 49, STACK
        ARGFRAME IOVERLAY, 0, STATIC
        ARGFRAME DOVERLAY, 0, STATIC
        FUNCALL ZDSecMgrAppKeyReq, osal_memset
        LOCFRAME ISTACK, 0, STACK
        LOCFRAME PSTACK, 0, STACK
        LOCFRAME XSTACK, 49, STACK
        LOCFRAME IOVERLAY, 0, STATIC
        LOCFRAME DOVERLAY, 0, STATIC
        ARGFRAME ISTACK, 0, STACK
        ARGFRAME PSTACK, 0, STACK
        ARGFRAME XSTACK, 49, STACK
        ARGFRAME IOVERLAY, 0, STATIC
        ARGFRAME DOVERLAY, 0, STATIC
        REQUIRE ?V0
        REQUIRE ?V1
        MOV     A,#-0xa
        LCALL   ?BANKED_ENTER_XDATA
          CFI DPH0 load(1, XDATA, add(CFA_XSP16, literal(-1)))
          CFI DPL0 load(1, XDATA, add(CFA_XSP16, literal(-2)))
          CFI ?BRET_EXT load(1, XDATA, add(CFA_XSP16, literal(-3)))
          CFI ?RET_HIGH load(1, XDATA, add(CFA_XSP16, literal(-4)))
          CFI ?RET_LOW load(1, XDATA, add(CFA_XSP16, literal(-5)))
          CFI R7 load(1, XDATA, add(CFA_XSP16, literal(-6)))
          CFI V1 load(1, XDATA, add(CFA_XSP16, literal(-7)))
          CFI V0 load(1, XDATA, add(CFA_XSP16, literal(-8)))
          CFI VB load(1, XDATA, add(CFA_XSP16, literal(-9)))
          CFI R6 load(1, XDATA, add(CFA_XSP16, literal(-10)))
          CFI CFA_SP SP+0
          CFI CFA_XSP16 add(XSP16, 10)
        ; Saved register size: 10
        ; Auto size: 39
        MOV     A,#-0x27
        LCALL   ?ALLOC_XSTACK8
          CFI CFA_XSP16 add(XSP16, 49)
        MOV     ?V0,R2
        MOV     ?V1,R3
//  756   APSME_TransportKeyReq_t req;
//  757   uint8                   initExtAddr[Z_EXTADDR_LEN];
//  758   uint16                  partNwkAddr;
//  759   uint8                   key[SEC_KEY_LEN];
//  760 
//  761 
//  762   // validate initiator and partner
//  763   if ( ( APSME_LookupNwkAddr( ind->partExtAddr, &partNwkAddr ) == TRUE ) &&
//  764        ( APSME_LookupExtAddr( ind->srcAddr, initExtAddr ) == TRUE      )   )
        MOV     A,R2
        ADD     A,#0x5
        MOV     R6,A
        CLR     A
        ADDC    A,?V1
        MOV     R7,A
        ; Setup parameters for call to function APSME_LookupNwkAddr
        MOV     R4,?XSP + 0
        MOV     R5,?XSP + 1
        MOV     A,R6
        MOV     R2,A
        MOV     A,R7
        MOV     R3,A
        LCALL   `??APSME_LookupNwkAddr::?relay`; Banked call to: APSME_LookupNwkAddr
        MOV     A,R1
        XRL     A,#0x1
        JZ      $+5
        LJMP    ??ZDSecMgrAppKeyReq_0 & 0xFFFF
        MOV     A,?V0
        ADD     A,#0x2
        MOV     R0,A
        CLR     A
        ADDC    A,?V1
        MOV     R1,A
        MOV     ?V0,R0
        MOV     ?V1,R1
        ; Setup parameters for call to function APSME_LookupExtAddr
        MOV     A,#0xf
        LCALL   ?XSTACK_DISP102_8
        MOV     DPL,R0
        MOV     DPH,R1
        LCALL   ??Subroutine72_0 & 0xFFFF
??CrossCallReturnLabel_170:
        LCALL   `??APSME_LookupExtAddr::?relay`; Banked call to: APSME_LookupExtAddr
        MOV     A,R1
        XRL     A,#0x1
        JZ      $+5
        LJMP    ??ZDSecMgrAppKeyReq_0 & 0xFFFF
//  765   {
//  766     // point the key to some memory
//  767     req.key = key;
        MOV     A,#0x17
        LCALL   ?XSTACK_DISP100_8
        MOV     A,#0x6
        LCALL   ?XSTACK_DISP0_8
        LCALL   ??Subroutine54_0 & 0xFFFF
//  768 
//  769     // get an APP key - option APP (MASTER or LINK) key
//  770     if ( ZDSecMgrAppKeyGet( ind->srcAddr,
//  771                             initExtAddr,
//  772                             partNwkAddr,
//  773                             ind->partExtAddr,
//  774                             &req.key,
//  775                             &req.keyType ) == ZSuccess )
??CrossCallReturnLabel_95:
        ; Setup parameters for call to function SSP_GetTrueRand
        MOV     A,#0x17
        LCALL   ?XSTACK_DISP101_8
        MOV     R1,#0x10
        LCALL   `??SSP_GetTrueRand::?relay`; Banked call to: SSP_GetTrueRand
        MOV     DPTR,#ZDSecMgrAppKeyType
        MOVX    A,@DPTR
        PUSH    A
          CFI CFA_SP SP+-1
        MOV     A,#0x4
        LCALL   ?XSTACK_DISP0_8
        POP     A
          CFI CFA_SP SP+0
        MOVX    @DPTR,A
//  776     {
//  777       // always secure
//  778       req.nwkSecure = TRUE;
        MOV     A,#0xc
        LCALL   ?XSTACK_DISP0_8
        MOV     A,#0x1
        MOVX    @DPTR,A
//  779       req.apsSecure = TRUE;
        MOV     A,#0xb
        LCALL   ?XSTACK_DISP0_8
        MOV     A,#0x1
        MOVX    @DPTR,A
//  780       req.tunnel    = NULL;
        MOV     A,#0xd
        LCALL   ?XSTACK_DISP0_8
        CLR     A
        MOVX    @DPTR,A
        INC     DPTR
        MOVX    @DPTR,A
//  781 
//  782       // send key to initiator device
//  783       req.dstAddr   = ind->srcAddr;
        MOV     DPL,?V0
        MOV     DPH,?V1
        LCALL   ?Subroutine32 & 0xFFFF
??CrossCallReturnLabel_33:
        LCALL   ?XSTACK_DISP0_8
        LCALL   ??Subroutine54_0 & 0xFFFF
//  784       req.extAddr   = ind->partExtAddr;
??CrossCallReturnLabel_96:
        MOV     A,#0x8
        LCALL   ?XSTACK_DISP0_8
        MOV     A,R6
        MOVX    @DPTR,A
        INC     DPTR
        MOV     A,R7
        MOVX    @DPTR,A
//  785       req.initiator = TRUE;
        MOV     A,#0xa
        LCALL   ?XSTACK_DISP0_8
        MOV     A,#0x1
        MOVX    @DPTR,A
//  786       APSME_TransportKeyReq( &req );
        ; Setup parameters for call to function APSME_TransportKeyReq
        INC     A
        LCALL   ?XSTACK_DISP101_8
        LCALL   `??APSME_TransportKeyReq::?relay`; Banked call to: APSME_TransportKeyReq
//  787 
//  788       // send key to partner device
//  789       req.dstAddr   = partNwkAddr;
        MOV     DPL,?XSP + 0
        MOV     DPH,?XSP + 1
        LCALL   ?Subroutine32 & 0xFFFF
??CrossCallReturnLabel_34:
        LCALL   ?XSTACK_DISP0_8
        LCALL   ??Subroutine54_0 & 0xFFFF
//  790       req.extAddr   = initExtAddr;
??CrossCallReturnLabel_97:
        MOV     A,#0xf
        LCALL   ?XSTACK_DISP100_8
        MOV     A,#0x8
        LCALL   ?XSTACK_DISP0_8
        LCALL   ??Subroutine54_0 & 0xFFFF
//  791       req.initiator = FALSE;
??CrossCallReturnLabel_98:
        MOV     A,#0xa
        LCALL   ?XSTACK_DISP0_8
        CLR     A
        MOVX    @DPTR,A
//  792 
//  793       APSME_TransportKeyReq( &req );
        ; Setup parameters for call to function APSME_TransportKeyReq
        MOV     A,#0x2
        LCALL   ?XSTACK_DISP101_8
        LCALL   `??APSME_TransportKeyReq::?relay`; Banked call to: APSME_TransportKeyReq
//  794 
//  795       // clear copy of key in RAM
//  796       osal_memset( key, 0x00, SEC_KEY_LEN);
        ; Setup parameters for call to function osal_memset
        MOV     R4,#0x10
        MOV     R5,#0x0
        MOV     R1,#0x0
        MOV     A,#0x17
        LCALL   ?XSTACK_DISP101_8
        LCALL   `??osal_memset::?relay`; Banked call to: osal_memset
//  797 
//  798     }
//  799   }
//  800 }
??ZDSecMgrAppKeyReq_0:
        MOV     A,#0x27
        LJMP    ??Subroutine55_0 & 0xFFFF
          CFI EndBlock cfiBlock68
//  801 
//  802 /******************************************************************************
//  803  * @fn          ZDSecMgrSendNwkKey
//  804  *
//  805  * @brief       Send NWK key to device joining network.
//  806  *
//  807  * @param       device - [in] ZDSecMgrDevice_t, device info
//  808  *
//  809  * @return      ZStatus_t
//  810  */

        RSEG BANKED_CODE:CODE:NOROOT(0)
//  811 ZStatus_t ZDSecMgrSendNwkKey( ZDSecMgrDevice_t* device )
ZDSecMgrSendNwkKey:
          CFI Block cfiBlock69 Using cfiCommon0
          CFI Function ZDSecMgrSendNwkKey
        CODE
//  812 {
        FUNCALL ZDSecMgrSendNwkKey, NLME_ReadNwkKeyInfo
        LOCFRAME ISTACK, 0, STACK
        LOCFRAME PSTACK, 0, STACK
        LOCFRAME XSTACK, 44, STACK
        LOCFRAME IOVERLAY, 0, STATIC
        LOCFRAME DOVERLAY, 0, STATIC
        ARGFRAME ISTACK, 0, STACK
        ARGFRAME PSTACK, 0, STACK
        ARGFRAME XSTACK, 44, STACK
        ARGFRAME IOVERLAY, 0, STATIC
        ARGFRAME DOVERLAY, 0, STATIC
        FUNCALL ZDSecMgrSendNwkKey, osal_memset
        LOCFRAME ISTACK, 0, STACK
        LOCFRAME PSTACK, 0, STACK
        LOCFRAME XSTACK, 40, STACK
        LOCFRAME IOVERLAY, 0, STATIC
        LOCFRAME DOVERLAY, 0, STATIC
        ARGFRAME ISTACK, 0, STACK
        ARGFRAME PSTACK, 0, STACK
        ARGFRAME XSTACK, 40, STACK
        ARGFRAME IOVERLAY, 0, STATIC
        ARGFRAME DOVERLAY, 0, STATIC
        FUNCALL ZDSecMgrSendNwkKey, NLME_GetShortAddr
        LOCFRAME ISTACK, 0, STACK
        LOCFRAME PSTACK, 0, STACK
        LOCFRAME XSTACK, 40, STACK
        LOCFRAME IOVERLAY, 0, STATIC
        LOCFRAME DOVERLAY, 0, STATIC
        ARGFRAME ISTACK, 0, STACK
        ARGFRAME PSTACK, 0, STACK
        ARGFRAME XSTACK, 40, STACK
        ARGFRAME IOVERLAY, 0, STATIC
        ARGFRAME DOVERLAY, 0, STATIC
        FUNCALL ZDSecMgrSendNwkKey, NLME_GetShortAddr
        LOCFRAME ISTACK, 0, STACK
        LOCFRAME PSTACK, 0, STACK
        LOCFRAME XSTACK, 40, STACK
        LOCFRAME IOVERLAY, 0, STATIC
        LOCFRAME DOVERLAY, 0, STATIC
        ARGFRAME ISTACK, 0, STACK
        ARGFRAME PSTACK, 0, STACK
        ARGFRAME XSTACK, 40, STACK
        ARGFRAME IOVERLAY, 0, STATIC
        ARGFRAME DOVERLAY, 0, STATIC
        FUNCALL ZDSecMgrSendNwkKey, APSME_TransportKeyReq
        LOCFRAME ISTACK, 0, STACK
        LOCFRAME PSTACK, 0, STACK
        LOCFRAME XSTACK, 40, STACK
        LOCFRAME IOVERLAY, 0, STATIC
        LOCFRAME DOVERLAY, 0, STATIC
        ARGFRAME ISTACK, 0, STACK
        ARGFRAME PSTACK, 0, STACK
        ARGFRAME XSTACK, 40, STACK
        ARGFRAME IOVERLAY, 0, STATIC
        ARGFRAME DOVERLAY, 0, STATIC
        FUNCALL ZDSecMgrSendNwkKey, osal_memset
        LOCFRAME ISTACK, 0, STACK
        LOCFRAME PSTACK, 0, STACK
        LOCFRAME XSTACK, 40, STACK
        LOCFRAME IOVERLAY, 0, STATIC
        LOCFRAME DOVERLAY, 0, STATIC
        ARGFRAME ISTACK, 0, STACK
        ARGFRAME PSTACK, 0, STACK
        ARGFRAME XSTACK, 40, STACK
        ARGFRAME IOVERLAY, 0, STATIC
        ARGFRAME DOVERLAY, 0, STATIC
        REQUIRE ?V0
        REQUIRE ?V1
        MOV     A,#-0xa
        LCALL   ?BANKED_ENTER_XDATA
          CFI DPH0 load(1, XDATA, add(CFA_XSP16, literal(-1)))
          CFI DPL0 load(1, XDATA, add(CFA_XSP16, literal(-2)))
          CFI ?BRET_EXT load(1, XDATA, add(CFA_XSP16, literal(-3)))
          CFI ?RET_HIGH load(1, XDATA, add(CFA_XSP16, literal(-4)))
          CFI ?RET_LOW load(1, XDATA, add(CFA_XSP16, literal(-5)))
          CFI R7 load(1, XDATA, add(CFA_XSP16, literal(-6)))
          CFI V1 load(1, XDATA, add(CFA_XSP16, literal(-7)))
          CFI V0 load(1, XDATA, add(CFA_XSP16, literal(-8)))
          CFI VB load(1, XDATA, add(CFA_XSP16, literal(-9)))
          CFI R6 load(1, XDATA, add(CFA_XSP16, literal(-10)))
          CFI CFA_SP SP+0
          CFI CFA_XSP16 add(XSP16, 10)
        ; Saved register size: 10
        ; Auto size: 30
        MOV     A,#-0x1e
        LCALL   ?ALLOC_XSTACK8
          CFI CFA_XSP16 add(XSP16, 40)
        MOV     A,R2
        MOV     R6,A
        MOV     A,R3
        MOV     R7,A
//  813   ZStatus_t status;
//  814   APSME_TransportKeyReq_t req;
//  815   APSDE_FrameTunnel_t tunnel;
//  816   nwkKeyDesc tmpKey;
//  817 
//  818   req.dstAddr   = device->nwkAddr;
        LCALL   ?Subroutine20 & 0xFFFF
//  819   req.extAddr   = device->extAddr;
??CrossCallReturnLabel_8:
        MOV     R0,A
        INC     DPTR
        MOVX    A,@DPTR
        MOV     R1,A
        MOV     A,#0x6
        LCALL   ?XSTACK_DISP0_8
        LCALL   ??Subroutine54_0 & 0xFFFF
//  820 
//  821   req.keyType   = KEY_TYPE_NWK;
??CrossCallReturnLabel_99:
        MOV     A,#0x2
        LCALL   ?XSTACK_DISP0_8
        MOV     A,#0x1
        MOVX    @DPTR,A
//  822 
//  823   // get the Active Key into a local variable
//  824   if ( NLME_ReadNwkKeyInfo( 0, sizeof(tmpKey), &tmpKey,
//  825                            ZCD_NV_NWK_ACTIVE_KEY_INFO ) != SUCCESS )
        ; Setup parameters for call to function NLME_ReadNwkKeyInfo
        MOV     ?V0,#0x3a
        MOV     ?V1,#0x0
        MOV     R0,#?V0
        LCALL   ?PUSH_XSTACK_I_TWO
          CFI CFA_XSP16 add(XSP16, 42)
        MOV     A,#0xf
        LCALL   ?XSTACK_DISP100_8
        MOV     ?V0,R0
        MOV     ?V1,R1
        MOV     R0,#?V0
        LCALL   ?PUSH_XSTACK_I_TWO
          CFI CFA_XSP16 add(XSP16, 44)
        MOV     R4,#0x11
        MOV     R5,#0x0
        MOV     R2,#0x0
        MOV     R3,#0x0
        LCALL   `??NLME_ReadNwkKeyInfo::?relay`; Banked call to: NLME_ReadNwkKeyInfo
        MOV     A,#0x4
        LCALL   ?DEALLOC_XSTACK8
          CFI CFA_XSP16 add(XSP16, 40)
        MOV     A,R1
        JZ      ??ZDSecMgrSendNwkKey_0
//  826   {
//  827     // set key data to all 0s if NV read fails
//  828     osal_memset(&tmpKey, 0x00, sizeof(tmpKey));
        ; Setup parameters for call to function osal_memset
        MOV     R4,#0x11
        MOV     R5,#0x0
        MOV     R1,#0x0
        MOV     A,#0xd
        LCALL   ?XSTACK_DISP101_8
        LCALL   `??osal_memset::?relay`; Banked call to: osal_memset
//  829   }
//  830 
//  831   if ( ZG_CHECK_SECURITY_MODE == ZG_SECURITY_SE_STANDARD )
//  832   {
//  833     // set values
//  834     req.keySeqNum = tmpKey.keySeqNum;
//  835     req.key       = tmpKey.key;
//  836 
//  837     //devtag.pro.security.todo - make sure that if there is no link key the NWK
//  838     //key isn't used to secure the frame at the APS layer -- since the receiving
//  839     //device may not have a NWK key yet
//  840     req.apsSecure = TRUE;
//  841 
//  842     // check if using secure hop to parent
//  843     if ( device->parentAddr == NLME_GetShortAddr() )
//  844     {
//  845       req.nwkSecure = FALSE;
//  846       req.tunnel    = NULL;
//  847     }
//  848     else
//  849     {
//  850       req.nwkSecure   = TRUE;
//  851       req.tunnel      = &tunnel;
//  852       req.tunnel->tna = device->parentAddr;
//  853       req.tunnel->dea = device->extAddr;
//  854     }
//  855   }
//  856   else
//  857   {
//  858     // default values
//  859     //devtag.0604.verify
//  860     req.nwkSecure = TRUE;
??ZDSecMgrSendNwkKey_0:
        MOV     A,#0xa
        LCALL   ?XSTACK_DISP0_8
        MOV     A,#0x1
        MOVX    @DPTR,A
//  861     req.apsSecure = FALSE;
        MOV     A,#0x9
        LCALL   ?XSTACK_DISP0_8
        CLR     A
        MOVX    @DPTR,A
//  862     req.tunnel    = NULL;
        MOV     A,#0xb
        LCALL   ?XSTACK_DISP0_8
        CLR     A
        MOVX    @DPTR,A
        INC     DPTR
        MOVX    @DPTR,A
//  863 
//  864     if ( device->parentAddr != NLME_GetShortAddr() )
        ; Setup parameters for call to function NLME_GetShortAddr
        LCALL   `??NLME_GetShortAddr::?relay`; Banked call to: NLME_GetShortAddr
        MOV     A,R6
        ADD     A,#0x4
        MOV     R0,A
        CLR     A
        ADDC    A,R7
        MOV     R1,A
        MOV     A,R0
        MOV     R6,A
        MOV     A,R1
        MOV     R7,A
        LCALL   ?Subroutine33 & 0xFFFF
??CrossCallReturnLabel_124:
        MOV     A,R2
        XRL     A,R0
        JNZ     ??ZDSecMgrSendNwkKey_1
        MOV     A,R3
        XRL     A,R1
??ZDSecMgrSendNwkKey_1:
        JZ      ??CrossCallReturnLabel_108
//  865     {
//  866       req.dstAddr = device->parentAddr;
        LCALL   ??Subroutine53_0 & 0xFFFF
//  867     }
//  868 
//  869     // send the real key
//  870     if ( zgPreConfigKeys == FALSE )
??CrossCallReturnLabel_108:
        MOV     DPTR,#zgPreConfigKeys
        MOVX    A,@DPTR
        JNZ     ??ZDSecMgrSendNwkKey_2
//  871     {
//  872       req.keySeqNum = tmpKey.keySeqNum;
        MOV     A,#0xd
        LCALL   ?XSTACK_DISP0_8
        MOVX    A,@DPTR
        PUSH    A
          CFI CFA_SP SP+-1
        MOV     A,#0x3
        LCALL   ?XSTACK_DISP0_8
        POP     A
          CFI CFA_SP SP+0
        MOVX    @DPTR,A
//  873       req.key       = tmpKey.key;
        MOV     A,#0xe
        LCALL   ?XSTACK_DISP0_8
        MOV     R0,DPL
        MOV     R1,DPH
        MOV     A,#0x4
        LCALL   ?XSTACK_DISP0_8
        LCALL   ??Subroutine54_0 & 0xFFFF
//  874 
//  875       // check if using secure hop to to parent
//  876       if ( device->parentAddr == NLME_GetShortAddr() )
??CrossCallReturnLabel_100:
        ; Setup parameters for call to function NLME_GetShortAddr
        LCALL   `??NLME_GetShortAddr::?relay`; Banked call to: NLME_GetShortAddr
        MOV     ?V0,R2
        MOV     ?V1,R3
        MOV     R0,?V0
        MOV     R1,?V1
        MOV     DPL,R6
        MOV     DPH,R7
        MOVX    A,@DPTR
        XRL     A,R0
        JNZ     ??ZDSecMgrSendNwkKey_3
        INC     DPTR
        MOVX    A,@DPTR
        XRL     A,R1
??ZDSecMgrSendNwkKey_3:
        JNZ     ??ZDSecMgrSendNwkKey_4
//  877       {
//  878         req.nwkSecure = FALSE;
        MOV     A,#0xa
        SJMP    ??ZDSecMgrSendNwkKey_5
//  879       }
//  880     }
//  881     else
//  882     {
//  883       // this is to send the all zero key when the NWK key has been preconfigured
//  884       req.key       = NULL;
??ZDSecMgrSendNwkKey_2:
        MOV     A,#0x4
        LCALL   ?XSTACK_DISP0_8
        CLR     A
        MOVX    @DPTR,A
        INC     DPTR
        MOVX    @DPTR,A
//  885       req.keySeqNum = 0;
        MOV     A,#0x3
??ZDSecMgrSendNwkKey_5:
        LCALL   ?XSTACK_DISP0_8
        CLR     A
        MOVX    @DPTR,A
//  886     }
//  887   }
//  888 
//  889   status = APSME_TransportKeyReq( &req );
??ZDSecMgrSendNwkKey_4:
        ; Setup parameters for call to function APSME_TransportKeyReq
        MOV     R2,?XSP + 0
        MOV     R3,?XSP + 1
        LCALL   `??APSME_TransportKeyReq::?relay`; Banked call to: APSME_TransportKeyReq
        MOV     A,R1
        MOV     R6,A
//  890 
//  891   // clear copy of key in RAM before return
//  892   osal_memset( &tmpKey, 0x00, sizeof(nwkKeyDesc) );
        ; Setup parameters for call to function osal_memset
        MOV     R4,#0x11
        MOV     R5,#0x0
        MOV     R1,#0x0
        MOV     A,#0xd
        LCALL   ?XSTACK_DISP101_8
        LCALL   `??osal_memset::?relay`; Banked call to: osal_memset
//  893 
//  894   return status;
        MOV     A,R6
        MOV     R1,A
        MOV     A,#0x1e
        LJMP    ??Subroutine55_0 & 0xFFFF
//  895 }
          CFI EndBlock cfiBlock69
//  896 
//  897 /******************************************************************************
//  898  * @fn          ZDSecMgrDeviceRemoveByExtAddr
//  899  *
//  900  * @brief       Remove device entry by its ext address.
//  901  *
//  902  * @param       pAddr - pointer to the extended address
//  903  *
//  904  * @return      ZStatus_t
//  905  */

        RSEG BANKED_CODE:CODE:NOROOT(0)
//  906 ZStatus_t ZDSecMgrDeviceRemoveByExtAddr( uint8 *pAddr )
ZDSecMgrDeviceRemoveByExtAddr:
          CFI Block cfiBlock70 Using cfiCommon0
          CFI Function ZDSecMgrDeviceRemoveByExtAddr
        CODE
//  907 {
        FUNCALL ZDSecMgrDeviceRemoveByExtAddr, AddrMgrExtAddrSet
        LOCFRAME ISTACK, 0, STACK
        LOCFRAME PSTACK, 0, STACK
        LOCFRAME XSTACK, 22, STACK
        LOCFRAME IOVERLAY, 0, STATIC
        LOCFRAME DOVERLAY, 0, STATIC
        ARGFRAME ISTACK, 0, STACK
        ARGFRAME PSTACK, 0, STACK
        ARGFRAME XSTACK, 22, STACK
        ARGFRAME IOVERLAY, 0, STATIC
        ARGFRAME DOVERLAY, 0, STATIC
        FUNCALL ZDSecMgrDeviceRemoveByExtAddr, AddrMgrEntryLookupExt
        LOCFRAME ISTACK, 0, STACK
        LOCFRAME PSTACK, 0, STACK
        LOCFRAME XSTACK, 22, STACK
        LOCFRAME IOVERLAY, 0, STATIC
        LOCFRAME DOVERLAY, 0, STATIC
        ARGFRAME ISTACK, 0, STACK
        ARGFRAME PSTACK, 0, STACK
        ARGFRAME XSTACK, 22, STACK
        ARGFRAME IOVERLAY, 0, STATIC
        ARGFRAME DOVERLAY, 0, STATIC
        FUNCALL ZDSecMgrDeviceRemoveByExtAddr, ZDSecMgrEntryFree
        LOCFRAME ISTACK, 0, STACK
        LOCFRAME PSTACK, 0, STACK
        LOCFRAME XSTACK, 22, STACK
        LOCFRAME IOVERLAY, 0, STATIC
        LOCFRAME DOVERLAY, 0, STATIC
        ARGFRAME ISTACK, 0, STACK
        ARGFRAME PSTACK, 0, STACK
        ARGFRAME XSTACK, 22, STACK
        ARGFRAME IOVERLAY, 0, STATIC
        ARGFRAME DOVERLAY, 0, STATIC
        MOV     A,#-0x9
        LCALL   ?BANKED_ENTER_XDATA
          CFI DPH0 load(1, XDATA, add(CFA_XSP16, literal(-1)))
          CFI DPL0 load(1, XDATA, add(CFA_XSP16, literal(-2)))
          CFI ?BRET_EXT load(1, XDATA, add(CFA_XSP16, literal(-3)))
          CFI ?RET_HIGH load(1, XDATA, add(CFA_XSP16, literal(-4)))
          CFI ?RET_LOW load(1, XDATA, add(CFA_XSP16, literal(-5)))
          CFI R7 load(1, XDATA, add(CFA_XSP16, literal(-6)))
          CFI V0 load(1, XDATA, add(CFA_XSP16, literal(-7)))
          CFI VB load(1, XDATA, add(CFA_XSP16, literal(-8)))
          CFI R6 load(1, XDATA, add(CFA_XSP16, literal(-9)))
          CFI CFA_SP SP+0
          CFI CFA_XSP16 add(XSP16, 9)
        ; Saved register size: 9
        ; Auto size: 13
        MOV     A,#-0xd
        LCALL   ?ALLOC_XSTACK8
          CFI CFA_XSP16 add(XSP16, 22)
//  908   ZDSecMgrEntry_t *pEntry;
//  909   uint8           retValue;
//  910 
//  911   retValue = (uint8)ZDSecMgrEntryLookupExt( pAddr, &pEntry );
        MOV     R6,#-0x38
        LCALL   ??Subroutine70_0 & 0xFFFF
??CrossCallReturnLabel_157:
        LCALL   ?XSTACK_DISP0_8
        MOV     R2,DPL
        MOV     R3,DPH
        LCALL   `??AddrMgrExtAddrSet::?relay`; Banked call to: AddrMgrExtAddrSet
        ; Setup parameters for call to function AddrMgrEntryLookupExt
        MOV     R2,?XSP + 0
        MOV     R3,?XSP + 1
        LCALL   `??AddrMgrEntryLookupExt::?relay`; Banked call to: AddrMgrEntryLookupExt
        MOV     A,R1
        XRL     A,#0x1
        JNZ     ??ZDSecMgrDeviceRemoveByExtAddr_0
        MOV     A,#0xb
        LCALL   ?XSTACK_DISP0_8
        LCALL   ?Subroutine24 & 0xFFFF
??CrossCallReturnLabel_15:
        JZ      ??ZDSecMgrDeviceRemoveByExtAddr_0
        LCALL   ?Subroutine25 & 0xFFFF
??CrossCallReturnLabel_186:
        MOV     DPL,R2
        MOV     DPH,R3
        MOVX    A,@DPTR
        XRL     A,R4
        JNZ     ??ZDSecMgrDeviceRemoveByExtAddr_1
        INC     DPTR
        MOVX    A,@DPTR
        XRL     A,R5
??ZDSecMgrDeviceRemoveByExtAddr_1:
        JZ      ??ZDSecMgrDeviceRemoveByExtAddr_2
        INC     R0
        MOV     A,R0
        JNZ     ??ZDSecMgrDeviceRemoveByExtAddr_3
        INC     R1
??ZDSecMgrDeviceRemoveByExtAddr_3:
        MOV     A,R2
        ADD     A,#0x5
        MOV     R2,A
        JNC     ??ZDSecMgrDeviceRemoveByExtAddr_4
        INC     R3
??ZDSecMgrDeviceRemoveByExtAddr_4:
        LCALL   ?Subroutine37 & 0xFFFF
??CrossCallReturnLabel_49:
        JNC     ??ZDSecMgrDeviceRemoveByExtAddr_0
        SJMP    ??CrossCallReturnLabel_186
??ZDSecMgrDeviceRemoveByExtAddr_2:
        MOV     R6,#0x0
//  912 
//  913   if( retValue == ZSuccess )
//  914   {
//  915     // remove device from entry data
//  916     ZDSecMgrEntryFree( pEntry );
        ; Setup parameters for call to function ZDSecMgrEntryFree
        MOV     A,R0
        MOV     B,#0x5
        MUL     AB
        MOV     R0,A
        MOV     R2,B
        MOV     B,#0x5
        MOV     A,R1
        MUL     AB
        ADD     A,R2
        MOV     R1,A
        MOV     DPTR,#ZDSecMgrEntries
        MOVX    A,@DPTR
        ADD     A,R0
        MOV     R2,A
        INC     DPTR
        MOVX    A,@DPTR
        ADDC    A,R1
        MOV     R3,A
        LCALL   `??ZDSecMgrEntryFree::?relay`; Banked call to: ZDSecMgrEntryFree
//  917   }
//  918 
//  919   return retValue;
??ZDSecMgrDeviceRemoveByExtAddr_0:
        LJMP    ?Subroutine0 & 0xFFFF
//  920 }
          CFI EndBlock cfiBlock70
//  921 
//  922 /******************************************************************************
//  923  * @fn          ZDSecMgrDeviceRemove
//  924  *
//  925  * @brief       Remove device from network.
//  926  *
//  927  * @param       device - [in] ZDSecMgrDevice_t, device info
//  928  *
//  929  * @return      none
//  930  */

        RSEG BANKED_CODE:CODE:NOROOT(0)
//  931 void ZDSecMgrDeviceRemove( ZDSecMgrDevice_t* device )
ZDSecMgrDeviceRemove:
          CFI Block cfiBlock71 Using cfiCommon0
          CFI Function ZDSecMgrDeviceRemove
        CODE
//  932 {
        FUNCALL ZDSecMgrDeviceRemove, NLME_GetShortAddr
        LOCFRAME ISTACK, 0, STACK
        LOCFRAME PSTACK, 0, STACK
        LOCFRAME XSTACK, 20, STACK
        LOCFRAME IOVERLAY, 0, STATIC
        LOCFRAME DOVERLAY, 0, STATIC
        ARGFRAME ISTACK, 0, STACK
        ARGFRAME PSTACK, 0, STACK
        ARGFRAME XSTACK, 20, STACK
        ARGFRAME IOVERLAY, 0, STATIC
        ARGFRAME DOVERLAY, 0, STATIC
        FUNCALL ZDSecMgrDeviceRemove, AssocGetWithExt
        LOCFRAME ISTACK, 0, STACK
        LOCFRAME PSTACK, 0, STACK
        LOCFRAME XSTACK, 20, STACK
        LOCFRAME IOVERLAY, 0, STATIC
        LOCFRAME DOVERLAY, 0, STATIC
        ARGFRAME ISTACK, 0, STACK
        ARGFRAME PSTACK, 0, STACK
        ARGFRAME XSTACK, 20, STACK
        ARGFRAME IOVERLAY, 0, STATIC
        ARGFRAME DOVERLAY, 0, STATIC
        FUNCALL ZDSecMgrDeviceRemove, NLME_LeaveReq
        LOCFRAME ISTACK, 0, STACK
        LOCFRAME PSTACK, 0, STACK
        LOCFRAME XSTACK, 20, STACK
        LOCFRAME IOVERLAY, 0, STATIC
        LOCFRAME DOVERLAY, 0, STATIC
        ARGFRAME ISTACK, 0, STACK
        ARGFRAME PSTACK, 0, STACK
        ARGFRAME XSTACK, 20, STACK
        ARGFRAME IOVERLAY, 0, STATIC
        ARGFRAME DOVERLAY, 0, STATIC
        FUNCALL ZDSecMgrDeviceRemove, NLME_GetShortAddr
        LOCFRAME ISTACK, 0, STACK
        LOCFRAME PSTACK, 0, STACK
        LOCFRAME XSTACK, 20, STACK
        LOCFRAME IOVERLAY, 0, STATIC
        LOCFRAME DOVERLAY, 0, STATIC
        ARGFRAME ISTACK, 0, STACK
        ARGFRAME PSTACK, 0, STACK
        ARGFRAME XSTACK, 20, STACK
        ARGFRAME IOVERLAY, 0, STATIC
        ARGFRAME DOVERLAY, 0, STATIC
        FUNCALL ZDSecMgrDeviceRemove, NLME_LeaveReq
        LOCFRAME ISTACK, 0, STACK
        LOCFRAME PSTACK, 0, STACK
        LOCFRAME XSTACK, 20, STACK
        LOCFRAME IOVERLAY, 0, STATIC
        LOCFRAME DOVERLAY, 0, STATIC
        ARGFRAME ISTACK, 0, STACK
        ARGFRAME PSTACK, 0, STACK
        ARGFRAME XSTACK, 20, STACK
        ARGFRAME IOVERLAY, 0, STATIC
        ARGFRAME DOVERLAY, 0, STATIC
        FUNCALL ZDSecMgrDeviceRemove, APSME_RemoveDeviceReq
        LOCFRAME ISTACK, 0, STACK
        LOCFRAME PSTACK, 0, STACK
        LOCFRAME XSTACK, 20, STACK
        LOCFRAME IOVERLAY, 0, STATIC
        LOCFRAME DOVERLAY, 0, STATIC
        ARGFRAME ISTACK, 0, STACK
        ARGFRAME PSTACK, 0, STACK
        ARGFRAME XSTACK, 20, STACK
        ARGFRAME IOVERLAY, 0, STATIC
        ARGFRAME DOVERLAY, 0, STATIC
        REQUIRE ?V0
        REQUIRE ?V1
        MOV     A,#-0xa
        LCALL   ?BANKED_ENTER_XDATA
          CFI DPH0 load(1, XDATA, add(CFA_XSP16, literal(-1)))
          CFI DPL0 load(1, XDATA, add(CFA_XSP16, literal(-2)))
          CFI ?BRET_EXT load(1, XDATA, add(CFA_XSP16, literal(-3)))
          CFI ?RET_HIGH load(1, XDATA, add(CFA_XSP16, literal(-4)))
          CFI ?RET_LOW load(1, XDATA, add(CFA_XSP16, literal(-5)))
          CFI R7 load(1, XDATA, add(CFA_XSP16, literal(-6)))
          CFI V1 load(1, XDATA, add(CFA_XSP16, literal(-7)))
          CFI V0 load(1, XDATA, add(CFA_XSP16, literal(-8)))
          CFI VB load(1, XDATA, add(CFA_XSP16, literal(-9)))
          CFI R6 load(1, XDATA, add(CFA_XSP16, literal(-10)))
          CFI CFA_SP SP+0
          CFI CFA_XSP16 add(XSP16, 10)
        ; Saved register size: 10
        ; Auto size: 10
        MOV     A,#-0xa
        LCALL   ?ALLOC_XSTACK8
          CFI CFA_XSP16 add(XSP16, 20)
        MOV     A,R2
        MOV     R6,A
        MOV     A,R3
        MOV     R7,A
//  933   APSME_RemoveDeviceReq_t remDevReq;
//  934   NLME_LeaveReq_t         leaveReq;
//  935   associated_devices_t*   assoc;
//  936 
//  937   // check if parent, remove the device
//  938   if ( device->parentAddr == NLME_GetShortAddr() )
        ; Setup parameters for call to function NLME_GetShortAddr
        LCALL   `??NLME_GetShortAddr::?relay`; Banked call to: NLME_GetShortAddr
        MOV     ?V0,R2
        MOV     ?V1,R3
        MOV     DPL,R6
        MOV     DPH,R7
        INC     DPTR
        INC     DPTR
        INC     DPTR
        INC     DPTR
        LCALL   ??Subroutine72_0 & 0xFFFF
??CrossCallReturnLabel_171:
        LCALL   ?Subroutine39 & 0xFFFF
??CrossCallReturnLabel_60:
        MOV     A,?V0
        XRL     A,R2
        JNZ     ??ZDSecMgrDeviceRemove_0
        MOV     A,?V1
        XRL     A,R3
??ZDSecMgrDeviceRemove_0:
        JZ      $+5
        LJMP    ??ZDSecMgrDeviceRemove_1 & 0xFFFF
//  939   {
//  940     // this is the parent of the device
//  941     leaveReq.extAddr        = device->extAddr;
        MOV     DPL,R0
        MOV     DPH,R1
        LCALL   ??Subroutine72_0 & 0xFFFF
??CrossCallReturnLabel_172:
        LCALL   ?Subroutine19 & 0xFFFF
//  942     leaveReq.removeChildren = FALSE;
??CrossCallReturnLabel_142:
        LCALL   ?XSTACK_DISP0_8
        CLR     A
        MOVX    @DPTR,A
//  943     leaveReq.rejoin         = FALSE;
        MOV     A,#0x3
        LCALL   ?XSTACK_DISP0_8
        LCALL   ?Subroutine23 & 0xFFFF
//  944 
//  945     // find child association
//  946     assoc = AssocGetWithExt( device->extAddr );
??CrossCallReturnLabel_89:
        LCALL   ??Subroutine72_0 & 0xFFFF
??CrossCallReturnLabel_173:
        LCALL   `??AssocGetWithExt::?relay`; Banked call to: AssocGetWithExt
        MOV     ?V0,R2
        MOV     ?V1,R3
        MOV     R0,?V0
        MOV     R1,?V1
//  947 
//  948     if ( ( assoc != NULL                            ) &&
//  949          ( assoc->nodeRelation >= CHILD_RFD         ) &&
//  950          ( assoc->nodeRelation <= CHILD_FFD_RX_IDLE )    )
        MOV     A,R0
        ORL     A,R1
        JZ      ??ZDSecMgrDeviceRemove_2
        MOV     DPL,R0
        MOV     DPH,R1
        INC     DPTR
        INC     DPTR
        INC     DPTR
        INC     DPTR
        MOVX    A,@DPTR
        JZ      ??ZDSecMgrDeviceRemove_2
        CLR     C
        SUBB    A,#0x5
        JNC     ??ZDSecMgrDeviceRemove_2
//  951     {
//  952       // check if associated device is authenticated
//  953       if ( assoc->devStatus & DEV_SEC_AUTH_STATUS )
        MOV     DPL,R0
        MOV     DPH,R1
        INC     DPTR
        INC     DPTR
        INC     DPTR
        INC     DPTR
        INC     DPTR
        MOVX    A,@DPTR
        MOV     C,0xE0 /* A   */.3
        MOV     A,#0x4
        JC      ??ZDSecMgrDeviceRemove_3
//  954       {
//  955         leaveReq.silent = FALSE;
//  956       }
//  957       else
//  958       {
//  959         leaveReq.silent = TRUE;
        LCALL   ?XSTACK_DISP0_8
        MOV     A,#0x1
        SJMP    ??ZDSecMgrDeviceRemove_4
        ; Setup parameters for call to function NLME_LeaveReq
//  960       }
//  961 
//  962       NLME_LeaveReq( &leaveReq );
//  963     }
//  964     else if ( device->nwkAddr == NLME_GetShortAddr() )
??ZDSecMgrDeviceRemove_2:
        ; Setup parameters for call to function NLME_GetShortAddr
        LCALL   `??NLME_GetShortAddr::?relay`; Banked call to: NLME_GetShortAddr
        MOV     ?V0,R2
        MOV     ?V1,R3
        MOV     R0,?V0
        MOV     R1,?V1
        MOV     DPL,R6
        MOV     DPH,R7
        MOVX    A,@DPTR
        XRL     A,R0
        JNZ     ??ZDSecMgrDeviceRemove_5
        INC     DPTR
        MOVX    A,@DPTR
        XRL     A,R1
??ZDSecMgrDeviceRemove_5:
        JNZ     ??ZDSecMgrDeviceRemove_6
//  965     {
//  966       // this is when ZC wants that ZR removes itself from the network
//  967       leaveReq.extAddr = NULL;
        MOV     DPL,?XSP + 0
        MOV     DPH,?XSP + 1
        CLR     A
        MOVX    @DPTR,A
        INC     DPTR
        MOVX    @DPTR,A
//  968       leaveReq.silent = FALSE;
        MOV     A,#0x4
??ZDSecMgrDeviceRemove_3:
        LCALL   ?XSTACK_DISP0_8
        CLR     A
//  969 
//  970       NLME_LeaveReq( &leaveReq );
//  971     }
//  972   }
??ZDSecMgrDeviceRemove_4:
        LCALL   ??Subroutine65_0 & 0xFFFF
??CrossCallReturnLabel_135:
        LCALL   `??NLME_LeaveReq::?relay`; Banked call to: NLME_LeaveReq
        SJMP    ??ZDSecMgrDeviceRemove_6
//  973   else
//  974   {
//  975     // this is not the parent of the device
//  976     remDevReq.parentAddr   = device->parentAddr;
??ZDSecMgrDeviceRemove_1:
        MOV     A,#0x5
        LCALL   ?XSTACK_DISP0_8
        MOV     A,R2
        MOVX    @DPTR,A
        INC     DPTR
        MOV     A,R3
        LCALL   ??Subroutine52_0 & 0xFFFF
//  977     remDevReq.childExtAddr = device->extAddr;
??CrossCallReturnLabel_92:
        LCALL   ??Subroutine60_0 & 0xFFFF
??CrossCallReturnLabel_119:
        MOV     A,#0x7
        LCALL   ?XSTACK_DISP0_8
        LCALL   ??Subroutine54_0 & 0xFFFF
//  978 
//  979 #if defined ( APP_TP2_TEST_MODE )
//  980     if ( guTxApsSecON == TRUE )
//  981     {
//  982       remDevReq.apsSecure = TRUE;
//  983     }
//  984     else
//  985     {
//  986       remDevReq.apsSecure = FALSE;
//  987     }
//  988 
//  989     APSME_RemoveDeviceReq( &remDevReq );
//  990 
//  991 #else
//  992     if ( ZG_CHECK_SECURITY_MODE == ZG_SECURITY_SE_STANDARD )
//  993     {
//  994       // For ZG_GLOBAL_LINK_KEY the message has to be sent twice, one
//  995       // APS un-encrypted and one APS encrypted, to make sure that it can interoperate
//  996       // with legacy Coordinator devices which can only handle one or the other.
//  997       if ( zgApsLinkKeyType == ZG_GLOBAL_LINK_KEY )
//  998       {
//  999         remDevReq.apsSecure = FALSE;
// 1000 
// 1001         APSME_RemoveDeviceReq( &remDevReq );
// 1002       }
// 1003 
// 1004       remDevReq.apsSecure = TRUE;
// 1005 
// 1006       APSME_RemoveDeviceReq( &remDevReq );
// 1007     }
// 1008     else
// 1009     {
// 1010       remDevReq.apsSecure = FALSE;
??CrossCallReturnLabel_101:
        MOV     A,#0x9
        LCALL   ?XSTACK_DISP0_8
        CLR     A
        MOVX    @DPTR,A
// 1011 
// 1012       APSME_RemoveDeviceReq( &remDevReq );
        ; Setup parameters for call to function APSME_RemoveDeviceReq
        MOV     A,#0x5
        LCALL   ?XSTACK_DISP101_8
        LCALL   `??APSME_RemoveDeviceReq::?relay`; Banked call to: APSME_RemoveDeviceReq
// 1013     }
// 1014 #endif
// 1015   }
// 1016 }
??ZDSecMgrDeviceRemove_6:
        MOV     A,#0xa
        LJMP    ??Subroutine55_0 & 0xFFFF
          CFI EndBlock cfiBlock71

        RSEG BANKED_CODE:CODE:NOROOT(0)
?Subroutine39:
          CFI Block cfiCond72 Using cfiCommon0
          CFI Function ZDSecMgrEntryFree
          CFI Conditional ??CrossCallReturnLabel_59
          CFI R6 load(1, XDATA, add(CFA_XSP16, literal(-14)))
          CFI VB load(1, XDATA, add(CFA_XSP16, literal(-13)))
          CFI V0 load(1, XDATA, add(CFA_XSP16, literal(-12)))
          CFI V1 load(1, XDATA, add(CFA_XSP16, literal(-11)))
          CFI V2 load(1, XDATA, add(CFA_XSP16, literal(-10)))
          CFI V3 load(1, XDATA, add(CFA_XSP16, literal(-9)))
          CFI V4 load(1, XDATA, add(CFA_XSP16, literal(-8)))
          CFI V5 load(1, XDATA, add(CFA_XSP16, literal(-7)))
          CFI R7 load(1, XDATA, add(CFA_XSP16, literal(-6)))
          CFI ?RET_LOW load(1, XDATA, add(CFA_XSP16, literal(-5)))
          CFI ?RET_HIGH load(1, XDATA, add(CFA_XSP16, literal(-4)))
          CFI ?BRET_EXT load(1, XDATA, add(CFA_XSP16, literal(-3)))
          CFI DPL0 load(1, XDATA, add(CFA_XSP16, literal(-2)))
          CFI DPH0 load(1, XDATA, add(CFA_XSP16, literal(-1)))
          CFI CFA_SP SP+-2
          CFI CFA_XSP16 add(XSP16, 14)
          CFI Block cfiCond73 Using cfiCommon0
          CFI (cfiCond73) Function ZDSecMgrDeviceRemove
          CFI (cfiCond73) Conditional ??CrossCallReturnLabel_60
          CFI (cfiCond73) R6 load(1, XDATA, add(CFA_XSP16, literal(-10)))
          CFI (cfiCond73) VB load(1, XDATA, add(CFA_XSP16, literal(-9)))
          CFI (cfiCond73) V0 load(1, XDATA, add(CFA_XSP16, literal(-8)))
          CFI (cfiCond73) V1 load(1, XDATA, add(CFA_XSP16, literal(-7)))
          CFI (cfiCond73) R7 load(1, XDATA, add(CFA_XSP16, literal(-6)))
          CFI (cfiCond73) ?RET_LOW load(1, XDATA, add(CFA_XSP16, literal(-5)))
          CFI (cfiCond73) ?RET_HIGH load(1, XDATA, add(CFA_XSP16, literal(-4)))
          CFI (cfiCond73) ?BRET_EXT load(1, XDATA, add(CFA_XSP16, literal(-3)))
          CFI (cfiCond73) DPL0 load(1, XDATA, add(CFA_XSP16, literal(-2)))
          CFI (cfiCond73) DPH0 load(1, XDATA, add(CFA_XSP16, literal(-1)))
          CFI (cfiCond73) CFA_SP SP+-2
          CFI (cfiCond73) CFA_XSP16 add(XSP16, 20)
          CFI Block cfiCond74 Using cfiCommon0
          CFI (cfiCond74) Function ZDSecMgrDeviceJoin
          CFI (cfiCond74) Conditional ??CrossCallReturnLabel_61
          CFI (cfiCond74) R6 load(1, XDATA, add(CFA_XSP16, literal(-13)))
          CFI (cfiCond74) VB load(1, XDATA, add(CFA_XSP16, literal(-12)))
          CFI (cfiCond74) V0 load(1, XDATA, add(CFA_XSP16, literal(-11)))
          CFI (cfiCond74) V1 load(1, XDATA, add(CFA_XSP16, literal(-10)))
          CFI (cfiCond74) V2 load(1, XDATA, add(CFA_XSP16, literal(-9)))
          CFI (cfiCond74) V3 load(1, XDATA, add(CFA_XSP16, literal(-8)))
          CFI (cfiCond74) V4 load(1, XDATA, add(CFA_XSP16, literal(-7)))
          CFI (cfiCond74) R7 load(1, XDATA, add(CFA_XSP16, literal(-6)))
          CFI (cfiCond74) ?RET_LOW load(1, XDATA, add(CFA_XSP16, literal(-5)))
          CFI (cfiCond74) ?RET_HIGH load(1, XDATA, add(CFA_XSP16, literal(-4)))
          CFI (cfiCond74) ?BRET_EXT load(1, XDATA, add(CFA_XSP16, literal(-3)))
          CFI (cfiCond74) DPL0 load(1, XDATA, add(CFA_XSP16, literal(-2)))
          CFI (cfiCond74) DPH0 load(1, XDATA, add(CFA_XSP16, literal(-1)))
          CFI (cfiCond74) CFA_SP SP+-2
          CFI (cfiCond74) CFA_XSP16 add(XSP16, 38)
          CFI Block cfiPicker75 Using cfiCommon1
          CFI (cfiPicker75) NoFunction
          CFI (cfiPicker75) Picker
        MOV     A,R6
        ADD     A,#0x2
        MOV     R0,A
        CLR     A
        ADDC    A,R7
        MOV     R1,A
        RET
          CFI (cfiCond72) CFA_SP SP+0
          CFI (cfiCond73) CFA_SP SP+0
          CFI (cfiCond74) CFA_SP SP+0
          CFI (cfiPicker75) CFA_SP SP+0
          CFI EndBlock cfiCond72
          CFI EndBlock cfiCond73
          CFI EndBlock cfiCond74
          CFI EndBlock cfiPicker75

        RSEG BANKED_CODE:CODE:NOROOT(0)
?Subroutine23:
          CFI Block cfiCond76 Using cfiCommon0
          CFI Function ZDSecMgrDeviceRemove
          CFI Conditional ??CrossCallReturnLabel_89
          CFI R6 load(1, XDATA, add(CFA_XSP16, literal(-10)))
          CFI VB load(1, XDATA, add(CFA_XSP16, literal(-9)))
          CFI V0 load(1, XDATA, add(CFA_XSP16, literal(-8)))
          CFI V1 load(1, XDATA, add(CFA_XSP16, literal(-7)))
          CFI R7 load(1, XDATA, add(CFA_XSP16, literal(-6)))
          CFI ?RET_LOW load(1, XDATA, add(CFA_XSP16, literal(-5)))
          CFI ?RET_HIGH load(1, XDATA, add(CFA_XSP16, literal(-4)))
          CFI ?BRET_EXT load(1, XDATA, add(CFA_XSP16, literal(-3)))
          CFI DPL0 load(1, XDATA, add(CFA_XSP16, literal(-2)))
          CFI DPH0 load(1, XDATA, add(CFA_XSP16, literal(-1)))
          CFI CFA_SP SP+-2
          CFI CFA_XSP16 add(XSP16, 20)
          CFI Block cfiCond77 Using cfiCommon0
          CFI (cfiCond77) Function ZDSecMgrAddLinkKey
          CFI (cfiCond77) Conditional ??CrossCallReturnLabel_90
          CFI (cfiCond77) R6 load(1, XDATA, add(CFA_XSP16, literal(-9)))
          CFI (cfiCond77) VB load(1, XDATA, add(CFA_XSP16, literal(-8)))
          CFI (cfiCond77) V0 load(1, XDATA, add(CFA_XSP16, literal(-7)))
          CFI (cfiCond77) R7 load(1, XDATA, add(CFA_XSP16, literal(-6)))
          CFI (cfiCond77) ?RET_LOW load(1, XDATA, add(CFA_XSP16, literal(-5)))
          CFI (cfiCond77) ?RET_HIGH load(1, XDATA, add(CFA_XSP16, literal(-4)))
          CFI (cfiCond77) ?BRET_EXT load(1, XDATA, add(CFA_XSP16, literal(-3)))
          CFI (cfiCond77) DPL0 load(1, XDATA, add(CFA_XSP16, literal(-2)))
          CFI (cfiCond77) DPH0 load(1, XDATA, add(CFA_XSP16, literal(-1)))
          CFI (cfiCond77) CFA_SP SP+-2
          CFI (cfiCond77) CFA_XSP16 add(XSP16, 22)
          CFI Block cfiPicker78 Using cfiCommon1
          CFI (cfiPicker78) NoFunction
          CFI (cfiPicker78) Picker
        CLR     A
          CFI EndBlock cfiCond76
          CFI EndBlock cfiCond77
          CFI EndBlock cfiPicker78
        REQUIRE ??Subroutine52_0
        ; // Fall through to label ??Subroutine52_0

        RSEG BANKED_CODE:CODE:NOROOT(0)
??Subroutine52_0:
          CFI Block cfiCond79 Using cfiCommon0
          CFI Function ZDSecMgrEntryInit
          CFI Conditional ??CrossCallReturnLabel_91
          CFI DPL0 Frame(CFA_SP, 4)
          CFI DPH0 Frame(CFA_SP, 5)
          CFI CFA_SP SP+-7
          CFI Block cfiCond80 Using cfiCommon0
          CFI (cfiCond80) Function ZDSecMgrDeviceRemove
          CFI (cfiCond80) Conditional ??CrossCallReturnLabel_92
          CFI (cfiCond80) R6 load(1, XDATA, add(CFA_XSP16, literal(-10)))
          CFI (cfiCond80) VB load(1, XDATA, add(CFA_XSP16, literal(-9)))
          CFI (cfiCond80) V0 load(1, XDATA, add(CFA_XSP16, literal(-8)))
          CFI (cfiCond80) V1 load(1, XDATA, add(CFA_XSP16, literal(-7)))
          CFI (cfiCond80) R7 load(1, XDATA, add(CFA_XSP16, literal(-6)))
          CFI (cfiCond80) ?RET_LOW load(1, XDATA, add(CFA_XSP16, literal(-5)))
          CFI (cfiCond80) ?RET_HIGH load(1, XDATA, add(CFA_XSP16, literal(-4)))
          CFI (cfiCond80) ?BRET_EXT load(1, XDATA, add(CFA_XSP16, literal(-3)))
          CFI (cfiCond80) DPL0 load(1, XDATA, add(CFA_XSP16, literal(-2)))
          CFI (cfiCond80) DPH0 load(1, XDATA, add(CFA_XSP16, literal(-1)))
          CFI (cfiCond80) CFA_SP SP+-2
          CFI (cfiCond80) CFA_XSP16 add(XSP16, 20)
          CFI Block cfiCond81 Using cfiCommon0
          CFI (cfiCond81) Function ZDSecMgrDeviceRemove
          CFI (cfiCond81) Conditional ??CrossCallReturnLabel_89
          CFI (cfiCond81) R6 load(1, XDATA, add(CFA_XSP16, literal(-10)))
          CFI (cfiCond81) VB load(1, XDATA, add(CFA_XSP16, literal(-9)))
          CFI (cfiCond81) V0 load(1, XDATA, add(CFA_XSP16, literal(-8)))
          CFI (cfiCond81) V1 load(1, XDATA, add(CFA_XSP16, literal(-7)))
          CFI (cfiCond81) R7 load(1, XDATA, add(CFA_XSP16, literal(-6)))
          CFI (cfiCond81) ?RET_LOW load(1, XDATA, add(CFA_XSP16, literal(-5)))
          CFI (cfiCond81) ?RET_HIGH load(1, XDATA, add(CFA_XSP16, literal(-4)))
          CFI (cfiCond81) ?BRET_EXT load(1, XDATA, add(CFA_XSP16, literal(-3)))
          CFI (cfiCond81) DPL0 load(1, XDATA, add(CFA_XSP16, literal(-2)))
          CFI (cfiCond81) DPH0 load(1, XDATA, add(CFA_XSP16, literal(-1)))
          CFI (cfiCond81) CFA_SP SP+-2
          CFI (cfiCond81) CFA_XSP16 add(XSP16, 20)
          CFI Block cfiCond82 Using cfiCommon0
          CFI (cfiCond82) Function ZDSecMgrAddLinkKey
          CFI (cfiCond82) Conditional ??CrossCallReturnLabel_90
          CFI (cfiCond82) R6 load(1, XDATA, add(CFA_XSP16, literal(-9)))
          CFI (cfiCond82) VB load(1, XDATA, add(CFA_XSP16, literal(-8)))
          CFI (cfiCond82) V0 load(1, XDATA, add(CFA_XSP16, literal(-7)))
          CFI (cfiCond82) R7 load(1, XDATA, add(CFA_XSP16, literal(-6)))
          CFI (cfiCond82) ?RET_LOW load(1, XDATA, add(CFA_XSP16, literal(-5)))
          CFI (cfiCond82) ?RET_HIGH load(1, XDATA, add(CFA_XSP16, literal(-4)))
          CFI (cfiCond82) ?BRET_EXT load(1, XDATA, add(CFA_XSP16, literal(-3)))
          CFI (cfiCond82) DPL0 load(1, XDATA, add(CFA_XSP16, literal(-2)))
          CFI (cfiCond82) DPH0 load(1, XDATA, add(CFA_XSP16, literal(-1)))
          CFI (cfiCond82) CFA_SP SP+-2
          CFI (cfiCond82) CFA_XSP16 add(XSP16, 22)
          CFI Block cfiPicker83 Using cfiCommon1
          CFI (cfiPicker83) NoFunction
          CFI (cfiPicker83) Picker
        MOVX    @DPTR,A
        ; Setup parameters for call to function AssocGetWithExt
        MOV     DPL,R0
        MOV     DPH,R1
        RET
          CFI (cfiCond79) CFA_SP SP+-5
          CFI (cfiCond80) CFA_SP SP+0
          CFI (cfiCond81) CFA_SP SP+0
          CFI (cfiCond82) CFA_SP SP+0
          CFI (cfiPicker83) CFA_SP SP+0
          CFI EndBlock cfiCond79
          CFI EndBlock cfiCond80
          CFI EndBlock cfiCond81
          CFI EndBlock cfiCond82
          CFI EndBlock cfiPicker83
// 1017 
// 1018 /******************************************************************************
// 1019  * @fn          ZDSecMgrDeviceValidateRM (RESIDENTIAL MODE)
// 1020  *
// 1021  * @brief       Decide whether device is allowed.
// 1022  *
// 1023  * @param       device - [in] ZDSecMgrDevice_t, device info
// 1024  *
// 1025  * @return      ZStatus_t
// 1026  */

        RSEG BANKED_CODE:CODE:NOROOT(0)
// 1027 ZStatus_t ZDSecMgrDeviceValidateRM( ZDSecMgrDevice_t* device )
ZDSecMgrDeviceValidateRM:
          CFI Block cfiBlock84 Using cfiCommon0
          CFI Function ZDSecMgrDeviceValidateRM
        CODE
// 1028 {
        PUSH    DPL
          CFI DPL0 Frame(CFA_SP, 4)
          CFI CFA_SP SP+-4
        PUSH    DPH
          CFI DPH0 Frame(CFA_SP, 5)
          CFI CFA_SP SP+-5
        ; Saved register size: 2
        ; Auto size: 0
// 1029   ZStatus_t status;
// 1030 
// 1031   status = ZSuccess;
        MOV     R1,#0x0
// 1032 
// 1033   (void)device;  // Intentionally unreferenced parameter
// 1034 
// 1035   // For test purpose, turning off the zgSecurePermitJoin flag will force
// 1036   // the trust center to reject any newly joining devices by sending
// 1037   // Remove-device to the parents.
// 1038   if ( zgSecurePermitJoin == FALSE )
        MOV     DPTR,#zgSecurePermitJoin
        MOVX    A,@DPTR
        JNZ     ??ZDSecMgrDeviceValidateRM_0
// 1039   {
// 1040     status = ZNwkUnknownDevice;
        MOV     R1,#-0x38
// 1041   }
// 1042 
// 1043 
// 1044 
// 1045 #if 0  // Taken out because the following functionality is only used for test
// 1046        // purpose. A more efficient (above) way is used. It can be put
// 1047        // back in if customers request for a white/black list feature.
// 1048        // ZDSecMgrStoredDeviceList[] is defined in ZDSecMgr.c
// 1049 
// 1050   // The following code processes the device black list (stored device list)
// 1051   // If the joining device is not part of the forbidden device list
// 1052   // Return ZSuccess. Otherwise, return ZNwkUnknownDevice. The trust center
// 1053   // will send Remove-device and ban the device from joining.
// 1054 
// 1055   uint8     index;
// 1056   uint8*    restricted;
// 1057 
// 1058   // Look through the stored device list - used for restricted devices
// 1059   for ( index = 0; index < ZDSECMGR_STORED_DEVICES; index++ )
// 1060   {
// 1061     restricted = ZDSecMgrStoredDeviceList[index];
// 1062 
// 1063     if ( AddrMgrExtAddrEqual( restricted, device->extAddr )  == TRUE )
// 1064     {
// 1065       // return as unknown device in regards to validation
// 1066       status = ZNwkUnknownDevice;
// 1067 
// 1068       // break from loop
// 1069       index = ZDSECMGR_STORED_DEVICES;
// 1070     }
// 1071   }
// 1072 
// 1073 #endif
// 1074 
// 1075   return status;
??ZDSecMgrDeviceValidateRM_0:
        LJMP    ??Subroutine58_0 & 0xFFFF
// 1076 }
          CFI EndBlock cfiBlock84
// 1077 
// 1078 /******************************************************************************
// 1079  * @fn          ZDSecMgrDeviceValidate
// 1080  *
// 1081  * @brief       Decide whether device is allowed.
// 1082  *
// 1083  * @param       device - [in] ZDSecMgrDevice_t, device info
// 1084  *
// 1085  * @return      ZStatus_t
// 1086  */

        RSEG BANKED_CODE:CODE:NOROOT(0)
// 1087 ZStatus_t ZDSecMgrDeviceValidate( ZDSecMgrDevice_t* device )
ZDSecMgrDeviceValidate:
          CFI Block cfiBlock85 Using cfiCommon0
          CFI Function ZDSecMgrDeviceValidate
        CODE
// 1088 {
        PUSH    DPL
          CFI DPL0 Frame(CFA_SP, 4)
          CFI CFA_SP SP+-4
        PUSH    DPH
          CFI DPH0 Frame(CFA_SP, 5)
          CFI CFA_SP SP+-5
        ; Saved register size: 2
        ; Auto size: 0
// 1089   ZStatus_t status;
// 1090 
// 1091   if ( ZDSecMgrPermitJoiningEnabled == TRUE )
        MOV     DPTR,#ZDSecMgrPermitJoiningEnabled
        MOVX    A,@DPTR
        XRL     A,#0x1
        JNZ     ??ZDSecMgrDeviceValidate_0
// 1092   {
// 1093     status = ZDSecMgrDeviceValidateRM( device );
        MOV     R0,#0x0
        MOV     DPTR,#zgSecurePermitJoin
        MOVX    A,@DPTR
        JNZ     ??ZDSecMgrDeviceValidate_1
        MOV     R0,#-0x38
// 1094   }
??ZDSecMgrDeviceValidate_1:
        MOV     A,R0
        MOV     R1,A
        SJMP    ??ZDSecMgrDeviceValidate_2
// 1095   else
// 1096   {
// 1097     status = ZNwkUnknownDevice;
??ZDSecMgrDeviceValidate_0:
        MOV     R1,#-0x38
// 1098   }
// 1099 
// 1100   return status;
??ZDSecMgrDeviceValidate_2:
        LJMP    ??Subroutine58_0 & 0xFFFF
// 1101 }
          CFI EndBlock cfiBlock85
// 1102 
// 1103 /******************************************************************************
// 1104  * @fn          ZDSecMgrDeviceJoin
// 1105  *
// 1106  * @brief       Try to join this device.
// 1107  *
// 1108  * @param       device - [in] ZDSecMgrDevice_t, device info
// 1109  *
// 1110  * @return      ZStatus_t
// 1111  */

        RSEG BANKED_CODE:CODE:NOROOT(0)
// 1112 ZStatus_t ZDSecMgrDeviceJoin( ZDSecMgrDevice_t* device )
ZDSecMgrDeviceJoin:
          CFI Block cfiBlock86 Using cfiCommon0
          CFI Function ZDSecMgrDeviceJoin
        CODE
// 1113 {
        FUNCALL ZDSecMgrDeviceJoin, AddrMgrExtAddrSet
        LOCFRAME ISTACK, 0, STACK
        LOCFRAME PSTACK, 0, STACK
        LOCFRAME XSTACK, 38, STACK
        LOCFRAME IOVERLAY, 0, STATIC
        LOCFRAME DOVERLAY, 0, STATIC
        ARGFRAME ISTACK, 0, STACK
        ARGFRAME PSTACK, 0, STACK
        ARGFRAME XSTACK, 38, STACK
        ARGFRAME IOVERLAY, 0, STATIC
        ARGFRAME DOVERLAY, 0, STATIC
        FUNCALL ZDSecMgrDeviceJoin, AddrMgrEntryUpdate
        LOCFRAME ISTACK, 0, STACK
        LOCFRAME PSTACK, 0, STACK
        LOCFRAME XSTACK, 38, STACK
        LOCFRAME IOVERLAY, 0, STATIC
        LOCFRAME DOVERLAY, 0, STATIC
        ARGFRAME ISTACK, 0, STACK
        ARGFRAME PSTACK, 0, STACK
        ARGFRAME XSTACK, 38, STACK
        ARGFRAME IOVERLAY, 0, STATIC
        ARGFRAME DOVERLAY, 0, STATIC
        FUNCALL ZDSecMgrDeviceJoin, ZDSecMgrSendNwkKey
        LOCFRAME ISTACK, 0, STACK
        LOCFRAME PSTACK, 0, STACK
        LOCFRAME XSTACK, 38, STACK
        LOCFRAME IOVERLAY, 0, STATIC
        LOCFRAME DOVERLAY, 0, STATIC
        ARGFRAME ISTACK, 0, STACK
        ARGFRAME PSTACK, 0, STACK
        ARGFRAME XSTACK, 38, STACK
        ARGFRAME IOVERLAY, 0, STATIC
        ARGFRAME DOVERLAY, 0, STATIC
        FUNCALL ZDSecMgrDeviceJoin, ZDSecMgrAddrClear
        LOCFRAME ISTACK, 0, STACK
        LOCFRAME PSTACK, 0, STACK
        LOCFRAME XSTACK, 38, STACK
        LOCFRAME IOVERLAY, 0, STATIC
        LOCFRAME DOVERLAY, 0, STATIC
        ARGFRAME ISTACK, 0, STACK
        ARGFRAME PSTACK, 0, STACK
        ARGFRAME XSTACK, 38, STACK
        ARGFRAME IOVERLAY, 0, STATIC
        ARGFRAME DOVERLAY, 0, STATIC
        FUNCALL ZDSecMgrDeviceJoin, ZDSecMgrDeviceRemove
        LOCFRAME ISTACK, 0, STACK
        LOCFRAME PSTACK, 0, STACK
        LOCFRAME XSTACK, 38, STACK
        LOCFRAME IOVERLAY, 0, STATIC
        LOCFRAME DOVERLAY, 0, STATIC
        ARGFRAME ISTACK, 0, STACK
        ARGFRAME PSTACK, 0, STACK
        ARGFRAME XSTACK, 38, STACK
        ARGFRAME IOVERLAY, 0, STATIC
        ARGFRAME DOVERLAY, 0, STATIC
        FUNCALL ZDSecMgrDeviceJoin, osal_memcpy
        LOCFRAME ISTACK, 0, STACK
        LOCFRAME PSTACK, 0, STACK
        LOCFRAME XSTACK, 41, STACK
        LOCFRAME IOVERLAY, 0, STATIC
        LOCFRAME DOVERLAY, 0, STATIC
        ARGFRAME ISTACK, 0, STACK
        ARGFRAME PSTACK, 0, STACK
        ARGFRAME XSTACK, 41, STACK
        ARGFRAME IOVERLAY, 0, STATIC
        ARGFRAME DOVERLAY, 0, STATIC
        REQUIRE ?V0
        REQUIRE ?V1
        REQUIRE ?V2
        REQUIRE ?V3
        REQUIRE ?V4
        MOV     A,#-0xd
        LCALL   ?BANKED_ENTER_XDATA
          CFI DPH0 load(1, XDATA, add(CFA_XSP16, literal(-1)))
          CFI DPL0 load(1, XDATA, add(CFA_XSP16, literal(-2)))
          CFI ?BRET_EXT load(1, XDATA, add(CFA_XSP16, literal(-3)))
          CFI ?RET_HIGH load(1, XDATA, add(CFA_XSP16, literal(-4)))
          CFI ?RET_LOW load(1, XDATA, add(CFA_XSP16, literal(-5)))
          CFI R7 load(1, XDATA, add(CFA_XSP16, literal(-6)))
          CFI V4 load(1, XDATA, add(CFA_XSP16, literal(-7)))
          CFI V3 load(1, XDATA, add(CFA_XSP16, literal(-8)))
          CFI V2 load(1, XDATA, add(CFA_XSP16, literal(-9)))
          CFI V1 load(1, XDATA, add(CFA_XSP16, literal(-10)))
          CFI V0 load(1, XDATA, add(CFA_XSP16, literal(-11)))
          CFI VB load(1, XDATA, add(CFA_XSP16, literal(-12)))
          CFI R6 load(1, XDATA, add(CFA_XSP16, literal(-13)))
          CFI CFA_SP SP+0
          CFI CFA_XSP16 add(XSP16, 13)
        ; Saved register size: 13
        ; Auto size: 25
        MOV     A,#-0x19
        LCALL   ?ALLOC_XSTACK8
          CFI CFA_XSP16 add(XSP16, 38)
        MOV     A,R2
        MOV     R6,A
        MOV     A,R3
        MOV     R7,A
// 1114   ZStatus_t status = ZSuccess;
        MOV     ?V4,#0x0
// 1115   uint16    ami;
// 1116 
// 1117   // attempt to validate device that joined/rejoined without security
// 1118   if ( device->secure == FALSE )
        MOV     A,R6
        ADD     A,#0x6
        MOV     R0,A
        CLR     A
        ADDC    A,R7
        MOV     R1,A
        MOV     ?V0,R0
        MOV     ?V1,R1
        MOV     DPL,R0
        MOV     DPH,A
        MOVX    A,@DPTR
        JNZ     ??ZDSecMgrDeviceJoin_0
// 1119   {
// 1120     status = ZDSecMgrDeviceValidate( device );
        MOV     DPTR,#ZDSecMgrPermitJoiningEnabled
        MOVX    A,@DPTR
        XRL     A,#0x1
        JNZ     ??ZDSecMgrDeviceJoin_1
        MOV     R0,#0x0
        MOV     DPTR,#zgSecurePermitJoin
        MOVX    A,@DPTR
        JNZ     ??ZDSecMgrDeviceJoin_2
        MOV     R0,#-0x38
??ZDSecMgrDeviceJoin_2:
        MOV     ?V4,R0
// 1121   }
// 1122 
// 1123   if ( status == ZSuccess )
        MOV     A,?V4
        JNZ     ??ZDSecMgrDeviceJoin_3
// 1124   {
// 1125     // Add the device to the address manager
// 1126     ZDSecMgrAddrStore( device->nwkAddr, device->extAddr, &ami );
??ZDSecMgrDeviceJoin_0:
        LCALL   ?Subroutine39 & 0xFFFF
??CrossCallReturnLabel_61:
        MOV     ?V2,R0
        MOV     ?V3,R1
        MOV     DPL,R0
        MOV     DPH,A
        LCALL   ?Subroutine34 & 0xFFFF
??CrossCallReturnLabel_39:
        LCALL   ?Subroutine33 & 0xFFFF
??CrossCallReturnLabel_125:
        MOV     A,#0xc
        LCALL   ?XSTACK_DISP0_8
        MOV     A,#0x2
        MOVX    @DPTR,A
        MOV     A,#0xd
        LCALL   ?XSTACK_DISP0_8
        LCALL   ??Subroutine54_0 & 0xFFFF
??CrossCallReturnLabel_102:
        ; Setup parameters for call to function AddrMgrExtAddrSet
        MOV     A,#0xf
        LCALL   ?XSTACK_DISP0_8
        MOV     R2,DPL
        MOV     R3,DPH
        LCALL   `??AddrMgrExtAddrSet::?relay`; Banked call to: AddrMgrExtAddrSet
        ; Setup parameters for call to function AddrMgrEntryUpdate
        MOV     A,#0xc
        LCALL   ?XSTACK_DISP101_8
        LCALL   `??AddrMgrEntryUpdate::?relay`; Banked call to: AddrMgrEntryUpdate
// 1127 
// 1128     // Only send the key to devices that have not been authenticated
// 1129     if ( ( device->devStatus & DEV_SEC_INIT_STATUS ) &&
// 1130          ( device->secure == FALSE ) )
        MOV     DPL,R6
        MOV     DPH,R7
        INC     DPTR
        INC     DPTR
        INC     DPTR
        INC     DPTR
        INC     DPTR
        INC     DPTR
        INC     DPTR
        MOVX    A,@DPTR
        MOV     C,0xE0 /* A   */.2
        JNC     ??ZDSecMgrDeviceJoin_3
        MOV     DPL,?V0
        MOV     DPH,?V1
        MOVX    A,@DPTR
        JNZ     ??ZDSecMgrDeviceJoin_3
// 1131     {
// 1132       //send the nwk key data to the joining device
// 1133       status = ZDSecMgrSendNwkKey( device );
        ; Setup parameters for call to function ZDSecMgrSendNwkKey
        MOV     A,R6
        MOV     R2,A
        MOV     A,R7
        MOV     R3,A
        LCALL   `??ZDSecMgrSendNwkKey::?relay`; Banked call to: ZDSecMgrSendNwkKey
        MOV     A,R1
        MOV     ?V4,A
// 1134     }
// 1135 
// 1136     if ( status != ZSuccess )
        JZ      ??ZDSecMgrDeviceJoin_4
// 1137     {
// 1138       ZDSecMgrAddrClear( device->extAddr );
        ; Setup parameters for call to function ZDSecMgrAddrClear
        MOV     DPL,?V2
        MOV     DPH,?V3
        LCALL   ??Subroutine72_0 & 0xFFFF
// 1139     }
// 1140   }
??CrossCallReturnLabel_174:
        LCALL   `??ZDSecMgrAddrClear::?relay`; Banked call to: ZDSecMgrAddrClear
        SJMP    ??ZDSecMgrDeviceJoin_5
??ZDSecMgrDeviceJoin_1:
        MOV     ?V4,#-0x38
        SJMP    ??ZDSecMgrDeviceJoin_5
// 1141 
// 1142   if ( status != ZSuccess )
??ZDSecMgrDeviceJoin_3:
        MOV     A,?V4
        JZ      ??ZDSecMgrDeviceJoin_4
// 1143   {
// 1144     // not allowed or transport key failed, remove the device
// 1145     ZDSecMgrDeviceRemove( device );
??ZDSecMgrDeviceJoin_5:
        ; Setup parameters for call to function ZDSecMgrDeviceRemove
        MOV     A,R6
        MOV     R2,A
        MOV     A,R7
        MOV     R3,A
        LCALL   `??ZDSecMgrDeviceRemove::?relay`; Banked call to: ZDSecMgrDeviceRemove
        SJMP    ??ZDSecMgrDeviceJoin_6
// 1146   }
// 1147   else
// 1148   {
// 1149     // Pass the Trust Center Device Indication to higher layer if callback registered
// 1150     if (zdoCBFunc[ZDO_TC_DEVICE_CBID] != NULL )
??ZDSecMgrDeviceJoin_4:
        MOV     DPTR,#zdoCBFunc + 16
        LCALL   ??Subroutine71_0 & 0xFFFF
??CrossCallReturnLabel_160:
        JZ      ??ZDSecMgrDeviceJoin_6
// 1151     {
// 1152       ZDO_TC_Device_t dev;
// 1153 
// 1154       dev.nwkAddr = device->nwkAddr;
        LCALL   ?Subroutine20 & 0xFFFF
// 1155       osal_memcpy( dev.extAddr, device->extAddr, Z_EXTADDR_LEN );
??CrossCallReturnLabel_9:
        MOV     ?V0,A
        INC     DPTR
        MOVX    A,@DPTR
        MOV     ?V1,A
        MOV     ?V2,#0x0
        MOV     R0,#?V0
        LCALL   ?PUSH_XSTACK_I_THREE
          CFI CFA_XSP16 add(XSP16, 41)
        MOV     R4,#0x8
        MOV     R5,#0x0
        MOV     A,#0x5
        LCALL   ?XSTACK_DISP0_8
        MOV     R2,DPL
        MOV     R3,DPH
        LCALL   `??osal_memcpy::?relay`; Banked call to: osal_memcpy
        MOV     A,#0x3
        LCALL   ?DEALLOC_XSTACK8
          CFI CFA_XSP16 add(XSP16, 38)
// 1156       dev.parentAddr = device->parentAddr;
        MOV     DPL,R6
        MOV     DPH,R7
        INC     DPTR
        INC     DPTR
        INC     DPTR
        INC     DPTR
        LCALL   ??Subroutine60_0 & 0xFFFF
// 1157 
// 1158       zdoCBFunc[ZDO_TC_DEVICE_CBID]( (void*)&dev );
// 1159     }
// 1160   }
??CrossCallReturnLabel_120:
        MOV     A,#0xa
        LCALL   ?XSTACK_DISP0_8
        MOV     A,R0
        MOVX    @DPTR,A
        INC     DPTR
        MOV     A,R1
        LCALL   ??Subroutine65_0 & 0xFFFF
??CrossCallReturnLabel_136:
        MOV     DPTR,#zdoCBFunc + 16
        LCALL   ?Subroutine30 & 0xFFFF
??CrossCallReturnLabel_30:
        LCALL   ?CALL_IND
// 1161 
// 1162   return status;
??ZDSecMgrDeviceJoin_6:
        MOV     R1,?V4
        MOV     A,#0x19
        LCALL   ?DEALLOC_XSTACK8
          CFI CFA_XSP16 add(XSP16, 13)
        MOV     R7,#0x5
        LJMP    ?BANKED_LEAVE_XDATA
          CFI R6 SameValue
          CFI VB SameValue
          CFI V0 SameValue
          CFI V1 SameValue
          CFI V2 SameValue
          CFI V3 SameValue
          CFI V4 SameValue
          CFI R7 SameValue
          CFI ?RET_LOW Frame(CFA_SP, 1)
          CFI ?RET_HIGH Frame(CFA_SP, 2)
          CFI ?BRET_EXT Frame(CFA_SP, 3)
          CFI DPL0 SameValue
          CFI DPH0 SameValue
          CFI CFA_SP SP+-3
          CFI CFA_XSP16 XSP16+0
// 1163 }
          CFI EndBlock cfiBlock86

        RSEG BANKED_CODE:CODE:NOROOT(0)
?Subroutine30:
          CFI Block cfiCond87 Using cfiCommon0
          CFI Function ZDSecMgrAppKeyGet
          CFI Conditional ??CrossCallReturnLabel_28
          CFI DPL0 Frame(CFA_SP, 4)
          CFI DPH0 Frame(CFA_SP, 5)
          CFI CFA_SP SP+-7
          CFI Block cfiCond88 Using cfiCommon0
          CFI (cfiCond88) Function ZDSecMgrAppKeyGet
          CFI (cfiCond88) Conditional ??CrossCallReturnLabel_29
          CFI (cfiCond88) DPL0 Frame(CFA_SP, 4)
          CFI (cfiCond88) DPH0 Frame(CFA_SP, 5)
          CFI (cfiCond88) CFA_SP SP+-8
          CFI Block cfiCond89 Using cfiCommon0
          CFI (cfiCond89) Function ZDSecMgrDeviceJoin
          CFI (cfiCond89) Conditional ??CrossCallReturnLabel_30
          CFI (cfiCond89) R6 load(1, XDATA, add(CFA_XSP16, literal(-13)))
          CFI (cfiCond89) VB load(1, XDATA, add(CFA_XSP16, literal(-12)))
          CFI (cfiCond89) V0 load(1, XDATA, add(CFA_XSP16, literal(-11)))
          CFI (cfiCond89) V1 load(1, XDATA, add(CFA_XSP16, literal(-10)))
          CFI (cfiCond89) V2 load(1, XDATA, add(CFA_XSP16, literal(-9)))
          CFI (cfiCond89) V3 load(1, XDATA, add(CFA_XSP16, literal(-8)))
          CFI (cfiCond89) V4 load(1, XDATA, add(CFA_XSP16, literal(-7)))
          CFI (cfiCond89) R7 load(1, XDATA, add(CFA_XSP16, literal(-6)))
          CFI (cfiCond89) ?RET_LOW load(1, XDATA, add(CFA_XSP16, literal(-5)))
          CFI (cfiCond89) ?RET_HIGH load(1, XDATA, add(CFA_XSP16, literal(-4)))
          CFI (cfiCond89) ?BRET_EXT load(1, XDATA, add(CFA_XSP16, literal(-3)))
          CFI (cfiCond89) DPL0 load(1, XDATA, add(CFA_XSP16, literal(-2)))
          CFI (cfiCond89) DPH0 load(1, XDATA, add(CFA_XSP16, literal(-1)))
          CFI (cfiCond89) CFA_SP SP+-2
          CFI (cfiCond89) CFA_XSP16 add(XSP16, 38)
          CFI Block cfiPicker90 Using cfiCommon1
          CFI (cfiPicker90) NoFunction
          CFI (cfiPicker90) Picker
        MOVX    A,@DPTR
        MOV     R0,A
        INC     DPTR
        MOVX    A,@DPTR
        MOV     DPH,A
        MOV     DPL,R0
        RET
          CFI (cfiCond87) CFA_SP SP+-5
          CFI (cfiCond88) CFA_SP SP+-6
          CFI (cfiCond89) CFA_SP SP+0
          CFI (cfiPicker90) CFA_SP SP+0
          CFI EndBlock cfiCond87
          CFI EndBlock cfiCond88
          CFI EndBlock cfiCond89
          CFI EndBlock cfiPicker90

        RSEG BANKED_CODE:CODE:NOROOT(0)
?Subroutine22:
          CFI Block cfiCond91 Using cfiCommon0
          CFI Function ZDSecMgrNewDeviceEvent
          CFI Conditional ??CrossCallReturnLabel_109
          CFI R6 load(1, XDATA, add(CFA_XSP16, literal(-14)))
          CFI VB load(1, XDATA, add(CFA_XSP16, literal(-13)))
          CFI V0 load(1, XDATA, add(CFA_XSP16, literal(-12)))
          CFI V1 load(1, XDATA, add(CFA_XSP16, literal(-11)))
          CFI V2 load(1, XDATA, add(CFA_XSP16, literal(-10)))
          CFI V3 load(1, XDATA, add(CFA_XSP16, literal(-9)))
          CFI V4 load(1, XDATA, add(CFA_XSP16, literal(-8)))
          CFI V5 load(1, XDATA, add(CFA_XSP16, literal(-7)))
          CFI R7 load(1, XDATA, add(CFA_XSP16, literal(-6)))
          CFI ?RET_LOW load(1, XDATA, add(CFA_XSP16, literal(-5)))
          CFI ?RET_HIGH load(1, XDATA, add(CFA_XSP16, literal(-4)))
          CFI ?BRET_EXT load(1, XDATA, add(CFA_XSP16, literal(-3)))
          CFI DPL0 load(1, XDATA, add(CFA_XSP16, literal(-2)))
          CFI DPH0 load(1, XDATA, add(CFA_XSP16, literal(-1)))
          CFI CFA_SP SP+-2
          CFI CFA_XSP16 add(XSP16, 35)
          CFI Block cfiCond92 Using cfiCommon0
          CFI (cfiCond92) Function ZDSecMgrUpdateDeviceInd
          CFI (cfiCond92) Conditional ??CrossCallReturnLabel_110
          CFI (cfiCond92) DPL0 Frame(CFA_SP, 4)
          CFI (cfiCond92) DPH0 Frame(CFA_SP, 5)
          CFI (cfiCond92) CFA_SP SP+-7
          CFI (cfiCond92) CFA_XSP16 add(XSP16, 8)
          CFI Block cfiPicker93 Using cfiCommon1
          CFI (cfiPicker93) NoFunction
          CFI (cfiPicker93) Picker
        LCALL   ?Subroutine46 & 0xFFFF
??CrossCallReturnLabel_129:
          CFI EndBlock cfiCond91
          CFI EndBlock cfiCond92
          CFI EndBlock cfiPicker93
        REQUIRE ??Subroutine53_0
        ; // Fall through to label ??Subroutine53_0

        RSEG BANKED_CODE:CODE:NOROOT(0)
??Subroutine53_0:
          CFI Block cfiCond94 Using cfiCommon0
          CFI Function ZDSecMgrSendNwkKey
          CFI Conditional ??CrossCallReturnLabel_108
          CFI R6 load(1, XDATA, add(CFA_XSP16, literal(-10)))
          CFI VB load(1, XDATA, add(CFA_XSP16, literal(-9)))
          CFI V0 load(1, XDATA, add(CFA_XSP16, literal(-8)))
          CFI V1 load(1, XDATA, add(CFA_XSP16, literal(-7)))
          CFI R7 load(1, XDATA, add(CFA_XSP16, literal(-6)))
          CFI ?RET_LOW load(1, XDATA, add(CFA_XSP16, literal(-5)))
          CFI ?RET_HIGH load(1, XDATA, add(CFA_XSP16, literal(-4)))
          CFI ?BRET_EXT load(1, XDATA, add(CFA_XSP16, literal(-3)))
          CFI DPL0 load(1, XDATA, add(CFA_XSP16, literal(-2)))
          CFI DPH0 load(1, XDATA, add(CFA_XSP16, literal(-1)))
          CFI CFA_SP SP+-2
          CFI CFA_XSP16 add(XSP16, 40)
          CFI Block cfiCond95 Using cfiCommon0
          CFI (cfiCond95) Function ZDSecMgrNewDeviceEvent
          CFI (cfiCond95) Conditional ??CrossCallReturnLabel_109
          CFI (cfiCond95) R6 load(1, XDATA, add(CFA_XSP16, literal(-14)))
          CFI (cfiCond95) VB load(1, XDATA, add(CFA_XSP16, literal(-13)))
          CFI (cfiCond95) V0 load(1, XDATA, add(CFA_XSP16, literal(-12)))
          CFI (cfiCond95) V1 load(1, XDATA, add(CFA_XSP16, literal(-11)))
          CFI (cfiCond95) V2 load(1, XDATA, add(CFA_XSP16, literal(-10)))
          CFI (cfiCond95) V3 load(1, XDATA, add(CFA_XSP16, literal(-9)))
          CFI (cfiCond95) V4 load(1, XDATA, add(CFA_XSP16, literal(-8)))
          CFI (cfiCond95) V5 load(1, XDATA, add(CFA_XSP16, literal(-7)))
          CFI (cfiCond95) R7 load(1, XDATA, add(CFA_XSP16, literal(-6)))
          CFI (cfiCond95) ?RET_LOW load(1, XDATA, add(CFA_XSP16, literal(-5)))
          CFI (cfiCond95) ?RET_HIGH load(1, XDATA, add(CFA_XSP16, literal(-4)))
          CFI (cfiCond95) ?BRET_EXT load(1, XDATA, add(CFA_XSP16, literal(-3)))
          CFI (cfiCond95) DPL0 load(1, XDATA, add(CFA_XSP16, literal(-2)))
          CFI (cfiCond95) DPH0 load(1, XDATA, add(CFA_XSP16, literal(-1)))
          CFI (cfiCond95) CFA_SP SP+-2
          CFI (cfiCond95) CFA_XSP16 add(XSP16, 35)
          CFI Block cfiCond96 Using cfiCommon0
          CFI (cfiCond96) Function ZDSecMgrUpdateDeviceInd
          CFI (cfiCond96) Conditional ??CrossCallReturnLabel_110
          CFI (cfiCond96) DPL0 Frame(CFA_SP, 4)
          CFI (cfiCond96) DPH0 Frame(CFA_SP, 5)
          CFI (cfiCond96) CFA_SP SP+-7
          CFI (cfiCond96) CFA_XSP16 add(XSP16, 8)
          CFI Block cfiPicker97 Using cfiCommon1
          CFI (cfiPicker97) NoFunction
          CFI (cfiPicker97) Picker
        MOV     DPL,?XSP + 0
        MOV     DPH,?XSP + 1
          CFI EndBlock cfiCond94
          CFI EndBlock cfiCond95
          CFI EndBlock cfiCond96
          CFI EndBlock cfiPicker97
        REQUIRE ??Subroutine54_0
        ; // Fall through to label ??Subroutine54_0

        RSEG BANKED_CODE:CODE:NOROOT(0)
??Subroutine54_0:
          CFI Block cfiCond98 Using cfiCommon0
          CFI Function ZDSecMgrAddrClear
          CFI Conditional ??CrossCallReturnLabel_93
          CFI R6 load(1, XDATA, add(CFA_XSP16, literal(-9)))
          CFI VB load(1, XDATA, add(CFA_XSP16, literal(-8)))
          CFI V0 load(1, XDATA, add(CFA_XSP16, literal(-7)))
          CFI R7 load(1, XDATA, add(CFA_XSP16, literal(-6)))
          CFI ?RET_LOW load(1, XDATA, add(CFA_XSP16, literal(-5)))
          CFI ?RET_HIGH load(1, XDATA, add(CFA_XSP16, literal(-4)))
          CFI ?BRET_EXT load(1, XDATA, add(CFA_XSP16, literal(-3)))
          CFI DPL0 load(1, XDATA, add(CFA_XSP16, literal(-2)))
          CFI DPH0 load(1, XDATA, add(CFA_XSP16, literal(-1)))
          CFI CFA_SP SP+-2
          CFI CFA_XSP16 add(XSP16, 35)
          CFI Block cfiCond99 Using cfiCommon0
          CFI (cfiCond99) Function ZDSecMgrEntryLookupExt
          CFI (cfiCond99) Conditional ??CrossCallReturnLabel_94
          CFI (cfiCond99) R6 load(1, XDATA, add(CFA_XSP16, literal(-10)))
          CFI (cfiCond99) VB load(1, XDATA, add(CFA_XSP16, literal(-9)))
          CFI (cfiCond99) V0 load(1, XDATA, add(CFA_XSP16, literal(-8)))
          CFI (cfiCond99) V1 load(1, XDATA, add(CFA_XSP16, literal(-7)))
          CFI (cfiCond99) R7 load(1, XDATA, add(CFA_XSP16, literal(-6)))
          CFI (cfiCond99) ?RET_LOW load(1, XDATA, add(CFA_XSP16, literal(-5)))
          CFI (cfiCond99) ?RET_HIGH load(1, XDATA, add(CFA_XSP16, literal(-4)))
          CFI (cfiCond99) ?BRET_EXT load(1, XDATA, add(CFA_XSP16, literal(-3)))
          CFI (cfiCond99) DPL0 load(1, XDATA, add(CFA_XSP16, literal(-2)))
          CFI (cfiCond99) DPH0 load(1, XDATA, add(CFA_XSP16, literal(-1)))
          CFI (cfiCond99) CFA_SP SP+-2
          CFI (cfiCond99) CFA_XSP16 add(XSP16, 23)
          CFI Block cfiCond100 Using cfiCommon0
          CFI (cfiCond100) Function ZDSecMgrAppKeyReq
          CFI (cfiCond100) Conditional ??CrossCallReturnLabel_95
          CFI (cfiCond100) R6 load(1, XDATA, add(CFA_XSP16, literal(-10)))
          CFI (cfiCond100) VB load(1, XDATA, add(CFA_XSP16, literal(-9)))
          CFI (cfiCond100) V0 load(1, XDATA, add(CFA_XSP16, literal(-8)))
          CFI (cfiCond100) V1 load(1, XDATA, add(CFA_XSP16, literal(-7)))
          CFI (cfiCond100) R7 load(1, XDATA, add(CFA_XSP16, literal(-6)))
          CFI (cfiCond100) ?RET_LOW load(1, XDATA, add(CFA_XSP16, literal(-5)))
          CFI (cfiCond100) ?RET_HIGH load(1, XDATA, add(CFA_XSP16, literal(-4)))
          CFI (cfiCond100) ?BRET_EXT load(1, XDATA, add(CFA_XSP16, literal(-3)))
          CFI (cfiCond100) DPL0 load(1, XDATA, add(CFA_XSP16, literal(-2)))
          CFI (cfiCond100) DPH0 load(1, XDATA, add(CFA_XSP16, literal(-1)))
          CFI (cfiCond100) CFA_SP SP+-2
          CFI (cfiCond100) CFA_XSP16 add(XSP16, 49)
          CFI Block cfiCond101 Using cfiCommon0
          CFI (cfiCond101) Function ZDSecMgrAppKeyReq
          CFI (cfiCond101) Conditional ??CrossCallReturnLabel_96
          CFI (cfiCond101) R6 load(1, XDATA, add(CFA_XSP16, literal(-10)))
          CFI (cfiCond101) VB load(1, XDATA, add(CFA_XSP16, literal(-9)))
          CFI (cfiCond101) V0 load(1, XDATA, add(CFA_XSP16, literal(-8)))
          CFI (cfiCond101) V1 load(1, XDATA, add(CFA_XSP16, literal(-7)))
          CFI (cfiCond101) R7 load(1, XDATA, add(CFA_XSP16, literal(-6)))
          CFI (cfiCond101) ?RET_LOW load(1, XDATA, add(CFA_XSP16, literal(-5)))
          CFI (cfiCond101) ?RET_HIGH load(1, XDATA, add(CFA_XSP16, literal(-4)))
          CFI (cfiCond101) ?BRET_EXT load(1, XDATA, add(CFA_XSP16, literal(-3)))
          CFI (cfiCond101) DPL0 load(1, XDATA, add(CFA_XSP16, literal(-2)))
          CFI (cfiCond101) DPH0 load(1, XDATA, add(CFA_XSP16, literal(-1)))
          CFI (cfiCond101) CFA_SP SP+-2
          CFI (cfiCond101) CFA_XSP16 add(XSP16, 49)
          CFI Block cfiCond102 Using cfiCommon0
          CFI (cfiCond102) Function ZDSecMgrAppKeyReq
          CFI (cfiCond102) Conditional ??CrossCallReturnLabel_97
          CFI (cfiCond102) R6 load(1, XDATA, add(CFA_XSP16, literal(-10)))
          CFI (cfiCond102) VB load(1, XDATA, add(CFA_XSP16, literal(-9)))
          CFI (cfiCond102) V0 load(1, XDATA, add(CFA_XSP16, literal(-8)))
          CFI (cfiCond102) V1 load(1, XDATA, add(CFA_XSP16, literal(-7)))
          CFI (cfiCond102) R7 load(1, XDATA, add(CFA_XSP16, literal(-6)))
          CFI (cfiCond102) ?RET_LOW load(1, XDATA, add(CFA_XSP16, literal(-5)))
          CFI (cfiCond102) ?RET_HIGH load(1, XDATA, add(CFA_XSP16, literal(-4)))
          CFI (cfiCond102) ?BRET_EXT load(1, XDATA, add(CFA_XSP16, literal(-3)))
          CFI (cfiCond102) DPL0 load(1, XDATA, add(CFA_XSP16, literal(-2)))
          CFI (cfiCond102) DPH0 load(1, XDATA, add(CFA_XSP16, literal(-1)))
          CFI (cfiCond102) CFA_SP SP+-2
          CFI (cfiCond102) CFA_XSP16 add(XSP16, 49)
          CFI Block cfiCond103 Using cfiCommon0
          CFI (cfiCond103) Function ZDSecMgrAppKeyReq
          CFI (cfiCond103) Conditional ??CrossCallReturnLabel_98
          CFI (cfiCond103) R6 load(1, XDATA, add(CFA_XSP16, literal(-10)))
          CFI (cfiCond103) VB load(1, XDATA, add(CFA_XSP16, literal(-9)))
          CFI (cfiCond103) V0 load(1, XDATA, add(CFA_XSP16, literal(-8)))
          CFI (cfiCond103) V1 load(1, XDATA, add(CFA_XSP16, literal(-7)))
          CFI (cfiCond103) R7 load(1, XDATA, add(CFA_XSP16, literal(-6)))
          CFI (cfiCond103) ?RET_LOW load(1, XDATA, add(CFA_XSP16, literal(-5)))
          CFI (cfiCond103) ?RET_HIGH load(1, XDATA, add(CFA_XSP16, literal(-4)))
          CFI (cfiCond103) ?BRET_EXT load(1, XDATA, add(CFA_XSP16, literal(-3)))
          CFI (cfiCond103) DPL0 load(1, XDATA, add(CFA_XSP16, literal(-2)))
          CFI (cfiCond103) DPH0 load(1, XDATA, add(CFA_XSP16, literal(-1)))
          CFI (cfiCond103) CFA_SP SP+-2
          CFI (cfiCond103) CFA_XSP16 add(XSP16, 49)
          CFI Block cfiCond104 Using cfiCommon0
          CFI (cfiCond104) Function ZDSecMgrSendNwkKey
          CFI (cfiCond104) Conditional ??CrossCallReturnLabel_99
          CFI (cfiCond104) R6 load(1, XDATA, add(CFA_XSP16, literal(-10)))
          CFI (cfiCond104) VB load(1, XDATA, add(CFA_XSP16, literal(-9)))
          CFI (cfiCond104) V0 load(1, XDATA, add(CFA_XSP16, literal(-8)))
          CFI (cfiCond104) V1 load(1, XDATA, add(CFA_XSP16, literal(-7)))
          CFI (cfiCond104) R7 load(1, XDATA, add(CFA_XSP16, literal(-6)))
          CFI (cfiCond104) ?RET_LOW load(1, XDATA, add(CFA_XSP16, literal(-5)))
          CFI (cfiCond104) ?RET_HIGH load(1, XDATA, add(CFA_XSP16, literal(-4)))
          CFI (cfiCond104) ?BRET_EXT load(1, XDATA, add(CFA_XSP16, literal(-3)))
          CFI (cfiCond104) DPL0 load(1, XDATA, add(CFA_XSP16, literal(-2)))
          CFI (cfiCond104) DPH0 load(1, XDATA, add(CFA_XSP16, literal(-1)))
          CFI (cfiCond104) CFA_SP SP+-2
          CFI (cfiCond104) CFA_XSP16 add(XSP16, 40)
          CFI Block cfiCond105 Using cfiCommon0
          CFI (cfiCond105) Function ZDSecMgrSendNwkKey
          CFI (cfiCond105) Conditional ??CrossCallReturnLabel_100
          CFI (cfiCond105) R6 load(1, XDATA, add(CFA_XSP16, literal(-10)))
          CFI (cfiCond105) VB load(1, XDATA, add(CFA_XSP16, literal(-9)))
          CFI (cfiCond105) V0 load(1, XDATA, add(CFA_XSP16, literal(-8)))
          CFI (cfiCond105) V1 load(1, XDATA, add(CFA_XSP16, literal(-7)))
          CFI (cfiCond105) R7 load(1, XDATA, add(CFA_XSP16, literal(-6)))
          CFI (cfiCond105) ?RET_LOW load(1, XDATA, add(CFA_XSP16, literal(-5)))
          CFI (cfiCond105) ?RET_HIGH load(1, XDATA, add(CFA_XSP16, literal(-4)))
          CFI (cfiCond105) ?BRET_EXT load(1, XDATA, add(CFA_XSP16, literal(-3)))
          CFI (cfiCond105) DPL0 load(1, XDATA, add(CFA_XSP16, literal(-2)))
          CFI (cfiCond105) DPH0 load(1, XDATA, add(CFA_XSP16, literal(-1)))
          CFI (cfiCond105) CFA_SP SP+-2
          CFI (cfiCond105) CFA_XSP16 add(XSP16, 40)
          CFI Block cfiCond106 Using cfiCommon0
          CFI (cfiCond106) Function ZDSecMgrDeviceRemove
          CFI (cfiCond106) Conditional ??CrossCallReturnLabel_101
          CFI (cfiCond106) R6 load(1, XDATA, add(CFA_XSP16, literal(-10)))
          CFI (cfiCond106) VB load(1, XDATA, add(CFA_XSP16, literal(-9)))
          CFI (cfiCond106) V0 load(1, XDATA, add(CFA_XSP16, literal(-8)))
          CFI (cfiCond106) V1 load(1, XDATA, add(CFA_XSP16, literal(-7)))
          CFI (cfiCond106) R7 load(1, XDATA, add(CFA_XSP16, literal(-6)))
          CFI (cfiCond106) ?RET_LOW load(1, XDATA, add(CFA_XSP16, literal(-5)))
          CFI (cfiCond106) ?RET_HIGH load(1, XDATA, add(CFA_XSP16, literal(-4)))
          CFI (cfiCond106) ?BRET_EXT load(1, XDATA, add(CFA_XSP16, literal(-3)))
          CFI (cfiCond106) DPL0 load(1, XDATA, add(CFA_XSP16, literal(-2)))
          CFI (cfiCond106) DPH0 load(1, XDATA, add(CFA_XSP16, literal(-1)))
          CFI (cfiCond106) CFA_SP SP+-2
          CFI (cfiCond106) CFA_XSP16 add(XSP16, 20)
          CFI Block cfiCond107 Using cfiCommon0
          CFI (cfiCond107) Function ZDSecMgrDeviceJoin
          CFI (cfiCond107) Conditional ??CrossCallReturnLabel_102
          CFI (cfiCond107) R6 load(1, XDATA, add(CFA_XSP16, literal(-13)))
          CFI (cfiCond107) VB load(1, XDATA, add(CFA_XSP16, literal(-12)))
          CFI (cfiCond107) V0 load(1, XDATA, add(CFA_XSP16, literal(-11)))
          CFI (cfiCond107) V1 load(1, XDATA, add(CFA_XSP16, literal(-10)))
          CFI (cfiCond107) V2 load(1, XDATA, add(CFA_XSP16, literal(-9)))
          CFI (cfiCond107) V3 load(1, XDATA, add(CFA_XSP16, literal(-8)))
          CFI (cfiCond107) V4 load(1, XDATA, add(CFA_XSP16, literal(-7)))
          CFI (cfiCond107) R7 load(1, XDATA, add(CFA_XSP16, literal(-6)))
          CFI (cfiCond107) ?RET_LOW load(1, XDATA, add(CFA_XSP16, literal(-5)))
          CFI (cfiCond107) ?RET_HIGH load(1, XDATA, add(CFA_XSP16, literal(-4)))
          CFI (cfiCond107) ?BRET_EXT load(1, XDATA, add(CFA_XSP16, literal(-3)))
          CFI (cfiCond107) DPL0 load(1, XDATA, add(CFA_XSP16, literal(-2)))
          CFI (cfiCond107) DPH0 load(1, XDATA, add(CFA_XSP16, literal(-1)))
          CFI (cfiCond107) CFA_SP SP+-2
          CFI (cfiCond107) CFA_XSP16 add(XSP16, 38)
          CFI Block cfiCond108 Using cfiCommon0
          CFI (cfiCond108) Function ZDSecMgrDeviceJoinFwd
          CFI (cfiCond108) Conditional ??CrossCallReturnLabel_103
          CFI (cfiCond108) R6 load(1, XDATA, add(CFA_XSP16, literal(-10)))
          CFI (cfiCond108) VB load(1, XDATA, add(CFA_XSP16, literal(-9)))
          CFI (cfiCond108) V0 load(1, XDATA, add(CFA_XSP16, literal(-8)))
          CFI (cfiCond108) V1 load(1, XDATA, add(CFA_XSP16, literal(-7)))
          CFI (cfiCond108) R7 load(1, XDATA, add(CFA_XSP16, literal(-6)))
          CFI (cfiCond108) ?RET_LOW load(1, XDATA, add(CFA_XSP16, literal(-5)))
          CFI (cfiCond108) ?RET_HIGH load(1, XDATA, add(CFA_XSP16, literal(-4)))
          CFI (cfiCond108) ?BRET_EXT load(1, XDATA, add(CFA_XSP16, literal(-3)))
          CFI (cfiCond108) DPL0 load(1, XDATA, add(CFA_XSP16, literal(-2)))
          CFI (cfiCond108) DPH0 load(1, XDATA, add(CFA_XSP16, literal(-1)))
          CFI (cfiCond108) CFA_SP SP+-2
          CFI (cfiCond108) CFA_XSP16 add(XSP16, 18)
          CFI Block cfiCond109 Using cfiCommon0
          CFI (cfiCond109) Function ZDSecMgrNewDeviceEvent
          CFI (cfiCond109) Conditional ??CrossCallReturnLabel_104
          CFI (cfiCond109) R6 load(1, XDATA, add(CFA_XSP16, literal(-14)))
          CFI (cfiCond109) VB load(1, XDATA, add(CFA_XSP16, literal(-13)))
          CFI (cfiCond109) V0 load(1, XDATA, add(CFA_XSP16, literal(-12)))
          CFI (cfiCond109) V1 load(1, XDATA, add(CFA_XSP16, literal(-11)))
          CFI (cfiCond109) V2 load(1, XDATA, add(CFA_XSP16, literal(-10)))
          CFI (cfiCond109) V3 load(1, XDATA, add(CFA_XSP16, literal(-9)))
          CFI (cfiCond109) V4 load(1, XDATA, add(CFA_XSP16, literal(-8)))
          CFI (cfiCond109) V5 load(1, XDATA, add(CFA_XSP16, literal(-7)))
          CFI (cfiCond109) R7 load(1, XDATA, add(CFA_XSP16, literal(-6)))
          CFI (cfiCond109) ?RET_LOW load(1, XDATA, add(CFA_XSP16, literal(-5)))
          CFI (cfiCond109) ?RET_HIGH load(1, XDATA, add(CFA_XSP16, literal(-4)))
          CFI (cfiCond109) ?BRET_EXT load(1, XDATA, add(CFA_XSP16, literal(-3)))
          CFI (cfiCond109) DPL0 load(1, XDATA, add(CFA_XSP16, literal(-2)))
          CFI (cfiCond109) DPH0 load(1, XDATA, add(CFA_XSP16, literal(-1)))
          CFI (cfiCond109) CFA_SP SP+-2
          CFI (cfiCond109) CFA_XSP16 add(XSP16, 35)
          CFI Block cfiCond110 Using cfiCommon0
          CFI (cfiCond110) Function ZDSecMgrNewDeviceEvent
          CFI (cfiCond110) Conditional ??CrossCallReturnLabel_105
          CFI (cfiCond110) R6 load(1, XDATA, add(CFA_XSP16, literal(-14)))
          CFI (cfiCond110) VB load(1, XDATA, add(CFA_XSP16, literal(-13)))
          CFI (cfiCond110) V0 load(1, XDATA, add(CFA_XSP16, literal(-12)))
          CFI (cfiCond110) V1 load(1, XDATA, add(CFA_XSP16, literal(-11)))
          CFI (cfiCond110) V2 load(1, XDATA, add(CFA_XSP16, literal(-10)))
          CFI (cfiCond110) V3 load(1, XDATA, add(CFA_XSP16, literal(-9)))
          CFI (cfiCond110) V4 load(1, XDATA, add(CFA_XSP16, literal(-8)))
          CFI (cfiCond110) V5 load(1, XDATA, add(CFA_XSP16, literal(-7)))
          CFI (cfiCond110) R7 load(1, XDATA, add(CFA_XSP16, literal(-6)))
          CFI (cfiCond110) ?RET_LOW load(1, XDATA, add(CFA_XSP16, literal(-5)))
          CFI (cfiCond110) ?RET_HIGH load(1, XDATA, add(CFA_XSP16, literal(-4)))
          CFI (cfiCond110) ?BRET_EXT load(1, XDATA, add(CFA_XSP16, literal(-3)))
          CFI (cfiCond110) DPL0 load(1, XDATA, add(CFA_XSP16, literal(-2)))
          CFI (cfiCond110) DPH0 load(1, XDATA, add(CFA_XSP16, literal(-1)))
          CFI (cfiCond110) CFA_SP SP+-2
          CFI (cfiCond110) CFA_XSP16 add(XSP16, 35)
          CFI Block cfiCond111 Using cfiCommon0
          CFI (cfiCond111) Function ZDSecMgrUpdateDeviceInd
          CFI (cfiCond111) Conditional ??CrossCallReturnLabel_106
          CFI (cfiCond111) DPL0 Frame(CFA_SP, 4)
          CFI (cfiCond111) DPH0 Frame(CFA_SP, 5)
          CFI (cfiCond111) CFA_SP SP+-7
          CFI (cfiCond111) CFA_XSP16 add(XSP16, 8)
          CFI Block cfiCond112 Using cfiCommon0
          CFI (cfiCond112) Function APSME_LinkKeySet
          CFI (cfiCond112) Conditional ??CrossCallReturnLabel_107
          CFI (cfiCond112) R6 load(1, XDATA, add(CFA_XSP16, literal(-19)))
          CFI (cfiCond112) VB load(1, XDATA, add(CFA_XSP16, literal(-18)))
          CFI (cfiCond112) V0 load(1, XDATA, add(CFA_XSP16, literal(-17)))
          CFI (cfiCond112) V1 load(1, XDATA, add(CFA_XSP16, literal(-16)))
          CFI (cfiCond112) V2 load(1, XDATA, add(CFA_XSP16, literal(-15)))
          CFI (cfiCond112) V3 load(1, XDATA, add(CFA_XSP16, literal(-14)))
          CFI (cfiCond112) V4 load(1, XDATA, add(CFA_XSP16, literal(-13)))
          CFI (cfiCond112) V5 load(1, XDATA, add(CFA_XSP16, literal(-12)))
          CFI (cfiCond112) V6 load(1, XDATA, add(CFA_XSP16, literal(-11)))
          CFI (cfiCond112) V7 load(1, XDATA, add(CFA_XSP16, literal(-10)))
          CFI (cfiCond112) V8 load(1, XDATA, add(CFA_XSP16, literal(-9)))
          CFI (cfiCond112) V9 load(1, XDATA, add(CFA_XSP16, literal(-8)))
          CFI (cfiCond112) V10 load(1, XDATA, add(CFA_XSP16, literal(-7)))
          CFI (cfiCond112) R7 load(1, XDATA, add(CFA_XSP16, literal(-6)))
          CFI (cfiCond112) ?RET_LOW load(1, XDATA, add(CFA_XSP16, literal(-5)))
          CFI (cfiCond112) ?RET_HIGH load(1, XDATA, add(CFA_XSP16, literal(-4)))
          CFI (cfiCond112) ?BRET_EXT load(1, XDATA, add(CFA_XSP16, literal(-3)))
          CFI (cfiCond112) DPL0 load(1, XDATA, add(CFA_XSP16, literal(-2)))
          CFI (cfiCond112) DPH0 load(1, XDATA, add(CFA_XSP16, literal(-1)))
          CFI (cfiCond112) CFA_SP SP+-2
          CFI (cfiCond112) CFA_XSP16 add(XSP16, 32)
          CFI Block cfiCond113 Using cfiCommon0
          CFI (cfiCond113) Function ZDSecMgrSendNwkKey
          CFI (cfiCond113) Conditional ??CrossCallReturnLabel_108
          CFI (cfiCond113) R6 load(1, XDATA, add(CFA_XSP16, literal(-10)))
          CFI (cfiCond113) VB load(1, XDATA, add(CFA_XSP16, literal(-9)))
          CFI (cfiCond113) V0 load(1, XDATA, add(CFA_XSP16, literal(-8)))
          CFI (cfiCond113) V1 load(1, XDATA, add(CFA_XSP16, literal(-7)))
          CFI (cfiCond113) R7 load(1, XDATA, add(CFA_XSP16, literal(-6)))
          CFI (cfiCond113) ?RET_LOW load(1, XDATA, add(CFA_XSP16, literal(-5)))
          CFI (cfiCond113) ?RET_HIGH load(1, XDATA, add(CFA_XSP16, literal(-4)))
          CFI (cfiCond113) ?BRET_EXT load(1, XDATA, add(CFA_XSP16, literal(-3)))
          CFI (cfiCond113) DPL0 load(1, XDATA, add(CFA_XSP16, literal(-2)))
          CFI (cfiCond113) DPH0 load(1, XDATA, add(CFA_XSP16, literal(-1)))
          CFI (cfiCond113) CFA_SP SP+-2
          CFI (cfiCond113) CFA_XSP16 add(XSP16, 40)
          CFI Block cfiCond114 Using cfiCommon0
          CFI (cfiCond114) Function ZDSecMgrNewDeviceEvent
          CFI (cfiCond114) Conditional ??CrossCallReturnLabel_109
          CFI (cfiCond114) R6 load(1, XDATA, add(CFA_XSP16, literal(-14)))
          CFI (cfiCond114) VB load(1, XDATA, add(CFA_XSP16, literal(-13)))
          CFI (cfiCond114) V0 load(1, XDATA, add(CFA_XSP16, literal(-12)))
          CFI (cfiCond114) V1 load(1, XDATA, add(CFA_XSP16, literal(-11)))
          CFI (cfiCond114) V2 load(1, XDATA, add(CFA_XSP16, literal(-10)))
          CFI (cfiCond114) V3 load(1, XDATA, add(CFA_XSP16, literal(-9)))
          CFI (cfiCond114) V4 load(1, XDATA, add(CFA_XSP16, literal(-8)))
          CFI (cfiCond114) V5 load(1, XDATA, add(CFA_XSP16, literal(-7)))
          CFI (cfiCond114) R7 load(1, XDATA, add(CFA_XSP16, literal(-6)))
          CFI (cfiCond114) ?RET_LOW load(1, XDATA, add(CFA_XSP16, literal(-5)))
          CFI (cfiCond114) ?RET_HIGH load(1, XDATA, add(CFA_XSP16, literal(-4)))
          CFI (cfiCond114) ?BRET_EXT load(1, XDATA, add(CFA_XSP16, literal(-3)))
          CFI (cfiCond114) DPL0 load(1, XDATA, add(CFA_XSP16, literal(-2)))
          CFI (cfiCond114) DPH0 load(1, XDATA, add(CFA_XSP16, literal(-1)))
          CFI (cfiCond114) CFA_SP SP+-2
          CFI (cfiCond114) CFA_XSP16 add(XSP16, 35)
          CFI Block cfiCond115 Using cfiCommon0
          CFI (cfiCond115) Function ZDSecMgrUpdateDeviceInd
          CFI (cfiCond115) Conditional ??CrossCallReturnLabel_110
          CFI (cfiCond115) DPL0 Frame(CFA_SP, 4)
          CFI (cfiCond115) DPH0 Frame(CFA_SP, 5)
          CFI (cfiCond115) CFA_SP SP+-7
          CFI (cfiCond115) CFA_XSP16 add(XSP16, 8)
          CFI Block cfiPicker116 Using cfiCommon1
          CFI (cfiPicker116) NoFunction
          CFI (cfiPicker116) Picker
        MOV     A,R0
        MOVX    @DPTR,A
        INC     DPTR
        MOV     A,R1
        MOVX    @DPTR,A
        RET
          CFI (cfiCond98) CFA_SP SP+0
          CFI (cfiCond99) CFA_SP SP+0
          CFI (cfiCond100) CFA_SP SP+0
          CFI (cfiCond101) CFA_SP SP+0
          CFI (cfiCond102) CFA_SP SP+0
          CFI (cfiCond103) CFA_SP SP+0
          CFI (cfiCond104) CFA_SP SP+0
          CFI (cfiCond105) CFA_SP SP+0
          CFI (cfiCond106) CFA_SP SP+0
          CFI (cfiCond107) CFA_SP SP+0
          CFI (cfiCond108) CFA_SP SP+0
          CFI (cfiCond109) CFA_SP SP+0
          CFI (cfiCond110) CFA_SP SP+0
          CFI (cfiCond111) CFA_SP SP+-5
          CFI (cfiCond112) CFA_SP SP+0
          CFI (cfiCond113) CFA_SP SP+0
          CFI (cfiCond114) CFA_SP SP+0
          CFI (cfiCond115) CFA_SP SP+-5
          CFI (cfiPicker116) CFA_SP SP+0
          CFI EndBlock cfiCond98
          CFI EndBlock cfiCond99
          CFI EndBlock cfiCond100
          CFI EndBlock cfiCond101
          CFI EndBlock cfiCond102
          CFI EndBlock cfiCond103
          CFI EndBlock cfiCond104
          CFI EndBlock cfiCond105
          CFI EndBlock cfiCond106
          CFI EndBlock cfiCond107
          CFI EndBlock cfiCond108
          CFI EndBlock cfiCond109
          CFI EndBlock cfiCond110
          CFI EndBlock cfiCond111
          CFI EndBlock cfiCond112
          CFI EndBlock cfiCond113
          CFI EndBlock cfiCond114
          CFI EndBlock cfiCond115
          CFI EndBlock cfiPicker116

        RSEG BANKED_CODE:CODE:NOROOT(0)
?Subroutine20:
          CFI Block cfiCond117 Using cfiCommon0
          CFI Function ZDSecMgrSendNwkKey
          CFI Conditional ??CrossCallReturnLabel_8
          CFI R6 load(1, XDATA, add(CFA_XSP16, literal(-10)))
          CFI VB load(1, XDATA, add(CFA_XSP16, literal(-9)))
          CFI V0 load(1, XDATA, add(CFA_XSP16, literal(-8)))
          CFI V1 load(1, XDATA, add(CFA_XSP16, literal(-7)))
          CFI R7 load(1, XDATA, add(CFA_XSP16, literal(-6)))
          CFI ?RET_LOW load(1, XDATA, add(CFA_XSP16, literal(-5)))
          CFI ?RET_HIGH load(1, XDATA, add(CFA_XSP16, literal(-4)))
          CFI ?BRET_EXT load(1, XDATA, add(CFA_XSP16, literal(-3)))
          CFI DPL0 load(1, XDATA, add(CFA_XSP16, literal(-2)))
          CFI DPH0 load(1, XDATA, add(CFA_XSP16, literal(-1)))
          CFI CFA_SP SP+-2
          CFI CFA_XSP16 add(XSP16, 40)
          CFI Block cfiCond118 Using cfiCommon0
          CFI (cfiCond118) Function ZDSecMgrDeviceJoin
          CFI (cfiCond118) Conditional ??CrossCallReturnLabel_9
          CFI (cfiCond118) R6 load(1, XDATA, add(CFA_XSP16, literal(-13)))
          CFI (cfiCond118) VB load(1, XDATA, add(CFA_XSP16, literal(-12)))
          CFI (cfiCond118) V0 load(1, XDATA, add(CFA_XSP16, literal(-11)))
          CFI (cfiCond118) V1 load(1, XDATA, add(CFA_XSP16, literal(-10)))
          CFI (cfiCond118) V2 load(1, XDATA, add(CFA_XSP16, literal(-9)))
          CFI (cfiCond118) V3 load(1, XDATA, add(CFA_XSP16, literal(-8)))
          CFI (cfiCond118) V4 load(1, XDATA, add(CFA_XSP16, literal(-7)))
          CFI (cfiCond118) R7 load(1, XDATA, add(CFA_XSP16, literal(-6)))
          CFI (cfiCond118) ?RET_LOW load(1, XDATA, add(CFA_XSP16, literal(-5)))
          CFI (cfiCond118) ?RET_HIGH load(1, XDATA, add(CFA_XSP16, literal(-4)))
          CFI (cfiCond118) ?BRET_EXT load(1, XDATA, add(CFA_XSP16, literal(-3)))
          CFI (cfiCond118) DPL0 load(1, XDATA, add(CFA_XSP16, literal(-2)))
          CFI (cfiCond118) DPH0 load(1, XDATA, add(CFA_XSP16, literal(-1)))
          CFI (cfiCond118) CFA_SP SP+-2
          CFI (cfiCond118) CFA_XSP16 add(XSP16, 38)
          CFI Block cfiPicker119 Using cfiCommon1
          CFI (cfiPicker119) NoFunction
          CFI (cfiPicker119) Picker
        MOV     DPL,R6
        MOV     DPH,R7
        LCALL   ?Subroutine46 & 0xFFFF
??CrossCallReturnLabel_127:
        MOV     DPL,?XSP + 0
        MOV     DPH,?XSP + 1
        MOV     A,R0
        MOVX    @DPTR,A
        INC     DPTR
        MOV     A,R1
        LCALL   ?Subroutine42 & 0xFFFF
??CrossCallReturnLabel_67:
        INC     DPTR
        INC     DPTR
        MOVX    A,@DPTR
        RET
          CFI (cfiCond117) CFA_SP SP+0
          CFI (cfiCond118) CFA_SP SP+0
          CFI (cfiPicker119) CFA_SP SP+0
          CFI EndBlock cfiCond117
          CFI EndBlock cfiCond118
          CFI EndBlock cfiPicker119

        RSEG BANKED_CODE:CODE:NOROOT(0)
?Subroutine42:
          CFI Block cfiCond120 Using cfiCommon0
          CFI Function ZDSecMgrEntryFree
          CFI Conditional ??CrossCallReturnLabel_66
          CFI R6 load(1, XDATA, add(CFA_XSP16, literal(-14)))
          CFI VB load(1, XDATA, add(CFA_XSP16, literal(-13)))
          CFI V0 load(1, XDATA, add(CFA_XSP16, literal(-12)))
          CFI V1 load(1, XDATA, add(CFA_XSP16, literal(-11)))
          CFI V2 load(1, XDATA, add(CFA_XSP16, literal(-10)))
          CFI V3 load(1, XDATA, add(CFA_XSP16, literal(-9)))
          CFI V4 load(1, XDATA, add(CFA_XSP16, literal(-8)))
          CFI V5 load(1, XDATA, add(CFA_XSP16, literal(-7)))
          CFI R7 load(1, XDATA, add(CFA_XSP16, literal(-6)))
          CFI ?RET_LOW load(1, XDATA, add(CFA_XSP16, literal(-5)))
          CFI ?RET_HIGH load(1, XDATA, add(CFA_XSP16, literal(-4)))
          CFI ?BRET_EXT load(1, XDATA, add(CFA_XSP16, literal(-3)))
          CFI DPL0 load(1, XDATA, add(CFA_XSP16, literal(-2)))
          CFI DPH0 load(1, XDATA, add(CFA_XSP16, literal(-1)))
          CFI CFA_SP SP+-2
          CFI CFA_XSP16 add(XSP16, 14)
          CFI Block cfiCond121 Using cfiCommon0
          CFI (cfiCond121) Function ZDSecMgrSendNwkKey
          CFI (cfiCond121) Conditional ??CrossCallReturnLabel_67, ??CrossCallReturnLabel_8
          CFI (cfiCond121) R6 load(1, XDATA, add(CFA_XSP16, literal(-10)))
          CFI (cfiCond121) VB load(1, XDATA, add(CFA_XSP16, literal(-9)))
          CFI (cfiCond121) V0 load(1, XDATA, add(CFA_XSP16, literal(-8)))
          CFI (cfiCond121) V1 load(1, XDATA, add(CFA_XSP16, literal(-7)))
          CFI (cfiCond121) R7 load(1, XDATA, add(CFA_XSP16, literal(-6)))
          CFI (cfiCond121) ?RET_LOW load(1, XDATA, add(CFA_XSP16, literal(-5)))
          CFI (cfiCond121) ?RET_HIGH load(1, XDATA, add(CFA_XSP16, literal(-4)))
          CFI (cfiCond121) ?BRET_EXT load(1, XDATA, add(CFA_XSP16, literal(-3)))
          CFI (cfiCond121) DPL0 load(1, XDATA, add(CFA_XSP16, literal(-2)))
          CFI (cfiCond121) DPH0 load(1, XDATA, add(CFA_XSP16, literal(-1)))
          CFI (cfiCond121) CFA_SP SP+-4
          CFI (cfiCond121) CFA_XSP16 add(XSP16, 40)
          CFI Block cfiCond122 Using cfiCommon0
          CFI (cfiCond122) Function ZDSecMgrDeviceJoin
          CFI (cfiCond122) Conditional ??CrossCallReturnLabel_67, ??CrossCallReturnLabel_9
          CFI (cfiCond122) R6 load(1, XDATA, add(CFA_XSP16, literal(-13)))
          CFI (cfiCond122) VB load(1, XDATA, add(CFA_XSP16, literal(-12)))
          CFI (cfiCond122) V0 load(1, XDATA, add(CFA_XSP16, literal(-11)))
          CFI (cfiCond122) V1 load(1, XDATA, add(CFA_XSP16, literal(-10)))
          CFI (cfiCond122) V2 load(1, XDATA, add(CFA_XSP16, literal(-9)))
          CFI (cfiCond122) V3 load(1, XDATA, add(CFA_XSP16, literal(-8)))
          CFI (cfiCond122) V4 load(1, XDATA, add(CFA_XSP16, literal(-7)))
          CFI (cfiCond122) R7 load(1, XDATA, add(CFA_XSP16, literal(-6)))
          CFI (cfiCond122) ?RET_LOW load(1, XDATA, add(CFA_XSP16, literal(-5)))
          CFI (cfiCond122) ?RET_HIGH load(1, XDATA, add(CFA_XSP16, literal(-4)))
          CFI (cfiCond122) ?BRET_EXT load(1, XDATA, add(CFA_XSP16, literal(-3)))
          CFI (cfiCond122) DPL0 load(1, XDATA, add(CFA_XSP16, literal(-2)))
          CFI (cfiCond122) DPH0 load(1, XDATA, add(CFA_XSP16, literal(-1)))
          CFI (cfiCond122) CFA_SP SP+-4
          CFI (cfiCond122) CFA_XSP16 add(XSP16, 38)
          CFI Block cfiCond123 Using cfiCommon0
          CFI (cfiCond123) Function ZDSecMgrNewDeviceEvent
          CFI (cfiCond123) Conditional ??CrossCallReturnLabel_68
          CFI (cfiCond123) R6 load(1, XDATA, add(CFA_XSP16, literal(-14)))
          CFI (cfiCond123) VB load(1, XDATA, add(CFA_XSP16, literal(-13)))
          CFI (cfiCond123) V0 load(1, XDATA, add(CFA_XSP16, literal(-12)))
          CFI (cfiCond123) V1 load(1, XDATA, add(CFA_XSP16, literal(-11)))
          CFI (cfiCond123) V2 load(1, XDATA, add(CFA_XSP16, literal(-10)))
          CFI (cfiCond123) V3 load(1, XDATA, add(CFA_XSP16, literal(-9)))
          CFI (cfiCond123) V4 load(1, XDATA, add(CFA_XSP16, literal(-8)))
          CFI (cfiCond123) V5 load(1, XDATA, add(CFA_XSP16, literal(-7)))
          CFI (cfiCond123) R7 load(1, XDATA, add(CFA_XSP16, literal(-6)))
          CFI (cfiCond123) ?RET_LOW load(1, XDATA, add(CFA_XSP16, literal(-5)))
          CFI (cfiCond123) ?RET_HIGH load(1, XDATA, add(CFA_XSP16, literal(-4)))
          CFI (cfiCond123) ?BRET_EXT load(1, XDATA, add(CFA_XSP16, literal(-3)))
          CFI (cfiCond123) DPL0 load(1, XDATA, add(CFA_XSP16, literal(-2)))
          CFI (cfiCond123) DPH0 load(1, XDATA, add(CFA_XSP16, literal(-1)))
          CFI (cfiCond123) CFA_SP SP+-2
          CFI (cfiCond123) CFA_XSP16 add(XSP16, 35)
          CFI Block cfiCond124 Using cfiCommon0
          CFI (cfiCond124) Function ZDSecMgrNewDeviceEvent
          CFI (cfiCond124) Conditional ??CrossCallReturnLabel_69
          CFI (cfiCond124) R6 load(1, XDATA, add(CFA_XSP16, literal(-14)))
          CFI (cfiCond124) VB load(1, XDATA, add(CFA_XSP16, literal(-13)))
          CFI (cfiCond124) V0 load(1, XDATA, add(CFA_XSP16, literal(-12)))
          CFI (cfiCond124) V1 load(1, XDATA, add(CFA_XSP16, literal(-11)))
          CFI (cfiCond124) V2 load(1, XDATA, add(CFA_XSP16, literal(-10)))
          CFI (cfiCond124) V3 load(1, XDATA, add(CFA_XSP16, literal(-9)))
          CFI (cfiCond124) V4 load(1, XDATA, add(CFA_XSP16, literal(-8)))
          CFI (cfiCond124) V5 load(1, XDATA, add(CFA_XSP16, literal(-7)))
          CFI (cfiCond124) R7 load(1, XDATA, add(CFA_XSP16, literal(-6)))
          CFI (cfiCond124) ?RET_LOW load(1, XDATA, add(CFA_XSP16, literal(-5)))
          CFI (cfiCond124) ?RET_HIGH load(1, XDATA, add(CFA_XSP16, literal(-4)))
          CFI (cfiCond124) ?BRET_EXT load(1, XDATA, add(CFA_XSP16, literal(-3)))
          CFI (cfiCond124) DPL0 load(1, XDATA, add(CFA_XSP16, literal(-2)))
          CFI (cfiCond124) DPH0 load(1, XDATA, add(CFA_XSP16, literal(-1)))
          CFI (cfiCond124) CFA_SP SP+-2
          CFI (cfiCond124) CFA_XSP16 add(XSP16, 35)
          CFI Block cfiPicker125 Using cfiCommon1
          CFI (cfiPicker125) NoFunction
          CFI (cfiPicker125) Picker
        MOVX    @DPTR,A
        ; Setup parameters for call to function osal_memcpy
        MOV     DPL,R6
        MOV     DPH,R7
        RET
          CFI (cfiCond120) CFA_SP SP+0
          CFI (cfiCond121) CFA_SP SP+-2
          CFI (cfiCond122) CFA_SP SP+-2
          CFI (cfiCond123) CFA_SP SP+0
          CFI (cfiCond124) CFA_SP SP+0
          CFI (cfiPicker125) CFA_SP SP+0
          CFI EndBlock cfiCond120
          CFI EndBlock cfiCond121
          CFI EndBlock cfiCond122
          CFI EndBlock cfiCond123
          CFI EndBlock cfiCond124
          CFI EndBlock cfiPicker125
// 1164 
// 1165 /******************************************************************************
// 1166  * @fn          ZDSecMgrDeviceJoinDirect
// 1167  *
// 1168  * @brief       Try to join this device as a direct child.
// 1169  *
// 1170  * @param       device - [in] ZDSecMgrDevice_t, device info
// 1171  *
// 1172  * @return      ZStatus_t
// 1173  */

        RSEG BANKED_CODE:CODE:NOROOT(0)
// 1174 ZStatus_t ZDSecMgrDeviceJoinDirect( ZDSecMgrDevice_t* device )
ZDSecMgrDeviceJoinDirect:
          CFI Block cfiBlock126 Using cfiCommon0
          CFI Function ZDSecMgrDeviceJoinDirect
        CODE
// 1175 {
        FUNCALL ZDSecMgrDeviceJoinDirect, ZDSecMgrDeviceJoin
        LOCFRAME ISTACK, 0, STACK
        LOCFRAME PSTACK, 0, STACK
        LOCFRAME XSTACK, 12, STACK
        LOCFRAME IOVERLAY, 0, STATIC
        LOCFRAME DOVERLAY, 0, STATIC
        ARGFRAME ISTACK, 0, STACK
        ARGFRAME PSTACK, 0, STACK
        ARGFRAME XSTACK, 12, STACK
        ARGFRAME IOVERLAY, 0, STATIC
        ARGFRAME DOVERLAY, 0, STATIC
        FUNCALL ZDSecMgrDeviceJoinDirect, AssocGetWithShort
        LOCFRAME ISTACK, 0, STACK
        LOCFRAME PSTACK, 0, STACK
        LOCFRAME XSTACK, 12, STACK
        LOCFRAME IOVERLAY, 0, STATIC
        LOCFRAME DOVERLAY, 0, STATIC
        ARGFRAME ISTACK, 0, STACK
        ARGFRAME PSTACK, 0, STACK
        ARGFRAME XSTACK, 12, STACK
        ARGFRAME IOVERLAY, 0, STATIC
        ARGFRAME DOVERLAY, 0, STATIC
        REQUIRE ?V0
        REQUIRE ?V2
        REQUIRE ?V3
        MOV     A,#-0xc
        LCALL   ?BANKED_ENTER_XDATA
          CFI DPH0 load(1, XDATA, add(CFA_XSP16, literal(-1)))
          CFI DPL0 load(1, XDATA, add(CFA_XSP16, literal(-2)))
          CFI ?BRET_EXT load(1, XDATA, add(CFA_XSP16, literal(-3)))
          CFI ?RET_HIGH load(1, XDATA, add(CFA_XSP16, literal(-4)))
          CFI ?RET_LOW load(1, XDATA, add(CFA_XSP16, literal(-5)))
          CFI R7 load(1, XDATA, add(CFA_XSP16, literal(-6)))
          CFI V3 load(1, XDATA, add(CFA_XSP16, literal(-7)))
          CFI V2 load(1, XDATA, add(CFA_XSP16, literal(-8)))
          CFI V1 load(1, XDATA, add(CFA_XSP16, literal(-9)))
          CFI V0 load(1, XDATA, add(CFA_XSP16, literal(-10)))
          CFI VB load(1, XDATA, add(CFA_XSP16, literal(-11)))
          CFI R6 load(1, XDATA, add(CFA_XSP16, literal(-12)))
          CFI CFA_SP SP+0
          CFI CFA_XSP16 add(XSP16, 12)
        ; Saved register size: 12
        ; Auto size: 0
        MOV     A,R2
        MOV     R6,A
        MOV     A,R3
        MOV     R7,A
// 1176   ZStatus_t status;
// 1177 
// 1178   status = ZDSecMgrDeviceJoin( device );
        ; Setup parameters for call to function ZDSecMgrDeviceJoin
        LCALL   `??ZDSecMgrDeviceJoin::?relay`; Banked call to: ZDSecMgrDeviceJoin
        MOV     A,R1
        MOV     ?V0,A
// 1179 
// 1180   if ( status == ZSuccess )
        JNZ     ??CrossCallReturnLabel_112
// 1181   {
// 1182     // set association status to authenticated
// 1183     ZDSecMgrAssocDeviceAuth( AssocGetWithShort( device->nwkAddr ) );
        ; Setup parameters for call to function AssocGetWithShort
        MOV     DPL,R6
        MOV     DPH,R7
        LCALL   ??Subroutine72_0 & 0xFFFF
// 1184   }
??CrossCallReturnLabel_175:
        LCALL   `??AssocGetWithShort::?relay`; Banked call to: AssocGetWithShort
        MOV     DPL,R2
        MOV     DPH,R3
        MOV     A,DPL
        ORL     A,DPH
        JZ      ??CrossCallReturnLabel_112
        LCALL   ?Subroutine35 & 0xFFFF
// 1185 
// 1186   return status;
??CrossCallReturnLabel_112:
          CFI EndBlock cfiBlock126
        REQUIRE ?Subroutine10
        ; // Fall through to label ?Subroutine10
// 1187 }

        RSEG BANKED_CODE:CODE:NOROOT(0)
?Subroutine10:
          CFI Block cfiBlock127 Using cfiCommon0
          CFI NoFunction
          CFI CFA_SP SP+0
          CFI CFA_XSP16 add(XSP16, 12)
          CFI VB load(1, XDATA, add(CFA_XSP16, literal(-11)))
          CFI DPL0 load(1, XDATA, add(CFA_XSP16, literal(-2)))
          CFI DPH0 load(1, XDATA, add(CFA_XSP16, literal(-1)))
          CFI R6 load(1, XDATA, add(CFA_XSP16, literal(-12)))
          CFI R7 load(1, XDATA, add(CFA_XSP16, literal(-6)))
          CFI V0 load(1, XDATA, add(CFA_XSP16, literal(-10)))
          CFI V1 load(1, XDATA, add(CFA_XSP16, literal(-9)))
          CFI V2 load(1, XDATA, add(CFA_XSP16, literal(-8)))
          CFI V3 load(1, XDATA, add(CFA_XSP16, literal(-7)))
          CFI ?BRET_EXT load(1, XDATA, add(CFA_XSP16, literal(-3)))
          CFI ?RET_HIGH load(1, XDATA, add(CFA_XSP16, literal(-4)))
          CFI ?RET_LOW load(1, XDATA, add(CFA_XSP16, literal(-5)))
        MOV     R1,?V0
        LJMP    ??Subroutine74_0 & 0xFFFF
          CFI EndBlock cfiBlock127
// 1188 
// 1189 /******************************************************************************
// 1190  * @fn          ZDSecMgrDeviceJoinFwd
// 1191  *
// 1192  * @brief       Forward join to Trust Center.
// 1193  *
// 1194  * @param       device - [in] ZDSecMgrDevice_t, device info
// 1195  *
// 1196  * @return      ZStatus_t
// 1197  */

        RSEG BANKED_CODE:CODE:NOROOT(0)
// 1198 ZStatus_t ZDSecMgrDeviceJoinFwd( ZDSecMgrDevice_t* device )
ZDSecMgrDeviceJoinFwd:
          CFI Block cfiBlock128 Using cfiCommon0
          CFI Function ZDSecMgrDeviceJoinFwd
        CODE
// 1199 {
        FUNCALL ZDSecMgrDeviceJoinFwd, AssocGetWithShort
        LOCFRAME ISTACK, 0, STACK
        LOCFRAME PSTACK, 0, STACK
        LOCFRAME XSTACK, 18, STACK
        LOCFRAME IOVERLAY, 0, STATIC
        LOCFRAME DOVERLAY, 0, STATIC
        ARGFRAME ISTACK, 0, STACK
        ARGFRAME PSTACK, 0, STACK
        ARGFRAME XSTACK, 18, STACK
        ARGFRAME IOVERLAY, 0, STATIC
        ARGFRAME DOVERLAY, 0, STATIC
        FUNCALL ZDSecMgrDeviceJoinFwd, APSME_UpdateDeviceReq
        LOCFRAME ISTACK, 0, STACK
        LOCFRAME PSTACK, 0, STACK
        LOCFRAME XSTACK, 18, STACK
        LOCFRAME IOVERLAY, 0, STATIC
        LOCFRAME DOVERLAY, 0, STATIC
        ARGFRAME ISTACK, 0, STACK
        ARGFRAME PSTACK, 0, STACK
        ARGFRAME XSTACK, 18, STACK
        ARGFRAME IOVERLAY, 0, STATIC
        ARGFRAME DOVERLAY, 0, STATIC
        REQUIRE ?V0
        REQUIRE ?V1
        MOV     A,#-0xa
        LCALL   ?BANKED_ENTER_XDATA
          CFI DPH0 load(1, XDATA, add(CFA_XSP16, literal(-1)))
          CFI DPL0 load(1, XDATA, add(CFA_XSP16, literal(-2)))
          CFI ?BRET_EXT load(1, XDATA, add(CFA_XSP16, literal(-3)))
          CFI ?RET_HIGH load(1, XDATA, add(CFA_XSP16, literal(-4)))
          CFI ?RET_LOW load(1, XDATA, add(CFA_XSP16, literal(-5)))
          CFI R7 load(1, XDATA, add(CFA_XSP16, literal(-6)))
          CFI V1 load(1, XDATA, add(CFA_XSP16, literal(-7)))
          CFI V0 load(1, XDATA, add(CFA_XSP16, literal(-8)))
          CFI VB load(1, XDATA, add(CFA_XSP16, literal(-9)))
          CFI R6 load(1, XDATA, add(CFA_XSP16, literal(-10)))
          CFI CFA_SP SP+0
          CFI CFA_XSP16 add(XSP16, 10)
        ; Saved register size: 10
        ; Auto size: 8
        MOV     A,#-0x8
        LCALL   ?ALLOC_XSTACK8
          CFI CFA_XSP16 add(XSP16, 18)
// 1200   ZStatus_t               status;
// 1201   APSME_UpdateDeviceReq_t req;
// 1202 
// 1203   // forward any joining device to the Trust Center -- the Trust Center will
// 1204   // decide if the device is allowed to join
// 1205   status = ZSuccess;
// 1206 
// 1207   // forward authorization to the Trust Center
// 1208   req.dstAddr    = APSME_TRUSTCENTER_NWKADDR;
        MOV     DPL,?XSP + 0
        MOV     DPH,?XSP + 1
        CLR     A
        MOVX    @DPTR,A
        INC     DPTR
        LCALL   ?Subroutine43 & 0xFFFF
// 1209   req.devAddr    = device->nwkAddr;
??CrossCallReturnLabel_70:
        LCALL   ?Subroutine32 & 0xFFFF
??CrossCallReturnLabel_35:
        LCALL   ?XSTACK_DISP0_8
        LCALL   ?Subroutine16 & 0xFFFF
// 1210   req.devExtAddr = device->extAddr;
??CrossCallReturnLabel_0:
        LCALL   ?XSTACK_DISP0_8
        LCALL   ??Subroutine54_0 & 0xFFFF
// 1211 
// 1212   // set security status, option for router to reject if policy set
// 1213   if ( (device->devStatus & DEV_HIGH_SEC_STATUS) )
??CrossCallReturnLabel_103:
        MOV     A,R2
        ADD     A,#0x7
        MOV     DPL,A
        CLR     A
        ADDC    A,R3
        MOV     DPH,A
        MOVX    A,@DPTR
        MOV     C,0xE0 /* A   */.7
        JNC     ??ZDSecMgrDeviceJoinFwd_0
// 1214   {
// 1215     if ( device->devStatus & DEV_REJOIN_STATUS )
        MOV     C,0xE0 /* A   */.6
        JNC     ??ZDSecMgrDeviceJoinFwd_1
// 1216     {
// 1217       if ( device->secure == TRUE )
        MOV     DPL,R2
        MOV     DPH,R3
        INC     DPTR
        INC     DPTR
        INC     DPTR
        INC     DPTR
        INC     DPTR
        INC     DPTR
        MOVX    A,@DPTR
        XRL     A,#0x1
        JNZ     ??ZDSecMgrDeviceJoinFwd_2
// 1218       {
// 1219         req.status = APSME_UD_HIGH_SECURED_REJOIN;
        MOV     A,#0x6
        LCALL   ?XSTACK_DISP0_8
        MOV     A,#0x4
        SJMP    ??ZDSecMgrDeviceJoinFwd_3
// 1220       }
// 1221       else
// 1222       {
// 1223         req.status = APSME_UD_HIGH_UNSECURED_REJOIN;
??ZDSecMgrDeviceJoinFwd_2:
        MOV     A,#0x6
        LCALL   ?XSTACK_DISP0_8
        MOV     A,#0x7
        SJMP    ??ZDSecMgrDeviceJoinFwd_3
// 1224       }
// 1225     }
// 1226     else
// 1227     {
// 1228       req.status = APSME_UD_HIGH_UNSECURED_JOIN;
??ZDSecMgrDeviceJoinFwd_1:
        MOV     A,#0x6
        LCALL   ?XSTACK_DISP0_8
        MOV     A,#0x5
        SJMP    ??ZDSecMgrDeviceJoinFwd_3
// 1229     }
// 1230   }
// 1231   else
// 1232   {
// 1233     if ( device->devStatus & DEV_REJOIN_STATUS )
??ZDSecMgrDeviceJoinFwd_0:
        MOV     C,0xE0 /* A   */.6
        JNC     ??ZDSecMgrDeviceJoinFwd_4
// 1234     {
// 1235       if ( device->secure == TRUE )
        MOV     DPL,R2
        MOV     DPH,R3
        INC     DPTR
        INC     DPTR
        INC     DPTR
        INC     DPTR
        INC     DPTR
        INC     DPTR
        MOVX    A,@DPTR
        XRL     A,#0x1
        JNZ     ??ZDSecMgrDeviceJoinFwd_5
// 1236       {
// 1237         req.status = APSME_UD_STANDARD_SECURED_REJOIN;
        MOV     A,#0x6
        LCALL   ?XSTACK_DISP0_8
        CLR     A
        SJMP    ??ZDSecMgrDeviceJoinFwd_3
// 1238       }
// 1239       else
// 1240       {
// 1241         req.status = APSME_UD_STANDARD_TRUST_CENTER_REJOIN;
??ZDSecMgrDeviceJoinFwd_5:
        MOV     A,#0x6
        LCALL   ?XSTACK_DISP0_8
        MOV     A,#0x3
        SJMP    ??ZDSecMgrDeviceJoinFwd_3
// 1242       }
// 1243     }
// 1244     else
// 1245     {
// 1246       req.status = APSME_UD_STANDARD_UNSECURED_JOIN;
??ZDSecMgrDeviceJoinFwd_4:
        MOV     A,#0x6
        LCALL   ?XSTACK_DISP0_8
        MOV     A,#0x1
// 1247     }
// 1248   }
??ZDSecMgrDeviceJoinFwd_3:
        LCALL   ?Subroutine43 & 0xFFFF
// 1249 
// 1250   // set association status to authenticated
// 1251   ZDSecMgrAssocDeviceAuth( AssocGetWithShort( device->nwkAddr ) );
??CrossCallReturnLabel_71:
        LCALL   ??Subroutine72_0 & 0xFFFF
??CrossCallReturnLabel_176:
        LCALL   `??AssocGetWithShort::?relay`; Banked call to: AssocGetWithShort
        MOV     DPL,R2
        MOV     DPH,R3
        MOV     A,DPL
        ORL     A,DPH
        JZ      ??CrossCallReturnLabel_113
        LCALL   ?Subroutine35 & 0xFFFF
// 1252 
// 1253 #if defined ( APP_TP2_TEST_MODE )
// 1254   if ( guTxApsSecON == TRUE )
// 1255   {
// 1256     req.apsSecure = TRUE;
// 1257   }
// 1258   else
// 1259   {
// 1260     req.apsSecure = FALSE;
// 1261   }
// 1262 
// 1263   // send and APSME_UPDATE_DEVICE request to the trust center
// 1264   status = APSME_UpdateDeviceReq( &req );
// 1265 
// 1266 #else
// 1267   if ( ZG_CHECK_SECURITY_MODE == ZG_SECURITY_SE_STANDARD )
// 1268   {
// 1269     // For ZG_GLOBAL_LINK_KEY the message has to be sent twice one
// 1270     // un-encrypted and one APS encrypted, to make sure that it can interoperate
// 1271     // with legacy Coordinator devices which can only handle one or the other.
// 1272     if ( zgApsLinkKeyType == ZG_GLOBAL_LINK_KEY )
// 1273     {
// 1274       req.apsSecure = FALSE;
// 1275 
// 1276       // send and APSME_UPDATE_DEVICE request to the trust center
// 1277       status = APSME_UpdateDeviceReq( &req );
// 1278     }
// 1279 
// 1280     // send the message APS encrypted
// 1281     req.apsSecure = TRUE;
// 1282 
// 1283     // send and APSME_UPDATE_DEVICE request to the trust center
// 1284     status = APSME_UpdateDeviceReq( &req );
// 1285   }
// 1286   else
// 1287   {
// 1288     req.apsSecure = FALSE;
??CrossCallReturnLabel_113:
        MOV     A,#0x7
        LCALL   ?XSTACK_DISP0_8
        CLR     A
        LCALL   ??Subroutine65_0 & 0xFFFF
// 1289 
// 1290     // send and APSME_UPDATE_DEVICE request to the trust center
// 1291     status = APSME_UpdateDeviceReq( &req );
// 1292   }
// 1293 #endif
// 1294 
// 1295   return status;
??CrossCallReturnLabel_137:
        LCALL   `??APSME_UpdateDeviceReq::?relay`; Banked call to: APSME_UpdateDeviceReq
          CFI EndBlock cfiBlock128
        REQUIRE ?Subroutine9
        ; // Fall through to label ?Subroutine9
// 1296 }

        RSEG BANKED_CODE:CODE:NOROOT(0)
?Subroutine9:
          CFI Block cfiBlock129 Using cfiCommon0
          CFI NoFunction
          CFI CFA_SP SP+0
          CFI CFA_XSP16 add(XSP16, 18)
          CFI VB load(1, XDATA, add(CFA_XSP16, literal(-9)))
          CFI DPL0 load(1, XDATA, add(CFA_XSP16, literal(-2)))
          CFI DPH0 load(1, XDATA, add(CFA_XSP16, literal(-1)))
          CFI R6 load(1, XDATA, add(CFA_XSP16, literal(-10)))
          CFI R7 load(1, XDATA, add(CFA_XSP16, literal(-6)))
          CFI V0 load(1, XDATA, add(CFA_XSP16, literal(-8)))
          CFI V1 load(1, XDATA, add(CFA_XSP16, literal(-7)))
          CFI ?BRET_EXT load(1, XDATA, add(CFA_XSP16, literal(-3)))
          CFI ?RET_HIGH load(1, XDATA, add(CFA_XSP16, literal(-4)))
          CFI ?RET_LOW load(1, XDATA, add(CFA_XSP16, literal(-5)))
        MOV     A,#0x8
        SJMP    ??Subroutine55_0
          CFI EndBlock cfiBlock129

        RSEG BANKED_CODE:CODE:NOROOT(0)
?Subroutine32:
          CFI Block cfiCond130 Using cfiCommon0
          CFI Function ZDSecMgrAppKeyReq
          CFI Conditional ??CrossCallReturnLabel_33
          CFI R6 load(1, XDATA, add(CFA_XSP16, literal(-10)))
          CFI VB load(1, XDATA, add(CFA_XSP16, literal(-9)))
          CFI V0 load(1, XDATA, add(CFA_XSP16, literal(-8)))
          CFI V1 load(1, XDATA, add(CFA_XSP16, literal(-7)))
          CFI R7 load(1, XDATA, add(CFA_XSP16, literal(-6)))
          CFI ?RET_LOW load(1, XDATA, add(CFA_XSP16, literal(-5)))
          CFI ?RET_HIGH load(1, XDATA, add(CFA_XSP16, literal(-4)))
          CFI ?BRET_EXT load(1, XDATA, add(CFA_XSP16, literal(-3)))
          CFI DPL0 load(1, XDATA, add(CFA_XSP16, literal(-2)))
          CFI DPH0 load(1, XDATA, add(CFA_XSP16, literal(-1)))
          CFI CFA_SP SP+-2
          CFI CFA_XSP16 add(XSP16, 49)
          CFI Block cfiCond131 Using cfiCommon0
          CFI (cfiCond131) Function ZDSecMgrAppKeyReq
          CFI (cfiCond131) Conditional ??CrossCallReturnLabel_34
          CFI (cfiCond131) R6 load(1, XDATA, add(CFA_XSP16, literal(-10)))
          CFI (cfiCond131) VB load(1, XDATA, add(CFA_XSP16, literal(-9)))
          CFI (cfiCond131) V0 load(1, XDATA, add(CFA_XSP16, literal(-8)))
          CFI (cfiCond131) V1 load(1, XDATA, add(CFA_XSP16, literal(-7)))
          CFI (cfiCond131) R7 load(1, XDATA, add(CFA_XSP16, literal(-6)))
          CFI (cfiCond131) ?RET_LOW load(1, XDATA, add(CFA_XSP16, literal(-5)))
          CFI (cfiCond131) ?RET_HIGH load(1, XDATA, add(CFA_XSP16, literal(-4)))
          CFI (cfiCond131) ?BRET_EXT load(1, XDATA, add(CFA_XSP16, literal(-3)))
          CFI (cfiCond131) DPL0 load(1, XDATA, add(CFA_XSP16, literal(-2)))
          CFI (cfiCond131) DPH0 load(1, XDATA, add(CFA_XSP16, literal(-1)))
          CFI (cfiCond131) CFA_SP SP+-2
          CFI (cfiCond131) CFA_XSP16 add(XSP16, 49)
          CFI Block cfiCond132 Using cfiCommon0
          CFI (cfiCond132) Function ZDSecMgrDeviceJoinFwd
          CFI (cfiCond132) Conditional ??CrossCallReturnLabel_35
          CFI (cfiCond132) R6 load(1, XDATA, add(CFA_XSP16, literal(-10)))
          CFI (cfiCond132) VB load(1, XDATA, add(CFA_XSP16, literal(-9)))
          CFI (cfiCond132) V0 load(1, XDATA, add(CFA_XSP16, literal(-8)))
          CFI (cfiCond132) V1 load(1, XDATA, add(CFA_XSP16, literal(-7)))
          CFI (cfiCond132) R7 load(1, XDATA, add(CFA_XSP16, literal(-6)))
          CFI (cfiCond132) ?RET_LOW load(1, XDATA, add(CFA_XSP16, literal(-5)))
          CFI (cfiCond132) ?RET_HIGH load(1, XDATA, add(CFA_XSP16, literal(-4)))
          CFI (cfiCond132) ?BRET_EXT load(1, XDATA, add(CFA_XSP16, literal(-3)))
          CFI (cfiCond132) DPL0 load(1, XDATA, add(CFA_XSP16, literal(-2)))
          CFI (cfiCond132) DPH0 load(1, XDATA, add(CFA_XSP16, literal(-1)))
          CFI (cfiCond132) CFA_SP SP+-2
          CFI (cfiCond132) CFA_XSP16 add(XSP16, 18)
          CFI Block cfiPicker133 Using cfiCommon1
          CFI (cfiPicker133) NoFunction
          CFI (cfiPicker133) Picker
        LCALL   ?Subroutine46 & 0xFFFF
??CrossCallReturnLabel_131:
        MOV     A,#0x2
        RET
          CFI (cfiCond130) CFA_SP SP+0
          CFI (cfiCond131) CFA_SP SP+0
          CFI (cfiCond132) CFA_SP SP+0
          CFI (cfiPicker133) CFA_SP SP+0
          CFI EndBlock cfiCond130
          CFI EndBlock cfiCond131
          CFI EndBlock cfiCond132
          CFI EndBlock cfiPicker133

        RSEG BANKED_CODE:CODE:NOROOT(0)
?Subroutine2:
          CFI Block cfiBlock134 Using cfiCommon0
          CFI NoFunction
          CFI CFA_SP SP+0
          CFI CFA_XSP16 add(XSP16, 23)
          CFI VB load(1, XDATA, add(CFA_XSP16, literal(-9)))
          CFI DPL0 load(1, XDATA, add(CFA_XSP16, literal(-2)))
          CFI DPH0 load(1, XDATA, add(CFA_XSP16, literal(-1)))
          CFI R6 load(1, XDATA, add(CFA_XSP16, literal(-10)))
          CFI R7 load(1, XDATA, add(CFA_XSP16, literal(-6)))
          CFI V0 load(1, XDATA, add(CFA_XSP16, literal(-8)))
          CFI V1 load(1, XDATA, add(CFA_XSP16, literal(-7)))
          CFI ?BRET_EXT load(1, XDATA, add(CFA_XSP16, literal(-3)))
          CFI ?RET_HIGH load(1, XDATA, add(CFA_XSP16, literal(-4)))
          CFI ?RET_LOW load(1, XDATA, add(CFA_XSP16, literal(-5)))
        MOV     R1,?V0
        MOV     A,#0xd
          CFI EndBlock cfiBlock134
        REQUIRE ??Subroutine55_0
        ; // Fall through to label ??Subroutine55_0

        RSEG BANKED_CODE:CODE:NOROOT(0)
??Subroutine55_0:
          CFI Block cfiBlock135 Using cfiCommon0
          CFI NoFunction
          CFI CFA_SP SP+0
          CFI CFA_XSP16 add(XSP16, 49)
          CFI VB load(1, XDATA, add(CFA_XSP16, literal(-9)))
          CFI DPL0 load(1, XDATA, add(CFA_XSP16, literal(-2)))
          CFI DPH0 load(1, XDATA, add(CFA_XSP16, literal(-1)))
          CFI R6 load(1, XDATA, add(CFA_XSP16, literal(-10)))
          CFI R7 load(1, XDATA, add(CFA_XSP16, literal(-6)))
          CFI V0 load(1, XDATA, add(CFA_XSP16, literal(-8)))
          CFI V1 load(1, XDATA, add(CFA_XSP16, literal(-7)))
          CFI ?BRET_EXT load(1, XDATA, add(CFA_XSP16, literal(-3)))
          CFI ?RET_HIGH load(1, XDATA, add(CFA_XSP16, literal(-4)))
          CFI ?RET_LOW load(1, XDATA, add(CFA_XSP16, literal(-5)))
          CFI Invalid
        LCALL   ?DEALLOC_XSTACK8
          CFI CFA_XSP16 add(XSP16, 10)
          CFI Valid
          CFI EndBlock cfiBlock135
        REQUIRE ??Subroutine56_0
        ; // Fall through to label ??Subroutine56_0

        RSEG BANKED_CODE:CODE:NOROOT(0)
??Subroutine56_0:
          CFI Block cfiBlock136 Using cfiCommon0
          CFI NoFunction
          CFI CFA_SP SP+0
          CFI CFA_XSP16 add(XSP16, 10)
          CFI VB load(1, XDATA, add(CFA_XSP16, literal(-9)))
          CFI DPL0 load(1, XDATA, add(CFA_XSP16, literal(-2)))
          CFI DPH0 load(1, XDATA, add(CFA_XSP16, literal(-1)))
          CFI R6 load(1, XDATA, add(CFA_XSP16, literal(-10)))
          CFI R7 load(1, XDATA, add(CFA_XSP16, literal(-6)))
          CFI V0 load(1, XDATA, add(CFA_XSP16, literal(-8)))
          CFI V1 load(1, XDATA, add(CFA_XSP16, literal(-7)))
          CFI ?BRET_EXT load(1, XDATA, add(CFA_XSP16, literal(-3)))
          CFI ?RET_HIGH load(1, XDATA, add(CFA_XSP16, literal(-4)))
          CFI ?RET_LOW load(1, XDATA, add(CFA_XSP16, literal(-5)))
        MOV     R7,#0x2
        LJMP    ?BANKED_LEAVE_XDATA
          CFI CFA_SP SP+-3
          CFI CFA_XSP16 XSP16+0
          CFI VB SameValue
          CFI DPL0 SameValue
          CFI DPH0 SameValue
          CFI R6 SameValue
          CFI R7 SameValue
          CFI V0 SameValue
          CFI V1 SameValue
          CFI ?BRET_EXT Frame(CFA_SP, 3)
          CFI ?RET_HIGH Frame(CFA_SP, 2)
          CFI ?RET_LOW Frame(CFA_SP, 1)
          CFI EndBlock cfiBlock136
// 1297 
// 1298 /******************************************************************************
// 1299  * @fn          ZDSecMgrDeviceNew
// 1300  *
// 1301  * @brief       Process a new device.
// 1302  *
// 1303  * @param       device - [in] ZDSecMgrDevice_t, device info
// 1304  *
// 1305  * @return      ZStatus_t
// 1306  */

        RSEG BANKED_CODE:CODE:NOROOT(0)
// 1307 ZStatus_t ZDSecMgrDeviceNew( ZDSecMgrDevice_t* joiner )
ZDSecMgrDeviceNew:
          CFI Block cfiBlock137 Using cfiCommon0
          CFI Function ZDSecMgrDeviceNew
        CODE
// 1308 {
        FUNCALL ZDSecMgrDeviceNew, APSME_IsDistributedSecurity
        LOCFRAME ISTACK, 0, STACK
        LOCFRAME PSTACK, 0, STACK
        LOCFRAME XSTACK, 12, STACK
        LOCFRAME IOVERLAY, 0, STATIC
        LOCFRAME DOVERLAY, 0, STATIC
        ARGFRAME ISTACK, 0, STACK
        ARGFRAME PSTACK, 0, STACK
        ARGFRAME XSTACK, 12, STACK
        ARGFRAME IOVERLAY, 0, STATIC
        ARGFRAME DOVERLAY, 0, STATIC
        FUNCALL ZDSecMgrDeviceNew, ZDSecMgrDeviceJoin
        LOCFRAME ISTACK, 0, STACK
        LOCFRAME PSTACK, 0, STACK
        LOCFRAME XSTACK, 12, STACK
        LOCFRAME IOVERLAY, 0, STATIC
        LOCFRAME DOVERLAY, 0, STATIC
        ARGFRAME ISTACK, 0, STACK
        ARGFRAME PSTACK, 0, STACK
        ARGFRAME XSTACK, 12, STACK
        ARGFRAME IOVERLAY, 0, STATIC
        ARGFRAME DOVERLAY, 0, STATIC
        FUNCALL ZDSecMgrDeviceNew, AssocGetWithShort
        LOCFRAME ISTACK, 0, STACK
        LOCFRAME PSTACK, 0, STACK
        LOCFRAME XSTACK, 12, STACK
        LOCFRAME IOVERLAY, 0, STATIC
        LOCFRAME DOVERLAY, 0, STATIC
        ARGFRAME ISTACK, 0, STACK
        ARGFRAME PSTACK, 0, STACK
        ARGFRAME XSTACK, 12, STACK
        ARGFRAME IOVERLAY, 0, STATIC
        ARGFRAME DOVERLAY, 0, STATIC
        FUNCALL ZDSecMgrDeviceNew, ZDSecMgrDeviceJoinFwd
        LOCFRAME ISTACK, 0, STACK
        LOCFRAME PSTACK, 0, STACK
        LOCFRAME XSTACK, 12, STACK
        LOCFRAME IOVERLAY, 0, STATIC
        LOCFRAME DOVERLAY, 0, STATIC
        ARGFRAME ISTACK, 0, STACK
        ARGFRAME PSTACK, 0, STACK
        ARGFRAME XSTACK, 12, STACK
        ARGFRAME IOVERLAY, 0, STATIC
        ARGFRAME DOVERLAY, 0, STATIC
        REQUIRE ?V0
        REQUIRE ?V1
        REQUIRE ?V2
        REQUIRE ?V3
        MOV     A,#-0xc
        LCALL   ?BANKED_ENTER_XDATA
          CFI DPH0 load(1, XDATA, add(CFA_XSP16, literal(-1)))
          CFI DPL0 load(1, XDATA, add(CFA_XSP16, literal(-2)))
          CFI ?BRET_EXT load(1, XDATA, add(CFA_XSP16, literal(-3)))
          CFI ?RET_HIGH load(1, XDATA, add(CFA_XSP16, literal(-4)))
          CFI ?RET_LOW load(1, XDATA, add(CFA_XSP16, literal(-5)))
          CFI R7 load(1, XDATA, add(CFA_XSP16, literal(-6)))
          CFI V3 load(1, XDATA, add(CFA_XSP16, literal(-7)))
          CFI V2 load(1, XDATA, add(CFA_XSP16, literal(-8)))
          CFI V1 load(1, XDATA, add(CFA_XSP16, literal(-9)))
          CFI V0 load(1, XDATA, add(CFA_XSP16, literal(-10)))
          CFI VB load(1, XDATA, add(CFA_XSP16, literal(-11)))
          CFI R6 load(1, XDATA, add(CFA_XSP16, literal(-12)))
          CFI CFA_SP SP+0
          CFI CFA_XSP16 add(XSP16, 12)
        ; Saved register size: 12
        ; Auto size: 0
        MOV     A,R2
        MOV     R6,A
        MOV     A,R3
        MOV     R7,A
// 1309   ZStatus_t status;
// 1310 
// 1311   if ( ( ( ZG_BUILD_COORDINATOR_TYPE ) && ( ZG_DEVICE_COORDINATOR_TYPE ) )
// 1312       || ( ( ZG_BUILD_RTR_TYPE ) && APSME_IsDistributedSecurity() ) )
        MOV     DPTR,#zgDeviceLogicalType
        MOVX    A,@DPTR
        JZ      ??ZDSecMgrDeviceNew_0
        ; Setup parameters for call to function APSME_IsDistributedSecurity
        LCALL   `??APSME_IsDistributedSecurity::?relay`; Banked call to: APSME_IsDistributedSecurity
        MOV     A,R1
        JZ      ??ZDSecMgrDeviceNew_1
// 1313   {
// 1314     // try to join this device
// 1315     status = ZDSecMgrDeviceJoinDirect( joiner );
??ZDSecMgrDeviceNew_0:
        ; Setup parameters for call to function ZDSecMgrDeviceJoin
        MOV     A,R6
        MOV     R2,A
        MOV     A,R7
        MOV     R3,A
        LCALL   `??ZDSecMgrDeviceJoin::?relay`; Banked call to: ZDSecMgrDeviceJoin
        MOV     A,R1
        MOV     ?V1,A
        JNZ     ??CrossCallReturnLabel_114
        ; Setup parameters for call to function AssocGetWithShort
        MOV     DPL,R6
        MOV     DPH,R7
        LCALL   ??Subroutine72_0 & 0xFFFF
??CrossCallReturnLabel_177:
        LCALL   `??AssocGetWithShort::?relay`; Banked call to: AssocGetWithShort
        MOV     DPL,R2
        MOV     DPH,R3
        MOV     A,DPL
        ORL     A,DPH
        JZ      ??CrossCallReturnLabel_114
        LCALL   ?Subroutine35 & 0xFFFF
// 1316   }
??CrossCallReturnLabel_114:
        MOV     ?V0,?V1
        SJMP    ??ZDSecMgrDeviceNew_2
// 1317   else
// 1318   {
// 1319     status = ZDSecMgrDeviceJoinFwd( joiner );
??ZDSecMgrDeviceNew_1:
        ; Setup parameters for call to function ZDSecMgrDeviceJoinFwd
        MOV     A,R6
        MOV     R2,A
        MOV     A,R7
        MOV     R3,A
        LCALL   `??ZDSecMgrDeviceJoinFwd::?relay`; Banked call to: ZDSecMgrDeviceJoinFwd
        MOV     A,R1
        MOV     ?V0,A
// 1320   }
// 1321 
// 1322   return status;
??ZDSecMgrDeviceNew_2:
        LJMP    ?Subroutine10 & 0xFFFF
// 1323 }
          CFI EndBlock cfiBlock137

        RSEG BANKED_CODE:CODE:NOROOT(0)
?Subroutine35:
          CFI Block cfiCond138 Using cfiCommon0
          CFI Function ZDSecMgrDeviceJoinDirect
          CFI Conditional ??CrossCallReturnLabel_112
          CFI R6 load(1, XDATA, add(CFA_XSP16, literal(-12)))
          CFI VB load(1, XDATA, add(CFA_XSP16, literal(-11)))
          CFI V0 load(1, XDATA, add(CFA_XSP16, literal(-10)))
          CFI V1 load(1, XDATA, add(CFA_XSP16, literal(-9)))
          CFI V2 load(1, XDATA, add(CFA_XSP16, literal(-8)))
          CFI V3 load(1, XDATA, add(CFA_XSP16, literal(-7)))
          CFI R7 load(1, XDATA, add(CFA_XSP16, literal(-6)))
          CFI ?RET_LOW load(1, XDATA, add(CFA_XSP16, literal(-5)))
          CFI ?RET_HIGH load(1, XDATA, add(CFA_XSP16, literal(-4)))
          CFI ?BRET_EXT load(1, XDATA, add(CFA_XSP16, literal(-3)))
          CFI DPL0 load(1, XDATA, add(CFA_XSP16, literal(-2)))
          CFI DPH0 load(1, XDATA, add(CFA_XSP16, literal(-1)))
          CFI CFA_SP SP+-2
          CFI CFA_XSP16 add(XSP16, 12)
          CFI Block cfiCond139 Using cfiCommon0
          CFI (cfiCond139) Function ZDSecMgrDeviceJoinFwd
          CFI (cfiCond139) Conditional ??CrossCallReturnLabel_113
          CFI (cfiCond139) R6 load(1, XDATA, add(CFA_XSP16, literal(-10)))
          CFI (cfiCond139) VB load(1, XDATA, add(CFA_XSP16, literal(-9)))
          CFI (cfiCond139) V0 load(1, XDATA, add(CFA_XSP16, literal(-8)))
          CFI (cfiCond139) V1 load(1, XDATA, add(CFA_XSP16, literal(-7)))
          CFI (cfiCond139) R7 load(1, XDATA, add(CFA_XSP16, literal(-6)))
          CFI (cfiCond139) ?RET_LOW load(1, XDATA, add(CFA_XSP16, literal(-5)))
          CFI (cfiCond139) ?RET_HIGH load(1, XDATA, add(CFA_XSP16, literal(-4)))
          CFI (cfiCond139) ?BRET_EXT load(1, XDATA, add(CFA_XSP16, literal(-3)))
          CFI (cfiCond139) DPL0 load(1, XDATA, add(CFA_XSP16, literal(-2)))
          CFI (cfiCond139) DPH0 load(1, XDATA, add(CFA_XSP16, literal(-1)))
          CFI (cfiCond139) CFA_SP SP+-2
          CFI (cfiCond139) CFA_XSP16 add(XSP16, 18)
          CFI Block cfiCond140 Using cfiCommon0
          CFI (cfiCond140) Function ZDSecMgrDeviceNew
          CFI (cfiCond140) Conditional ??CrossCallReturnLabel_114
          CFI (cfiCond140) R6 load(1, XDATA, add(CFA_XSP16, literal(-12)))
          CFI (cfiCond140) VB load(1, XDATA, add(CFA_XSP16, literal(-11)))
          CFI (cfiCond140) V0 load(1, XDATA, add(CFA_XSP16, literal(-10)))
          CFI (cfiCond140) V1 load(1, XDATA, add(CFA_XSP16, literal(-9)))
          CFI (cfiCond140) V2 load(1, XDATA, add(CFA_XSP16, literal(-8)))
          CFI (cfiCond140) V3 load(1, XDATA, add(CFA_XSP16, literal(-7)))
          CFI (cfiCond140) R7 load(1, XDATA, add(CFA_XSP16, literal(-6)))
          CFI (cfiCond140) ?RET_LOW load(1, XDATA, add(CFA_XSP16, literal(-5)))
          CFI (cfiCond140) ?RET_HIGH load(1, XDATA, add(CFA_XSP16, literal(-4)))
          CFI (cfiCond140) ?BRET_EXT load(1, XDATA, add(CFA_XSP16, literal(-3)))
          CFI (cfiCond140) DPL0 load(1, XDATA, add(CFA_XSP16, literal(-2)))
          CFI (cfiCond140) DPH0 load(1, XDATA, add(CFA_XSP16, literal(-1)))
          CFI (cfiCond140) CFA_SP SP+-2
          CFI (cfiCond140) CFA_XSP16 add(XSP16, 12)
          CFI Block cfiCond141 Using cfiCommon0
          CFI (cfiCond141) Function ZDSecMgrAssocDeviceAuth
          CFI (cfiCond141) Conditional ??CrossCallReturnLabel_115
          CFI (cfiCond141) DPL0 Frame(CFA_SP, 4)
          CFI (cfiCond141) DPH0 Frame(CFA_SP, 5)
          CFI (cfiCond141) CFA_SP SP+-7
          CFI Block cfiCond142 Using cfiCommon0
          CFI (cfiCond142) Function ZDSecMgrNewDeviceEvent
          CFI (cfiCond142) Conditional ??CrossCallReturnLabel_116
          CFI (cfiCond142) R6 load(1, XDATA, add(CFA_XSP16, literal(-14)))
          CFI (cfiCond142) VB load(1, XDATA, add(CFA_XSP16, literal(-13)))
          CFI (cfiCond142) V0 load(1, XDATA, add(CFA_XSP16, literal(-12)))
          CFI (cfiCond142) V1 load(1, XDATA, add(CFA_XSP16, literal(-11)))
          CFI (cfiCond142) V2 load(1, XDATA, add(CFA_XSP16, literal(-10)))
          CFI (cfiCond142) V3 load(1, XDATA, add(CFA_XSP16, literal(-9)))
          CFI (cfiCond142) V4 load(1, XDATA, add(CFA_XSP16, literal(-8)))
          CFI (cfiCond142) V5 load(1, XDATA, add(CFA_XSP16, literal(-7)))
          CFI (cfiCond142) R7 load(1, XDATA, add(CFA_XSP16, literal(-6)))
          CFI (cfiCond142) ?RET_LOW load(1, XDATA, add(CFA_XSP16, literal(-5)))
          CFI (cfiCond142) ?RET_HIGH load(1, XDATA, add(CFA_XSP16, literal(-4)))
          CFI (cfiCond142) ?BRET_EXT load(1, XDATA, add(CFA_XSP16, literal(-3)))
          CFI (cfiCond142) DPL0 load(1, XDATA, add(CFA_XSP16, literal(-2)))
          CFI (cfiCond142) DPH0 load(1, XDATA, add(CFA_XSP16, literal(-1)))
          CFI (cfiCond142) CFA_SP SP+-2
          CFI (cfiCond142) CFA_XSP16 add(XSP16, 35)
          CFI Block cfiCond143 Using cfiCommon0
          CFI (cfiCond143) Function APSME_KeyFwdToChild
          CFI (cfiCond143) Conditional ??CrossCallReturnLabel_117
          CFI (cfiCond143) R6 load(1, XDATA, add(CFA_XSP16, literal(-10)))
          CFI (cfiCond143) VB load(1, XDATA, add(CFA_XSP16, literal(-9)))
          CFI (cfiCond143) V0 load(1, XDATA, add(CFA_XSP16, literal(-8)))
          CFI (cfiCond143) V1 load(1, XDATA, add(CFA_XSP16, literal(-7)))
          CFI (cfiCond143) R7 load(1, XDATA, add(CFA_XSP16, literal(-6)))
          CFI (cfiCond143) ?RET_LOW load(1, XDATA, add(CFA_XSP16, literal(-5)))
          CFI (cfiCond143) ?RET_HIGH load(1, XDATA, add(CFA_XSP16, literal(-4)))
          CFI (cfiCond143) ?BRET_EXT load(1, XDATA, add(CFA_XSP16, literal(-3)))
          CFI (cfiCond143) DPL0 load(1, XDATA, add(CFA_XSP16, literal(-2)))
          CFI (cfiCond143) DPH0 load(1, XDATA, add(CFA_XSP16, literal(-1)))
          CFI (cfiCond143) CFA_SP SP+-2
          CFI (cfiCond143) CFA_XSP16 add(XSP16, 10)
          CFI Block cfiPicker144 Using cfiCommon1
          CFI (cfiPicker144) NoFunction
          CFI (cfiPicker144) Picker
        INC     DPTR
        INC     DPTR
        INC     DPTR
        INC     DPTR
        INC     DPTR
          CFI EndBlock cfiCond138
          CFI EndBlock cfiCond139
          CFI EndBlock cfiCond140
          CFI EndBlock cfiCond141
          CFI EndBlock cfiCond142
          CFI EndBlock cfiCond143
          CFI EndBlock cfiPicker144
        REQUIRE ??Subroutine57_0
        ; // Fall through to label ??Subroutine57_0

        RSEG BANKED_CODE:CODE:NOROOT(0)
??Subroutine57_0:
          CFI Block cfiCond145 Using cfiCommon0
          CFI Function ZDSecMgrNewDeviceEvent
          CFI Conditional ??CrossCallReturnLabel_111
          CFI R6 load(1, XDATA, add(CFA_XSP16, literal(-14)))
          CFI VB load(1, XDATA, add(CFA_XSP16, literal(-13)))
          CFI V0 load(1, XDATA, add(CFA_XSP16, literal(-12)))
          CFI V1 load(1, XDATA, add(CFA_XSP16, literal(-11)))
          CFI V2 load(1, XDATA, add(CFA_XSP16, literal(-10)))
          CFI V3 load(1, XDATA, add(CFA_XSP16, literal(-9)))
          CFI V4 load(1, XDATA, add(CFA_XSP16, literal(-8)))
          CFI V5 load(1, XDATA, add(CFA_XSP16, literal(-7)))
          CFI R7 load(1, XDATA, add(CFA_XSP16, literal(-6)))
          CFI ?RET_LOW load(1, XDATA, add(CFA_XSP16, literal(-5)))
          CFI ?RET_HIGH load(1, XDATA, add(CFA_XSP16, literal(-4)))
          CFI ?BRET_EXT load(1, XDATA, add(CFA_XSP16, literal(-3)))
          CFI DPL0 load(1, XDATA, add(CFA_XSP16, literal(-2)))
          CFI DPH0 load(1, XDATA, add(CFA_XSP16, literal(-1)))
          CFI CFA_SP SP+-2
          CFI CFA_XSP16 add(XSP16, 35)
          CFI Block cfiCond146 Using cfiCommon0
          CFI (cfiCond146) Function ZDSecMgrDeviceJoinDirect
          CFI (cfiCond146) Conditional ??CrossCallReturnLabel_112
          CFI (cfiCond146) R6 load(1, XDATA, add(CFA_XSP16, literal(-12)))
          CFI (cfiCond146) VB load(1, XDATA, add(CFA_XSP16, literal(-11)))
          CFI (cfiCond146) V0 load(1, XDATA, add(CFA_XSP16, literal(-10)))
          CFI (cfiCond146) V1 load(1, XDATA, add(CFA_XSP16, literal(-9)))
          CFI (cfiCond146) V2 load(1, XDATA, add(CFA_XSP16, literal(-8)))
          CFI (cfiCond146) V3 load(1, XDATA, add(CFA_XSP16, literal(-7)))
          CFI (cfiCond146) R7 load(1, XDATA, add(CFA_XSP16, literal(-6)))
          CFI (cfiCond146) ?RET_LOW load(1, XDATA, add(CFA_XSP16, literal(-5)))
          CFI (cfiCond146) ?RET_HIGH load(1, XDATA, add(CFA_XSP16, literal(-4)))
          CFI (cfiCond146) ?BRET_EXT load(1, XDATA, add(CFA_XSP16, literal(-3)))
          CFI (cfiCond146) DPL0 load(1, XDATA, add(CFA_XSP16, literal(-2)))
          CFI (cfiCond146) DPH0 load(1, XDATA, add(CFA_XSP16, literal(-1)))
          CFI (cfiCond146) CFA_SP SP+-2
          CFI (cfiCond146) CFA_XSP16 add(XSP16, 12)
          CFI Block cfiCond147 Using cfiCommon0
          CFI (cfiCond147) Function ZDSecMgrDeviceJoinFwd
          CFI (cfiCond147) Conditional ??CrossCallReturnLabel_113
          CFI (cfiCond147) R6 load(1, XDATA, add(CFA_XSP16, literal(-10)))
          CFI (cfiCond147) VB load(1, XDATA, add(CFA_XSP16, literal(-9)))
          CFI (cfiCond147) V0 load(1, XDATA, add(CFA_XSP16, literal(-8)))
          CFI (cfiCond147) V1 load(1, XDATA, add(CFA_XSP16, literal(-7)))
          CFI (cfiCond147) R7 load(1, XDATA, add(CFA_XSP16, literal(-6)))
          CFI (cfiCond147) ?RET_LOW load(1, XDATA, add(CFA_XSP16, literal(-5)))
          CFI (cfiCond147) ?RET_HIGH load(1, XDATA, add(CFA_XSP16, literal(-4)))
          CFI (cfiCond147) ?BRET_EXT load(1, XDATA, add(CFA_XSP16, literal(-3)))
          CFI (cfiCond147) DPL0 load(1, XDATA, add(CFA_XSP16, literal(-2)))
          CFI (cfiCond147) DPH0 load(1, XDATA, add(CFA_XSP16, literal(-1)))
          CFI (cfiCond147) CFA_SP SP+-2
          CFI (cfiCond147) CFA_XSP16 add(XSP16, 18)
          CFI Block cfiCond148 Using cfiCommon0
          CFI (cfiCond148) Function ZDSecMgrDeviceNew
          CFI (cfiCond148) Conditional ??CrossCallReturnLabel_114
          CFI (cfiCond148) R6 load(1, XDATA, add(CFA_XSP16, literal(-12)))
          CFI (cfiCond148) VB load(1, XDATA, add(CFA_XSP16, literal(-11)))
          CFI (cfiCond148) V0 load(1, XDATA, add(CFA_XSP16, literal(-10)))
          CFI (cfiCond148) V1 load(1, XDATA, add(CFA_XSP16, literal(-9)))
          CFI (cfiCond148) V2 load(1, XDATA, add(CFA_XSP16, literal(-8)))
          CFI (cfiCond148) V3 load(1, XDATA, add(CFA_XSP16, literal(-7)))
          CFI (cfiCond148) R7 load(1, XDATA, add(CFA_XSP16, literal(-6)))
          CFI (cfiCond148) ?RET_LOW load(1, XDATA, add(CFA_XSP16, literal(-5)))
          CFI (cfiCond148) ?RET_HIGH load(1, XDATA, add(CFA_XSP16, literal(-4)))
          CFI (cfiCond148) ?BRET_EXT load(1, XDATA, add(CFA_XSP16, literal(-3)))
          CFI (cfiCond148) DPL0 load(1, XDATA, add(CFA_XSP16, literal(-2)))
          CFI (cfiCond148) DPH0 load(1, XDATA, add(CFA_XSP16, literal(-1)))
          CFI (cfiCond148) CFA_SP SP+-2
          CFI (cfiCond148) CFA_XSP16 add(XSP16, 12)
          CFI Block cfiCond149 Using cfiCommon0
          CFI (cfiCond149) Function ZDSecMgrAssocDeviceAuth
          CFI (cfiCond149) Conditional ??CrossCallReturnLabel_115
          CFI (cfiCond149) DPL0 Frame(CFA_SP, 4)
          CFI (cfiCond149) DPH0 Frame(CFA_SP, 5)
          CFI (cfiCond149) CFA_SP SP+-7
          CFI Block cfiCond150 Using cfiCommon0
          CFI (cfiCond150) Function ZDSecMgrNewDeviceEvent
          CFI (cfiCond150) Conditional ??CrossCallReturnLabel_116
          CFI (cfiCond150) R6 load(1, XDATA, add(CFA_XSP16, literal(-14)))
          CFI (cfiCond150) VB load(1, XDATA, add(CFA_XSP16, literal(-13)))
          CFI (cfiCond150) V0 load(1, XDATA, add(CFA_XSP16, literal(-12)))
          CFI (cfiCond150) V1 load(1, XDATA, add(CFA_XSP16, literal(-11)))
          CFI (cfiCond150) V2 load(1, XDATA, add(CFA_XSP16, literal(-10)))
          CFI (cfiCond150) V3 load(1, XDATA, add(CFA_XSP16, literal(-9)))
          CFI (cfiCond150) V4 load(1, XDATA, add(CFA_XSP16, literal(-8)))
          CFI (cfiCond150) V5 load(1, XDATA, add(CFA_XSP16, literal(-7)))
          CFI (cfiCond150) R7 load(1, XDATA, add(CFA_XSP16, literal(-6)))
          CFI (cfiCond150) ?RET_LOW load(1, XDATA, add(CFA_XSP16, literal(-5)))
          CFI (cfiCond150) ?RET_HIGH load(1, XDATA, add(CFA_XSP16, literal(-4)))
          CFI (cfiCond150) ?BRET_EXT load(1, XDATA, add(CFA_XSP16, literal(-3)))
          CFI (cfiCond150) DPL0 load(1, XDATA, add(CFA_XSP16, literal(-2)))
          CFI (cfiCond150) DPH0 load(1, XDATA, add(CFA_XSP16, literal(-1)))
          CFI (cfiCond150) CFA_SP SP+-2
          CFI (cfiCond150) CFA_XSP16 add(XSP16, 35)
          CFI Block cfiCond151 Using cfiCommon0
          CFI (cfiCond151) Function APSME_KeyFwdToChild
          CFI (cfiCond151) Conditional ??CrossCallReturnLabel_117
          CFI (cfiCond151) R6 load(1, XDATA, add(CFA_XSP16, literal(-10)))
          CFI (cfiCond151) VB load(1, XDATA, add(CFA_XSP16, literal(-9)))
          CFI (cfiCond151) V0 load(1, XDATA, add(CFA_XSP16, literal(-8)))
          CFI (cfiCond151) V1 load(1, XDATA, add(CFA_XSP16, literal(-7)))
          CFI (cfiCond151) R7 load(1, XDATA, add(CFA_XSP16, literal(-6)))
          CFI (cfiCond151) ?RET_LOW load(1, XDATA, add(CFA_XSP16, literal(-5)))
          CFI (cfiCond151) ?RET_HIGH load(1, XDATA, add(CFA_XSP16, literal(-4)))
          CFI (cfiCond151) ?BRET_EXT load(1, XDATA, add(CFA_XSP16, literal(-3)))
          CFI (cfiCond151) DPL0 load(1, XDATA, add(CFA_XSP16, literal(-2)))
          CFI (cfiCond151) DPH0 load(1, XDATA, add(CFA_XSP16, literal(-1)))
          CFI (cfiCond151) CFA_SP SP+-2
          CFI (cfiCond151) CFA_XSP16 add(XSP16, 10)
          CFI Block cfiPicker152 Using cfiCommon1
          CFI (cfiPicker152) NoFunction
          CFI (cfiPicker152) Picker
        MOVX    A,@DPTR
        SETB    0xE0 /* A   */.3
        MOVX    @DPTR,A
        RET
          CFI (cfiCond145) CFA_SP SP+0
          CFI (cfiCond146) CFA_SP SP+0
          CFI (cfiCond147) CFA_SP SP+0
          CFI (cfiCond148) CFA_SP SP+0
          CFI (cfiCond149) CFA_SP SP+-5
          CFI (cfiCond150) CFA_SP SP+0
          CFI (cfiCond151) CFA_SP SP+0
          CFI (cfiPicker152) CFA_SP SP+0
          CFI EndBlock cfiCond145
          CFI EndBlock cfiCond146
          CFI EndBlock cfiCond147
          CFI EndBlock cfiCond148
          CFI EndBlock cfiCond149
          CFI EndBlock cfiCond150
          CFI EndBlock cfiCond151
          CFI EndBlock cfiPicker152
// 1324 
// 1325 /******************************************************************************
// 1326  * @fn          ZDSecMgrAssocDeviceAuth
// 1327  *
// 1328  * @brief       Set associated device status to authenticated
// 1329  *
// 1330  * @param       assoc - [in, out] associated_devices_t
// 1331  *
// 1332  * @return      none
// 1333  */

        RSEG BANKED_CODE:CODE:NOROOT(0)
// 1334 void ZDSecMgrAssocDeviceAuth( associated_devices_t* assoc )
ZDSecMgrAssocDeviceAuth:
          CFI Block cfiBlock153 Using cfiCommon0
          CFI Function ZDSecMgrAssocDeviceAuth
        CODE
// 1335 {
        PUSH    DPL
          CFI DPL0 Frame(CFA_SP, 4)
          CFI CFA_SP SP+-4
        PUSH    DPH
          CFI DPH0 Frame(CFA_SP, 5)
          CFI CFA_SP SP+-5
        ; Saved register size: 2
        ; Auto size: 0
// 1336   if ( assoc != NULL )
        MOV     A,R2
        ORL     A,R3
        JZ      ??CrossCallReturnLabel_115
// 1337   {
// 1338     assoc->devStatus |= DEV_SEC_AUTH_STATUS;
        MOV     DPL,R2
        MOV     DPH,R3
        LCALL   ?Subroutine35 & 0xFFFF
// 1339   }
// 1340 }
??CrossCallReturnLabel_115:
        SJMP    ??Subroutine58_0
          CFI EndBlock cfiBlock153
// 1341 
// 1342 /******************************************************************************
// 1343  * @fn          ZDSecMgrAuthNwkKey
// 1344  *
// 1345  * @brief       Handle next step in authentication process
// 1346  *
// 1347  * @param       none
// 1348  *
// 1349  * @return      none
// 1350  */

        RSEG BANKED_CODE:CODE:NOROOT(0)
// 1351 void ZDSecMgrAuthNwkKey()
ZDSecMgrAuthNwkKey:
          CFI Block cfiBlock154 Using cfiCommon0
          CFI Function ZDSecMgrAuthNwkKey
        CODE
// 1352 {
        FUNCALL ZDSecMgrAuthNwkKey, osal_set_event
        LOCFRAME ISTACK, 2, STACK
        LOCFRAME PSTACK, 0, STACK
        LOCFRAME XSTACK, 0, STACK
        LOCFRAME IOVERLAY, 0, STATIC
        LOCFRAME DOVERLAY, 0, STATIC
        ARGFRAME ISTACK, 2, STACK
        ARGFRAME PSTACK, 0, STACK
        ARGFRAME XSTACK, 0, STACK
        ARGFRAME IOVERLAY, 0, STATIC
        ARGFRAME DOVERLAY, 0, STATIC
        PUSH    DPL
          CFI DPL0 Frame(CFA_SP, 4)
          CFI CFA_SP SP+-4
        PUSH    DPH
          CFI DPH0 Frame(CFA_SP, 5)
          CFI CFA_SP SP+-5
        ; Saved register size: 2
        ; Auto size: 0
// 1353   if ( devState == DEV_END_DEVICE_UNAUTH )
        MOV     DPTR,#devState
        MOVX    A,@DPTR
        XRL     A,#0x5
        JNZ     ??ZDSecMgrAuthNwkKey_0
// 1354   {
// 1355     // inform ZDO that device has been authenticated
// 1356     osal_set_event ( ZDAppTaskID, ZDO_DEVICE_AUTH );
        ; Setup parameters for call to function osal_set_event
        MOV     R2,#-0x80
        MOV     R3,#0x0
        MOV     DPTR,#ZDAppTaskID
        MOVX    A,@DPTR
        MOV     R1,A
        LCALL   `??osal_set_event::?relay`; Banked call to: osal_set_event
// 1357   }
// 1358 }
??ZDSecMgrAuthNwkKey_0:
        SJMP    ??Subroutine58_0
          CFI EndBlock cfiBlock154
// 1359 
// 1360 /******************************************************************************
// 1361  * PUBLIC FUNCTIONS
// 1362  */
// 1363 /******************************************************************************
// 1364  * @fn          ZDSecMgrInit
// 1365  *
// 1366  * @brief       Initialize ZigBee Device Security Manager.
// 1367  *
// 1368  * @param       state - device initialization state
// 1369  *
// 1370  * @return      none
// 1371  */
// 1372 #if ( ADDRMGR_CALLBACK_ENABLED == 1 )
// 1373 void ZDSecMgrAddrMgrCB( uint8 update, AddrMgrEntry_t* newEntry, AddrMgrEntry_t* oldEntry );
// 1374 void ZDSecMgrAddrMgrCB( uint8           update,
// 1375                         AddrMgrEntry_t* newEntry,
// 1376                         AddrMgrEntry_t* oldEntry )
// 1377 {
// 1378   (void)update;
// 1379   (void)newEntry;
// 1380   (void)oldEntry;
// 1381 }
// 1382 #endif // ( ADDRMGR_CALLBACK_ENABLED == 1 )
// 1383 

        RSEG BANKED_CODE:CODE:NOROOT(0)
// 1384 void ZDSecMgrInit(uint8 state)
ZDSecMgrInit:
          CFI Block cfiBlock155 Using cfiCommon0
          CFI Function ZDSecMgrInit
        CODE
        FUNCALL ZDSecMgrInit, APSME_SecurityNM
        LOCFRAME ISTACK, 2, STACK
        LOCFRAME PSTACK, 0, STACK
        LOCFRAME XSTACK, 0, STACK
        LOCFRAME IOVERLAY, 0, STATIC
        LOCFRAME DOVERLAY, 0, STATIC
        ARGFRAME ISTACK, 2, STACK
        ARGFRAME PSTACK, 0, STACK
        ARGFRAME XSTACK, 0, STACK
        ARGFRAME IOVERLAY, 0, STATIC
        ARGFRAME DOVERLAY, 0, STATIC
        SJMP    ?Subroutine1
          CFI EndBlock cfiBlock155
// 1385 {
// 1386   if ( ZG_CHECK_SECURITY_MODE == ZG_SECURITY_SE_STANDARD )
// 1387   {
// 1388     // initialize sub modules
// 1389     ZDSecMgrEntryInit(state);
// 1390 
// 1391     if ( ( ZG_BUILD_COORDINATOR_TYPE ) && ( ZG_DEVICE_COORDINATOR_TYPE ) )
// 1392     {
// 1393       APSME_SetRequest( apsTrustCenterAddress, 0, NLME_GetExtAddr() );
// 1394     }
// 1395 
// 1396     // register with Address Manager
// 1397 #if ( ADDRMGR_CALLBACK_ENABLED == 1 )
// 1398     AddrMgrRegister( ADDRMGR_REG_SECURITY, ZDSecMgrAddrMgrCB );
// 1399 #endif
// 1400   }
// 1401 
// 1402   if ( ZG_SECURE_ENABLED )
// 1403   {
// 1404     if ( ( ( ZG_BUILD_COORDINATOR_TYPE ) && ( ZG_DEVICE_COORDINATOR_TYPE ) )
// 1405          || ( ( ZG_BUILD_RTR_TYPE ) && APSME_IsDistributedSecurity() ) )
// 1406     {
// 1407       // setup joining permissions
// 1408       ZDSecMgrPermitJoiningEnabled = TRUE;
// 1409       ZDSecMgrPermitJoiningTimed   = FALSE;
// 1410     }
// 1411   }
// 1412 
// 1413   // configure security based on security mode and type of device
// 1414   ZDSecMgrConfig();
// 1415 }
// 1416 
// 1417 /******************************************************************************
// 1418  * @fn          ZDSecMgrConfig
// 1419  *
// 1420  * @brief       Configure ZigBee Device Security Manager.
// 1421  *
// 1422  * @param       none
// 1423  *
// 1424  * @return      none
// 1425  */

        RSEG BANKED_CODE:CODE:NOROOT(0)
// 1426 void ZDSecMgrConfig( void )
ZDSecMgrConfig:
          CFI Block cfiBlock156 Using cfiCommon0
          CFI Function ZDSecMgrConfig
        CODE
        FUNCALL ZDSecMgrConfig, APSME_SecurityNM
        LOCFRAME ISTACK, 2, STACK
        LOCFRAME PSTACK, 0, STACK
        LOCFRAME XSTACK, 0, STACK
        LOCFRAME IOVERLAY, 0, STATIC
        LOCFRAME DOVERLAY, 0, STATIC
        ARGFRAME ISTACK, 2, STACK
        ARGFRAME PSTACK, 0, STACK
        ARGFRAME XSTACK, 0, STACK
        ARGFRAME IOVERLAY, 0, STATIC
        ARGFRAME DOVERLAY, 0, STATIC
        SJMP    ?Subroutine1
          CFI EndBlock cfiBlock156
// 1427 {
// 1428   if ( ZG_SECURE_ENABLED )
// 1429   {
// 1430     SSP_Init();
// 1431 
// 1432     if ( ZG_CHECK_SECURITY_MODE == ZG_SECURITY_SE_STANDARD )
// 1433     {
// 1434       if ( ( ZG_BUILD_COORDINATOR_TYPE ) && ( ZG_DEVICE_COORDINATOR_TYPE ) )
// 1435       {
// 1436         // COMMERCIAL MODE - COORDINATOR DEVICE
// 1437         APSME_SecurityCM_CD();
// 1438       }
// 1439       else if ( ZSTACK_ROUTER_BUILD )
// 1440       {
// 1441         // COMMERCIAL MODE - ROUTER DEVICE
// 1442         APSME_SecurityCM_RD();
// 1443       }
// 1444       else
// 1445       {
// 1446         // COMMERCIAL MODE - END DEVICE
// 1447         APSME_SecurityCM_ED();
// 1448       }
// 1449     }
// 1450     else // ( ZG_CHECK_SECURITY_MODE == ZG_SECURITY_RESIDENTIAL )
// 1451     {
// 1452       if ( ( ZG_BUILD_COORDINATOR_TYPE ) && ( ZG_DEVICE_COORDINATOR_TYPE ) )
// 1453       {
// 1454         // RESIDENTIAL MODE - COORDINATOR DEVICE
// 1455         APSME_SecurityRM_CD();
// 1456       }
// 1457       else if ( ZSTACK_ROUTER_BUILD )
// 1458       {
// 1459         // RESIDENTIAL MODE - ROUTER DEVICE
// 1460         APSME_SecurityRM_RD();
// 1461       }
// 1462       else
// 1463       {
// 1464         // RESIDENTIAL MODE - END DEVICE
// 1465         APSME_SecurityRM_ED();
// 1466       }
// 1467     }
// 1468   }
// 1469   else
// 1470   {
// 1471     // NO SECURITY
// 1472     APSME_SecurityNM();
// 1473   }
// 1474 }
// 1475 
// 1476 /******************************************************************************
// 1477  * @fn          ZDSecMgrPermitJoining
// 1478  *
// 1479  * @brief       Process request to change joining permissions.
// 1480  *
// 1481  * @param       duration - [in] timed duration for join in seconds
// 1482  *                         - 0x00 not allowed
// 1483  *                         - 0xFF allowed without timeout
// 1484  *
// 1485  * @return      uint8 - success(TRUE:FALSE)
// 1486  */

        RSEG BANKED_CODE:CODE:NOROOT(0)
// 1487 uint8 ZDSecMgrPermitJoining( uint8 duration )
ZDSecMgrPermitJoining:
          CFI Block cfiBlock157 Using cfiCommon0
          CFI Function ZDSecMgrPermitJoining
        CODE
// 1488 {
        PUSH    DPL
          CFI DPL0 Frame(CFA_SP, 4)
          CFI CFA_SP SP+-4
        PUSH    DPH
          CFI DPH0 Frame(CFA_SP, 5)
          CFI CFA_SP SP+-5
        ; Saved register size: 2
        ; Auto size: 0
        MOV     A,R1
        MOV     R0,A
// 1489   uint8 accept;
// 1490 
// 1491   ZDSecMgrPermitJoiningTimed = FALSE;
        MOV     DPTR,#ZDSecMgrPermitJoiningTimed
        CLR     A
        MOVX    @DPTR,A
// 1492 
// 1493   if ( duration > 0 )
        MOV     A,R0
        MOV     DPTR,#ZDSecMgrPermitJoiningEnabled
        JZ      ??ZDSecMgrPermitJoining_0
// 1494   {
// 1495     ZDSecMgrPermitJoiningEnabled = TRUE;
        MOV     A,#0x1
        MOVX    @DPTR,A
// 1496 
// 1497     if ( duration != 0xFF )
        MOV     A,#-0x1
        XRL     A,R0
        JZ      ??ZDSecMgrPermitJoining_1
// 1498     {
// 1499       ZDSecMgrPermitJoiningTimed = TRUE;
        MOV     DPTR,#ZDSecMgrPermitJoiningTimed
        MOV     A,#0x1
        SJMP    ??ZDSecMgrPermitJoining_2
// 1500     }
// 1501   }
// 1502   else
// 1503   {
// 1504     ZDSecMgrPermitJoiningEnabled = FALSE;
??ZDSecMgrPermitJoining_0:
        CLR     A
??ZDSecMgrPermitJoining_2:
        MOVX    @DPTR,A
// 1505   }
// 1506 
// 1507   accept = TRUE;
// 1508 
// 1509   return accept;
??ZDSecMgrPermitJoining_1:
        MOV     R1,#0x1
        SJMP    ??Subroutine58_0
// 1510 }
          CFI EndBlock cfiBlock157

        RSEG BANKED_CODE:CODE:NOROOT(0)
?Subroutine1:
          CFI Block cfiBlock158 Using cfiCommon0
          CFI NoFunction
        PUSH    DPL
          CFI CFA_SP SP+-4
          CFI DPL0 Frame(CFA_SP, 4)
        PUSH    DPH
          CFI CFA_SP SP+-5
          CFI DPH0 Frame(CFA_SP, 5)
        ; Saved register size: 2
        ; Auto size: 0
        ; Setup parameters for call to function APSME_SecurityNM
        ; Saved register size: 2
        ; Auto size: 0
        ; Setup parameters for call to function APSME_SecurityNM
        LCALL   `??APSME_SecurityNM::?relay`; Banked call to: APSME_SecurityNM
          CFI EndBlock cfiBlock158
        REQUIRE ??Subroutine58_0
        ; // Fall through to label ??Subroutine58_0

        RSEG BANKED_CODE:CODE:NOROOT(0)
??Subroutine58_0:
          CFI Block cfiBlock159 Using cfiCommon0
          CFI NoFunction
          CFI CFA_SP SP+-5
          CFI DPL0 Frame(CFA_SP, 4)
          CFI DPH0 Frame(CFA_SP, 5)
        POP     DPH
          CFI CFA_SP SP+-4
          CFI DPH0 SameValue
        POP     DPL
          CFI CFA_SP SP+-3
          CFI DPL0 SameValue
        LJMP    ?BRET
          CFI EndBlock cfiBlock159
// 1511 
// 1512 /******************************************************************************
// 1513  * @fn          ZDSecMgrPermitJoiningTimeout
// 1514  *
// 1515  * @brief       Process permit joining timeout
// 1516  *
// 1517  * @param       none
// 1518  *
// 1519  * @return      none
// 1520  */

        RSEG BANKED_CODE:CODE:NOROOT(0)
// 1521 void ZDSecMgrPermitJoiningTimeout( void )
ZDSecMgrPermitJoiningTimeout:
          CFI Block cfiBlock160 Using cfiCommon0
          CFI Function ZDSecMgrPermitJoiningTimeout
        CODE
// 1522 {
        PUSH    DPL
          CFI DPL0 Frame(CFA_SP, 4)
          CFI CFA_SP SP+-4
        PUSH    DPH
          CFI DPH0 Frame(CFA_SP, 5)
          CFI CFA_SP SP+-5
        ; Saved register size: 2
        ; Auto size: 0
// 1523   if ( ZDSecMgrPermitJoiningTimed == TRUE )
        MOV     DPTR,#ZDSecMgrPermitJoiningTimed
        MOVX    A,@DPTR
        XRL     A,#0x1
        JNZ     ??ZDSecMgrPermitJoiningTimeout_0
// 1524   {
// 1525     ZDSecMgrPermitJoiningEnabled = FALSE;
        MOV     DPTR,#ZDSecMgrPermitJoiningEnabled
        CLR     A
        MOVX    @DPTR,A
// 1526     ZDSecMgrPermitJoiningTimed   = FALSE;
        MOV     DPTR,#ZDSecMgrPermitJoiningTimed
        MOVX    @DPTR,A
// 1527   }
// 1528 }
??ZDSecMgrPermitJoiningTimeout_0:
        SJMP    ??Subroutine58_0
          CFI EndBlock cfiBlock160
// 1529 
// 1530 /******************************************************************************
// 1531  * @fn          ZDSecMgrNewDeviceEvent
// 1532  *
// 1533  * @brief       Process a the new device event, if found reset new device
// 1534  *              event/timer.
// 1535  *
// 1536  * @param       ShortAddr - of New Device to process
// 1537  *
// 1538  * @return      uint8 - found(TRUE:FALSE)
// 1539  */

        RSEG BANKED_CODE:CODE:NOROOT(0)
// 1540 uint8 ZDSecMgrNewDeviceEvent( uint16 ShortAddr )
ZDSecMgrNewDeviceEvent:
          CFI Block cfiBlock161 Using cfiCommon0
          CFI Function ZDSecMgrNewDeviceEvent
        CODE
// 1541 {
        FUNCALL ZDSecMgrNewDeviceEvent, AssocGetWithShort
        LOCFRAME ISTACK, 0, STACK
        LOCFRAME PSTACK, 0, STACK
        LOCFRAME XSTACK, 35, STACK
        LOCFRAME IOVERLAY, 0, STATIC
        LOCFRAME DOVERLAY, 0, STATIC
        ARGFRAME ISTACK, 0, STACK
        ARGFRAME PSTACK, 0, STACK
        ARGFRAME XSTACK, 35, STACK
        ARGFRAME IOVERLAY, 0, STATIC
        ARGFRAME DOVERLAY, 0, STATIC
        FUNCALL ZDSecMgrNewDeviceEvent, AddrMgrEntryGet
        LOCFRAME ISTACK, 0, STACK
        LOCFRAME PSTACK, 0, STACK
        LOCFRAME XSTACK, 35, STACK
        LOCFRAME IOVERLAY, 0, STATIC
        LOCFRAME DOVERLAY, 0, STATIC
        ARGFRAME ISTACK, 0, STACK
        ARGFRAME PSTACK, 0, STACK
        ARGFRAME XSTACK, 35, STACK
        ARGFRAME IOVERLAY, 0, STATIC
        ARGFRAME DOVERLAY, 0, STATIC
        FUNCALL ZDSecMgrNewDeviceEvent, NLME_GetShortAddr
        LOCFRAME ISTACK, 0, STACK
        LOCFRAME PSTACK, 0, STACK
        LOCFRAME XSTACK, 35, STACK
        LOCFRAME IOVERLAY, 0, STATIC
        LOCFRAME DOVERLAY, 0, STATIC
        ARGFRAME ISTACK, 0, STACK
        ARGFRAME PSTACK, 0, STACK
        ARGFRAME XSTACK, 35, STACK
        ARGFRAME IOVERLAY, 0, STATIC
        ARGFRAME DOVERLAY, 0, STATIC
        FUNCALL ZDSecMgrNewDeviceEvent, APSME_IsDistributedSecurity
        LOCFRAME ISTACK, 0, STACK
        LOCFRAME PSTACK, 0, STACK
        LOCFRAME XSTACK, 35, STACK
        LOCFRAME IOVERLAY, 0, STATIC
        LOCFRAME DOVERLAY, 0, STATIC
        ARGFRAME ISTACK, 0, STACK
        ARGFRAME PSTACK, 0, STACK
        ARGFRAME XSTACK, 35, STACK
        ARGFRAME IOVERLAY, 0, STATIC
        ARGFRAME DOVERLAY, 0, STATIC
        FUNCALL ZDSecMgrNewDeviceEvent, ZDSecMgrDeviceJoinFwd
        LOCFRAME ISTACK, 0, STACK
        LOCFRAME PSTACK, 0, STACK
        LOCFRAME XSTACK, 35, STACK
        LOCFRAME IOVERLAY, 0, STATIC
        LOCFRAME DOVERLAY, 0, STATIC
        ARGFRAME ISTACK, 0, STACK
        ARGFRAME PSTACK, 0, STACK
        ARGFRAME XSTACK, 35, STACK
        ARGFRAME IOVERLAY, 0, STATIC
        ARGFRAME DOVERLAY, 0, STATIC
        FUNCALL ZDSecMgrNewDeviceEvent, ZDSecMgrDeviceJoin
        LOCFRAME ISTACK, 0, STACK
        LOCFRAME PSTACK, 0, STACK
        LOCFRAME XSTACK, 35, STACK
        LOCFRAME IOVERLAY, 0, STATIC
        LOCFRAME DOVERLAY, 0, STATIC
        ARGFRAME ISTACK, 0, STACK
        ARGFRAME PSTACK, 0, STACK
        ARGFRAME XSTACK, 35, STACK
        ARGFRAME IOVERLAY, 0, STATIC
        ARGFRAME DOVERLAY, 0, STATIC
        FUNCALL ZDSecMgrNewDeviceEvent, AssocGetWithShort
        LOCFRAME ISTACK, 0, STACK
        LOCFRAME PSTACK, 0, STACK
        LOCFRAME XSTACK, 35, STACK
        LOCFRAME IOVERLAY, 0, STATIC
        LOCFRAME DOVERLAY, 0, STATIC
        ARGFRAME ISTACK, 0, STACK
        ARGFRAME PSTACK, 0, STACK
        ARGFRAME XSTACK, 35, STACK
        ARGFRAME IOVERLAY, 0, STATIC
        ARGFRAME DOVERLAY, 0, STATIC
        FUNCALL ZDSecMgrNewDeviceEvent, ZDSecMgrAddrClear
        LOCFRAME ISTACK, 0, STACK
        LOCFRAME PSTACK, 0, STACK
        LOCFRAME XSTACK, 35, STACK
        LOCFRAME IOVERLAY, 0, STATIC
        LOCFRAME DOVERLAY, 0, STATIC
        ARGFRAME ISTACK, 0, STACK
        ARGFRAME PSTACK, 0, STACK
        ARGFRAME XSTACK, 35, STACK
        ARGFRAME IOVERLAY, 0, STATIC
        ARGFRAME DOVERLAY, 0, STATIC
        FUNCALL ZDSecMgrNewDeviceEvent, AssocRemove
        LOCFRAME ISTACK, 0, STACK
        LOCFRAME PSTACK, 0, STACK
        LOCFRAME XSTACK, 35, STACK
        LOCFRAME IOVERLAY, 0, STATIC
        LOCFRAME DOVERLAY, 0, STATIC
        ARGFRAME ISTACK, 0, STACK
        ARGFRAME PSTACK, 0, STACK
        ARGFRAME XSTACK, 35, STACK
        ARGFRAME IOVERLAY, 0, STATIC
        ARGFRAME DOVERLAY, 0, STATIC
        REQUIRE ?V0
        REQUIRE ?V1
        REQUIRE ?V2
        REQUIRE ?V3
        REQUIRE ?V4
        REQUIRE ?V5
        MOV     A,#-0xe
        LCALL   ?BANKED_ENTER_XDATA
          CFI DPH0 load(1, XDATA, add(CFA_XSP16, literal(-1)))
          CFI DPL0 load(1, XDATA, add(CFA_XSP16, literal(-2)))
          CFI ?BRET_EXT load(1, XDATA, add(CFA_XSP16, literal(-3)))
          CFI ?RET_HIGH load(1, XDATA, add(CFA_XSP16, literal(-4)))
          CFI ?RET_LOW load(1, XDATA, add(CFA_XSP16, literal(-5)))
          CFI R7 load(1, XDATA, add(CFA_XSP16, literal(-6)))
          CFI V5 load(1, XDATA, add(CFA_XSP16, literal(-7)))
          CFI V4 load(1, XDATA, add(CFA_XSP16, literal(-8)))
          CFI V3 load(1, XDATA, add(CFA_XSP16, literal(-9)))
          CFI V2 load(1, XDATA, add(CFA_XSP16, literal(-10)))
          CFI V1 load(1, XDATA, add(CFA_XSP16, literal(-11)))
          CFI V0 load(1, XDATA, add(CFA_XSP16, literal(-12)))
          CFI VB load(1, XDATA, add(CFA_XSP16, literal(-13)))
          CFI R6 load(1, XDATA, add(CFA_XSP16, literal(-14)))
          CFI CFA_SP SP+0
          CFI CFA_XSP16 add(XSP16, 14)
        ; Saved register size: 14
        ; Auto size: 21
        MOV     A,#-0x15
        LCALL   ?ALLOC_XSTACK8
          CFI CFA_XSP16 add(XSP16, 35)
// 1542   uint8                 found;
// 1543   ZDSecMgrDevice_t      device;
// 1544   AddrMgrEntry_t        addrEntry;
// 1545   associated_devices_t* assoc;
// 1546   ZStatus_t             status;
// 1547 
// 1548   // initialize return results
// 1549   found = FALSE;
        MOV     ?V0,#0x0
// 1550 
// 1551   assoc = AssocGetWithShort( ShortAddr );
        ; Setup parameters for call to function AssocGetWithShort
        LCALL   `??AssocGetWithShort::?relay`; Banked call to: AssocGetWithShort
        MOV     ?V2,R2
        MOV     ?V3,R3
// 1552 
// 1553   if ( assoc != NULL )
        MOV     A,R2
        ORL     A,?V3
        JNZ     $+5
        LJMP    ??ZDSecMgrNewDeviceEvent_0 & 0xFFFF
// 1554   {
// 1555     // device found
// 1556     found = TRUE;
        MOV     ?V0,#0x1
// 1557 
// 1558     // check for preconfigured security
// 1559     if ( zgPreConfigKeys == TRUE )
        MOV     A,R2
        ADD     A,#0x5
        MOV     R0,A
        CLR     A
        ADDC    A,?V3
        MOV     R1,A
        MOV     A,R0
        MOV     R6,A
        MOV     A,R1
        MOV     R7,A
        MOV     DPTR,#zgPreConfigKeys
        MOVX    A,@DPTR
        XRL     A,#0x1
        JNZ     ??CrossCallReturnLabel_111
        MOV     DPL,R6
        MOV     DPH,R7
        LCALL   ??Subroutine57_0 & 0xFFFF
// 1560     {
// 1561       // set association status to authenticated
// 1562       ZDSecMgrAssocDeviceAuth( assoc );
// 1563     }
// 1564 
// 1565     // set up device info
// 1566     addrEntry.user  = ADDRMGR_USER_DEFAULT;
??CrossCallReturnLabel_111:
        MOV     A,#0x8
        LCALL   ?XSTACK_DISP0_8
        CLR     A
        LCALL   ?Subroutine43 & 0xFFFF
// 1567     addrEntry.index = assoc->addrIdx;
??CrossCallReturnLabel_72:
        INC     DPTR
        INC     DPTR
        LCALL   ??Subroutine60_0 & 0xFFFF
??CrossCallReturnLabel_121:
        MOV     A,#0x13
        LCALL   ?XSTACK_DISP0_8
        LCALL   ??Subroutine54_0 & 0xFFFF
// 1568     AddrMgrEntryGet( &addrEntry );
??CrossCallReturnLabel_104:
        ; Setup parameters for call to function AddrMgrEntryGet
        MOV     A,#0x8
        LCALL   ?XSTACK_DISP101_8
        LCALL   `??AddrMgrEntryGet::?relay`; Banked call to: AddrMgrEntryGet
// 1569 
// 1570     device.nwkAddr    = assoc->shortAddr;
        MOV     DPL,?V2
        MOV     DPH,?V3
        LCALL   ?Subroutine22 & 0xFFFF
// 1571     device.extAddr    = addrEntry.extAddr;
??CrossCallReturnLabel_109:
        MOV     A,#0xb
        LCALL   ?XSTACK_DISP0_8
        MOV     R0,DPL
        MOV     R1,DPH
        MOV     A,#0x2
        LCALL   ?XSTACK_DISP0_8
        LCALL   ??Subroutine54_0 & 0xFFFF
// 1572     device.parentAddr = NLME_GetShortAddr();
??CrossCallReturnLabel_105:
        ; Setup parameters for call to function NLME_GetShortAddr
        LCALL   `??NLME_GetShortAddr::?relay`; Banked call to: NLME_GetShortAddr
        MOV     A,#0x4
        LCALL   ?XSTACK_DISP0_8
        MOV     A,R2
        MOVX    @DPTR,A
        INC     DPTR
        MOV     A,R3
        LCALL   ?Subroutine42 & 0xFFFF
// 1573 
// 1574     // the new device performed Secured Rejoin
// 1575     if ( ( assoc->devStatus & DEV_SECURED_JOIN ) &&
// 1576          ( assoc->devStatus & DEV_REJOIN_STATUS ) )
??CrossCallReturnLabel_68:
        MOVX    A,@DPTR
        ANL     A,#0x60
        XRL     A,#0x60
        JNZ     ??ZDSecMgrNewDeviceEvent_1
// 1577     {
// 1578       device.secure     = TRUE;
        MOV     A,#0x6
        LCALL   ?XSTACK_DISP0_8
        MOV     A,#0x1
        SJMP    ??ZDSecMgrNewDeviceEvent_2
// 1579     }
// 1580     else
// 1581     {
// 1582       device.secure     = FALSE;
??ZDSecMgrNewDeviceEvent_1:
        MOV     A,#0x6
        LCALL   ?XSTACK_DISP0_8
        CLR     A
// 1583     }
??ZDSecMgrNewDeviceEvent_2:
        LCALL   ?Subroutine42 & 0xFFFF
// 1584     device.devStatus  = assoc->devStatus;
??CrossCallReturnLabel_69:
        MOVX    A,@DPTR
        PUSH    A
          CFI CFA_SP SP+-1
        MOV     A,#0x7
        LCALL   ?XSTACK_DISP0_8
        POP     A
          CFI CFA_SP SP+0
        MOVX    @DPTR,A
// 1585 
// 1586     // process new device
// 1587     status = ZDSecMgrDeviceNew( &device );
        MOV     DPTR,#zgDeviceLogicalType
        MOVX    A,@DPTR
        JZ      ??ZDSecMgrNewDeviceEvent_3
        ; Setup parameters for call to function APSME_IsDistributedSecurity
        LCALL   `??APSME_IsDistributedSecurity::?relay`; Banked call to: APSME_IsDistributedSecurity
        MOV     A,R1
        JNZ     ??ZDSecMgrNewDeviceEvent_3
        ; Setup parameters for call to function ZDSecMgrDeviceJoinFwd
        MOV     R2,?XSP + 0
        MOV     R3,?XSP + 1
        LCALL   `??ZDSecMgrDeviceJoinFwd::?relay`; Banked call to: ZDSecMgrDeviceJoinFwd
        MOV     A,R1
        MOV     ?V2,A
        SJMP    ??ZDSecMgrNewDeviceEvent_4
??ZDSecMgrNewDeviceEvent_3:
        ; Setup parameters for call to function ZDSecMgrDeviceJoin
        MOV     R2,?XSP + 0
        MOV     R3,?XSP + 1
        LCALL   `??ZDSecMgrDeviceJoin::?relay`; Banked call to: ZDSecMgrDeviceJoin
        MOV     A,R1
        MOV     ?V1,A
        JNZ     ??CrossCallReturnLabel_116
        ; Setup parameters for call to function AssocGetWithShort
        MOV     DPL,?XSP + 0
        MOV     DPH,?XSP + 1
        LCALL   ??Subroutine72_0 & 0xFFFF
??CrossCallReturnLabel_178:
        LCALL   `??AssocGetWithShort::?relay`; Banked call to: AssocGetWithShort
        MOV     DPL,R2
        MOV     DPH,R3
        MOV     A,DPL
        ORL     A,DPH
        JZ      ??CrossCallReturnLabel_116
        LCALL   ?Subroutine35 & 0xFFFF
??CrossCallReturnLabel_116:
        MOV     ?V2,?V1
// 1588 
// 1589     if ( status == ZSuccess )
??ZDSecMgrNewDeviceEvent_4:
        MOV     A,?V2
        JNZ     ??ZDSecMgrNewDeviceEvent_5
// 1590     {
// 1591       assoc->devStatus &= ~DEV_SEC_INIT_STATUS;
        MOV     DPL,R6
        MOV     DPH,R7
        MOVX    A,@DPTR
        CLR     0xE0 /* A   */.2
        MOVX    @DPTR,A
        SJMP    ??ZDSecMgrNewDeviceEvent_0
// 1592     }
// 1593     else
// 1594     {
// 1595       // Clear SECURITY bit from Address Manager
// 1596       ZDSecMgrAddrClear( addrEntry.extAddr );
??ZDSecMgrNewDeviceEvent_5:
        ; Setup parameters for call to function ZDSecMgrAddrClear
        MOV     A,#0xb
        LCALL   ?XSTACK_DISP0_8
        MOV     R2,DPL
        MOV     R3,DPH
        LCALL   `??ZDSecMgrAddrClear::?relay`; Banked call to: ZDSecMgrAddrClear
// 1597 
// 1598       // Remove the Association completely
// 1599       AssocRemove( addrEntry.extAddr );
        ; Setup parameters for call to function AssocRemove
        MOV     A,#0xb
        LCALL   ?XSTACK_DISP0_8
        MOV     R2,DPL
        MOV     R3,DPH
        LCALL   `??AssocRemove::?relay`; Banked call to: AssocRemove
// 1600     }
// 1601   }
// 1602 
// 1603   return found;
??ZDSecMgrNewDeviceEvent_0:
        MOV     R1,?V0
        MOV     A,#0x15
          CFI EndBlock cfiBlock161
        REQUIRE ?Subroutine3
        ; // Fall through to label ?Subroutine3
// 1604 }

        RSEG BANKED_CODE:CODE:NOROOT(0)
?Subroutine3:
          CFI Block cfiBlock162 Using cfiCommon0
          CFI NoFunction
          CFI CFA_SP SP+0
          CFI CFA_XSP16 add(XSP16, 35)
          CFI VB load(1, XDATA, add(CFA_XSP16, literal(-13)))
          CFI DPL0 load(1, XDATA, add(CFA_XSP16, literal(-2)))
          CFI DPH0 load(1, XDATA, add(CFA_XSP16, literal(-1)))
          CFI R6 load(1, XDATA, add(CFA_XSP16, literal(-14)))
          CFI R7 load(1, XDATA, add(CFA_XSP16, literal(-6)))
          CFI V0 load(1, XDATA, add(CFA_XSP16, literal(-12)))
          CFI V1 load(1, XDATA, add(CFA_XSP16, literal(-11)))
          CFI V2 load(1, XDATA, add(CFA_XSP16, literal(-10)))
          CFI V3 load(1, XDATA, add(CFA_XSP16, literal(-9)))
          CFI V4 load(1, XDATA, add(CFA_XSP16, literal(-8)))
          CFI V5 load(1, XDATA, add(CFA_XSP16, literal(-7)))
          CFI ?BRET_EXT load(1, XDATA, add(CFA_XSP16, literal(-3)))
          CFI ?RET_HIGH load(1, XDATA, add(CFA_XSP16, literal(-4)))
          CFI ?RET_LOW load(1, XDATA, add(CFA_XSP16, literal(-5)))
          CFI Invalid
        LCALL   ?DEALLOC_XSTACK8
          CFI CFA_XSP16 add(XSP16, 14)
          CFI Valid
          CFI EndBlock cfiBlock162
        REQUIRE ??Subroutine59_0
        ; // Fall through to label ??Subroutine59_0

        RSEG BANKED_CODE:CODE:NOROOT(0)
??Subroutine59_0:
          CFI Block cfiBlock163 Using cfiCommon0
          CFI NoFunction
          CFI CFA_SP SP+0
          CFI CFA_XSP16 add(XSP16, 14)
          CFI VB load(1, XDATA, add(CFA_XSP16, literal(-13)))
          CFI DPL0 load(1, XDATA, add(CFA_XSP16, literal(-2)))
          CFI DPH0 load(1, XDATA, add(CFA_XSP16, literal(-1)))
          CFI R6 load(1, XDATA, add(CFA_XSP16, literal(-14)))
          CFI R7 load(1, XDATA, add(CFA_XSP16, literal(-6)))
          CFI V0 load(1, XDATA, add(CFA_XSP16, literal(-12)))
          CFI V1 load(1, XDATA, add(CFA_XSP16, literal(-11)))
          CFI V2 load(1, XDATA, add(CFA_XSP16, literal(-10)))
          CFI V3 load(1, XDATA, add(CFA_XSP16, literal(-9)))
          CFI V4 load(1, XDATA, add(CFA_XSP16, literal(-8)))
          CFI V5 load(1, XDATA, add(CFA_XSP16, literal(-7)))
          CFI ?BRET_EXT load(1, XDATA, add(CFA_XSP16, literal(-3)))
          CFI ?RET_HIGH load(1, XDATA, add(CFA_XSP16, literal(-4)))
          CFI ?RET_LOW load(1, XDATA, add(CFA_XSP16, literal(-5)))
        MOV     R7,#0x6
        LJMP    ?BANKED_LEAVE_XDATA
          CFI CFA_SP SP+-3
          CFI CFA_XSP16 XSP16+0
          CFI VB SameValue
          CFI DPL0 SameValue
          CFI DPH0 SameValue
          CFI R6 SameValue
          CFI R7 SameValue
          CFI V0 SameValue
          CFI V1 SameValue
          CFI V2 SameValue
          CFI V3 SameValue
          CFI V4 SameValue
          CFI V5 SameValue
          CFI ?BRET_EXT Frame(CFA_SP, 3)
          CFI ?RET_HIGH Frame(CFA_SP, 2)
          CFI ?RET_LOW Frame(CFA_SP, 1)
          CFI EndBlock cfiBlock163

        RSEG BANKED_CODE:CODE:NOROOT(0)
?Subroutine43:
          CFI Block cfiCond164 Using cfiCommon0
          CFI Function ZDSecMgrDeviceJoinFwd
          CFI Conditional ??CrossCallReturnLabel_70
          CFI R6 load(1, XDATA, add(CFA_XSP16, literal(-10)))
          CFI VB load(1, XDATA, add(CFA_XSP16, literal(-9)))
          CFI V0 load(1, XDATA, add(CFA_XSP16, literal(-8)))
          CFI V1 load(1, XDATA, add(CFA_XSP16, literal(-7)))
          CFI R7 load(1, XDATA, add(CFA_XSP16, literal(-6)))
          CFI ?RET_LOW load(1, XDATA, add(CFA_XSP16, literal(-5)))
          CFI ?RET_HIGH load(1, XDATA, add(CFA_XSP16, literal(-4)))
          CFI ?BRET_EXT load(1, XDATA, add(CFA_XSP16, literal(-3)))
          CFI DPL0 load(1, XDATA, add(CFA_XSP16, literal(-2)))
          CFI DPH0 load(1, XDATA, add(CFA_XSP16, literal(-1)))
          CFI CFA_SP SP+-2
          CFI CFA_XSP16 add(XSP16, 18)
          CFI Block cfiCond165 Using cfiCommon0
          CFI (cfiCond165) Function ZDSecMgrDeviceJoinFwd
          CFI (cfiCond165) Conditional ??CrossCallReturnLabel_71
          CFI (cfiCond165) R6 load(1, XDATA, add(CFA_XSP16, literal(-10)))
          CFI (cfiCond165) VB load(1, XDATA, add(CFA_XSP16, literal(-9)))
          CFI (cfiCond165) V0 load(1, XDATA, add(CFA_XSP16, literal(-8)))
          CFI (cfiCond165) V1 load(1, XDATA, add(CFA_XSP16, literal(-7)))
          CFI (cfiCond165) R7 load(1, XDATA, add(CFA_XSP16, literal(-6)))
          CFI (cfiCond165) ?RET_LOW load(1, XDATA, add(CFA_XSP16, literal(-5)))
          CFI (cfiCond165) ?RET_HIGH load(1, XDATA, add(CFA_XSP16, literal(-4)))
          CFI (cfiCond165) ?BRET_EXT load(1, XDATA, add(CFA_XSP16, literal(-3)))
          CFI (cfiCond165) DPL0 load(1, XDATA, add(CFA_XSP16, literal(-2)))
          CFI (cfiCond165) DPH0 load(1, XDATA, add(CFA_XSP16, literal(-1)))
          CFI (cfiCond165) CFA_SP SP+-2
          CFI (cfiCond165) CFA_XSP16 add(XSP16, 18)
          CFI Block cfiCond166 Using cfiCommon0
          CFI (cfiCond166) Function ZDSecMgrNewDeviceEvent
          CFI (cfiCond166) Conditional ??CrossCallReturnLabel_72
          CFI (cfiCond166) R6 load(1, XDATA, add(CFA_XSP16, literal(-14)))
          CFI (cfiCond166) VB load(1, XDATA, add(CFA_XSP16, literal(-13)))
          CFI (cfiCond166) V0 load(1, XDATA, add(CFA_XSP16, literal(-12)))
          CFI (cfiCond166) V1 load(1, XDATA, add(CFA_XSP16, literal(-11)))
          CFI (cfiCond166) V2 load(1, XDATA, add(CFA_XSP16, literal(-10)))
          CFI (cfiCond166) V3 load(1, XDATA, add(CFA_XSP16, literal(-9)))
          CFI (cfiCond166) V4 load(1, XDATA, add(CFA_XSP16, literal(-8)))
          CFI (cfiCond166) V5 load(1, XDATA, add(CFA_XSP16, literal(-7)))
          CFI (cfiCond166) R7 load(1, XDATA, add(CFA_XSP16, literal(-6)))
          CFI (cfiCond166) ?RET_LOW load(1, XDATA, add(CFA_XSP16, literal(-5)))
          CFI (cfiCond166) ?RET_HIGH load(1, XDATA, add(CFA_XSP16, literal(-4)))
          CFI (cfiCond166) ?BRET_EXT load(1, XDATA, add(CFA_XSP16, literal(-3)))
          CFI (cfiCond166) DPL0 load(1, XDATA, add(CFA_XSP16, literal(-2)))
          CFI (cfiCond166) DPH0 load(1, XDATA, add(CFA_XSP16, literal(-1)))
          CFI (cfiCond166) CFA_SP SP+-2
          CFI (cfiCond166) CFA_XSP16 add(XSP16, 35)
          CFI Block cfiCond167 Using cfiCommon0
          CFI (cfiCond167) Function ZDSecMgrDeviceJoinFwd
          CFI (cfiCond167) Conditional ??CrossCallReturnLabel_73, ??CrossCallReturnLabel_0
          CFI (cfiCond167) R6 load(1, XDATA, add(CFA_XSP16, literal(-10)))
          CFI (cfiCond167) VB load(1, XDATA, add(CFA_XSP16, literal(-9)))
          CFI (cfiCond167) V0 load(1, XDATA, add(CFA_XSP16, literal(-8)))
          CFI (cfiCond167) V1 load(1, XDATA, add(CFA_XSP16, literal(-7)))
          CFI (cfiCond167) R7 load(1, XDATA, add(CFA_XSP16, literal(-6)))
          CFI (cfiCond167) ?RET_LOW load(1, XDATA, add(CFA_XSP16, literal(-5)))
          CFI (cfiCond167) ?RET_HIGH load(1, XDATA, add(CFA_XSP16, literal(-4)))
          CFI (cfiCond167) ?BRET_EXT load(1, XDATA, add(CFA_XSP16, literal(-3)))
          CFI (cfiCond167) DPL0 load(1, XDATA, add(CFA_XSP16, literal(-2)))
          CFI (cfiCond167) DPH0 load(1, XDATA, add(CFA_XSP16, literal(-1)))
          CFI (cfiCond167) CFA_SP SP+-4
          CFI (cfiCond167) CFA_XSP16 add(XSP16, 18)
          CFI Block cfiCond168 Using cfiCommon0
          CFI (cfiCond168) Function ZDSecMgrUpdateDeviceInd
          CFI (cfiCond168) Conditional ??CrossCallReturnLabel_73, ??CrossCallReturnLabel_1
          CFI (cfiCond168) DPL0 Frame(CFA_SP, 4)
          CFI (cfiCond168) DPH0 Frame(CFA_SP, 5)
          CFI (cfiCond168) CFA_SP SP+-9
          CFI (cfiCond168) CFA_XSP16 add(XSP16, 8)
          CFI Block cfiPicker169 Using cfiCommon1
          CFI (cfiPicker169) NoFunction
          CFI (cfiPicker169) Picker
        MOVX    @DPTR,A
        ; Setup parameters for call to function AssocGetWithShort
        MOV     DPL,R2
        MOV     DPH,R3
        RET
          CFI (cfiCond164) CFA_SP SP+0
          CFI (cfiCond165) CFA_SP SP+0
          CFI (cfiCond166) CFA_SP SP+0
          CFI (cfiCond167) CFA_SP SP+-2
          CFI (cfiCond168) CFA_SP SP+-7
          CFI (cfiPicker169) CFA_SP SP+0
          CFI EndBlock cfiCond164
          CFI EndBlock cfiCond165
          CFI EndBlock cfiCond166
          CFI EndBlock cfiCond167
          CFI EndBlock cfiCond168
          CFI EndBlock cfiPicker169

        RSEG BANKED_CODE:CODE:NOROOT(0)
?Subroutine33:
          CFI Block cfiCond170 Using cfiCommon0
          CFI Function ZDSecMgrSendNwkKey
          CFI Conditional ??CrossCallReturnLabel_124
          CFI R6 load(1, XDATA, add(CFA_XSP16, literal(-10)))
          CFI VB load(1, XDATA, add(CFA_XSP16, literal(-9)))
          CFI V0 load(1, XDATA, add(CFA_XSP16, literal(-8)))
          CFI V1 load(1, XDATA, add(CFA_XSP16, literal(-7)))
          CFI R7 load(1, XDATA, add(CFA_XSP16, literal(-6)))
          CFI ?RET_LOW load(1, XDATA, add(CFA_XSP16, literal(-5)))
          CFI ?RET_HIGH load(1, XDATA, add(CFA_XSP16, literal(-4)))
          CFI ?BRET_EXT load(1, XDATA, add(CFA_XSP16, literal(-3)))
          CFI DPL0 load(1, XDATA, add(CFA_XSP16, literal(-2)))
          CFI DPH0 load(1, XDATA, add(CFA_XSP16, literal(-1)))
          CFI CFA_SP SP+-2
          CFI CFA_XSP16 add(XSP16, 40)
          CFI Block cfiCond171 Using cfiCommon0
          CFI (cfiCond171) Function ZDSecMgrDeviceJoin
          CFI (cfiCond171) Conditional ??CrossCallReturnLabel_125
          CFI (cfiCond171) R6 load(1, XDATA, add(CFA_XSP16, literal(-13)))
          CFI (cfiCond171) VB load(1, XDATA, add(CFA_XSP16, literal(-12)))
          CFI (cfiCond171) V0 load(1, XDATA, add(CFA_XSP16, literal(-11)))
          CFI (cfiCond171) V1 load(1, XDATA, add(CFA_XSP16, literal(-10)))
          CFI (cfiCond171) V2 load(1, XDATA, add(CFA_XSP16, literal(-9)))
          CFI (cfiCond171) V3 load(1, XDATA, add(CFA_XSP16, literal(-8)))
          CFI (cfiCond171) V4 load(1, XDATA, add(CFA_XSP16, literal(-7)))
          CFI (cfiCond171) R7 load(1, XDATA, add(CFA_XSP16, literal(-6)))
          CFI (cfiCond171) ?RET_LOW load(1, XDATA, add(CFA_XSP16, literal(-5)))
          CFI (cfiCond171) ?RET_HIGH load(1, XDATA, add(CFA_XSP16, literal(-4)))
          CFI (cfiCond171) ?BRET_EXT load(1, XDATA, add(CFA_XSP16, literal(-3)))
          CFI (cfiCond171) DPL0 load(1, XDATA, add(CFA_XSP16, literal(-2)))
          CFI (cfiCond171) DPH0 load(1, XDATA, add(CFA_XSP16, literal(-1)))
          CFI (cfiCond171) CFA_SP SP+-2
          CFI (cfiCond171) CFA_XSP16 add(XSP16, 38)
          CFI Block cfiPicker172 Using cfiCommon1
          CFI (cfiPicker172) NoFunction
          CFI (cfiPicker172) Picker
        MOV     DPL,R6
        MOV     DPH,R7
          CFI EndBlock cfiCond170
          CFI EndBlock cfiCond171
          CFI EndBlock cfiPicker172
        REQUIRE ??Subroutine60_0
        ; // Fall through to label ??Subroutine60_0

        RSEG BANKED_CODE:CODE:NOROOT(0)
??Subroutine60_0:
          CFI Block cfiCond173 Using cfiCommon0
          CFI Function ZDSecMgrAddrClear
          CFI Conditional ??CrossCallReturnLabel_118
          CFI R6 load(1, XDATA, add(CFA_XSP16, literal(-9)))
          CFI VB load(1, XDATA, add(CFA_XSP16, literal(-8)))
          CFI V0 load(1, XDATA, add(CFA_XSP16, literal(-7)))
          CFI R7 load(1, XDATA, add(CFA_XSP16, literal(-6)))
          CFI ?RET_LOW load(1, XDATA, add(CFA_XSP16, literal(-5)))
          CFI ?RET_HIGH load(1, XDATA, add(CFA_XSP16, literal(-4)))
          CFI ?BRET_EXT load(1, XDATA, add(CFA_XSP16, literal(-3)))
          CFI DPL0 load(1, XDATA, add(CFA_XSP16, literal(-2)))
          CFI DPH0 load(1, XDATA, add(CFA_XSP16, literal(-1)))
          CFI CFA_SP SP+-2
          CFI CFA_XSP16 add(XSP16, 35)
          CFI Block cfiCond174 Using cfiCommon0
          CFI (cfiCond174) Function ZDSecMgrDeviceRemove
          CFI (cfiCond174) Conditional ??CrossCallReturnLabel_119
          CFI (cfiCond174) R6 load(1, XDATA, add(CFA_XSP16, literal(-10)))
          CFI (cfiCond174) VB load(1, XDATA, add(CFA_XSP16, literal(-9)))
          CFI (cfiCond174) V0 load(1, XDATA, add(CFA_XSP16, literal(-8)))
          CFI (cfiCond174) V1 load(1, XDATA, add(CFA_XSP16, literal(-7)))
          CFI (cfiCond174) R7 load(1, XDATA, add(CFA_XSP16, literal(-6)))
          CFI (cfiCond174) ?RET_LOW load(1, XDATA, add(CFA_XSP16, literal(-5)))
          CFI (cfiCond174) ?RET_HIGH load(1, XDATA, add(CFA_XSP16, literal(-4)))
          CFI (cfiCond174) ?BRET_EXT load(1, XDATA, add(CFA_XSP16, literal(-3)))
          CFI (cfiCond174) DPL0 load(1, XDATA, add(CFA_XSP16, literal(-2)))
          CFI (cfiCond174) DPH0 load(1, XDATA, add(CFA_XSP16, literal(-1)))
          CFI (cfiCond174) CFA_SP SP+-2
          CFI (cfiCond174) CFA_XSP16 add(XSP16, 20)
          CFI Block cfiCond175 Using cfiCommon0
          CFI (cfiCond175) Function ZDSecMgrDeviceJoin
          CFI (cfiCond175) Conditional ??CrossCallReturnLabel_120
          CFI (cfiCond175) R6 load(1, XDATA, add(CFA_XSP16, literal(-13)))
          CFI (cfiCond175) VB load(1, XDATA, add(CFA_XSP16, literal(-12)))
          CFI (cfiCond175) V0 load(1, XDATA, add(CFA_XSP16, literal(-11)))
          CFI (cfiCond175) V1 load(1, XDATA, add(CFA_XSP16, literal(-10)))
          CFI (cfiCond175) V2 load(1, XDATA, add(CFA_XSP16, literal(-9)))
          CFI (cfiCond175) V3 load(1, XDATA, add(CFA_XSP16, literal(-8)))
          CFI (cfiCond175) V4 load(1, XDATA, add(CFA_XSP16, literal(-7)))
          CFI (cfiCond175) R7 load(1, XDATA, add(CFA_XSP16, literal(-6)))
          CFI (cfiCond175) ?RET_LOW load(1, XDATA, add(CFA_XSP16, literal(-5)))
          CFI (cfiCond175) ?RET_HIGH load(1, XDATA, add(CFA_XSP16, literal(-4)))
          CFI (cfiCond175) ?BRET_EXT load(1, XDATA, add(CFA_XSP16, literal(-3)))
          CFI (cfiCond175) DPL0 load(1, XDATA, add(CFA_XSP16, literal(-2)))
          CFI (cfiCond175) DPH0 load(1, XDATA, add(CFA_XSP16, literal(-1)))
          CFI (cfiCond175) CFA_SP SP+-2
          CFI (cfiCond175) CFA_XSP16 add(XSP16, 38)
          CFI Block cfiCond176 Using cfiCommon0
          CFI (cfiCond176) Function ZDSecMgrNewDeviceEvent
          CFI (cfiCond176) Conditional ??CrossCallReturnLabel_121
          CFI (cfiCond176) R6 load(1, XDATA, add(CFA_XSP16, literal(-14)))
          CFI (cfiCond176) VB load(1, XDATA, add(CFA_XSP16, literal(-13)))
          CFI (cfiCond176) V0 load(1, XDATA, add(CFA_XSP16, literal(-12)))
          CFI (cfiCond176) V1 load(1, XDATA, add(CFA_XSP16, literal(-11)))
          CFI (cfiCond176) V2 load(1, XDATA, add(CFA_XSP16, literal(-10)))
          CFI (cfiCond176) V3 load(1, XDATA, add(CFA_XSP16, literal(-9)))
          CFI (cfiCond176) V4 load(1, XDATA, add(CFA_XSP16, literal(-8)))
          CFI (cfiCond176) V5 load(1, XDATA, add(CFA_XSP16, literal(-7)))
          CFI (cfiCond176) R7 load(1, XDATA, add(CFA_XSP16, literal(-6)))
          CFI (cfiCond176) ?RET_LOW load(1, XDATA, add(CFA_XSP16, literal(-5)))
          CFI (cfiCond176) ?RET_HIGH load(1, XDATA, add(CFA_XSP16, literal(-4)))
          CFI (cfiCond176) ?BRET_EXT load(1, XDATA, add(CFA_XSP16, literal(-3)))
          CFI (cfiCond176) DPL0 load(1, XDATA, add(CFA_XSP16, literal(-2)))
          CFI (cfiCond176) DPH0 load(1, XDATA, add(CFA_XSP16, literal(-1)))
          CFI (cfiCond176) CFA_SP SP+-2
          CFI (cfiCond176) CFA_XSP16 add(XSP16, 35)
          CFI Block cfiCond177 Using cfiCommon0
          CFI (cfiCond177) Function APSME_LinkKeySet
          CFI (cfiCond177) Conditional ??CrossCallReturnLabel_122
          CFI (cfiCond177) R6 load(1, XDATA, add(CFA_XSP16, literal(-19)))
          CFI (cfiCond177) VB load(1, XDATA, add(CFA_XSP16, literal(-18)))
          CFI (cfiCond177) V0 load(1, XDATA, add(CFA_XSP16, literal(-17)))
          CFI (cfiCond177) V1 load(1, XDATA, add(CFA_XSP16, literal(-16)))
          CFI (cfiCond177) V2 load(1, XDATA, add(CFA_XSP16, literal(-15)))
          CFI (cfiCond177) V3 load(1, XDATA, add(CFA_XSP16, literal(-14)))
          CFI (cfiCond177) V4 load(1, XDATA, add(CFA_XSP16, literal(-13)))
          CFI (cfiCond177) V5 load(1, XDATA, add(CFA_XSP16, literal(-12)))
          CFI (cfiCond177) V6 load(1, XDATA, add(CFA_XSP16, literal(-11)))
          CFI (cfiCond177) V7 load(1, XDATA, add(CFA_XSP16, literal(-10)))
          CFI (cfiCond177) V8 load(1, XDATA, add(CFA_XSP16, literal(-9)))
          CFI (cfiCond177) V9 load(1, XDATA, add(CFA_XSP16, literal(-8)))
          CFI (cfiCond177) V10 load(1, XDATA, add(CFA_XSP16, literal(-7)))
          CFI (cfiCond177) R7 load(1, XDATA, add(CFA_XSP16, literal(-6)))
          CFI (cfiCond177) ?RET_LOW load(1, XDATA, add(CFA_XSP16, literal(-5)))
          CFI (cfiCond177) ?RET_HIGH load(1, XDATA, add(CFA_XSP16, literal(-4)))
          CFI (cfiCond177) ?BRET_EXT load(1, XDATA, add(CFA_XSP16, literal(-3)))
          CFI (cfiCond177) DPL0 load(1, XDATA, add(CFA_XSP16, literal(-2)))
          CFI (cfiCond177) DPH0 load(1, XDATA, add(CFA_XSP16, literal(-1)))
          CFI (cfiCond177) CFA_SP SP+-2
          CFI (cfiCond177) CFA_XSP16 add(XSP16, 32)
          CFI Block cfiCond178 Using cfiCommon0
          CFI (cfiCond178) Function ZDSecMgrAPSRemove
          CFI (cfiCond178) Conditional ??CrossCallReturnLabel_123
          CFI (cfiCond178) DPL0 Frame(CFA_SP, 4)
          CFI (cfiCond178) DPH0 Frame(CFA_SP, 5)
          CFI (cfiCond178) CFA_SP SP+-7
          CFI (cfiCond178) CFA_XSP16 add(XSP16, 8)
          CFI Block cfiCond179 Using cfiCommon0
          CFI (cfiCond179) Function ZDSecMgrSendNwkKey
          CFI (cfiCond179) Conditional ??CrossCallReturnLabel_124
          CFI (cfiCond179) R6 load(1, XDATA, add(CFA_XSP16, literal(-10)))
          CFI (cfiCond179) VB load(1, XDATA, add(CFA_XSP16, literal(-9)))
          CFI (cfiCond179) V0 load(1, XDATA, add(CFA_XSP16, literal(-8)))
          CFI (cfiCond179) V1 load(1, XDATA, add(CFA_XSP16, literal(-7)))
          CFI (cfiCond179) R7 load(1, XDATA, add(CFA_XSP16, literal(-6)))
          CFI (cfiCond179) ?RET_LOW load(1, XDATA, add(CFA_XSP16, literal(-5)))
          CFI (cfiCond179) ?RET_HIGH load(1, XDATA, add(CFA_XSP16, literal(-4)))
          CFI (cfiCond179) ?BRET_EXT load(1, XDATA, add(CFA_XSP16, literal(-3)))
          CFI (cfiCond179) DPL0 load(1, XDATA, add(CFA_XSP16, literal(-2)))
          CFI (cfiCond179) DPH0 load(1, XDATA, add(CFA_XSP16, literal(-1)))
          CFI (cfiCond179) CFA_SP SP+-2
          CFI (cfiCond179) CFA_XSP16 add(XSP16, 40)
          CFI Block cfiCond180 Using cfiCommon0
          CFI (cfiCond180) Function ZDSecMgrDeviceJoin
          CFI (cfiCond180) Conditional ??CrossCallReturnLabel_125
          CFI (cfiCond180) R6 load(1, XDATA, add(CFA_XSP16, literal(-13)))
          CFI (cfiCond180) VB load(1, XDATA, add(CFA_XSP16, literal(-12)))
          CFI (cfiCond180) V0 load(1, XDATA, add(CFA_XSP16, literal(-11)))
          CFI (cfiCond180) V1 load(1, XDATA, add(CFA_XSP16, literal(-10)))
          CFI (cfiCond180) V2 load(1, XDATA, add(CFA_XSP16, literal(-9)))
          CFI (cfiCond180) V3 load(1, XDATA, add(CFA_XSP16, literal(-8)))
          CFI (cfiCond180) V4 load(1, XDATA, add(CFA_XSP16, literal(-7)))
          CFI (cfiCond180) R7 load(1, XDATA, add(CFA_XSP16, literal(-6)))
          CFI (cfiCond180) ?RET_LOW load(1, XDATA, add(CFA_XSP16, literal(-5)))
          CFI (cfiCond180) ?RET_HIGH load(1, XDATA, add(CFA_XSP16, literal(-4)))
          CFI (cfiCond180) ?BRET_EXT load(1, XDATA, add(CFA_XSP16, literal(-3)))
          CFI (cfiCond180) DPL0 load(1, XDATA, add(CFA_XSP16, literal(-2)))
          CFI (cfiCond180) DPH0 load(1, XDATA, add(CFA_XSP16, literal(-1)))
          CFI (cfiCond180) CFA_SP SP+-2
          CFI (cfiCond180) CFA_XSP16 add(XSP16, 38)
          CFI Block cfiPicker181 Using cfiCommon1
          CFI (cfiPicker181) NoFunction
          CFI (cfiPicker181) Picker
        LCALL   ?Subroutine46 & 0xFFFF
??CrossCallReturnLabel_132:
        RET
          CFI (cfiCond173) CFA_SP SP+0
          CFI (cfiCond174) CFA_SP SP+0
          CFI (cfiCond175) CFA_SP SP+0
          CFI (cfiCond176) CFA_SP SP+0
          CFI (cfiCond177) CFA_SP SP+0
          CFI (cfiCond178) CFA_SP SP+-5
          CFI (cfiCond179) CFA_SP SP+0
          CFI (cfiCond180) CFA_SP SP+0
          CFI (cfiPicker181) CFA_SP SP+0
          CFI EndBlock cfiCond173
          CFI EndBlock cfiCond174
          CFI EndBlock cfiCond175
          CFI EndBlock cfiCond176
          CFI EndBlock cfiCond177
          CFI EndBlock cfiCond178
          CFI EndBlock cfiCond179
          CFI EndBlock cfiCond180
          CFI EndBlock cfiPicker181

        RSEG BANKED_CODE:CODE:NOROOT(0)
?Subroutine46:
          CFI Block cfiCond182 Using cfiCommon0
          CFI Function ZDSecMgrAddrStore
          CFI Conditional ??CrossCallReturnLabel_130, ??CrossCallReturnLabel_26
          CFI R6 load(1, XDATA, add(CFA_XSP16, literal(-9)))
          CFI VB load(1, XDATA, add(CFA_XSP16, literal(-8)))
          CFI V0 load(1, XDATA, add(CFA_XSP16, literal(-7)))
          CFI R7 load(1, XDATA, add(CFA_XSP16, literal(-6)))
          CFI ?RET_LOW load(1, XDATA, add(CFA_XSP16, literal(-5)))
          CFI ?RET_HIGH load(1, XDATA, add(CFA_XSP16, literal(-4)))
          CFI ?BRET_EXT load(1, XDATA, add(CFA_XSP16, literal(-3)))
          CFI DPL0 load(1, XDATA, add(CFA_XSP16, literal(-2)))
          CFI DPH0 load(1, XDATA, add(CFA_XSP16, literal(-1)))
          CFI CFA_SP SP+-4
          CFI CFA_XSP16 add(XSP16, 22)
          CFI Block cfiCond183 Using cfiCommon0
          CFI (cfiCond183) Function ZDSecMgrExtAddrStore
          CFI (cfiCond183) Conditional ??CrossCallReturnLabel_130, ??CrossCallReturnLabel_27
          CFI (cfiCond183) R6 load(1, XDATA, add(CFA_XSP16, literal(-9)))
          CFI (cfiCond183) VB load(1, XDATA, add(CFA_XSP16, literal(-8)))
          CFI (cfiCond183) V0 load(1, XDATA, add(CFA_XSP16, literal(-7)))
          CFI (cfiCond183) R7 load(1, XDATA, add(CFA_XSP16, literal(-6)))
          CFI (cfiCond183) ?RET_LOW load(1, XDATA, add(CFA_XSP16, literal(-5)))
          CFI (cfiCond183) ?RET_HIGH load(1, XDATA, add(CFA_XSP16, literal(-4)))
          CFI (cfiCond183) ?BRET_EXT load(1, XDATA, add(CFA_XSP16, literal(-3)))
          CFI (cfiCond183) DPL0 load(1, XDATA, add(CFA_XSP16, literal(-2)))
          CFI (cfiCond183) DPH0 load(1, XDATA, add(CFA_XSP16, literal(-1)))
          CFI (cfiCond183) CFA_SP SP+-4
          CFI (cfiCond183) CFA_XSP16 add(XSP16, 22)
          CFI Block cfiCond184 Using cfiCommon0
          CFI (cfiCond184) Function ZDSecMgrAddrStore
          CFI (cfiCond184) Conditional ??CrossCallReturnLabel_128, ??CrossCallReturnLabel_10
          CFI (cfiCond184) R6 load(1, XDATA, add(CFA_XSP16, literal(-9)))
          CFI (cfiCond184) VB load(1, XDATA, add(CFA_XSP16, literal(-8)))
          CFI (cfiCond184) V0 load(1, XDATA, add(CFA_XSP16, literal(-7)))
          CFI (cfiCond184) R7 load(1, XDATA, add(CFA_XSP16, literal(-6)))
          CFI (cfiCond184) ?RET_LOW load(1, XDATA, add(CFA_XSP16, literal(-5)))
          CFI (cfiCond184) ?RET_HIGH load(1, XDATA, add(CFA_XSP16, literal(-4)))
          CFI (cfiCond184) ?BRET_EXT load(1, XDATA, add(CFA_XSP16, literal(-3)))
          CFI (cfiCond184) DPL0 load(1, XDATA, add(CFA_XSP16, literal(-2)))
          CFI (cfiCond184) DPH0 load(1, XDATA, add(CFA_XSP16, literal(-1)))
          CFI (cfiCond184) CFA_SP SP+-4
          CFI (cfiCond184) CFA_XSP16 add(XSP16, 22)
          CFI Block cfiCond185 Using cfiCommon0
          CFI (cfiCond185) Function ZDSecMgrExtAddrStore
          CFI (cfiCond185) Conditional ??CrossCallReturnLabel_128, ??CrossCallReturnLabel_11
          CFI (cfiCond185) R6 load(1, XDATA, add(CFA_XSP16, literal(-9)))
          CFI (cfiCond185) VB load(1, XDATA, add(CFA_XSP16, literal(-8)))
          CFI (cfiCond185) V0 load(1, XDATA, add(CFA_XSP16, literal(-7)))
          CFI (cfiCond185) R7 load(1, XDATA, add(CFA_XSP16, literal(-6)))
          CFI (cfiCond185) ?RET_LOW load(1, XDATA, add(CFA_XSP16, literal(-5)))
          CFI (cfiCond185) ?RET_HIGH load(1, XDATA, add(CFA_XSP16, literal(-4)))
          CFI (cfiCond185) ?BRET_EXT load(1, XDATA, add(CFA_XSP16, literal(-3)))
          CFI (cfiCond185) DPL0 load(1, XDATA, add(CFA_XSP16, literal(-2)))
          CFI (cfiCond185) DPH0 load(1, XDATA, add(CFA_XSP16, literal(-1)))
          CFI (cfiCond185) CFA_SP SP+-4
          CFI (cfiCond185) CFA_XSP16 add(XSP16, 22)
          CFI Block cfiCond186 Using cfiCommon0
          CFI (cfiCond186) Function ZDSecMgrExtAddrLookup
          CFI (cfiCond186) Conditional ??CrossCallReturnLabel_128, ??CrossCallReturnLabel_12
          CFI (cfiCond186) R6 load(1, XDATA, add(CFA_XSP16, literal(-9)))
          CFI (cfiCond186) VB load(1, XDATA, add(CFA_XSP16, literal(-8)))
          CFI (cfiCond186) V0 load(1, XDATA, add(CFA_XSP16, literal(-7)))
          CFI (cfiCond186) R7 load(1, XDATA, add(CFA_XSP16, literal(-6)))
          CFI (cfiCond186) ?RET_LOW load(1, XDATA, add(CFA_XSP16, literal(-5)))
          CFI (cfiCond186) ?RET_HIGH load(1, XDATA, add(CFA_XSP16, literal(-4)))
          CFI (cfiCond186) ?BRET_EXT load(1, XDATA, add(CFA_XSP16, literal(-3)))
          CFI (cfiCond186) DPL0 load(1, XDATA, add(CFA_XSP16, literal(-2)))
          CFI (cfiCond186) DPH0 load(1, XDATA, add(CFA_XSP16, literal(-1)))
          CFI (cfiCond186) CFA_SP SP+-4
          CFI (cfiCond186) CFA_XSP16 add(XSP16, 22)
          CFI Block cfiCond187 Using cfiCommon0
          CFI (cfiCond187) Function ZDSecMgrNewDeviceEvent
          CFI (cfiCond187) Conditional ??CrossCallReturnLabel_129, ??CrossCallReturnLabel_109
          CFI (cfiCond187) R6 load(1, XDATA, add(CFA_XSP16, literal(-14)))
          CFI (cfiCond187) VB load(1, XDATA, add(CFA_XSP16, literal(-13)))
          CFI (cfiCond187) V0 load(1, XDATA, add(CFA_XSP16, literal(-12)))
          CFI (cfiCond187) V1 load(1, XDATA, add(CFA_XSP16, literal(-11)))
          CFI (cfiCond187) V2 load(1, XDATA, add(CFA_XSP16, literal(-10)))
          CFI (cfiCond187) V3 load(1, XDATA, add(CFA_XSP16, literal(-9)))
          CFI (cfiCond187) V4 load(1, XDATA, add(CFA_XSP16, literal(-8)))
          CFI (cfiCond187) V5 load(1, XDATA, add(CFA_XSP16, literal(-7)))
          CFI (cfiCond187) R7 load(1, XDATA, add(CFA_XSP16, literal(-6)))
          CFI (cfiCond187) ?RET_LOW load(1, XDATA, add(CFA_XSP16, literal(-5)))
          CFI (cfiCond187) ?RET_HIGH load(1, XDATA, add(CFA_XSP16, literal(-4)))
          CFI (cfiCond187) ?BRET_EXT load(1, XDATA, add(CFA_XSP16, literal(-3)))
          CFI (cfiCond187) DPL0 load(1, XDATA, add(CFA_XSP16, literal(-2)))
          CFI (cfiCond187) DPH0 load(1, XDATA, add(CFA_XSP16, literal(-1)))
          CFI (cfiCond187) CFA_SP SP+-4
          CFI (cfiCond187) CFA_XSP16 add(XSP16, 35)
          CFI Block cfiCond188 Using cfiCommon0
          CFI (cfiCond188) Function ZDSecMgrUpdateDeviceInd
          CFI (cfiCond188) Conditional ??CrossCallReturnLabel_129, ??CrossCallReturnLabel_110
          CFI (cfiCond188) DPL0 Frame(CFA_SP, 4)
          CFI (cfiCond188) DPH0 Frame(CFA_SP, 5)
          CFI (cfiCond188) CFA_SP SP+-9
          CFI (cfiCond188) CFA_XSP16 add(XSP16, 8)
          CFI Block cfiCond189 Using cfiCommon0
          CFI (cfiCond189) Function ZDSecMgrSendNwkKey
          CFI (cfiCond189) Conditional ??CrossCallReturnLabel_127, ??CrossCallReturnLabel_8
          CFI (cfiCond189) R6 load(1, XDATA, add(CFA_XSP16, literal(-10)))
          CFI (cfiCond189) VB load(1, XDATA, add(CFA_XSP16, literal(-9)))
          CFI (cfiCond189) V0 load(1, XDATA, add(CFA_XSP16, literal(-8)))
          CFI (cfiCond189) V1 load(1, XDATA, add(CFA_XSP16, literal(-7)))
          CFI (cfiCond189) R7 load(1, XDATA, add(CFA_XSP16, literal(-6)))
          CFI (cfiCond189) ?RET_LOW load(1, XDATA, add(CFA_XSP16, literal(-5)))
          CFI (cfiCond189) ?RET_HIGH load(1, XDATA, add(CFA_XSP16, literal(-4)))
          CFI (cfiCond189) ?BRET_EXT load(1, XDATA, add(CFA_XSP16, literal(-3)))
          CFI (cfiCond189) DPL0 load(1, XDATA, add(CFA_XSP16, literal(-2)))
          CFI (cfiCond189) DPH0 load(1, XDATA, add(CFA_XSP16, literal(-1)))
          CFI (cfiCond189) CFA_SP SP+-4
          CFI (cfiCond189) CFA_XSP16 add(XSP16, 40)
          CFI Block cfiCond190 Using cfiCommon0
          CFI (cfiCond190) Function ZDSecMgrDeviceJoin
          CFI (cfiCond190) Conditional ??CrossCallReturnLabel_127, ??CrossCallReturnLabel_9
          CFI (cfiCond190) R6 load(1, XDATA, add(CFA_XSP16, literal(-13)))
          CFI (cfiCond190) VB load(1, XDATA, add(CFA_XSP16, literal(-12)))
          CFI (cfiCond190) V0 load(1, XDATA, add(CFA_XSP16, literal(-11)))
          CFI (cfiCond190) V1 load(1, XDATA, add(CFA_XSP16, literal(-10)))
          CFI (cfiCond190) V2 load(1, XDATA, add(CFA_XSP16, literal(-9)))
          CFI (cfiCond190) V3 load(1, XDATA, add(CFA_XSP16, literal(-8)))
          CFI (cfiCond190) V4 load(1, XDATA, add(CFA_XSP16, literal(-7)))
          CFI (cfiCond190) R7 load(1, XDATA, add(CFA_XSP16, literal(-6)))
          CFI (cfiCond190) ?RET_LOW load(1, XDATA, add(CFA_XSP16, literal(-5)))
          CFI (cfiCond190) ?RET_HIGH load(1, XDATA, add(CFA_XSP16, literal(-4)))
          CFI (cfiCond190) ?BRET_EXT load(1, XDATA, add(CFA_XSP16, literal(-3)))
          CFI (cfiCond190) DPL0 load(1, XDATA, add(CFA_XSP16, literal(-2)))
          CFI (cfiCond190) DPH0 load(1, XDATA, add(CFA_XSP16, literal(-1)))
          CFI (cfiCond190) CFA_SP SP+-4
          CFI (cfiCond190) CFA_XSP16 add(XSP16, 38)
          CFI Block cfiCond191 Using cfiCommon0
          CFI (cfiCond191) Function ZDSecMgrAppKeyReq
          CFI (cfiCond191) Conditional ??CrossCallReturnLabel_131, ??CrossCallReturnLabel_33
          CFI (cfiCond191) R6 load(1, XDATA, add(CFA_XSP16, literal(-10)))
          CFI (cfiCond191) VB load(1, XDATA, add(CFA_XSP16, literal(-9)))
          CFI (cfiCond191) V0 load(1, XDATA, add(CFA_XSP16, literal(-8)))
          CFI (cfiCond191) V1 load(1, XDATA, add(CFA_XSP16, literal(-7)))
          CFI (cfiCond191) R7 load(1, XDATA, add(CFA_XSP16, literal(-6)))
          CFI (cfiCond191) ?RET_LOW load(1, XDATA, add(CFA_XSP16, literal(-5)))
          CFI (cfiCond191) ?RET_HIGH load(1, XDATA, add(CFA_XSP16, literal(-4)))
          CFI (cfiCond191) ?BRET_EXT load(1, XDATA, add(CFA_XSP16, literal(-3)))
          CFI (cfiCond191) DPL0 load(1, XDATA, add(CFA_XSP16, literal(-2)))
          CFI (cfiCond191) DPH0 load(1, XDATA, add(CFA_XSP16, literal(-1)))
          CFI (cfiCond191) CFA_SP SP+-4
          CFI (cfiCond191) CFA_XSP16 add(XSP16, 49)
          CFI Block cfiCond192 Using cfiCommon0
          CFI (cfiCond192) Function ZDSecMgrAppKeyReq
          CFI (cfiCond192) Conditional ??CrossCallReturnLabel_131, ??CrossCallReturnLabel_34
          CFI (cfiCond192) R6 load(1, XDATA, add(CFA_XSP16, literal(-10)))
          CFI (cfiCond192) VB load(1, XDATA, add(CFA_XSP16, literal(-9)))
          CFI (cfiCond192) V0 load(1, XDATA, add(CFA_XSP16, literal(-8)))
          CFI (cfiCond192) V1 load(1, XDATA, add(CFA_XSP16, literal(-7)))
          CFI (cfiCond192) R7 load(1, XDATA, add(CFA_XSP16, literal(-6)))
          CFI (cfiCond192) ?RET_LOW load(1, XDATA, add(CFA_XSP16, literal(-5)))
          CFI (cfiCond192) ?RET_HIGH load(1, XDATA, add(CFA_XSP16, literal(-4)))
          CFI (cfiCond192) ?BRET_EXT load(1, XDATA, add(CFA_XSP16, literal(-3)))
          CFI (cfiCond192) DPL0 load(1, XDATA, add(CFA_XSP16, literal(-2)))
          CFI (cfiCond192) DPH0 load(1, XDATA, add(CFA_XSP16, literal(-1)))
          CFI (cfiCond192) CFA_SP SP+-4
          CFI (cfiCond192) CFA_XSP16 add(XSP16, 49)
          CFI Block cfiCond193 Using cfiCommon0
          CFI (cfiCond193) Function ZDSecMgrDeviceJoinFwd
          CFI (cfiCond193) Conditional ??CrossCallReturnLabel_131, ??CrossCallReturnLabel_35
          CFI (cfiCond193) R6 load(1, XDATA, add(CFA_XSP16, literal(-10)))
          CFI (cfiCond193) VB load(1, XDATA, add(CFA_XSP16, literal(-9)))
          CFI (cfiCond193) V0 load(1, XDATA, add(CFA_XSP16, literal(-8)))
          CFI (cfiCond193) V1 load(1, XDATA, add(CFA_XSP16, literal(-7)))
          CFI (cfiCond193) R7 load(1, XDATA, add(CFA_XSP16, literal(-6)))
          CFI (cfiCond193) ?RET_LOW load(1, XDATA, add(CFA_XSP16, literal(-5)))
          CFI (cfiCond193) ?RET_HIGH load(1, XDATA, add(CFA_XSP16, literal(-4)))
          CFI (cfiCond193) ?BRET_EXT load(1, XDATA, add(CFA_XSP16, literal(-3)))
          CFI (cfiCond193) DPL0 load(1, XDATA, add(CFA_XSP16, literal(-2)))
          CFI (cfiCond193) DPH0 load(1, XDATA, add(CFA_XSP16, literal(-1)))
          CFI (cfiCond193) CFA_SP SP+-4
          CFI (cfiCond193) CFA_XSP16 add(XSP16, 18)
          CFI Block cfiCond194 Using cfiCommon0
          CFI (cfiCond194) Function ZDSecMgrSendNwkKey
          CFI (cfiCond194) Conditional ??CrossCallReturnLabel_132, ??CrossCallReturnLabel_124
          CFI (cfiCond194) R6 load(1, XDATA, add(CFA_XSP16, literal(-10)))
          CFI (cfiCond194) VB load(1, XDATA, add(CFA_XSP16, literal(-9)))
          CFI (cfiCond194) V0 load(1, XDATA, add(CFA_XSP16, literal(-8)))
          CFI (cfiCond194) V1 load(1, XDATA, add(CFA_XSP16, literal(-7)))
          CFI (cfiCond194) R7 load(1, XDATA, add(CFA_XSP16, literal(-6)))
          CFI (cfiCond194) ?RET_LOW load(1, XDATA, add(CFA_XSP16, literal(-5)))
          CFI (cfiCond194) ?RET_HIGH load(1, XDATA, add(CFA_XSP16, literal(-4)))
          CFI (cfiCond194) ?BRET_EXT load(1, XDATA, add(CFA_XSP16, literal(-3)))
          CFI (cfiCond194) DPL0 load(1, XDATA, add(CFA_XSP16, literal(-2)))
          CFI (cfiCond194) DPH0 load(1, XDATA, add(CFA_XSP16, literal(-1)))
          CFI (cfiCond194) CFA_SP SP+-4
          CFI (cfiCond194) CFA_XSP16 add(XSP16, 40)
          CFI Block cfiCond195 Using cfiCommon0
          CFI (cfiCond195) Function ZDSecMgrDeviceJoin
          CFI (cfiCond195) Conditional ??CrossCallReturnLabel_132, ??CrossCallReturnLabel_125
          CFI (cfiCond195) R6 load(1, XDATA, add(CFA_XSP16, literal(-13)))
          CFI (cfiCond195) VB load(1, XDATA, add(CFA_XSP16, literal(-12)))
          CFI (cfiCond195) V0 load(1, XDATA, add(CFA_XSP16, literal(-11)))
          CFI (cfiCond195) V1 load(1, XDATA, add(CFA_XSP16, literal(-10)))
          CFI (cfiCond195) V2 load(1, XDATA, add(CFA_XSP16, literal(-9)))
          CFI (cfiCond195) V3 load(1, XDATA, add(CFA_XSP16, literal(-8)))
          CFI (cfiCond195) V4 load(1, XDATA, add(CFA_XSP16, literal(-7)))
          CFI (cfiCond195) R7 load(1, XDATA, add(CFA_XSP16, literal(-6)))
          CFI (cfiCond195) ?RET_LOW load(1, XDATA, add(CFA_XSP16, literal(-5)))
          CFI (cfiCond195) ?RET_HIGH load(1, XDATA, add(CFA_XSP16, literal(-4)))
          CFI (cfiCond195) ?BRET_EXT load(1, XDATA, add(CFA_XSP16, literal(-3)))
          CFI (cfiCond195) DPL0 load(1, XDATA, add(CFA_XSP16, literal(-2)))
          CFI (cfiCond195) DPH0 load(1, XDATA, add(CFA_XSP16, literal(-1)))
          CFI (cfiCond195) CFA_SP SP+-4
          CFI (cfiCond195) CFA_XSP16 add(XSP16, 38)
          CFI Block cfiCond196 Using cfiCommon0
          CFI (cfiCond196) Function ZDSecMgrAddrClear
          CFI (cfiCond196) Conditional ??CrossCallReturnLabel_132, ??CrossCallReturnLabel_118
          CFI (cfiCond196) R6 load(1, XDATA, add(CFA_XSP16, literal(-9)))
          CFI (cfiCond196) VB load(1, XDATA, add(CFA_XSP16, literal(-8)))
          CFI (cfiCond196) V0 load(1, XDATA, add(CFA_XSP16, literal(-7)))
          CFI (cfiCond196) R7 load(1, XDATA, add(CFA_XSP16, literal(-6)))
          CFI (cfiCond196) ?RET_LOW load(1, XDATA, add(CFA_XSP16, literal(-5)))
          CFI (cfiCond196) ?RET_HIGH load(1, XDATA, add(CFA_XSP16, literal(-4)))
          CFI (cfiCond196) ?BRET_EXT load(1, XDATA, add(CFA_XSP16, literal(-3)))
          CFI (cfiCond196) DPL0 load(1, XDATA, add(CFA_XSP16, literal(-2)))
          CFI (cfiCond196) DPH0 load(1, XDATA, add(CFA_XSP16, literal(-1)))
          CFI (cfiCond196) CFA_SP SP+-4
          CFI (cfiCond196) CFA_XSP16 add(XSP16, 35)
          CFI Block cfiCond197 Using cfiCommon0
          CFI (cfiCond197) Function ZDSecMgrDeviceRemove
          CFI (cfiCond197) Conditional ??CrossCallReturnLabel_132, ??CrossCallReturnLabel_119
          CFI (cfiCond197) R6 load(1, XDATA, add(CFA_XSP16, literal(-10)))
          CFI (cfiCond197) VB load(1, XDATA, add(CFA_XSP16, literal(-9)))
          CFI (cfiCond197) V0 load(1, XDATA, add(CFA_XSP16, literal(-8)))
          CFI (cfiCond197) V1 load(1, XDATA, add(CFA_XSP16, literal(-7)))
          CFI (cfiCond197) R7 load(1, XDATA, add(CFA_XSP16, literal(-6)))
          CFI (cfiCond197) ?RET_LOW load(1, XDATA, add(CFA_XSP16, literal(-5)))
          CFI (cfiCond197) ?RET_HIGH load(1, XDATA, add(CFA_XSP16, literal(-4)))
          CFI (cfiCond197) ?BRET_EXT load(1, XDATA, add(CFA_XSP16, literal(-3)))
          CFI (cfiCond197) DPL0 load(1, XDATA, add(CFA_XSP16, literal(-2)))
          CFI (cfiCond197) DPH0 load(1, XDATA, add(CFA_XSP16, literal(-1)))
          CFI (cfiCond197) CFA_SP SP+-4
          CFI (cfiCond197) CFA_XSP16 add(XSP16, 20)
          CFI Block cfiCond198 Using cfiCommon0
          CFI (cfiCond198) Function ZDSecMgrDeviceJoin
          CFI (cfiCond198) Conditional ??CrossCallReturnLabel_132, ??CrossCallReturnLabel_120
          CFI (cfiCond198) R6 load(1, XDATA, add(CFA_XSP16, literal(-13)))
          CFI (cfiCond198) VB load(1, XDATA, add(CFA_XSP16, literal(-12)))
          CFI (cfiCond198) V0 load(1, XDATA, add(CFA_XSP16, literal(-11)))
          CFI (cfiCond198) V1 load(1, XDATA, add(CFA_XSP16, literal(-10)))
          CFI (cfiCond198) V2 load(1, XDATA, add(CFA_XSP16, literal(-9)))
          CFI (cfiCond198) V3 load(1, XDATA, add(CFA_XSP16, literal(-8)))
          CFI (cfiCond198) V4 load(1, XDATA, add(CFA_XSP16, literal(-7)))
          CFI (cfiCond198) R7 load(1, XDATA, add(CFA_XSP16, literal(-6)))
          CFI (cfiCond198) ?RET_LOW load(1, XDATA, add(CFA_XSP16, literal(-5)))
          CFI (cfiCond198) ?RET_HIGH load(1, XDATA, add(CFA_XSP16, literal(-4)))
          CFI (cfiCond198) ?BRET_EXT load(1, XDATA, add(CFA_XSP16, literal(-3)))
          CFI (cfiCond198) DPL0 load(1, XDATA, add(CFA_XSP16, literal(-2)))
          CFI (cfiCond198) DPH0 load(1, XDATA, add(CFA_XSP16, literal(-1)))
          CFI (cfiCond198) CFA_SP SP+-4
          CFI (cfiCond198) CFA_XSP16 add(XSP16, 38)
          CFI Block cfiCond199 Using cfiCommon0
          CFI (cfiCond199) Function ZDSecMgrNewDeviceEvent
          CFI (cfiCond199) Conditional ??CrossCallReturnLabel_132, ??CrossCallReturnLabel_121
          CFI (cfiCond199) R6 load(1, XDATA, add(CFA_XSP16, literal(-14)))
          CFI (cfiCond199) VB load(1, XDATA, add(CFA_XSP16, literal(-13)))
          CFI (cfiCond199) V0 load(1, XDATA, add(CFA_XSP16, literal(-12)))
          CFI (cfiCond199) V1 load(1, XDATA, add(CFA_XSP16, literal(-11)))
          CFI (cfiCond199) V2 load(1, XDATA, add(CFA_XSP16, literal(-10)))
          CFI (cfiCond199) V3 load(1, XDATA, add(CFA_XSP16, literal(-9)))
          CFI (cfiCond199) V4 load(1, XDATA, add(CFA_XSP16, literal(-8)))
          CFI (cfiCond199) V5 load(1, XDATA, add(CFA_XSP16, literal(-7)))
          CFI (cfiCond199) R7 load(1, XDATA, add(CFA_XSP16, literal(-6)))
          CFI (cfiCond199) ?RET_LOW load(1, XDATA, add(CFA_XSP16, literal(-5)))
          CFI (cfiCond199) ?RET_HIGH load(1, XDATA, add(CFA_XSP16, literal(-4)))
          CFI (cfiCond199) ?BRET_EXT load(1, XDATA, add(CFA_XSP16, literal(-3)))
          CFI (cfiCond199) DPL0 load(1, XDATA, add(CFA_XSP16, literal(-2)))
          CFI (cfiCond199) DPH0 load(1, XDATA, add(CFA_XSP16, literal(-1)))
          CFI (cfiCond199) CFA_SP SP+-4
          CFI (cfiCond199) CFA_XSP16 add(XSP16, 35)
          CFI Block cfiCond200 Using cfiCommon0
          CFI (cfiCond200) Function APSME_LinkKeySet
          CFI (cfiCond200) Conditional ??CrossCallReturnLabel_132, ??CrossCallReturnLabel_122
          CFI (cfiCond200) R6 load(1, XDATA, add(CFA_XSP16, literal(-19)))
          CFI (cfiCond200) VB load(1, XDATA, add(CFA_XSP16, literal(-18)))
          CFI (cfiCond200) V0 load(1, XDATA, add(CFA_XSP16, literal(-17)))
          CFI (cfiCond200) V1 load(1, XDATA, add(CFA_XSP16, literal(-16)))
          CFI (cfiCond200) V2 load(1, XDATA, add(CFA_XSP16, literal(-15)))
          CFI (cfiCond200) V3 load(1, XDATA, add(CFA_XSP16, literal(-14)))
          CFI (cfiCond200) V4 load(1, XDATA, add(CFA_XSP16, literal(-13)))
          CFI (cfiCond200) V5 load(1, XDATA, add(CFA_XSP16, literal(-12)))
          CFI (cfiCond200) V6 load(1, XDATA, add(CFA_XSP16, literal(-11)))
          CFI (cfiCond200) V7 load(1, XDATA, add(CFA_XSP16, literal(-10)))
          CFI (cfiCond200) V8 load(1, XDATA, add(CFA_XSP16, literal(-9)))
          CFI (cfiCond200) V9 load(1, XDATA, add(CFA_XSP16, literal(-8)))
          CFI (cfiCond200) V10 load(1, XDATA, add(CFA_XSP16, literal(-7)))
          CFI (cfiCond200) R7 load(1, XDATA, add(CFA_XSP16, literal(-6)))
          CFI (cfiCond200) ?RET_LOW load(1, XDATA, add(CFA_XSP16, literal(-5)))
          CFI (cfiCond200) ?RET_HIGH load(1, XDATA, add(CFA_XSP16, literal(-4)))
          CFI (cfiCond200) ?BRET_EXT load(1, XDATA, add(CFA_XSP16, literal(-3)))
          CFI (cfiCond200) DPL0 load(1, XDATA, add(CFA_XSP16, literal(-2)))
          CFI (cfiCond200) DPH0 load(1, XDATA, add(CFA_XSP16, literal(-1)))
          CFI (cfiCond200) CFA_SP SP+-4
          CFI (cfiCond200) CFA_XSP16 add(XSP16, 32)
          CFI Block cfiCond201 Using cfiCommon0
          CFI (cfiCond201) Function ZDSecMgrAPSRemove
          CFI (cfiCond201) Conditional ??CrossCallReturnLabel_132, ??CrossCallReturnLabel_123
          CFI (cfiCond201) DPL0 Frame(CFA_SP, 4)
          CFI (cfiCond201) DPH0 Frame(CFA_SP, 5)
          CFI (cfiCond201) CFA_SP SP+-9
          CFI (cfiCond201) CFA_XSP16 add(XSP16, 8)
          CFI Block cfiCond202 Using cfiCommon0
          CFI (cfiCond202) Function ZDSecMgrDeviceJoinFwd
          CFI (cfiCond202) Conditional ??CrossCallReturnLabel_126, ??CrossCallReturnLabel_0
          CFI (cfiCond202) R6 load(1, XDATA, add(CFA_XSP16, literal(-10)))
          CFI (cfiCond202) VB load(1, XDATA, add(CFA_XSP16, literal(-9)))
          CFI (cfiCond202) V0 load(1, XDATA, add(CFA_XSP16, literal(-8)))
          CFI (cfiCond202) V1 load(1, XDATA, add(CFA_XSP16, literal(-7)))
          CFI (cfiCond202) R7 load(1, XDATA, add(CFA_XSP16, literal(-6)))
          CFI (cfiCond202) ?RET_LOW load(1, XDATA, add(CFA_XSP16, literal(-5)))
          CFI (cfiCond202) ?RET_HIGH load(1, XDATA, add(CFA_XSP16, literal(-4)))
          CFI (cfiCond202) ?BRET_EXT load(1, XDATA, add(CFA_XSP16, literal(-3)))
          CFI (cfiCond202) DPL0 load(1, XDATA, add(CFA_XSP16, literal(-2)))
          CFI (cfiCond202) DPH0 load(1, XDATA, add(CFA_XSP16, literal(-1)))
          CFI (cfiCond202) CFA_SP SP+-4
          CFI (cfiCond202) CFA_XSP16 add(XSP16, 18)
          CFI Block cfiCond203 Using cfiCommon0
          CFI (cfiCond203) Function ZDSecMgrUpdateDeviceInd
          CFI (cfiCond203) Conditional ??CrossCallReturnLabel_126, ??CrossCallReturnLabel_1
          CFI (cfiCond203) DPL0 Frame(CFA_SP, 4)
          CFI (cfiCond203) DPH0 Frame(CFA_SP, 5)
          CFI (cfiCond203) CFA_SP SP+-9
          CFI (cfiCond203) CFA_XSP16 add(XSP16, 8)
          CFI Block cfiPicker204 Using cfiCommon1
          CFI (cfiPicker204) NoFunction
          CFI (cfiPicker204) Picker
        MOVX    A,@DPTR
        MOV     R0,A
        INC     DPTR
        MOVX    A,@DPTR
        MOV     R1,A
        RET
          CFI (cfiCond182) CFA_SP SP+-2
          CFI (cfiCond183) CFA_SP SP+-2
          CFI (cfiCond184) CFA_SP SP+-2
          CFI (cfiCond185) CFA_SP SP+-2
          CFI (cfiCond186) CFA_SP SP+-2
          CFI (cfiCond187) CFA_SP SP+-2
          CFI (cfiCond188) CFA_SP SP+-7
          CFI (cfiCond189) CFA_SP SP+-2
          CFI (cfiCond190) CFA_SP SP+-2
          CFI (cfiCond191) CFA_SP SP+-2
          CFI (cfiCond192) CFA_SP SP+-2
          CFI (cfiCond193) CFA_SP SP+-2
          CFI (cfiCond194) CFA_SP SP+-2
          CFI (cfiCond195) CFA_SP SP+-2
          CFI (cfiCond196) CFA_SP SP+-2
          CFI (cfiCond197) CFA_SP SP+-2
          CFI (cfiCond198) CFA_SP SP+-2
          CFI (cfiCond199) CFA_SP SP+-2
          CFI (cfiCond200) CFA_SP SP+-2
          CFI (cfiCond201) CFA_SP SP+-7
          CFI (cfiCond202) CFA_SP SP+-2
          CFI (cfiCond203) CFA_SP SP+-7
          CFI (cfiPicker204) CFA_SP SP+0
          CFI EndBlock cfiCond182
          CFI EndBlock cfiCond183
          CFI EndBlock cfiCond184
          CFI EndBlock cfiCond185
          CFI EndBlock cfiCond186
          CFI EndBlock cfiCond187
          CFI EndBlock cfiCond188
          CFI EndBlock cfiCond189
          CFI EndBlock cfiCond190
          CFI EndBlock cfiCond191
          CFI EndBlock cfiCond192
          CFI EndBlock cfiCond193
          CFI EndBlock cfiCond194
          CFI EndBlock cfiCond195
          CFI EndBlock cfiCond196
          CFI EndBlock cfiCond197
          CFI EndBlock cfiCond198
          CFI EndBlock cfiCond199
          CFI EndBlock cfiCond200
          CFI EndBlock cfiCond201
          CFI EndBlock cfiCond202
          CFI EndBlock cfiCond203
          CFI EndBlock cfiPicker204
// 1605 
// 1606 /******************************************************************************
// 1607  * @fn          ZDSecMgrTCExtAddrCheck
// 1608  *
// 1609  * @brief       Verifies if received ext. address matches TC ext. address.
// 1610  *
// 1611  * @param       extAddr - Extended address to be verified.
// 1612  *
// 1613  * @return      TRUE - extended address matches
// 1614  *              FALSE - otherwise
// 1615  */

        RSEG BANKED_CODE:CODE:NOROOT(0)
// 1616 uint8 ZDSecMgrTCExtAddrCheck( uint8* extAddr )
ZDSecMgrTCExtAddrCheck:
          CFI Block cfiBlock205 Using cfiCommon0
          CFI Function ZDSecMgrTCExtAddrCheck
        CODE
// 1617 {
        FUNCALL ZDSecMgrTCExtAddrCheck, APSME_GetRequest
        LOCFRAME ISTACK, 0, STACK
        LOCFRAME PSTACK, 0, STACK
        LOCFRAME XSTACK, 17, STACK
        LOCFRAME IOVERLAY, 0, STATIC
        LOCFRAME DOVERLAY, 0, STATIC
        ARGFRAME ISTACK, 0, STACK
        ARGFRAME PSTACK, 0, STACK
        ARGFRAME XSTACK, 17, STACK
        ARGFRAME IOVERLAY, 0, STATIC
        ARGFRAME DOVERLAY, 0, STATIC
        FUNCALL ZDSecMgrTCExtAddrCheck, sAddrExtCmp
        LOCFRAME ISTACK, 0, STACK
        LOCFRAME PSTACK, 0, STACK
        LOCFRAME XSTACK, 17, STACK
        LOCFRAME IOVERLAY, 0, STATIC
        LOCFRAME DOVERLAY, 0, STATIC
        ARGFRAME ISTACK, 0, STACK
        ARGFRAME PSTACK, 0, STACK
        ARGFRAME XSTACK, 17, STACK
        ARGFRAME IOVERLAY, 0, STATIC
        ARGFRAME DOVERLAY, 0, STATIC
        MOV     A,#-0x9
        LCALL   ?BANKED_ENTER_XDATA
          CFI DPH0 load(1, XDATA, add(CFA_XSP16, literal(-1)))
          CFI DPL0 load(1, XDATA, add(CFA_XSP16, literal(-2)))
          CFI ?BRET_EXT load(1, XDATA, add(CFA_XSP16, literal(-3)))
          CFI ?RET_HIGH load(1, XDATA, add(CFA_XSP16, literal(-4)))
          CFI ?RET_LOW load(1, XDATA, add(CFA_XSP16, literal(-5)))
          CFI R7 load(1, XDATA, add(CFA_XSP16, literal(-6)))
          CFI V0 load(1, XDATA, add(CFA_XSP16, literal(-7)))
          CFI VB load(1, XDATA, add(CFA_XSP16, literal(-8)))
          CFI R6 load(1, XDATA, add(CFA_XSP16, literal(-9)))
          CFI CFA_SP SP+0
          CFI CFA_XSP16 add(XSP16, 9)
        ; Saved register size: 9
        ; Auto size: 8
        MOV     A,#-0x8
        LCALL   ?ALLOC_XSTACK8
          CFI CFA_XSP16 add(XSP16, 17)
        MOV     A,R2
        MOV     R6,A
        MOV     A,R3
        MOV     R7,A
// 1618   uint8  lookup[Z_EXTADDR_LEN];
// 1619   APSME_GetRequest( apsTrustCenterAddress, 0, lookup );
        ; Setup parameters for call to function APSME_GetRequest
        MOV     R4,?XSP + 0
        MOV     R5,?XSP + 1
        MOV     R2,#0x0
        MOV     R3,#0x0
        MOV     R1,#-0x55
        LCALL   `??APSME_GetRequest::?relay`; Banked call to: APSME_GetRequest
// 1620   return osal_ExtAddrEqual( extAddr, lookup );
        ; Setup parameters for call to function sAddrExtCmp
        MOV     R4,?XSP + 0
        MOV     R5,?XSP + 1
        MOV     A,R6
        MOV     R2,A
        MOV     A,R7
        MOV     R3,A
        LCALL   `??sAddrExtCmp::?relay`; Banked call to: sAddrExtCmp
          CFI EndBlock cfiBlock205
        REQUIRE ?Subroutine6
        ; // Fall through to label ?Subroutine6
// 1621 }

        RSEG BANKED_CODE:CODE:NOROOT(0)
?Subroutine6:
          CFI Block cfiBlock206 Using cfiCommon0
          CFI NoFunction
          CFI CFA_SP SP+0
          CFI CFA_XSP16 add(XSP16, 17)
          CFI VB load(1, XDATA, add(CFA_XSP16, literal(-8)))
          CFI DPL0 load(1, XDATA, add(CFA_XSP16, literal(-2)))
          CFI DPH0 load(1, XDATA, add(CFA_XSP16, literal(-1)))
          CFI R6 load(1, XDATA, add(CFA_XSP16, literal(-9)))
          CFI R7 load(1, XDATA, add(CFA_XSP16, literal(-6)))
          CFI V0 load(1, XDATA, add(CFA_XSP16, literal(-7)))
          CFI ?BRET_EXT load(1, XDATA, add(CFA_XSP16, literal(-3)))
          CFI ?RET_HIGH load(1, XDATA, add(CFA_XSP16, literal(-4)))
          CFI ?RET_LOW load(1, XDATA, add(CFA_XSP16, literal(-5)))
        MOV     A,#0x8
        SJMP    ??Subroutine62_0
          CFI EndBlock cfiBlock206

        RSEG BANKED_CODE:CODE:NOROOT(0)
?Subroutine0:
          CFI Block cfiBlock207 Using cfiCommon0
          CFI NoFunction
          CFI CFA_SP SP+0
          CFI CFA_XSP16 add(XSP16, 22)
          CFI VB load(1, XDATA, add(CFA_XSP16, literal(-8)))
          CFI DPL0 load(1, XDATA, add(CFA_XSP16, literal(-2)))
          CFI DPH0 load(1, XDATA, add(CFA_XSP16, literal(-1)))
          CFI R6 load(1, XDATA, add(CFA_XSP16, literal(-9)))
          CFI R7 load(1, XDATA, add(CFA_XSP16, literal(-6)))
          CFI V0 load(1, XDATA, add(CFA_XSP16, literal(-7)))
          CFI ?BRET_EXT load(1, XDATA, add(CFA_XSP16, literal(-3)))
          CFI ?RET_HIGH load(1, XDATA, add(CFA_XSP16, literal(-4)))
          CFI ?RET_LOW load(1, XDATA, add(CFA_XSP16, literal(-5)))
        MOV     A,R6
        MOV     R1,A
          CFI EndBlock cfiBlock207
        REQUIRE ??Subroutine61_0
        ; // Fall through to label ??Subroutine61_0

        RSEG BANKED_CODE:CODE:NOROOT(0)
??Subroutine61_0:
          CFI Block cfiBlock208 Using cfiCommon0
          CFI NoFunction
          CFI CFA_SP SP+0
          CFI CFA_XSP16 add(XSP16, 22)
          CFI VB load(1, XDATA, add(CFA_XSP16, literal(-8)))
          CFI DPL0 load(1, XDATA, add(CFA_XSP16, literal(-2)))
          CFI DPH0 load(1, XDATA, add(CFA_XSP16, literal(-1)))
          CFI R6 load(1, XDATA, add(CFA_XSP16, literal(-9)))
          CFI R7 load(1, XDATA, add(CFA_XSP16, literal(-6)))
          CFI V0 load(1, XDATA, add(CFA_XSP16, literal(-7)))
          CFI ?BRET_EXT load(1, XDATA, add(CFA_XSP16, literal(-3)))
          CFI ?RET_HIGH load(1, XDATA, add(CFA_XSP16, literal(-4)))
          CFI ?RET_LOW load(1, XDATA, add(CFA_XSP16, literal(-5)))
        MOV     A,#0xd
          CFI EndBlock cfiBlock208
        REQUIRE ??Subroutine62_0
        ; // Fall through to label ??Subroutine62_0

        RSEG BANKED_CODE:CODE:NOROOT(0)
??Subroutine62_0:
          CFI Block cfiBlock209 Using cfiCommon0
          CFI NoFunction
          CFI CFA_SP SP+0
          CFI CFA_XSP16 add(XSP16, 35)
          CFI VB load(1, XDATA, add(CFA_XSP16, literal(-8)))
          CFI DPL0 load(1, XDATA, add(CFA_XSP16, literal(-2)))
          CFI DPH0 load(1, XDATA, add(CFA_XSP16, literal(-1)))
          CFI R6 load(1, XDATA, add(CFA_XSP16, literal(-9)))
          CFI R7 load(1, XDATA, add(CFA_XSP16, literal(-6)))
          CFI V0 load(1, XDATA, add(CFA_XSP16, literal(-7)))
          CFI ?BRET_EXT load(1, XDATA, add(CFA_XSP16, literal(-3)))
          CFI ?RET_HIGH load(1, XDATA, add(CFA_XSP16, literal(-4)))
          CFI ?RET_LOW load(1, XDATA, add(CFA_XSP16, literal(-5)))
          CFI Invalid
        LCALL   ?DEALLOC_XSTACK8
          CFI CFA_XSP16 add(XSP16, 9)
          CFI Valid
          CFI EndBlock cfiBlock209
        REQUIRE ??Subroutine63_0
        ; // Fall through to label ??Subroutine63_0

        RSEG BANKED_CODE:CODE:NOROOT(0)
??Subroutine63_0:
          CFI Block cfiBlock210 Using cfiCommon0
          CFI NoFunction
          CFI CFA_SP SP+0
          CFI CFA_XSP16 add(XSP16, 9)
          CFI VB load(1, XDATA, add(CFA_XSP16, literal(-8)))
          CFI DPL0 load(1, XDATA, add(CFA_XSP16, literal(-2)))
          CFI DPH0 load(1, XDATA, add(CFA_XSP16, literal(-1)))
          CFI R6 load(1, XDATA, add(CFA_XSP16, literal(-9)))
          CFI R7 load(1, XDATA, add(CFA_XSP16, literal(-6)))
          CFI V0 load(1, XDATA, add(CFA_XSP16, literal(-7)))
          CFI ?BRET_EXT load(1, XDATA, add(CFA_XSP16, literal(-3)))
          CFI ?RET_HIGH load(1, XDATA, add(CFA_XSP16, literal(-4)))
          CFI ?RET_LOW load(1, XDATA, add(CFA_XSP16, literal(-5)))
        MOV     R7,#0x1
        LJMP    ?BANKED_LEAVE_XDATA
          CFI CFA_SP SP+-3
          CFI CFA_XSP16 XSP16+0
          CFI VB SameValue
          CFI DPL0 SameValue
          CFI DPH0 SameValue
          CFI R6 SameValue
          CFI R7 SameValue
          CFI V0 SameValue
          CFI ?BRET_EXT Frame(CFA_SP, 3)
          CFI ?RET_HIGH Frame(CFA_SP, 2)
          CFI ?RET_LOW Frame(CFA_SP, 1)
          CFI EndBlock cfiBlock210
// 1622 
// 1623 /******************************************************************************
// 1624  * @fn          ZDSecMgrTCDataLoad
// 1625  *
// 1626  * @brief       Stores the address of TC into address manager.
// 1627  *
// 1628  * @param       extAddr - Extended address to be verified.
// 1629  *
// 1630  * @return      none
// 1631  */

        RSEG BANKED_CODE:CODE:NOROOT(0)
// 1632 void ZDSecMgrTCDataLoad( uint8* extAddr )
ZDSecMgrTCDataLoad:
          CFI Block cfiBlock211 Using cfiCommon0
          CFI Function ZDSecMgrTCDataLoad
        CODE
// 1633 {
        FUNCALL ZDSecMgrTCDataLoad, sAddrExtCpy
        LOCFRAME ISTACK, 0, STACK
        LOCFRAME PSTACK, 0, STACK
        LOCFRAME XSTACK, 35, STACK
        LOCFRAME IOVERLAY, 0, STATIC
        LOCFRAME DOVERLAY, 0, STATIC
        ARGFRAME ISTACK, 0, STACK
        ARGFRAME PSTACK, 0, STACK
        ARGFRAME XSTACK, 35, STACK
        ARGFRAME IOVERLAY, 0, STATIC
        ARGFRAME DOVERLAY, 0, STATIC
        FUNCALL ZDSecMgrTCDataLoad, APSME_IsDistributedSecurity
        LOCFRAME ISTACK, 0, STACK
        LOCFRAME PSTACK, 0, STACK
        LOCFRAME XSTACK, 35, STACK
        LOCFRAME IOVERLAY, 0, STATIC
        LOCFRAME DOVERLAY, 0, STATIC
        ARGFRAME ISTACK, 0, STACK
        ARGFRAME PSTACK, 0, STACK
        ARGFRAME XSTACK, 35, STACK
        ARGFRAME IOVERLAY, 0, STATIC
        ARGFRAME DOVERLAY, 0, STATIC
        FUNCALL ZDSecMgrTCDataLoad, AddrMgrEntryLookupExt
        LOCFRAME ISTACK, 0, STACK
        LOCFRAME PSTACK, 0, STACK
        LOCFRAME XSTACK, 35, STACK
        LOCFRAME IOVERLAY, 0, STATIC
        LOCFRAME DOVERLAY, 0, STATIC
        ARGFRAME ISTACK, 0, STACK
        ARGFRAME PSTACK, 0, STACK
        ARGFRAME XSTACK, 35, STACK
        ARGFRAME IOVERLAY, 0, STATIC
        ARGFRAME DOVERLAY, 0, STATIC
        FUNCALL ZDSecMgrTCDataLoad, AddrMgrExtAddrSet
        LOCFRAME ISTACK, 0, STACK
        LOCFRAME PSTACK, 0, STACK
        LOCFRAME XSTACK, 35, STACK
        LOCFRAME IOVERLAY, 0, STATIC
        LOCFRAME DOVERLAY, 0, STATIC
        ARGFRAME ISTACK, 0, STACK
        ARGFRAME PSTACK, 0, STACK
        ARGFRAME XSTACK, 35, STACK
        ARGFRAME IOVERLAY, 0, STATIC
        ARGFRAME DOVERLAY, 0, STATIC
        FUNCALL ZDSecMgrTCDataLoad, AddrMgrEntryUpdate
        LOCFRAME ISTACK, 0, STACK
        LOCFRAME PSTACK, 0, STACK
        LOCFRAME XSTACK, 35, STACK
        LOCFRAME IOVERLAY, 0, STATIC
        LOCFRAME DOVERLAY, 0, STATIC
        ARGFRAME ISTACK, 0, STACK
        ARGFRAME PSTACK, 0, STACK
        ARGFRAME XSTACK, 35, STACK
        ARGFRAME IOVERLAY, 0, STATIC
        ARGFRAME DOVERLAY, 0, STATIC
        MOV     A,#-0x9
        LCALL   ?BANKED_ENTER_XDATA
          CFI DPH0 load(1, XDATA, add(CFA_XSP16, literal(-1)))
          CFI DPL0 load(1, XDATA, add(CFA_XSP16, literal(-2)))
          CFI ?BRET_EXT load(1, XDATA, add(CFA_XSP16, literal(-3)))
          CFI ?RET_HIGH load(1, XDATA, add(CFA_XSP16, literal(-4)))
          CFI ?RET_LOW load(1, XDATA, add(CFA_XSP16, literal(-5)))
          CFI R7 load(1, XDATA, add(CFA_XSP16, literal(-6)))
          CFI V0 load(1, XDATA, add(CFA_XSP16, literal(-7)))
          CFI VB load(1, XDATA, add(CFA_XSP16, literal(-8)))
          CFI R6 load(1, XDATA, add(CFA_XSP16, literal(-9)))
          CFI CFA_SP SP+0
          CFI CFA_XSP16 add(XSP16, 9)
        ; Saved register size: 9
        ; Auto size: 26
        MOV     A,#-0x1a
        LCALL   ?ALLOC_XSTACK8
          CFI CFA_XSP16 add(XSP16, 35)
        MOV     A,R2
        MOV     R6,A
        MOV     A,R3
        MOV     R7,A
// 1634   uint16 ami;
// 1635   AddrMgrEntry_t entry;
// 1636 
// 1637   // lookup using TC short address
// 1638   entry.user    = ADDRMGR_USER_DEFAULT;
        MOV     A,#0xd
        LCALL   ?XSTACK_DISP0_8
        CLR     A
        MOVX    @DPTR,A
// 1639   osal_cpyExtAddr( entry.extAddr, extAddr );
        ; Setup parameters for call to function sAddrExtCpy
        MOV     A,R6
        MOV     R4,A
        MOV     A,R7
        MOV     R5,A
        MOV     A,#0x10
        LCALL   ?XSTACK_DISP0_8
        MOV     R2,DPL
        MOV     R3,DPH
        LCALL   `??sAddrExtCpy::?relay`; Banked call to: sAddrExtCpy
// 1640 
// 1641   // Verify if TC address has been added to Address Manager
// 1642   if ( !APSME_IsDistributedSecurity() && ( AddrMgrEntryLookupExt( &entry ) != TRUE ) )
        ; Setup parameters for call to function APSME_IsDistributedSecurity
        LCALL   `??APSME_IsDistributedSecurity::?relay`; Banked call to: APSME_IsDistributedSecurity
        MOV     A,R1
        JNZ     ??ZDSecMgrTCDataLoad_0
        ; Setup parameters for call to function AddrMgrEntryLookupExt
        MOV     A,#0xd
        LCALL   ?XSTACK_DISP101_8
        LCALL   `??AddrMgrEntryLookupExt::?relay`; Banked call to: AddrMgrEntryLookupExt
        MOV     A,R1
        XRL     A,#0x1
        JZ      ??ZDSecMgrTCDataLoad_0
// 1643   {
// 1644     ZDSecMgrAddrStore( APSME_TRUSTCENTER_NWKADDR, extAddr, &ami );
        MOV     DPL,?XSP + 0
        MOV     DPH,?XSP + 1
        MOV     A,#0x2
        MOVX    @DPTR,A
        DEC     A
        LCALL   ?XSTACK_DISP0_8
        CLR     A
        MOVX    @DPTR,A
        INC     DPTR
        MOVX    @DPTR,A
        ; Setup parameters for call to function AddrMgrExtAddrSet
        MOV     A,R6
        MOV     R4,A
        MOV     A,R7
        MOV     R5,A
        MOV     A,#0x3
        LCALL   ?XSTACK_DISP0_8
        MOV     R2,DPL
        MOV     R3,DPH
        LCALL   `??AddrMgrExtAddrSet::?relay`; Banked call to: AddrMgrExtAddrSet
        ; Setup parameters for call to function AddrMgrEntryUpdate
        MOV     R2,?XSP + 0
        MOV     R3,?XSP + 1
        LCALL   `??AddrMgrEntryUpdate::?relay`; Banked call to: AddrMgrEntryUpdate
// 1645   }
// 1646 }
??ZDSecMgrTCDataLoad_0:
          CFI EndBlock cfiBlock211
        REQUIRE ?Subroutine5
        ; // Fall through to label ?Subroutine5

        RSEG BANKED_CODE:CODE:NOROOT(0)
?Subroutine5:
          CFI Block cfiBlock212 Using cfiCommon0
          CFI NoFunction
          CFI CFA_SP SP+0
          CFI CFA_XSP16 add(XSP16, 35)
          CFI VB load(1, XDATA, add(CFA_XSP16, literal(-8)))
          CFI DPL0 load(1, XDATA, add(CFA_XSP16, literal(-2)))
          CFI DPH0 load(1, XDATA, add(CFA_XSP16, literal(-1)))
          CFI R6 load(1, XDATA, add(CFA_XSP16, literal(-9)))
          CFI R7 load(1, XDATA, add(CFA_XSP16, literal(-6)))
          CFI V0 load(1, XDATA, add(CFA_XSP16, literal(-7)))
          CFI ?BRET_EXT load(1, XDATA, add(CFA_XSP16, literal(-3)))
          CFI ?RET_HIGH load(1, XDATA, add(CFA_XSP16, literal(-4)))
          CFI ?RET_LOW load(1, XDATA, add(CFA_XSP16, literal(-5)))
        MOV     A,#0x1a
        SJMP    ??Subroutine62_0
          CFI EndBlock cfiBlock212
// 1647 
// 1648 /******************************************************************************
// 1649  * @fn          ZDSecMgrTransportKeyInd
// 1650  *
// 1651  * @brief       Process the ZDO_TransportKeyInd_t message.
// 1652  *
// 1653  * @param       ind - [in] ZDO_TransportKeyInd_t indication
// 1654  *
// 1655  * @return      none
// 1656  */

        RSEG BANKED_CODE:CODE:NOROOT(0)
// 1657 void ZDSecMgrTransportKeyInd( ZDO_TransportKeyInd_t* ind )
ZDSecMgrTransportKeyInd:
          CFI Block cfiBlock213 Using cfiCommon0
          CFI Function ZDSecMgrTransportKeyInd
        CODE
// 1658 {
        FUNCALL ZDSecMgrTransportKeyInd, APSME_SetRequest
        LOCFRAME ISTACK, 0, STACK
        LOCFRAME PSTACK, 0, STACK
        LOCFRAME XSTACK, 36, STACK
        LOCFRAME IOVERLAY, 0, STATIC
        LOCFRAME DOVERLAY, 0, STATIC
        ARGFRAME ISTACK, 0, STACK
        ARGFRAME PSTACK, 0, STACK
        ARGFRAME XSTACK, 36, STACK
        ARGFRAME IOVERLAY, 0, STATIC
        ARGFRAME DOVERLAY, 0, STATIC
        FUNCALL ZDSecMgrTransportKeyInd, osal_isbufset
        LOCFRAME ISTACK, 0, STACK
        LOCFRAME PSTACK, 0, STACK
        LOCFRAME XSTACK, 36, STACK
        LOCFRAME IOVERLAY, 0, STATIC
        LOCFRAME DOVERLAY, 0, STATIC
        ARGFRAME ISTACK, 0, STACK
        ARGFRAME PSTACK, 0, STACK
        ARGFRAME XSTACK, 36, STACK
        ARGFRAME IOVERLAY, 0, STATIC
        ARGFRAME DOVERLAY, 0, STATIC
        FUNCALL ZDSecMgrTransportKeyInd, ZDSecMgrTCDataLoad
        LOCFRAME ISTACK, 0, STACK
        LOCFRAME PSTACK, 0, STACK
        LOCFRAME XSTACK, 36, STACK
        LOCFRAME IOVERLAY, 0, STATIC
        LOCFRAME DOVERLAY, 0, STATIC
        ARGFRAME ISTACK, 0, STACK
        ARGFRAME PSTACK, 0, STACK
        ARGFRAME XSTACK, 36, STACK
        ARGFRAME IOVERLAY, 0, STATIC
        ARGFRAME DOVERLAY, 0, STATIC
        FUNCALL ZDSecMgrTransportKeyInd, osal_nv_read
        LOCFRAME ISTACK, 0, STACK
        LOCFRAME PSTACK, 0, STACK
        LOCFRAME XSTACK, 40, STACK
        LOCFRAME IOVERLAY, 0, STATIC
        LOCFRAME DOVERLAY, 0, STATIC
        ARGFRAME ISTACK, 0, STACK
        ARGFRAME PSTACK, 0, STACK
        ARGFRAME XSTACK, 40, STACK
        ARGFRAME IOVERLAY, 0, STATIC
        ARGFRAME DOVERLAY, 0, STATIC
        FUNCALL ZDSecMgrTransportKeyInd, SSP_UpdateNwkKey
        LOCFRAME ISTACK, 0, STACK
        LOCFRAME PSTACK, 0, STACK
        LOCFRAME XSTACK, 36, STACK
        LOCFRAME IOVERLAY, 0, STATIC
        LOCFRAME DOVERLAY, 0, STATIC
        ARGFRAME ISTACK, 0, STACK
        ARGFRAME PSTACK, 0, STACK
        ARGFRAME XSTACK, 36, STACK
        ARGFRAME IOVERLAY, 0, STATIC
        ARGFRAME DOVERLAY, 0, STATIC
        FUNCALL ZDSecMgrTransportKeyInd, SSP_SwitchNwkKey
        LOCFRAME ISTACK, 0, STACK
        LOCFRAME PSTACK, 0, STACK
        LOCFRAME XSTACK, 36, STACK
        LOCFRAME IOVERLAY, 0, STATIC
        LOCFRAME DOVERLAY, 0, STATIC
        ARGFRAME ISTACK, 0, STACK
        ARGFRAME PSTACK, 0, STACK
        ARGFRAME XSTACK, 36, STACK
        ARGFRAME IOVERLAY, 0, STATIC
        ARGFRAME DOVERLAY, 0, STATIC
        FUNCALL ZDSecMgrTransportKeyInd, osal_memset
        LOCFRAME ISTACK, 0, STACK
        LOCFRAME PSTACK, 0, STACK
        LOCFRAME XSTACK, 36, STACK
        LOCFRAME IOVERLAY, 0, STATIC
        LOCFRAME DOVERLAY, 0, STATIC
        ARGFRAME ISTACK, 0, STACK
        ARGFRAME PSTACK, 0, STACK
        ARGFRAME XSTACK, 36, STACK
        ARGFRAME IOVERLAY, 0, STATIC
        ARGFRAME DOVERLAY, 0, STATIC
        FUNCALL ZDSecMgrTransportKeyInd, SSP_UpdateNwkKey
        LOCFRAME ISTACK, 0, STACK
        LOCFRAME PSTACK, 0, STACK
        LOCFRAME XSTACK, 36, STACK
        LOCFRAME IOVERLAY, 0, STATIC
        LOCFRAME DOVERLAY, 0, STATIC
        ARGFRAME ISTACK, 0, STACK
        ARGFRAME PSTACK, 0, STACK
        ARGFRAME XSTACK, 36, STACK
        ARGFRAME IOVERLAY, 0, STATIC
        ARGFRAME DOVERLAY, 0, STATIC
        FUNCALL ZDSecMgrTransportKeyInd, SSP_SwitchNwkKey
        LOCFRAME ISTACK, 0, STACK
        LOCFRAME PSTACK, 0, STACK
        LOCFRAME XSTACK, 36, STACK
        LOCFRAME IOVERLAY, 0, STATIC
        LOCFRAME DOVERLAY, 0, STATIC
        ARGFRAME ISTACK, 0, STACK
        ARGFRAME PSTACK, 0, STACK
        ARGFRAME XSTACK, 36, STACK
        ARGFRAME IOVERLAY, 0, STATIC
        ARGFRAME DOVERLAY, 0, STATIC
        FUNCALL ZDSecMgrTransportKeyInd, osal_set_event
        LOCFRAME ISTACK, 0, STACK
        LOCFRAME PSTACK, 0, STACK
        LOCFRAME XSTACK, 36, STACK
        LOCFRAME IOVERLAY, 0, STATIC
        LOCFRAME DOVERLAY, 0, STATIC
        ARGFRAME ISTACK, 0, STACK
        ARGFRAME PSTACK, 0, STACK
        ARGFRAME XSTACK, 36, STACK
        ARGFRAME IOVERLAY, 0, STATIC
        ARGFRAME DOVERLAY, 0, STATIC
        REQUIRE ?V0
        REQUIRE ?V1
        REQUIRE ?V2
        REQUIRE ?V3
        MOV     A,#-0xc
        LCALL   ?BANKED_ENTER_XDATA
          CFI DPH0 load(1, XDATA, add(CFA_XSP16, literal(-1)))
          CFI DPL0 load(1, XDATA, add(CFA_XSP16, literal(-2)))
          CFI ?BRET_EXT load(1, XDATA, add(CFA_XSP16, literal(-3)))
          CFI ?RET_HIGH load(1, XDATA, add(CFA_XSP16, literal(-4)))
          CFI ?RET_LOW load(1, XDATA, add(CFA_XSP16, literal(-5)))
          CFI R7 load(1, XDATA, add(CFA_XSP16, literal(-6)))
          CFI V3 load(1, XDATA, add(CFA_XSP16, literal(-7)))
          CFI V2 load(1, XDATA, add(CFA_XSP16, literal(-8)))
          CFI V1 load(1, XDATA, add(CFA_XSP16, literal(-9)))
          CFI V0 load(1, XDATA, add(CFA_XSP16, literal(-10)))
          CFI VB load(1, XDATA, add(CFA_XSP16, literal(-11)))
          CFI R6 load(1, XDATA, add(CFA_XSP16, literal(-12)))
          CFI CFA_SP SP+0
          CFI CFA_XSP16 add(XSP16, 12)
        ; Saved register size: 12
        ; Auto size: 24
        MOV     A,#-0x18
        LCALL   ?ALLOC_XSTACK8
          CFI CFA_XSP16 add(XSP16, 36)
        MOV     A,R2
        MOV     R6,A
        MOV     A,R3
        MOV     R7,A
// 1659   uint8 index;
// 1660   uint8 zgPreConfigKey[SEC_KEY_LEN];
// 1661 
// 1662   ZDSecMgrUpdateTCAddress( ind->srcExtAddr );
        MOV     A,R6
        ADD     A,#0x16
        MOV     ?V0,A
        CLR     A
        ADDC    A,R7
        MOV     ?V1,A
        MOV     R0,?V0
        MOV     R1,A
        MOV     DPTR,#`?<Constant {255, 255, 255, 255, 255, 255, 255,`
        MOV     R4,?XSP + 0
        MOV     R5,?XSP + 1
        MOV     A,#0x8
        LCALL   ?MOVE_LONG8_XDATA_XDATA
        MOV     A,R0
        ORL     A,R1
        JZ      ??ZDSecMgrTransportKeyInd_0
        MOV     A,R0
        MOV     R4,A
        MOV     A,R1
        MOV     R5,A
        SJMP    ??ZDSecMgrTransportKeyInd_1
??ZDSecMgrTransportKeyInd_0:
        MOV     R0,?XSP + 0
        MOV     R1,?XSP + 1
        MOV     ?V2,R0
        MOV     ?V3,R1
        MOV     R4,?V2
        MOV     R5,?V3
??ZDSecMgrTransportKeyInd_1:
        ; Setup parameters for call to function APSME_SetRequest
        MOV     R2,#0x0
        MOV     R3,#0x0
        MOV     R1,#-0x55
        LCALL   `??APSME_SetRequest::?relay`; Banked call to: APSME_SetRequest
// 1663   // check for distributed security
// 1664   if ( ( ZG_BUILD_RTR_TYPE ) && osal_isbufset( ind->srcExtAddr, 0xFF, Z_EXTADDR_LEN ) )
        ; Setup parameters for call to function osal_isbufset
        MOV     R4,#0x8
        MOV     R1,#-0x1
        MOV     R2,?V0
        MOV     R3,?V1
        LCALL   `??osal_isbufset::?relay`; Banked call to: osal_isbufset
        MOV     A,R1
        JZ      ??ZDSecMgrTransportKeyInd_2
// 1665   {
// 1666     ZDSecMgrPermitJoiningEnabled = TRUE;
        MOV     DPTR,#ZDSecMgrPermitJoiningEnabled
        MOV     A,#0x1
        MOVX    @DPTR,A
// 1667   }
// 1668 
// 1669   // load Trust Center data if needed
// 1670   ZDSecMgrTCDataLoad( ind->srcExtAddr );
??ZDSecMgrTransportKeyInd_2:
        ; Setup parameters for call to function ZDSecMgrTCDataLoad
        MOV     R2,?V0
        MOV     R3,?V1
        LCALL   `??ZDSecMgrTCDataLoad::?relay`; Banked call to: ZDSecMgrTCDataLoad
// 1671 
// 1672   if ( ( ind->keyType == KEY_TYPE_NWK ) ||
// 1673        ( ind->keyType == 6            ) )
        MOV     DPL,R6
        MOV     DPH,R7
        INC     DPTR
        INC     DPTR
        INC     DPTR
        INC     DPTR
        MOVX    A,@DPTR
        MOV     R0,A
        MOV     A,#0x1
        XRL     A,R0
        JZ      ??ZDSecMgrTransportKeyInd_3
        MOV     A,#0x6
        XRL     A,R0
        JZ      $+5
        LJMP    ??ZDSecMgrTransportKeyInd_4 & 0xFFFF
// 1674   {
// 1675     // check for dummy NWK key (all zeros)
// 1676     for ( index = 0;
??ZDSecMgrTransportKeyInd_3:
        MOV     R0,#0x0
        MOV     A,R6
        ADD     A,#0x6
        MOV     R2,A
        CLR     A
        ADDC    A,R7
        MOV     R3,A
        MOV     DPL,R2
        MOV     DPH,R3
??ZDSecMgrTransportKeyInd_5:
        MOVX    A,@DPTR
        JNZ     ??ZDSecMgrTransportKeyInd_6
// 1677           ( (index < SEC_KEY_LEN) && (ind->key[index] == 0) );
// 1678           index++ );
        INC     R0
        INC     DPTR
        MOV     A,R0
        CLR     C
        SUBB    A,#0x10
        JC      ??ZDSecMgrTransportKeyInd_5
// 1679 
// 1680     if ( index == SEC_KEY_LEN )
??ZDSecMgrTransportKeyInd_6:
        MOV     A,#0x10
        XRL     A,R0
        JNZ     ??ZDSecMgrTransportKeyInd_7
// 1681     {
// 1682       // load preconfigured key - once!!
// 1683       if ( !_NIB.nwkKeyLoaded )
        MOV     DPTR,#_NIB + 61
        MOVX    A,@DPTR
        JNZ     ??ZDSecMgrTransportKeyInd_8
// 1684       {
// 1685         ZDSecMgrReadKeyFromNv(ZCD_NV_PRECFGKEY, zgPreConfigKey);
        ; Setup parameters for call to function osal_nv_read
        MOV     A,#0x8
        LCALL   ?XSTACK_DISP100_8
        MOV     ?V0,R0
        MOV     ?V1,R1
        MOV     R0,#?V0
        LCALL   ?PUSH_XSTACK_I_TWO
          CFI CFA_XSP16 add(XSP16, 38)
        MOV     ?V0,#0x10
        MOV     ?V1,#0x0
        MOV     R0,#?V0
        LCALL   ?PUSH_XSTACK_I_TWO
          CFI CFA_XSP16 add(XSP16, 40)
        MOV     R4,#0x0
        MOV     R5,#0x0
        MOV     R2,#0x62
        MOV     R3,#0x0
        LCALL   `??osal_nv_read::?relay`; Banked call to: osal_nv_read
        MOV     A,#0x4
        LCALL   ?DEALLOC_XSTACK8
          CFI CFA_XSP16 add(XSP16, 36)
// 1686         SSP_UpdateNwkKey( zgPreConfigKey, 0 );
        ; Setup parameters for call to function SSP_UpdateNwkKey
        MOV     R1,#0x0
        MOV     A,#0x8
        LCALL   ?XSTACK_DISP101_8
        LCALL   `??SSP_UpdateNwkKey::?relay`; Banked call to: SSP_UpdateNwkKey
// 1687         SSP_SwitchNwkKey( 0 );
        ; Setup parameters for call to function SSP_SwitchNwkKey
        MOV     R1,#0x0
        LCALL   `??SSP_SwitchNwkKey::?relay`; Banked call to: SSP_SwitchNwkKey
// 1688 
// 1689         // clear local copy of key
// 1690         osal_memset(zgPreConfigKey, 0x00, SEC_KEY_LEN);
        ; Setup parameters for call to function osal_memset
        MOV     R4,#0x10
        MOV     R5,#0x0
        MOV     R1,#0x0
        MOV     A,#0x8
        LCALL   ?XSTACK_DISP101_8
        LCALL   `??osal_memset::?relay`; Banked call to: osal_memset
        SJMP    ??ZDSecMgrTransportKeyInd_8
// 1691       }
// 1692     }
// 1693     else
// 1694     {
// 1695       SSP_UpdateNwkKey( ind->key, ind->keySeqNum );
??ZDSecMgrTransportKeyInd_7:
        MOV     A,R6
        ADD     A,#0x5
        MOV     R0,A
        CLR     A
        ADDC    A,R7
        MOV     R1,A
        MOV     A,R0
        MOV     R6,A
        MOV     A,R1
        MOV     R7,A
        ; Setup parameters for call to function SSP_UpdateNwkKey
        MOV     DPL,R6
        MOV     DPH,R7
        MOVX    A,@DPTR
        MOV     R1,A
        LCALL   `??SSP_UpdateNwkKey::?relay`; Banked call to: SSP_UpdateNwkKey
// 1696       if ( !_NIB.nwkKeyLoaded )
        MOV     DPTR,#_NIB + 61
        MOVX    A,@DPTR
        JNZ     ??ZDSecMgrTransportKeyInd_8
// 1697       {
// 1698         SSP_SwitchNwkKey( ind->keySeqNum );
        ; Setup parameters for call to function SSP_SwitchNwkKey
        MOV     DPL,R6
        MOV     DPH,R7
        MOVX    A,@DPTR
        MOV     R1,A
        LCALL   `??SSP_SwitchNwkKey::?relay`; Banked call to: SSP_SwitchNwkKey
// 1699       }
// 1700     }
// 1701 
// 1702     // handle next step in authentication process
// 1703     ZDSecMgrAuthNwkKey();
??ZDSecMgrTransportKeyInd_8:
        MOV     DPTR,#devState
        MOVX    A,@DPTR
        XRL     A,#0x5
        JNZ     ??ZDSecMgrTransportKeyInd_4
        ; Setup parameters for call to function osal_set_event
        MOV     R2,#-0x80
        MOV     R3,#0x0
        MOV     DPTR,#ZDAppTaskID
        MOVX    A,@DPTR
        MOV     R1,A
        LCALL   `??osal_set_event::?relay`; Banked call to: osal_set_event
// 1704   }
// 1705   else if ( ind->keyType == KEY_TYPE_TC_LINK )
// 1706   {
// 1707     // This should not happen because TCLK should not be Tx
// 1708   }
// 1709   else if ( ind->keyType == KEY_TYPE_APP_LINK )
// 1710   {
// 1711     if ( ZG_CHECK_SECURITY_MODE == ZG_SECURITY_SE_STANDARD )
// 1712     {
// 1713       uint16           ami;
// 1714       ZDSecMgrEntry_t* entry;
// 1715 
// 1716       // get the address index
// 1717       if ( ZDSecMgrExtAddrLookup( ind->srcExtAddr, &ami ) != ZSuccess )
// 1718       {
// 1719         // store new EXT address
// 1720         ZDSecMgrAddrStore( INVALID_NODE_ADDR, ind->srcExtAddr, &ami );
// 1721         ZDP_NwkAddrReq( ind->srcExtAddr, ZDP_ADDR_REQTYPE_SINGLE, 0, 0 );
// 1722       }
// 1723 
// 1724       ZDSecMgrEntryLookupAMI( ami, &entry );
// 1725 
// 1726       if ( entry == NULL )
// 1727       {
// 1728         // get new entry
// 1729         if ( ZDSecMgrEntryNew( &entry ) == ZSuccess )
// 1730         {
// 1731           // finish setting up entry
// 1732           entry->ami = ami;
// 1733         }
// 1734       }
// 1735 
// 1736       ZDSecMgrLinkKeySet( ind->srcExtAddr, ind->key );
// 1737 
// 1738 #if defined NV_RESTORE
// 1739       ZDSecMgrWriteNV();  // Write the control record for the new established link key to NV.
// 1740 #endif
// 1741     }
// 1742   }
// 1743 }
??ZDSecMgrTransportKeyInd_4:
        LJMP    ?Subroutine4 & 0xFFFF
          CFI EndBlock cfiBlock213
// 1744 
// 1745 /******************************************************************************
// 1746  * @fn          ZDSecMgrUpdateDeviceInd
// 1747  *
// 1748  * @brief       Process the ZDO_UpdateDeviceInd_t message.
// 1749  *
// 1750  * @param       ind - [in] ZDO_UpdateDeviceInd_t indication
// 1751  *
// 1752  * @return      none
// 1753  */

        RSEG BANKED_CODE:CODE:NOROOT(0)
// 1754 void ZDSecMgrUpdateDeviceInd( ZDO_UpdateDeviceInd_t* ind )
ZDSecMgrUpdateDeviceInd:
          CFI Block cfiBlock214 Using cfiCommon0
          CFI Function ZDSecMgrUpdateDeviceInd
        CODE
// 1755 {
        FUNCALL ZDSecMgrUpdateDeviceInd, ZDSecMgrDeviceJoin
        LOCFRAME ISTACK, 2, STACK
        LOCFRAME PSTACK, 0, STACK
        LOCFRAME XSTACK, 8, STACK
        LOCFRAME IOVERLAY, 0, STATIC
        LOCFRAME DOVERLAY, 0, STATIC
        ARGFRAME ISTACK, 2, STACK
        ARGFRAME PSTACK, 0, STACK
        ARGFRAME XSTACK, 8, STACK
        ARGFRAME IOVERLAY, 0, STATIC
        ARGFRAME DOVERLAY, 0, STATIC
        PUSH    DPL
          CFI DPL0 Frame(CFA_SP, 4)
          CFI CFA_SP SP+-4
        PUSH    DPH
          CFI DPH0 Frame(CFA_SP, 5)
          CFI CFA_SP SP+-5
        ; Saved register size: 2
        ; Auto size: 8
        MOV     A,#-0x8
        LCALL   ?ALLOC_XSTACK8
          CFI CFA_XSP16 add(XSP16, 8)
// 1756   ZDSecMgrDevice_t device;
// 1757 
// 1758   device.nwkAddr    = ind->devAddr;
        MOV     A,R2
        ADD     A,#0xc
        MOV     DPL,A
        CLR     A
        ADDC    A,R3
        MOV     DPH,A
        LCALL   ?Subroutine22 & 0xFFFF
// 1759   device.extAddr    = ind->devExtAddr;
??CrossCallReturnLabel_110:
        MOV     A,R2
        ADD     A,#0x4
        MOV     R0,A
        CLR     A
        ADDC    A,R3
        MOV     R1,A
        MOV     A,#0x2
        LCALL   ?XSTACK_DISP0_8
        LCALL   ?Subroutine16 & 0xFFFF
// 1760   device.parentAddr = ind->srcAddr;
??CrossCallReturnLabel_1:
        LCALL   ?XSTACK_DISP0_8
        LCALL   ??Subroutine54_0 & 0xFFFF
// 1761   device.devStatus  = DEV_SEC_INIT_STATUS;
??CrossCallReturnLabel_106:
        MOV     A,#0x7
        LCALL   ?XSTACK_DISP0_8
        MOV     A,#0x4
        MOVX    @DPTR,A
// 1762   device.secure     = FALSE;
        MOV     A,#0x6
        LCALL   ?XSTACK_DISP0_8
        CLR     A
        MOVX    @DPTR,A
// 1763 
// 1764   // Trust Center should identify the type of JOIN/REJOIN and
// 1765   // Transport the NWK key accordingly, it will only be transported for:
// 1766   //              APSME_UD_STANDARD_UNSECURED_JOIN
// 1767   //   OR         APSME_UD_STANDARD_TRUST_CENTER_REJOIN
// 1768   if ( ind->status != APSME_UD_DEVICE_LEFT )
        MOV     A,R2
        ADD     A,#0xe
        MOV     DPL,A
        CLR     A
        ADDC    A,R3
        MOV     DPH,A
        MOVX    A,@DPTR
        MOV     R0,A
        MOV     A,#0x2
        XRL     A,R0
        JZ      ??ZDSecMgrUpdateDeviceInd_0
// 1769   {
// 1770     if ( ind->status == APSME_UD_STANDARD_SECURED_REJOIN )
        MOV     A,R0
        JNZ     ??ZDSecMgrUpdateDeviceInd_1
// 1771     {
// 1772       device.devStatus &= ~DEV_SEC_INIT_STATUS;
// 1773       device.devStatus |=  DEV_SEC_AUTH_STATUS;
        MOV     A,#0x7
        LCALL   ?XSTACK_DISP0_8
        MOV     A,#0x8
        MOVX    @DPTR,A
// 1774       device.secure = TRUE;
        MOV     A,#0x6
        LCALL   ?XSTACK_DISP0_8
        MOV     A,#0x1
        MOVX    @DPTR,A
// 1775     }
// 1776 
// 1777     ZDSecMgrDeviceJoin( &device );
??ZDSecMgrUpdateDeviceInd_1:
        ; Setup parameters for call to function ZDSecMgrDeviceJoin
        MOV     R2,?XSP + 0
        MOV     R3,?XSP + 1
        LCALL   `??ZDSecMgrDeviceJoin::?relay`; Banked call to: ZDSecMgrDeviceJoin
// 1778   }
// 1779 }
??ZDSecMgrUpdateDeviceInd_0:
          CFI EndBlock cfiBlock214
        REQUIRE ?Subroutine7
        ; // Fall through to label ?Subroutine7

        RSEG BANKED_CODE:CODE:NOROOT(0)
?Subroutine7:
          CFI Block cfiBlock215 Using cfiCommon0
          CFI NoFunction
          CFI CFA_SP SP+-5
          CFI CFA_XSP16 add(XSP16, 8)
          CFI DPL0 Frame(CFA_SP, 4)
          CFI DPH0 Frame(CFA_SP, 5)
        MOV     A,#0x8
          CFI EndBlock cfiBlock215
        REQUIRE ??Subroutine64_0
        ; // Fall through to label ??Subroutine64_0

        RSEG BANKED_CODE:CODE:NOROOT(0)
??Subroutine64_0:
          CFI Block cfiBlock216 Using cfiCommon0
          CFI NoFunction
          CFI CFA_SP SP+-5
          CFI CFA_XSP16 add(XSP16, 4)
          CFI DPL0 Frame(CFA_SP, 4)
          CFI DPH0 Frame(CFA_SP, 5)
          CFI Invalid
        LCALL   ?DEALLOC_XSTACK8
          CFI CFA_XSP16 XSP16+0
          CFI Valid
        LJMP    ??Subroutine58_0 & 0xFFFF
          CFI EndBlock cfiBlock216

        RSEG BANKED_CODE:CODE:NOROOT(0)
?Subroutine16:
          CFI Block cfiCond217 Using cfiCommon0
          CFI Function ZDSecMgrDeviceJoinFwd
          CFI Conditional ??CrossCallReturnLabel_0
          CFI R6 load(1, XDATA, add(CFA_XSP16, literal(-10)))
          CFI VB load(1, XDATA, add(CFA_XSP16, literal(-9)))
          CFI V0 load(1, XDATA, add(CFA_XSP16, literal(-8)))
          CFI V1 load(1, XDATA, add(CFA_XSP16, literal(-7)))
          CFI R7 load(1, XDATA, add(CFA_XSP16, literal(-6)))
          CFI ?RET_LOW load(1, XDATA, add(CFA_XSP16, literal(-5)))
          CFI ?RET_HIGH load(1, XDATA, add(CFA_XSP16, literal(-4)))
          CFI ?BRET_EXT load(1, XDATA, add(CFA_XSP16, literal(-3)))
          CFI DPL0 load(1, XDATA, add(CFA_XSP16, literal(-2)))
          CFI DPH0 load(1, XDATA, add(CFA_XSP16, literal(-1)))
          CFI CFA_SP SP+-2
          CFI CFA_XSP16 add(XSP16, 18)
          CFI Block cfiCond218 Using cfiCommon0
          CFI (cfiCond218) Function ZDSecMgrUpdateDeviceInd
          CFI (cfiCond218) Conditional ??CrossCallReturnLabel_1
          CFI (cfiCond218) DPL0 Frame(CFA_SP, 4)
          CFI (cfiCond218) DPH0 Frame(CFA_SP, 5)
          CFI (cfiCond218) CFA_SP SP+-7
          CFI (cfiCond218) CFA_XSP16 add(XSP16, 8)
          CFI Block cfiPicker219 Using cfiCommon1
          CFI (cfiPicker219) NoFunction
          CFI (cfiPicker219) Picker
        MOV     A,R0
        MOVX    @DPTR,A
        INC     DPTR
        MOV     A,R1
        LCALL   ?Subroutine43 & 0xFFFF
??CrossCallReturnLabel_73:
        INC     DPTR
        INC     DPTR
        LCALL   ?Subroutine46 & 0xFFFF
??CrossCallReturnLabel_126:
        MOV     A,#0x4
        RET
          CFI (cfiCond217) CFA_SP SP+0
          CFI (cfiCond218) CFA_SP SP+-5
          CFI (cfiPicker219) CFA_SP SP+0
          CFI EndBlock cfiCond217
          CFI EndBlock cfiCond218
          CFI EndBlock cfiPicker219
// 1780 
// 1781 /******************************************************************************
// 1782  * @fn          ZDSecMgrRemoveDeviceInd
// 1783  *
// 1784  * @brief       Process the ZDO_RemoveDeviceInd_t message.
// 1785  *
// 1786  * @param       ind - [in] ZDO_RemoveDeviceInd_t indication
// 1787  *
// 1788  * @return      none
// 1789  */

        RSEG BANKED_CODE:CODE:NOROOT(0)
// 1790 void ZDSecMgrRemoveDeviceInd( ZDO_RemoveDeviceInd_t* ind )
ZDSecMgrRemoveDeviceInd:
          CFI Block cfiBlock220 Using cfiCommon0
          CFI Function ZDSecMgrRemoveDeviceInd
        CODE
// 1791 {
        FUNCALL ZDSecMgrRemoveDeviceInd, APSME_LookupNwkAddr
        LOCFRAME ISTACK, 0, STACK
        LOCFRAME PSTACK, 0, STACK
        LOCFRAME XSTACK, 17, STACK
        LOCFRAME IOVERLAY, 0, STATIC
        LOCFRAME DOVERLAY, 0, STATIC
        ARGFRAME ISTACK, 0, STACK
        ARGFRAME PSTACK, 0, STACK
        ARGFRAME XSTACK, 17, STACK
        ARGFRAME IOVERLAY, 0, STATIC
        ARGFRAME DOVERLAY, 0, STATIC
        FUNCALL ZDSecMgrRemoveDeviceInd, NLME_GetShortAddr
        LOCFRAME ISTACK, 0, STACK
        LOCFRAME PSTACK, 0, STACK
        LOCFRAME XSTACK, 17, STACK
        LOCFRAME IOVERLAY, 0, STATIC
        LOCFRAME DOVERLAY, 0, STATIC
        ARGFRAME ISTACK, 0, STACK
        ARGFRAME PSTACK, 0, STACK
        ARGFRAME XSTACK, 17, STACK
        ARGFRAME IOVERLAY, 0, STATIC
        ARGFRAME DOVERLAY, 0, STATIC
        FUNCALL ZDSecMgrRemoveDeviceInd, ZDSecMgrDeviceRemove
        LOCFRAME ISTACK, 0, STACK
        LOCFRAME PSTACK, 0, STACK
        LOCFRAME XSTACK, 17, STACK
        LOCFRAME IOVERLAY, 0, STATIC
        LOCFRAME DOVERLAY, 0, STATIC
        ARGFRAME ISTACK, 0, STACK
        ARGFRAME PSTACK, 0, STACK
        ARGFRAME XSTACK, 17, STACK
        ARGFRAME IOVERLAY, 0, STATIC
        ARGFRAME DOVERLAY, 0, STATIC
        MOV     A,#-0x9
        LCALL   ?BANKED_ENTER_XDATA
          CFI DPH0 load(1, XDATA, add(CFA_XSP16, literal(-1)))
          CFI DPL0 load(1, XDATA, add(CFA_XSP16, literal(-2)))
          CFI ?BRET_EXT load(1, XDATA, add(CFA_XSP16, literal(-3)))
          CFI ?RET_HIGH load(1, XDATA, add(CFA_XSP16, literal(-4)))
          CFI ?RET_LOW load(1, XDATA, add(CFA_XSP16, literal(-5)))
          CFI R7 load(1, XDATA, add(CFA_XSP16, literal(-6)))
          CFI V0 load(1, XDATA, add(CFA_XSP16, literal(-7)))
          CFI VB load(1, XDATA, add(CFA_XSP16, literal(-8)))
          CFI R6 load(1, XDATA, add(CFA_XSP16, literal(-9)))
          CFI CFA_SP SP+0
          CFI CFA_XSP16 add(XSP16, 9)
        ; Saved register size: 9
        ; Auto size: 8
        MOV     A,#-0x8
        LCALL   ?ALLOC_XSTACK8
          CFI CFA_XSP16 add(XSP16, 17)
// 1792   ZDSecMgrDevice_t device;
// 1793 
// 1794   // only accept from Trust Center
// 1795   if ( ind->srcAddr == APSME_TRUSTCENTER_NWKADDR )
        MOV     DPL,R2
        MOV     DPH,R3
        INC     DPTR
        INC     DPTR
        LCALL   ??Subroutine71_0 & 0xFFFF
??CrossCallReturnLabel_161:
        JNZ     ??ZDSecMgrRemoveDeviceInd_0
// 1796   {
// 1797     // look up NWK address
// 1798     if ( APSME_LookupNwkAddr( ind->childExtAddr, &device.nwkAddr ) == TRUE )
        MOV     A,R2
        ADD     A,#0x4
        MOV     R6,A
        CLR     A
        ADDC    A,R3
        MOV     R7,A
        ; Setup parameters for call to function APSME_LookupNwkAddr
        MOV     R4,?XSP + 0
        MOV     R5,?XSP + 1
        MOV     A,R6
        MOV     R2,A
        MOV     A,R7
        MOV     R3,A
        LCALL   `??APSME_LookupNwkAddr::?relay`; Banked call to: APSME_LookupNwkAddr
        MOV     A,R1
        XRL     A,#0x1
        JNZ     ??ZDSecMgrRemoveDeviceInd_0
// 1799     {
// 1800       device.parentAddr = NLME_GetShortAddr();
        ; Setup parameters for call to function NLME_GetShortAddr
        LCALL   `??NLME_GetShortAddr::?relay`; Banked call to: NLME_GetShortAddr
        MOV     A,#0x4
        LCALL   ?XSTACK_DISP0_8
        LCALL   ??Subroutine66_0 & 0xFFFF
// 1801       device.extAddr    = ind->childExtAddr;
// 1802 
// 1803       // remove device
// 1804       ZDSecMgrDeviceRemove( &device );
// 1805     }
// 1806   }
??CrossCallReturnLabel_145:
        LCALL   ?XSTACK_DISP0_8
        MOV     A,R6
        MOVX    @DPTR,A
        INC     DPTR
        MOV     A,R7
        LCALL   ??Subroutine65_0 & 0xFFFF
??CrossCallReturnLabel_138:
        LCALL   `??ZDSecMgrDeviceRemove::?relay`; Banked call to: ZDSecMgrDeviceRemove
// 1807 }
??ZDSecMgrRemoveDeviceInd_0:
        LJMP    ?Subroutine6 & 0xFFFF
          CFI EndBlock cfiBlock220
// 1808 
// 1809 /******************************************************************************
// 1810  * @fn          ZDSecMgrRequestKeyInd
// 1811  *
// 1812  * @brief       Process the ZDO_RequestKeyInd_t message.
// 1813  *
// 1814  * @param       ind - [in] ZDO_RequestKeyInd_t indication
// 1815  *
// 1816  * @return      none
// 1817  */

        RSEG BANKED_CODE:CODE:NOROOT(0)
// 1818 void ZDSecMgrRequestKeyInd( ZDO_RequestKeyInd_t* ind )
ZDSecMgrRequestKeyInd:
          CFI Block cfiBlock221 Using cfiCommon0
          CFI Function ZDSecMgrRequestKeyInd
        CODE
// 1819 {
        FUNCALL ZDSecMgrRequestKeyInd, ZDSecMgrAppKeyReq
        LOCFRAME ISTACK, 2, STACK
        LOCFRAME PSTACK, 0, STACK
        LOCFRAME XSTACK, 0, STACK
        LOCFRAME IOVERLAY, 0, STATIC
        LOCFRAME DOVERLAY, 0, STATIC
        ARGFRAME ISTACK, 2, STACK
        ARGFRAME PSTACK, 0, STACK
        ARGFRAME XSTACK, 0, STACK
        ARGFRAME IOVERLAY, 0, STATIC
        ARGFRAME DOVERLAY, 0, STATIC
        PUSH    DPL
          CFI DPL0 Frame(CFA_SP, 4)
          CFI CFA_SP SP+-4
        PUSH    DPH
          CFI DPH0 Frame(CFA_SP, 5)
          CFI CFA_SP SP+-5
        ; Saved register size: 2
        ; Auto size: 0
// 1820   if ( ind->keyType == KEY_TYPE_NWK )
        MOV     DPL,R2
        MOV     DPH,R3
        INC     DPTR
        INC     DPTR
        INC     DPTR
        INC     DPTR
        MOVX    A,@DPTR
        MOV     R0,A
        MOV     A,#0x1
        XRL     A,R0
        JZ      ??ZDSecMgrRequestKeyInd_0
// 1821   {
// 1822   }
// 1823   else if ( ind->keyType == KEY_TYPE_APP_MASTER )
        MOV     A,#0x2
        XRL     A,R0
        JNZ     ??ZDSecMgrRequestKeyInd_0
// 1824   {
// 1825     ZDSecMgrAppKeyReq( ind );
        ; Setup parameters for call to function ZDSecMgrAppKeyReq
        LCALL   `??ZDSecMgrAppKeyReq::?relay`; Banked call to: ZDSecMgrAppKeyReq
// 1826   }
// 1827   else if ( ind->keyType == KEY_TYPE_TC_LINK )
// 1828   {
// 1829   }
// 1830   //else ignore
// 1831 }
??ZDSecMgrRequestKeyInd_0:
        LJMP    ??Subroutine58_0 & 0xFFFF
          CFI EndBlock cfiBlock221
// 1832 
// 1833 /******************************************************************************
// 1834  * @fn          ZDSecMgrSwitchKeyInd
// 1835  *
// 1836  * @brief       Process the ZDO_SwitchKeyInd_t message.
// 1837  *
// 1838  * @param       ind - [in] ZDO_SwitchKeyInd_t indication
// 1839  *
// 1840  * @return      none
// 1841  */

        RSEG BANKED_CODE:CODE:NOROOT(0)
// 1842 void ZDSecMgrSwitchKeyInd( ZDO_SwitchKeyInd_t* ind )
ZDSecMgrSwitchKeyInd:
          CFI Block cfiBlock222 Using cfiCommon0
          CFI Function ZDSecMgrSwitchKeyInd
        CODE
// 1843 {
        FUNCALL ZDSecMgrSwitchKeyInd, SSP_SwitchNwkKey
        LOCFRAME ISTACK, 2, STACK
        LOCFRAME PSTACK, 0, STACK
        LOCFRAME XSTACK, 0, STACK
        LOCFRAME IOVERLAY, 0, STATIC
        LOCFRAME DOVERLAY, 0, STATIC
        ARGFRAME ISTACK, 2, STACK
        ARGFRAME PSTACK, 0, STACK
        ARGFRAME XSTACK, 0, STACK
        ARGFRAME IOVERLAY, 0, STATIC
        ARGFRAME DOVERLAY, 0, STATIC
        FUNCALL ZDSecMgrSwitchKeyInd, ZDApp_NVUpdate
        LOCFRAME ISTACK, 2, STACK
        LOCFRAME PSTACK, 0, STACK
        LOCFRAME XSTACK, 0, STACK
        LOCFRAME IOVERLAY, 0, STATIC
        LOCFRAME DOVERLAY, 0, STATIC
        ARGFRAME ISTACK, 2, STACK
        ARGFRAME PSTACK, 0, STACK
        ARGFRAME XSTACK, 0, STACK
        ARGFRAME IOVERLAY, 0, STATIC
        ARGFRAME DOVERLAY, 0, STATIC
        PUSH    DPL
          CFI DPL0 Frame(CFA_SP, 4)
          CFI CFA_SP SP+-4
        PUSH    DPH
          CFI DPH0 Frame(CFA_SP, 5)
          CFI CFA_SP SP+-5
        ; Saved register size: 2
        ; Auto size: 0
// 1844   SSP_SwitchNwkKey( ind->keySeqNum );
        ; Setup parameters for call to function SSP_SwitchNwkKey
        MOV     DPL,R2
        MOV     DPH,R3
        INC     DPTR
        INC     DPTR
        INC     DPTR
        INC     DPTR
        MOVX    A,@DPTR
        MOV     R1,A
        LCALL   `??SSP_SwitchNwkKey::?relay`; Banked call to: SSP_SwitchNwkKey
// 1845 
// 1846   // Save if nv
// 1847   ZDApp_NVUpdate();
        ; Setup parameters for call to function ZDApp_NVUpdate
        LCALL   `??ZDApp_NVUpdate::?relay`; Banked call to: ZDApp_NVUpdate
// 1848 }
        LJMP    ??Subroutine58_0 & 0xFFFF
          CFI EndBlock cfiBlock222
// 1849 
// 1850 #if ( ZG_BUILD_COORDINATOR_TYPE )
// 1851 /******************************************************************************
// 1852  * @fn          ZDSecMgrUpdateNwkKey
// 1853  *
// 1854  * @brief       Load a new NWK key and trigger a network update to the dstAddr.
// 1855  *
// 1856  * @param       key       - [in] new NWK key
// 1857  * @param       keySeqNum - [in] new NWK key sequence number
// 1858  *
// 1859  * @return      ZStatus_t
// 1860  */

        RSEG BANKED_CODE:CODE:NOROOT(0)
// 1861 ZStatus_t ZDSecMgrUpdateNwkKey( uint8* key, uint8 keySeqNum, uint16 dstAddr )
ZDSecMgrUpdateNwkKey:
          CFI Block cfiBlock223 Using cfiCommon0
          CFI Function ZDSecMgrUpdateNwkKey
        CODE
// 1862 {
        FUNCALL ZDSecMgrUpdateNwkKey, APSME_TransportKeyReq
        LOCFRAME ISTACK, 0, STACK
        LOCFRAME PSTACK, 0, STACK
        LOCFRAME XSTACK, 23, STACK
        LOCFRAME IOVERLAY, 0, STATIC
        LOCFRAME DOVERLAY, 0, STATIC
        ARGFRAME ISTACK, 0, STACK
        ARGFRAME PSTACK, 0, STACK
        ARGFRAME XSTACK, 23, STACK
        ARGFRAME IOVERLAY, 0, STATIC
        ARGFRAME DOVERLAY, 0, STATIC
        FUNCALL ZDSecMgrUpdateNwkKey, SSP_UpdateNwkKey
        LOCFRAME ISTACK, 0, STACK
        LOCFRAME PSTACK, 0, STACK
        LOCFRAME XSTACK, 23, STACK
        LOCFRAME IOVERLAY, 0, STATIC
        LOCFRAME DOVERLAY, 0, STATIC
        ARGFRAME ISTACK, 0, STACK
        ARGFRAME PSTACK, 0, STACK
        ARGFRAME XSTACK, 23, STACK
        ARGFRAME IOVERLAY, 0, STATIC
        ARGFRAME DOVERLAY, 0, STATIC
        FUNCALL ZDSecMgrUpdateNwkKey, ZDApp_NVUpdate
        LOCFRAME ISTACK, 0, STACK
        LOCFRAME PSTACK, 0, STACK
        LOCFRAME XSTACK, 23, STACK
        LOCFRAME IOVERLAY, 0, STATIC
        LOCFRAME DOVERLAY, 0, STATIC
        ARGFRAME ISTACK, 0, STACK
        ARGFRAME PSTACK, 0, STACK
        ARGFRAME XSTACK, 23, STACK
        ARGFRAME IOVERLAY, 0, STATIC
        ARGFRAME DOVERLAY, 0, STATIC
        REQUIRE ?V0
        REQUIRE ?V1
        MOV     A,#-0xa
        LCALL   ?BANKED_ENTER_XDATA
          CFI DPH0 load(1, XDATA, add(CFA_XSP16, literal(-1)))
          CFI DPL0 load(1, XDATA, add(CFA_XSP16, literal(-2)))
          CFI ?BRET_EXT load(1, XDATA, add(CFA_XSP16, literal(-3)))
          CFI ?RET_HIGH load(1, XDATA, add(CFA_XSP16, literal(-4)))
          CFI ?RET_LOW load(1, XDATA, add(CFA_XSP16, literal(-5)))
          CFI R7 load(1, XDATA, add(CFA_XSP16, literal(-6)))
          CFI V1 load(1, XDATA, add(CFA_XSP16, literal(-7)))
          CFI V0 load(1, XDATA, add(CFA_XSP16, literal(-8)))
          CFI VB load(1, XDATA, add(CFA_XSP16, literal(-9)))
          CFI R6 load(1, XDATA, add(CFA_XSP16, literal(-10)))
          CFI CFA_SP SP+0
          CFI CFA_XSP16 add(XSP16, 10)
        ; Saved register size: 10
        ; Auto size: 13
        MOV     A,#-0xd
        LCALL   ?ALLOC_XSTACK8
          CFI CFA_XSP16 add(XSP16, 23)
        MOV     A,R2
        MOV     R6,A
        MOV     A,R3
        MOV     R7,A
        MOV     ?V1,R1
// 1863   ZStatus_t               status;
// 1864   APSME_TransportKeyReq_t req;
// 1865 
// 1866   // initialize common elements of local variables
// 1867   req.keyType   = KEY_TYPE_NWK;
        MOV     A,#0x2
        LCALL   ?XSTACK_DISP0_8
        MOV     A,#0x1
        MOVX    @DPTR,A
// 1868 
// 1869   req.dstAddr   = dstAddr;
        MOV     DPL,?XSP + 0
        MOV     DPH,?XSP + 1
        MOV     A,R4
        MOVX    @DPTR,A
        INC     DPTR
        MOV     A,R5
        MOVX    @DPTR,A
// 1870   req.keySeqNum = keySeqNum;
        MOV     A,#0x3
        LCALL   ?XSTACK_DISP0_8
        MOV     A,R1
        MOVX    @DPTR,A
// 1871   req.key       = key;
        MOV     A,#0x4
        LCALL   ?XSTACK_DISP0_8
        MOV     A,R6
        MOVX    @DPTR,A
        INC     DPTR
        MOV     A,R7
        MOVX    @DPTR,A
// 1872   req.extAddr   = NULL;
        MOV     A,#0x6
        LCALL   ?XSTACK_DISP0_8
        CLR     A
        MOVX    @DPTR,A
        INC     DPTR
        MOVX    @DPTR,A
// 1873   req.nwkSecure = TRUE;
        MOV     A,#0xa
        LCALL   ?XSTACK_DISP0_8
        MOV     A,#0x1
        MOVX    @DPTR,A
// 1874   req.tunnel    = NULL;
        MOV     A,#0xb
        LCALL   ?XSTACK_DISP0_8
        CLR     A
        MOVX    @DPTR,A
        INC     DPTR
        MOVX    @DPTR,A
// 1875 
// 1876   if ( ZG_CHECK_SECURITY_MODE == ZG_SECURITY_SE_STANDARD )
// 1877   {
// 1878     // Broadcast transport NWK key
// 1879     if (( dstAddr == NWK_BROADCAST_SHORTADDR_DEVALL ) ||
// 1880         ( dstAddr == NWK_BROADCAST_SHORTADDR_DEVZCZR) ||
// 1881         ( dstAddr == NWK_BROADCAST_SHORTADDR_DEVRXON))
// 1882     {
// 1883       req.apsSecure = FALSE;
// 1884       status = APSME_TransportKeyReq( &req );
// 1885     }
// 1886     else
// 1887     {
// 1888       AddrMgrEntry_t          addrEntry;
// 1889 
// 1890       addrEntry.user = ADDRMGR_USER_SECURITY;
// 1891       addrEntry.nwkAddr = dstAddr;
// 1892 
// 1893       status = ZFailure;
// 1894 
// 1895       if ( AddrMgrEntryLookupNwk( &addrEntry ) == TRUE )
// 1896       {
// 1897         req.extAddr = addrEntry.extAddr;
// 1898         req.apsSecure = TRUE;
// 1899         status = APSME_TransportKeyReq( &req );
// 1900       }
// 1901     }
// 1902   }
// 1903   else // ( ZG_CHECK_SECURITY_MODE == ZG_SECURITY_RESIDENTIAL )
// 1904   {
// 1905     req.apsSecure = FALSE;
        MOV     A,#0x9
        LCALL   ?XSTACK_DISP0_8
        CLR     A
        LCALL   ??Subroutine65_0 & 0xFFFF
// 1906     status = APSME_TransportKeyReq( &req );
// 1907   }
??CrossCallReturnLabel_139:
        LCALL   `??APSME_TransportKeyReq::?relay`; Banked call to: APSME_TransportKeyReq
        MOV     A,R1
        MOV     ?V0,A
// 1908 
// 1909   SSP_UpdateNwkKey( key, keySeqNum );
        ; Setup parameters for call to function SSP_UpdateNwkKey
        MOV     R1,?V1
        MOV     A,R6
        MOV     R2,A
        MOV     A,R7
        MOV     R3,A
        LCALL   `??SSP_UpdateNwkKey::?relay`; Banked call to: SSP_UpdateNwkKey
// 1910 
// 1911   // Save if nv
// 1912   ZDApp_NVUpdate();
        ; Setup parameters for call to function ZDApp_NVUpdate
        LCALL   `??ZDApp_NVUpdate::?relay`; Banked call to: ZDApp_NVUpdate
// 1913 
// 1914   return status;
        LJMP    ?Subroutine2 & 0xFFFF
// 1915 }
          CFI EndBlock cfiBlock223

        RSEG BANKED_CODE:CODE:NOROOT(0)
?Subroutine14:
          CFI Block cfiCond224 Using cfiCommon0
          CFI Function ZDSecMgrEntryLookup
          CFI Conditional ??CrossCallReturnLabel_133
          CFI R6 load(1, XDATA, add(CFA_XSP16, literal(-9)))
          CFI VB load(1, XDATA, add(CFA_XSP16, literal(-8)))
          CFI V0 load(1, XDATA, add(CFA_XSP16, literal(-7)))
          CFI R7 load(1, XDATA, add(CFA_XSP16, literal(-6)))
          CFI ?RET_LOW load(1, XDATA, add(CFA_XSP16, literal(-5)))
          CFI ?RET_HIGH load(1, XDATA, add(CFA_XSP16, literal(-4)))
          CFI ?BRET_EXT load(1, XDATA, add(CFA_XSP16, literal(-3)))
          CFI DPL0 load(1, XDATA, add(CFA_XSP16, literal(-2)))
          CFI DPH0 load(1, XDATA, add(CFA_XSP16, literal(-1)))
          CFI CFA_SP SP+-2
          CFI CFA_XSP16 add(XSP16, 22)
          CFI Block cfiCond225 Using cfiCommon0
          CFI (cfiCond225) Function ZDSecMgrRequestAppKey
          CFI (cfiCond225) Conditional ??CrossCallReturnLabel_134
          CFI (cfiCond225) DPL0 Frame(CFA_SP, 4)
          CFI (cfiCond225) DPH0 Frame(CFA_SP, 5)
          CFI (cfiCond225) CFA_SP SP+-7
          CFI (cfiCond225) CFA_XSP16 add(XSP16, 4)
          CFI Block cfiPicker226 Using cfiCommon1
          CFI (cfiPicker226) NoFunction
          CFI (cfiPicker226) Picker
        MOV     A,R2
        MOVX    @DPTR,A
        INC     DPTR
        MOV     A,R3
          CFI EndBlock cfiCond224
          CFI EndBlock cfiCond225
          CFI EndBlock cfiPicker226
        REQUIRE ??Subroutine65_0
        ; // Fall through to label ??Subroutine65_0

        RSEG BANKED_CODE:CODE:NOROOT(0)
??Subroutine65_0:
          CFI Block cfiCond227 Using cfiCommon0
          CFI Function ZDSecMgrDeviceRemove
          CFI Conditional ??CrossCallReturnLabel_135
          CFI R6 load(1, XDATA, add(CFA_XSP16, literal(-10)))
          CFI VB load(1, XDATA, add(CFA_XSP16, literal(-9)))
          CFI V0 load(1, XDATA, add(CFA_XSP16, literal(-8)))
          CFI V1 load(1, XDATA, add(CFA_XSP16, literal(-7)))
          CFI R7 load(1, XDATA, add(CFA_XSP16, literal(-6)))
          CFI ?RET_LOW load(1, XDATA, add(CFA_XSP16, literal(-5)))
          CFI ?RET_HIGH load(1, XDATA, add(CFA_XSP16, literal(-4)))
          CFI ?BRET_EXT load(1, XDATA, add(CFA_XSP16, literal(-3)))
          CFI DPL0 load(1, XDATA, add(CFA_XSP16, literal(-2)))
          CFI DPH0 load(1, XDATA, add(CFA_XSP16, literal(-1)))
          CFI CFA_SP SP+-2
          CFI CFA_XSP16 add(XSP16, 20)
          CFI Block cfiCond228 Using cfiCommon0
          CFI (cfiCond228) Function ZDSecMgrDeviceJoin
          CFI (cfiCond228) Conditional ??CrossCallReturnLabel_136
          CFI (cfiCond228) R6 load(1, XDATA, add(CFA_XSP16, literal(-13)))
          CFI (cfiCond228) VB load(1, XDATA, add(CFA_XSP16, literal(-12)))
          CFI (cfiCond228) V0 load(1, XDATA, add(CFA_XSP16, literal(-11)))
          CFI (cfiCond228) V1 load(1, XDATA, add(CFA_XSP16, literal(-10)))
          CFI (cfiCond228) V2 load(1, XDATA, add(CFA_XSP16, literal(-9)))
          CFI (cfiCond228) V3 load(1, XDATA, add(CFA_XSP16, literal(-8)))
          CFI (cfiCond228) V4 load(1, XDATA, add(CFA_XSP16, literal(-7)))
          CFI (cfiCond228) R7 load(1, XDATA, add(CFA_XSP16, literal(-6)))
          CFI (cfiCond228) ?RET_LOW load(1, XDATA, add(CFA_XSP16, literal(-5)))
          CFI (cfiCond228) ?RET_HIGH load(1, XDATA, add(CFA_XSP16, literal(-4)))
          CFI (cfiCond228) ?BRET_EXT load(1, XDATA, add(CFA_XSP16, literal(-3)))
          CFI (cfiCond228) DPL0 load(1, XDATA, add(CFA_XSP16, literal(-2)))
          CFI (cfiCond228) DPH0 load(1, XDATA, add(CFA_XSP16, literal(-1)))
          CFI (cfiCond228) CFA_SP SP+-2
          CFI (cfiCond228) CFA_XSP16 add(XSP16, 38)
          CFI Block cfiCond229 Using cfiCommon0
          CFI (cfiCond229) Function ZDSecMgrDeviceJoinFwd
          CFI (cfiCond229) Conditional ??CrossCallReturnLabel_137
          CFI (cfiCond229) R6 load(1, XDATA, add(CFA_XSP16, literal(-10)))
          CFI (cfiCond229) VB load(1, XDATA, add(CFA_XSP16, literal(-9)))
          CFI (cfiCond229) V0 load(1, XDATA, add(CFA_XSP16, literal(-8)))
          CFI (cfiCond229) V1 load(1, XDATA, add(CFA_XSP16, literal(-7)))
          CFI (cfiCond229) R7 load(1, XDATA, add(CFA_XSP16, literal(-6)))
          CFI (cfiCond229) ?RET_LOW load(1, XDATA, add(CFA_XSP16, literal(-5)))
          CFI (cfiCond229) ?RET_HIGH load(1, XDATA, add(CFA_XSP16, literal(-4)))
          CFI (cfiCond229) ?BRET_EXT load(1, XDATA, add(CFA_XSP16, literal(-3)))
          CFI (cfiCond229) DPL0 load(1, XDATA, add(CFA_XSP16, literal(-2)))
          CFI (cfiCond229) DPH0 load(1, XDATA, add(CFA_XSP16, literal(-1)))
          CFI (cfiCond229) CFA_SP SP+-2
          CFI (cfiCond229) CFA_XSP16 add(XSP16, 18)
          CFI Block cfiCond230 Using cfiCommon0
          CFI (cfiCond230) Function ZDSecMgrRemoveDeviceInd
          CFI (cfiCond230) Conditional ??CrossCallReturnLabel_138
          CFI (cfiCond230) R6 load(1, XDATA, add(CFA_XSP16, literal(-9)))
          CFI (cfiCond230) VB load(1, XDATA, add(CFA_XSP16, literal(-8)))
          CFI (cfiCond230) V0 load(1, XDATA, add(CFA_XSP16, literal(-7)))
          CFI (cfiCond230) R7 load(1, XDATA, add(CFA_XSP16, literal(-6)))
          CFI (cfiCond230) ?RET_LOW load(1, XDATA, add(CFA_XSP16, literal(-5)))
          CFI (cfiCond230) ?RET_HIGH load(1, XDATA, add(CFA_XSP16, literal(-4)))
          CFI (cfiCond230) ?BRET_EXT load(1, XDATA, add(CFA_XSP16, literal(-3)))
          CFI (cfiCond230) DPL0 load(1, XDATA, add(CFA_XSP16, literal(-2)))
          CFI (cfiCond230) DPH0 load(1, XDATA, add(CFA_XSP16, literal(-1)))
          CFI (cfiCond230) CFA_SP SP+-2
          CFI (cfiCond230) CFA_XSP16 add(XSP16, 17)
          CFI Block cfiCond231 Using cfiCommon0
          CFI (cfiCond231) Function ZDSecMgrUpdateNwkKey
          CFI (cfiCond231) Conditional ??CrossCallReturnLabel_139
          CFI (cfiCond231) R6 load(1, XDATA, add(CFA_XSP16, literal(-10)))
          CFI (cfiCond231) VB load(1, XDATA, add(CFA_XSP16, literal(-9)))
          CFI (cfiCond231) V0 load(1, XDATA, add(CFA_XSP16, literal(-8)))
          CFI (cfiCond231) V1 load(1, XDATA, add(CFA_XSP16, literal(-7)))
          CFI (cfiCond231) R7 load(1, XDATA, add(CFA_XSP16, literal(-6)))
          CFI (cfiCond231) ?RET_LOW load(1, XDATA, add(CFA_XSP16, literal(-5)))
          CFI (cfiCond231) ?RET_HIGH load(1, XDATA, add(CFA_XSP16, literal(-4)))
          CFI (cfiCond231) ?BRET_EXT load(1, XDATA, add(CFA_XSP16, literal(-3)))
          CFI (cfiCond231) DPL0 load(1, XDATA, add(CFA_XSP16, literal(-2)))
          CFI (cfiCond231) DPH0 load(1, XDATA, add(CFA_XSP16, literal(-1)))
          CFI (cfiCond231) CFA_SP SP+-2
          CFI (cfiCond231) CFA_XSP16 add(XSP16, 23)
          CFI Block cfiCond232 Using cfiCommon0
          CFI (cfiCond232) Function ZDSecMgrSwitchNwkKey
          CFI (cfiCond232) Conditional ??CrossCallReturnLabel_140
          CFI (cfiCond232) R6 load(1, XDATA, add(CFA_XSP16, literal(-9)))
          CFI (cfiCond232) VB load(1, XDATA, add(CFA_XSP16, literal(-8)))
          CFI (cfiCond232) V0 load(1, XDATA, add(CFA_XSP16, literal(-7)))
          CFI (cfiCond232) R7 load(1, XDATA, add(CFA_XSP16, literal(-6)))
          CFI (cfiCond232) ?RET_LOW load(1, XDATA, add(CFA_XSP16, literal(-5)))
          CFI (cfiCond232) ?RET_HIGH load(1, XDATA, add(CFA_XSP16, literal(-4)))
          CFI (cfiCond232) ?BRET_EXT load(1, XDATA, add(CFA_XSP16, literal(-3)))
          CFI (cfiCond232) DPL0 load(1, XDATA, add(CFA_XSP16, literal(-2)))
          CFI (cfiCond232) DPH0 load(1, XDATA, add(CFA_XSP16, literal(-1)))
          CFI (cfiCond232) CFA_SP SP+-2
          CFI (cfiCond232) CFA_XSP16 add(XSP16, 13)
          CFI Block cfiCond233 Using cfiCommon0
          CFI (cfiCond233) Function ZDSecMgrAPSRemove
          CFI (cfiCond233) Conditional ??CrossCallReturnLabel_141
          CFI (cfiCond233) DPL0 Frame(CFA_SP, 4)
          CFI (cfiCond233) DPH0 Frame(CFA_SP, 5)
          CFI (cfiCond233) CFA_SP SP+-7
          CFI (cfiCond233) CFA_XSP16 add(XSP16, 8)
          CFI Block cfiCond234 Using cfiCommon0
          CFI (cfiCond234) Function ZDSecMgrEntryLookup
          CFI (cfiCond234) Conditional ??CrossCallReturnLabel_133
          CFI (cfiCond234) R6 load(1, XDATA, add(CFA_XSP16, literal(-9)))
          CFI (cfiCond234) VB load(1, XDATA, add(CFA_XSP16, literal(-8)))
          CFI (cfiCond234) V0 load(1, XDATA, add(CFA_XSP16, literal(-7)))
          CFI (cfiCond234) R7 load(1, XDATA, add(CFA_XSP16, literal(-6)))
          CFI (cfiCond234) ?RET_LOW load(1, XDATA, add(CFA_XSP16, literal(-5)))
          CFI (cfiCond234) ?RET_HIGH load(1, XDATA, add(CFA_XSP16, literal(-4)))
          CFI (cfiCond234) ?BRET_EXT load(1, XDATA, add(CFA_XSP16, literal(-3)))
          CFI (cfiCond234) DPL0 load(1, XDATA, add(CFA_XSP16, literal(-2)))
          CFI (cfiCond234) DPH0 load(1, XDATA, add(CFA_XSP16, literal(-1)))
          CFI (cfiCond234) CFA_SP SP+-2
          CFI (cfiCond234) CFA_XSP16 add(XSP16, 22)
          CFI Block cfiCond235 Using cfiCommon0
          CFI (cfiCond235) Function ZDSecMgrRequestAppKey
          CFI (cfiCond235) Conditional ??CrossCallReturnLabel_134
          CFI (cfiCond235) DPL0 Frame(CFA_SP, 4)
          CFI (cfiCond235) DPH0 Frame(CFA_SP, 5)
          CFI (cfiCond235) CFA_SP SP+-7
          CFI (cfiCond235) CFA_XSP16 add(XSP16, 4)
          CFI Block cfiPicker236 Using cfiCommon1
          CFI (cfiPicker236) NoFunction
          CFI (cfiPicker236) Picker
        MOVX    @DPTR,A
        ; Setup parameters for call to function AddrMgrEntryLookupNwk
        ; Setup parameters for call to function APSME_RequestKeyReq
        ; Setup parameters for call to function NLME_LeaveReq
        ; Setup parameters for indirect call
        ; Setup parameters for call to function APSME_UpdateDeviceReq
        ; Setup parameters for call to function ZDSecMgrDeviceRemove
        ; Setup parameters for call to function APSME_TransportKeyReq
        ; Setup parameters for call to function APSME_SwitchKeyReq
        ; Setup parameters for call to function ZDSecMgrDeviceRemove
        MOV     R2,?XSP + 0
        MOV     R3,?XSP + 1
        RET
          CFI (cfiCond227) CFA_SP SP+0
          CFI (cfiCond228) CFA_SP SP+0
          CFI (cfiCond229) CFA_SP SP+0
          CFI (cfiCond230) CFA_SP SP+0
          CFI (cfiCond231) CFA_SP SP+0
          CFI (cfiCond232) CFA_SP SP+0
          CFI (cfiCond233) CFA_SP SP+-5
          CFI (cfiCond234) CFA_SP SP+0
          CFI (cfiCond235) CFA_SP SP+-5
          CFI (cfiPicker236) CFA_SP SP+0
          CFI EndBlock cfiCond227
          CFI EndBlock cfiCond228
          CFI EndBlock cfiCond229
          CFI EndBlock cfiCond230
          CFI EndBlock cfiCond231
          CFI EndBlock cfiCond232
          CFI EndBlock cfiCond233
          CFI EndBlock cfiCond234
          CFI EndBlock cfiCond235
          CFI EndBlock cfiPicker236
// 1916 #endif // ( ZG_BUILD_COORDINATOR_TYPE )
// 1917 
// 1918 #if ( ZG_BUILD_COORDINATOR_TYPE )
// 1919 /******************************************************************************
// 1920  * @fn          ZDSecMgrSwitchNwkKey
// 1921  *
// 1922  * @brief       Causes the NWK key to switch via a network command to the dstAddr.
// 1923  *
// 1924  * @param       keySeqNum - [in] new NWK key sequence number
// 1925  *
// 1926  * @return      ZStatus_t
// 1927  */

        RSEG BANKED_CODE:CODE:NOROOT(0)
// 1928 ZStatus_t ZDSecMgrSwitchNwkKey( uint8 keySeqNum, uint16 dstAddr )
ZDSecMgrSwitchNwkKey:
          CFI Block cfiBlock237 Using cfiCommon0
          CFI Function ZDSecMgrSwitchNwkKey
        CODE
// 1929 {
        FUNCALL ZDSecMgrSwitchNwkKey, APSME_SwitchKeyReq
        LOCFRAME ISTACK, 0, STACK
        LOCFRAME PSTACK, 0, STACK
        LOCFRAME XSTACK, 13, STACK
        LOCFRAME IOVERLAY, 0, STATIC
        LOCFRAME DOVERLAY, 0, STATIC
        ARGFRAME ISTACK, 0, STACK
        ARGFRAME PSTACK, 0, STACK
        ARGFRAME XSTACK, 13, STACK
        ARGFRAME IOVERLAY, 0, STATIC
        ARGFRAME DOVERLAY, 0, STATIC
        FUNCALL ZDSecMgrSwitchNwkKey, SSP_SwitchNwkKey
        LOCFRAME ISTACK, 0, STACK
        LOCFRAME PSTACK, 0, STACK
        LOCFRAME XSTACK, 13, STACK
        LOCFRAME IOVERLAY, 0, STATIC
        LOCFRAME DOVERLAY, 0, STATIC
        ARGFRAME ISTACK, 0, STACK
        ARGFRAME PSTACK, 0, STACK
        ARGFRAME XSTACK, 13, STACK
        ARGFRAME IOVERLAY, 0, STATIC
        ARGFRAME DOVERLAY, 0, STATIC
        FUNCALL ZDSecMgrSwitchNwkKey, ZDApp_NVUpdate
        LOCFRAME ISTACK, 0, STACK
        LOCFRAME PSTACK, 0, STACK
        LOCFRAME XSTACK, 13, STACK
        LOCFRAME IOVERLAY, 0, STATIC
        LOCFRAME DOVERLAY, 0, STATIC
        ARGFRAME ISTACK, 0, STACK
        ARGFRAME PSTACK, 0, STACK
        ARGFRAME XSTACK, 13, STACK
        ARGFRAME IOVERLAY, 0, STATIC
        ARGFRAME DOVERLAY, 0, STATIC
        MOV     A,#-0x9
        LCALL   ?BANKED_ENTER_XDATA
          CFI DPH0 load(1, XDATA, add(CFA_XSP16, literal(-1)))
          CFI DPL0 load(1, XDATA, add(CFA_XSP16, literal(-2)))
          CFI ?BRET_EXT load(1, XDATA, add(CFA_XSP16, literal(-3)))
          CFI ?RET_HIGH load(1, XDATA, add(CFA_XSP16, literal(-4)))
          CFI ?RET_LOW load(1, XDATA, add(CFA_XSP16, literal(-5)))
          CFI R7 load(1, XDATA, add(CFA_XSP16, literal(-6)))
          CFI V0 load(1, XDATA, add(CFA_XSP16, literal(-7)))
          CFI VB load(1, XDATA, add(CFA_XSP16, literal(-8)))
          CFI R6 load(1, XDATA, add(CFA_XSP16, literal(-9)))
          CFI CFA_SP SP+0
          CFI CFA_XSP16 add(XSP16, 9)
        ; Saved register size: 9
        ; Auto size: 4
        MOV     A,#-0x4
        LCALL   ?ALLOC_XSTACK8
          CFI CFA_XSP16 add(XSP16, 13)
        MOV     A,R1
        MOV     R7,A
// 1930   ZStatus_t            status;
// 1931   APSME_SwitchKeyReq_t req;
// 1932 
// 1933   // initialize common elements of local variables
// 1934   req.dstAddr = dstAddr;
        LCALL   ?Subroutine19 & 0xFFFF
// 1935   req.keySeqNum = keySeqNum;
??CrossCallReturnLabel_143:
        LCALL   ?XSTACK_DISP0_8
        MOV     A,R1
        MOVX    @DPTR,A
// 1936 
// 1937   if ( ZG_CHECK_SECURITY_MODE == ZG_SECURITY_SE_STANDARD )
// 1938   {
// 1939     // Broadcast switch NWK key
// 1940     if (( dstAddr == NWK_BROADCAST_SHORTADDR_DEVALL ) ||
// 1941         ( dstAddr == NWK_BROADCAST_SHORTADDR_DEVZCZR) ||
// 1942         ( dstAddr == NWK_BROADCAST_SHORTADDR_DEVRXON))
// 1943     {
// 1944       req.apsSecure = FALSE;
// 1945       status = APSME_SwitchKeyReq( &req );
// 1946     }
// 1947     else
// 1948     {
// 1949       AddrMgrEntry_t          addrEntry;
// 1950 
// 1951       addrEntry.user = ADDRMGR_USER_SECURITY;
// 1952       addrEntry.nwkAddr = dstAddr;
// 1953 
// 1954       status = ZFailure;
// 1955 
// 1956       if ( AddrMgrEntryLookupNwk( &addrEntry ) == TRUE )
// 1957       {
// 1958         req.dstAddr = addrEntry.nwkAddr;
// 1959         req.apsSecure = TRUE;
// 1960         status = APSME_SwitchKeyReq( &req );
// 1961       }
// 1962     }
// 1963   }
// 1964   else // ( ZG_CHECK_SECURITY_MODE == ZG_SECURITY_RESIDENTIAL )
// 1965   {
// 1966     req.apsSecure = FALSE;
        MOV     A,#0x3
        LCALL   ?XSTACK_DISP0_8
        CLR     A
        LCALL   ??Subroutine65_0 & 0xFFFF
// 1967     status = APSME_SwitchKeyReq( &req );
// 1968   }
??CrossCallReturnLabel_140:
        LCALL   `??APSME_SwitchKeyReq::?relay`; Banked call to: APSME_SwitchKeyReq
        MOV     A,R1
        MOV     R6,A
// 1969 
// 1970   SSP_SwitchNwkKey( keySeqNum );
        ; Setup parameters for call to function SSP_SwitchNwkKey
        MOV     A,R7
        MOV     R1,A
        LCALL   `??SSP_SwitchNwkKey::?relay`; Banked call to: SSP_SwitchNwkKey
// 1971 
// 1972   // Save if nv
// 1973   ZDApp_NVUpdate();
        ; Setup parameters for call to function ZDApp_NVUpdate
        LCALL   `??ZDApp_NVUpdate::?relay`; Banked call to: ZDApp_NVUpdate
// 1974 
// 1975   return status;
        MOV     A,R6
        MOV     R1,A
        MOV     A,#0x4
        LJMP    ??Subroutine62_0 & 0xFFFF
// 1976 }
          CFI EndBlock cfiBlock237

        RSEG BANKED_CODE:CODE:NOROOT(0)
?Subroutine19:
          CFI Block cfiCond238 Using cfiCommon0
          CFI Function ZDSecMgrDeviceRemove
          CFI Conditional ??CrossCallReturnLabel_142
          CFI R6 load(1, XDATA, add(CFA_XSP16, literal(-10)))
          CFI VB load(1, XDATA, add(CFA_XSP16, literal(-9)))
          CFI V0 load(1, XDATA, add(CFA_XSP16, literal(-8)))
          CFI V1 load(1, XDATA, add(CFA_XSP16, literal(-7)))
          CFI R7 load(1, XDATA, add(CFA_XSP16, literal(-6)))
          CFI ?RET_LOW load(1, XDATA, add(CFA_XSP16, literal(-5)))
          CFI ?RET_HIGH load(1, XDATA, add(CFA_XSP16, literal(-4)))
          CFI ?BRET_EXT load(1, XDATA, add(CFA_XSP16, literal(-3)))
          CFI DPL0 load(1, XDATA, add(CFA_XSP16, literal(-2)))
          CFI DPH0 load(1, XDATA, add(CFA_XSP16, literal(-1)))
          CFI CFA_SP SP+-2
          CFI CFA_XSP16 add(XSP16, 20)
          CFI Block cfiCond239 Using cfiCommon0
          CFI (cfiCond239) Function ZDSecMgrSwitchNwkKey
          CFI (cfiCond239) Conditional ??CrossCallReturnLabel_143
          CFI (cfiCond239) R6 load(1, XDATA, add(CFA_XSP16, literal(-9)))
          CFI (cfiCond239) VB load(1, XDATA, add(CFA_XSP16, literal(-8)))
          CFI (cfiCond239) V0 load(1, XDATA, add(CFA_XSP16, literal(-7)))
          CFI (cfiCond239) R7 load(1, XDATA, add(CFA_XSP16, literal(-6)))
          CFI (cfiCond239) ?RET_LOW load(1, XDATA, add(CFA_XSP16, literal(-5)))
          CFI (cfiCond239) ?RET_HIGH load(1, XDATA, add(CFA_XSP16, literal(-4)))
          CFI (cfiCond239) ?BRET_EXT load(1, XDATA, add(CFA_XSP16, literal(-3)))
          CFI (cfiCond239) DPL0 load(1, XDATA, add(CFA_XSP16, literal(-2)))
          CFI (cfiCond239) DPH0 load(1, XDATA, add(CFA_XSP16, literal(-1)))
          CFI (cfiCond239) CFA_SP SP+-2
          CFI (cfiCond239) CFA_XSP16 add(XSP16, 13)
          CFI Block cfiCond240 Using cfiCommon0
          CFI (cfiCond240) Function ZDSecMgrAPSRemove
          CFI (cfiCond240) Conditional ??CrossCallReturnLabel_144
          CFI (cfiCond240) DPL0 Frame(CFA_SP, 4)
          CFI (cfiCond240) DPH0 Frame(CFA_SP, 5)
          CFI (cfiCond240) CFA_SP SP+-7
          CFI (cfiCond240) CFA_XSP16 add(XSP16, 8)
          CFI Block cfiPicker241 Using cfiCommon1
          CFI (cfiPicker241) NoFunction
          CFI (cfiPicker241) Picker
        MOV     DPL,?XSP + 0
        MOV     DPH,?XSP + 1
          CFI EndBlock cfiCond238
          CFI EndBlock cfiCond239
          CFI EndBlock cfiCond240
          CFI EndBlock cfiPicker241
        REQUIRE ??Subroutine66_0
        ; // Fall through to label ??Subroutine66_0

        RSEG BANKED_CODE:CODE:NOROOT(0)
??Subroutine66_0:
          CFI Block cfiCond242 Using cfiCommon0
          CFI Function ZDSecMgrRemoveDeviceInd
          CFI Conditional ??CrossCallReturnLabel_145
          CFI R6 load(1, XDATA, add(CFA_XSP16, literal(-9)))
          CFI VB load(1, XDATA, add(CFA_XSP16, literal(-8)))
          CFI V0 load(1, XDATA, add(CFA_XSP16, literal(-7)))
          CFI R7 load(1, XDATA, add(CFA_XSP16, literal(-6)))
          CFI ?RET_LOW load(1, XDATA, add(CFA_XSP16, literal(-5)))
          CFI ?RET_HIGH load(1, XDATA, add(CFA_XSP16, literal(-4)))
          CFI ?BRET_EXT load(1, XDATA, add(CFA_XSP16, literal(-3)))
          CFI DPL0 load(1, XDATA, add(CFA_XSP16, literal(-2)))
          CFI DPH0 load(1, XDATA, add(CFA_XSP16, literal(-1)))
          CFI CFA_SP SP+-2
          CFI CFA_XSP16 add(XSP16, 17)
          CFI Block cfiCond243 Using cfiCommon0
          CFI (cfiCond243) Function ZDSecMgrDeviceRemove
          CFI (cfiCond243) Conditional ??CrossCallReturnLabel_142
          CFI (cfiCond243) R6 load(1, XDATA, add(CFA_XSP16, literal(-10)))
          CFI (cfiCond243) VB load(1, XDATA, add(CFA_XSP16, literal(-9)))
          CFI (cfiCond243) V0 load(1, XDATA, add(CFA_XSP16, literal(-8)))
          CFI (cfiCond243) V1 load(1, XDATA, add(CFA_XSP16, literal(-7)))
          CFI (cfiCond243) R7 load(1, XDATA, add(CFA_XSP16, literal(-6)))
          CFI (cfiCond243) ?RET_LOW load(1, XDATA, add(CFA_XSP16, literal(-5)))
          CFI (cfiCond243) ?RET_HIGH load(1, XDATA, add(CFA_XSP16, literal(-4)))
          CFI (cfiCond243) ?BRET_EXT load(1, XDATA, add(CFA_XSP16, literal(-3)))
          CFI (cfiCond243) DPL0 load(1, XDATA, add(CFA_XSP16, literal(-2)))
          CFI (cfiCond243) DPH0 load(1, XDATA, add(CFA_XSP16, literal(-1)))
          CFI (cfiCond243) CFA_SP SP+-2
          CFI (cfiCond243) CFA_XSP16 add(XSP16, 20)
          CFI Block cfiCond244 Using cfiCommon0
          CFI (cfiCond244) Function ZDSecMgrSwitchNwkKey
          CFI (cfiCond244) Conditional ??CrossCallReturnLabel_143
          CFI (cfiCond244) R6 load(1, XDATA, add(CFA_XSP16, literal(-9)))
          CFI (cfiCond244) VB load(1, XDATA, add(CFA_XSP16, literal(-8)))
          CFI (cfiCond244) V0 load(1, XDATA, add(CFA_XSP16, literal(-7)))
          CFI (cfiCond244) R7 load(1, XDATA, add(CFA_XSP16, literal(-6)))
          CFI (cfiCond244) ?RET_LOW load(1, XDATA, add(CFA_XSP16, literal(-5)))
          CFI (cfiCond244) ?RET_HIGH load(1, XDATA, add(CFA_XSP16, literal(-4)))
          CFI (cfiCond244) ?BRET_EXT load(1, XDATA, add(CFA_XSP16, literal(-3)))
          CFI (cfiCond244) DPL0 load(1, XDATA, add(CFA_XSP16, literal(-2)))
          CFI (cfiCond244) DPH0 load(1, XDATA, add(CFA_XSP16, literal(-1)))
          CFI (cfiCond244) CFA_SP SP+-2
          CFI (cfiCond244) CFA_XSP16 add(XSP16, 13)
          CFI Block cfiCond245 Using cfiCommon0
          CFI (cfiCond245) Function ZDSecMgrAPSRemove
          CFI (cfiCond245) Conditional ??CrossCallReturnLabel_144
          CFI (cfiCond245) DPL0 Frame(CFA_SP, 4)
          CFI (cfiCond245) DPH0 Frame(CFA_SP, 5)
          CFI (cfiCond245) CFA_SP SP+-7
          CFI (cfiCond245) CFA_XSP16 add(XSP16, 8)
          CFI Block cfiPicker246 Using cfiCommon1
          CFI (cfiPicker246) NoFunction
          CFI (cfiPicker246) Picker
        MOV     A,R2
        MOVX    @DPTR,A
        INC     DPTR
        MOV     A,R3
        MOVX    @DPTR,A
        MOV     A,#0x2
        RET
          CFI (cfiCond242) CFA_SP SP+0
          CFI (cfiCond243) CFA_SP SP+0
          CFI (cfiCond244) CFA_SP SP+0
          CFI (cfiCond245) CFA_SP SP+-5
          CFI (cfiPicker246) CFA_SP SP+0
          CFI EndBlock cfiCond242
          CFI EndBlock cfiCond243
          CFI EndBlock cfiCond244
          CFI EndBlock cfiCond245
          CFI EndBlock cfiPicker246
// 1977 #endif // ( ZG_BUILD_COORDINATOR_TYPE )
// 1978 
// 1979 /******************************************************************************
// 1980  * @fn          ZDSecMgrRequestAppKey
// 1981  *
// 1982  * @brief       Request an application key with partner.
// 1983  *
// 1984  * @param       partExtAddr - [in] partner extended address
// 1985  *
// 1986  * @return      ZStatus_t
// 1987  */

        RSEG BANKED_CODE:CODE:NOROOT(0)
// 1988 ZStatus_t ZDSecMgrRequestAppKey( uint8 *partExtAddr )
ZDSecMgrRequestAppKey:
          CFI Block cfiBlock247 Using cfiCommon0
          CFI Function ZDSecMgrRequestAppKey
        CODE
// 1989 {
        FUNCALL ZDSecMgrRequestAppKey, APSME_RequestKeyReq
        LOCFRAME ISTACK, 2, STACK
        LOCFRAME PSTACK, 0, STACK
        LOCFRAME XSTACK, 4, STACK
        LOCFRAME IOVERLAY, 0, STATIC
        LOCFRAME DOVERLAY, 0, STATIC
        ARGFRAME ISTACK, 2, STACK
        ARGFRAME PSTACK, 0, STACK
        ARGFRAME XSTACK, 4, STACK
        ARGFRAME IOVERLAY, 0, STATIC
        ARGFRAME DOVERLAY, 0, STATIC
        PUSH    DPL
          CFI DPL0 Frame(CFA_SP, 4)
          CFI CFA_SP SP+-4
        PUSH    DPH
          CFI DPH0 Frame(CFA_SP, 5)
          CFI CFA_SP SP+-5
        ; Saved register size: 2
        ; Auto size: 4
        MOV     A,#-0x4
        LCALL   ?ALLOC_XSTACK8
          CFI CFA_XSP16 add(XSP16, 4)
// 1990   ZStatus_t status;
// 1991   APSME_RequestKeyReq_t req;
// 1992 
// 1993   req.dstAddr = 0;
        MOV     DPL,?XSP + 0
        MOV     DPH,?XSP + 1
        CLR     A
        MOVX    @DPTR,A
// 1994   req.keyType = KEY_TYPE_APP_MASTER;
        INC     A
        LCALL   ?XSTACK_DISP0_8
        MOV     A,#0x2
        MOVX    @DPTR,A
// 1995 
// 1996   req.partExtAddr = partExtAddr;
        LCALL   ?XSTACK_DISP0_8
        LCALL   ?Subroutine14 & 0xFFFF
// 1997   status = APSME_RequestKeyReq( &req );
// 1998 
// 1999   return status;
??CrossCallReturnLabel_134:
        LCALL   `??APSME_RequestKeyReq::?relay`; Banked call to: APSME_RequestKeyReq
        MOV     A,#0x4
        LJMP    ??Subroutine64_0 & 0xFFFF
// 2000 }
          CFI EndBlock cfiBlock247
// 2001 
// 2002 #if ( ZG_BUILD_JOINING_TYPE )
// 2003 /******************************************************************************
// 2004  * @fn          ZDSecMgrSetupPartner
// 2005  *
// 2006  * @brief       Setup for application key partner.
// 2007  *
// 2008  * @param       partNwkAddr - [in] partner network address
// 2009  *
// 2010  * @return      ZStatus_t
// 2011  */

        RSEG BANKED_CODE:CODE:NOROOT(0)
// 2012 ZStatus_t ZDSecMgrSetupPartner( uint16 partNwkAddr, uint8* partExtAddr )
ZDSecMgrSetupPartner:
          CFI Block cfiBlock248 Using cfiCommon0
          CFI Function ZDSecMgrSetupPartner
        CODE
// 2013 {
        FUNCALL ZDSecMgrSetupPartner, AddrMgrExtAddrSet
        LOCFRAME ISTACK, 0, STACK
        LOCFRAME PSTACK, 0, STACK
        LOCFRAME XSTACK, 25, STACK
        LOCFRAME IOVERLAY, 0, STATIC
        LOCFRAME DOVERLAY, 0, STATIC
        ARGFRAME ISTACK, 0, STACK
        ARGFRAME PSTACK, 0, STACK
        ARGFRAME XSTACK, 25, STACK
        ARGFRAME IOVERLAY, 0, STATIC
        ARGFRAME DOVERLAY, 0, STATIC
        FUNCALL ZDSecMgrSetupPartner, AddrMgrEntryUpdate
        LOCFRAME ISTACK, 0, STACK
        LOCFRAME PSTACK, 0, STACK
        LOCFRAME XSTACK, 25, STACK
        LOCFRAME IOVERLAY, 0, STATIC
        LOCFRAME DOVERLAY, 0, STATIC
        ARGFRAME ISTACK, 0, STACK
        ARGFRAME PSTACK, 0, STACK
        ARGFRAME XSTACK, 25, STACK
        ARGFRAME IOVERLAY, 0, STATIC
        ARGFRAME DOVERLAY, 0, STATIC
        FUNCALL ZDSecMgrSetupPartner, ZDP_NwkAddrReq
        LOCFRAME ISTACK, 0, STACK
        LOCFRAME PSTACK, 0, STACK
        LOCFRAME XSTACK, 25, STACK
        LOCFRAME IOVERLAY, 0, STATIC
        LOCFRAME DOVERLAY, 0, STATIC
        ARGFRAME ISTACK, 0, STACK
        ARGFRAME PSTACK, 0, STACK
        ARGFRAME XSTACK, 25, STACK
        ARGFRAME IOVERLAY, 0, STATIC
        ARGFRAME DOVERLAY, 0, STATIC
        FUNCALL ZDSecMgrSetupPartner, AddrMgrExtAddrValid
        LOCFRAME ISTACK, 0, STACK
        LOCFRAME PSTACK, 0, STACK
        LOCFRAME XSTACK, 25, STACK
        LOCFRAME IOVERLAY, 0, STATIC
        LOCFRAME DOVERLAY, 0, STATIC
        ARGFRAME ISTACK, 0, STACK
        ARGFRAME PSTACK, 0, STACK
        ARGFRAME XSTACK, 25, STACK
        ARGFRAME IOVERLAY, 0, STATIC
        ARGFRAME DOVERLAY, 0, STATIC
        FUNCALL ZDSecMgrSetupPartner, ZDP_IEEEAddrReq
        LOCFRAME ISTACK, 0, STACK
        LOCFRAME PSTACK, 0, STACK
        LOCFRAME XSTACK, 25, STACK
        LOCFRAME IOVERLAY, 0, STATIC
        LOCFRAME DOVERLAY, 0, STATIC
        ARGFRAME ISTACK, 0, STACK
        ARGFRAME PSTACK, 0, STACK
        ARGFRAME XSTACK, 25, STACK
        ARGFRAME IOVERLAY, 0, STATIC
        ARGFRAME DOVERLAY, 0, STATIC
        REQUIRE ?V0
        REQUIRE ?V2
        REQUIRE ?V3
        MOV     A,#-0xc
        LCALL   ?BANKED_ENTER_XDATA
          CFI DPH0 load(1, XDATA, add(CFA_XSP16, literal(-1)))
          CFI DPL0 load(1, XDATA, add(CFA_XSP16, literal(-2)))
          CFI ?BRET_EXT load(1, XDATA, add(CFA_XSP16, literal(-3)))
          CFI ?RET_HIGH load(1, XDATA, add(CFA_XSP16, literal(-4)))
          CFI ?RET_LOW load(1, XDATA, add(CFA_XSP16, literal(-5)))
          CFI R7 load(1, XDATA, add(CFA_XSP16, literal(-6)))
          CFI V3 load(1, XDATA, add(CFA_XSP16, literal(-7)))
          CFI V2 load(1, XDATA, add(CFA_XSP16, literal(-8)))
          CFI V1 load(1, XDATA, add(CFA_XSP16, literal(-9)))
          CFI V0 load(1, XDATA, add(CFA_XSP16, literal(-10)))
          CFI VB load(1, XDATA, add(CFA_XSP16, literal(-11)))
          CFI R6 load(1, XDATA, add(CFA_XSP16, literal(-12)))
          CFI CFA_SP SP+0
          CFI CFA_XSP16 add(XSP16, 12)
        ; Saved register size: 12
        ; Auto size: 13
        MOV     A,#-0xd
        LCALL   ?ALLOC_XSTACK8
          CFI CFA_XSP16 add(XSP16, 25)
        MOV     ?V2,R2
        MOV     ?V3,R3
        MOV     A,R4
        MOV     R6,A
        MOV     A,R5
        MOV     R7,A
// 2014   AddrMgrEntry_t entry;
// 2015   ZStatus_t      status;
// 2016 
// 2017   status = ZFailure;
        MOV     ?V0,#0x1
// 2018 
// 2019   // update the address manager
// 2020   entry.user    = ADDRMGR_USER_SECURITY;
        MOV     DPL,?XSP + 0
        MOV     DPH,?XSP + 1
        MOV     A,#0x2
        MOVX    @DPTR,A
// 2021   entry.nwkAddr = partNwkAddr;
        DEC     A
        LCALL   ?XSTACK_DISP0_8
        LCALL   ?Subroutine18 & 0xFFFF
// 2022   AddrMgrExtAddrSet( entry.extAddr, partExtAddr );
??CrossCallReturnLabel_6:
        LCALL   ?XSTACK_DISP0_8
        MOV     R2,DPL
        MOV     R3,DPH
        LCALL   `??AddrMgrExtAddrSet::?relay`; Banked call to: AddrMgrExtAddrSet
// 2023 
// 2024   if ( AddrMgrEntryUpdate( &entry ) == TRUE )
        ; Setup parameters for call to function AddrMgrEntryUpdate
        MOV     R2,?XSP + 0
        MOV     R3,?XSP + 1
        LCALL   `??AddrMgrEntryUpdate::?relay`; Banked call to: AddrMgrEntryUpdate
        MOV     A,R1
        XRL     A,#0x1
        JNZ     ??ZDSecMgrSetupPartner_0
// 2025   {
// 2026     status = ZSuccess;
        MOV     ?V0,#0x0
// 2027 
// 2028     // check for address discovery
// 2029     if ( partNwkAddr == INVALID_NODE_ADDR )
        MOV     A,#-0x2
        XRL     A,?V2
        JNZ     ??ZDSecMgrSetupPartner_1
        MOV     A,#-0x1
        XRL     A,?V3
??ZDSecMgrSetupPartner_1:
        JNZ     ??ZDSecMgrSetupPartner_2
// 2030     {
// 2031       status = ZDP_NwkAddrReq( partExtAddr, ZDP_ADDR_REQTYPE_SINGLE, 0, 0 );
        ; Setup parameters for call to function ZDP_NwkAddrReq
        MOV     R5,#0x0
        MOV     R4,#0x0
        MOV     R1,#0x0
        MOV     A,R6
        MOV     R2,A
        MOV     A,R7
        MOV     R3,A
        LCALL   `??ZDP_NwkAddrReq::?relay`; Banked call to: ZDP_NwkAddrReq
        SJMP    ??ZDSecMgrSetupPartner_3
// 2032     }
// 2033     else if ( !AddrMgrExtAddrValid( partExtAddr ) )
??ZDSecMgrSetupPartner_2:
        ; Setup parameters for call to function AddrMgrExtAddrValid
        MOV     A,R6
        MOV     R2,A
        MOV     A,R7
        MOV     R3,A
        LCALL   `??AddrMgrExtAddrValid::?relay`; Banked call to: AddrMgrExtAddrValid
        MOV     A,R1
        JNZ     ??ZDSecMgrSetupPartner_0
// 2034     {
// 2035       status = ZDP_IEEEAddrReq( partNwkAddr, ZDP_ADDR_REQTYPE_SINGLE, 0, 0 );
        ; Setup parameters for call to function ZDP_IEEEAddrReq
        MOV     R5,#0x0
        MOV     R4,#0x0
        MOV     R1,#0x0
        MOV     R2,?V2
        MOV     R3,?V3
        LCALL   `??ZDP_IEEEAddrReq::?relay`; Banked call to: ZDP_IEEEAddrReq
??ZDSecMgrSetupPartner_3:
        MOV     A,R1
        MOV     ?V0,A
// 2036     }
// 2037   }
// 2038 
// 2039   return status;
??ZDSecMgrSetupPartner_0:
        MOV     R1,?V0
        MOV     A,#0xd
        LJMP    ??Subroutine73_0 & 0xFFFF
// 2040 }
          CFI EndBlock cfiBlock248

        RSEG BANKED_CODE:CODE:NOROOT(0)
?Subroutine18:
          CFI Block cfiCond249 Using cfiCommon0
          CFI Function ZDSecMgrAddrStore
          CFI Conditional ??CrossCallReturnLabel_4
          CFI R6 load(1, XDATA, add(CFA_XSP16, literal(-9)))
          CFI VB load(1, XDATA, add(CFA_XSP16, literal(-8)))
          CFI V0 load(1, XDATA, add(CFA_XSP16, literal(-7)))
          CFI R7 load(1, XDATA, add(CFA_XSP16, literal(-6)))
          CFI ?RET_LOW load(1, XDATA, add(CFA_XSP16, literal(-5)))
          CFI ?RET_HIGH load(1, XDATA, add(CFA_XSP16, literal(-4)))
          CFI ?BRET_EXT load(1, XDATA, add(CFA_XSP16, literal(-3)))
          CFI DPL0 load(1, XDATA, add(CFA_XSP16, literal(-2)))
          CFI DPH0 load(1, XDATA, add(CFA_XSP16, literal(-1)))
          CFI CFA_SP SP+-2
          CFI CFA_XSP16 add(XSP16, 22)
          CFI Block cfiCond250 Using cfiCommon0
          CFI (cfiCond250) Function ZDSecMgrExtAddrStore
          CFI (cfiCond250) Conditional ??CrossCallReturnLabel_5
          CFI (cfiCond250) R6 load(1, XDATA, add(CFA_XSP16, literal(-9)))
          CFI (cfiCond250) VB load(1, XDATA, add(CFA_XSP16, literal(-8)))
          CFI (cfiCond250) V0 load(1, XDATA, add(CFA_XSP16, literal(-7)))
          CFI (cfiCond250) R7 load(1, XDATA, add(CFA_XSP16, literal(-6)))
          CFI (cfiCond250) ?RET_LOW load(1, XDATA, add(CFA_XSP16, literal(-5)))
          CFI (cfiCond250) ?RET_HIGH load(1, XDATA, add(CFA_XSP16, literal(-4)))
          CFI (cfiCond250) ?BRET_EXT load(1, XDATA, add(CFA_XSP16, literal(-3)))
          CFI (cfiCond250) DPL0 load(1, XDATA, add(CFA_XSP16, literal(-2)))
          CFI (cfiCond250) DPH0 load(1, XDATA, add(CFA_XSP16, literal(-1)))
          CFI (cfiCond250) CFA_SP SP+-2
          CFI (cfiCond250) CFA_XSP16 add(XSP16, 22)
          CFI Block cfiCond251 Using cfiCommon0
          CFI (cfiCond251) Function ZDSecMgrSetupPartner
          CFI (cfiCond251) Conditional ??CrossCallReturnLabel_6
          CFI (cfiCond251) R6 load(1, XDATA, add(CFA_XSP16, literal(-12)))
          CFI (cfiCond251) VB load(1, XDATA, add(CFA_XSP16, literal(-11)))
          CFI (cfiCond251) V0 load(1, XDATA, add(CFA_XSP16, literal(-10)))
          CFI (cfiCond251) V1 load(1, XDATA, add(CFA_XSP16, literal(-9)))
          CFI (cfiCond251) V2 load(1, XDATA, add(CFA_XSP16, literal(-8)))
          CFI (cfiCond251) V3 load(1, XDATA, add(CFA_XSP16, literal(-7)))
          CFI (cfiCond251) R7 load(1, XDATA, add(CFA_XSP16, literal(-6)))
          CFI (cfiCond251) ?RET_LOW load(1, XDATA, add(CFA_XSP16, literal(-5)))
          CFI (cfiCond251) ?RET_HIGH load(1, XDATA, add(CFA_XSP16, literal(-4)))
          CFI (cfiCond251) ?BRET_EXT load(1, XDATA, add(CFA_XSP16, literal(-3)))
          CFI (cfiCond251) DPL0 load(1, XDATA, add(CFA_XSP16, literal(-2)))
          CFI (cfiCond251) DPH0 load(1, XDATA, add(CFA_XSP16, literal(-1)))
          CFI (cfiCond251) CFA_SP SP+-2
          CFI (cfiCond251) CFA_XSP16 add(XSP16, 25)
          CFI Block cfiCond252 Using cfiCommon0
          CFI (cfiCond252) Function ZDSecMgrAddLinkKey
          CFI (cfiCond252) Conditional ??CrossCallReturnLabel_7
          CFI (cfiCond252) R6 load(1, XDATA, add(CFA_XSP16, literal(-9)))
          CFI (cfiCond252) VB load(1, XDATA, add(CFA_XSP16, literal(-8)))
          CFI (cfiCond252) V0 load(1, XDATA, add(CFA_XSP16, literal(-7)))
          CFI (cfiCond252) R7 load(1, XDATA, add(CFA_XSP16, literal(-6)))
          CFI (cfiCond252) ?RET_LOW load(1, XDATA, add(CFA_XSP16, literal(-5)))
          CFI (cfiCond252) ?RET_HIGH load(1, XDATA, add(CFA_XSP16, literal(-4)))
          CFI (cfiCond252) ?BRET_EXT load(1, XDATA, add(CFA_XSP16, literal(-3)))
          CFI (cfiCond252) DPL0 load(1, XDATA, add(CFA_XSP16, literal(-2)))
          CFI (cfiCond252) DPH0 load(1, XDATA, add(CFA_XSP16, literal(-1)))
          CFI (cfiCond252) CFA_SP SP+-2
          CFI (cfiCond252) CFA_XSP16 add(XSP16, 22)
          CFI Block cfiPicker253 Using cfiCommon1
          CFI (cfiPicker253) NoFunction
          CFI (cfiPicker253) Picker
        MOV     A,R2
        MOVX    @DPTR,A
        INC     DPTR
        MOV     A,R3
        MOVX    @DPTR,A
        ; Setup parameters for call to function AddrMgrExtAddrSet
        ; Setup parameters for call to function AddrMgrExtAddrSet
        ; Setup parameters for call to function AddrMgrExtAddrSet
        ; Setup parameters for call to function AddrMgrExtAddrSet
        MOV     A,#0x3
        RET
          CFI (cfiCond249) CFA_SP SP+0
          CFI (cfiCond250) CFA_SP SP+0
          CFI (cfiCond251) CFA_SP SP+0
          CFI (cfiCond252) CFA_SP SP+0
          CFI (cfiPicker253) CFA_SP SP+0
          CFI EndBlock cfiCond249
          CFI EndBlock cfiCond250
          CFI EndBlock cfiCond251
          CFI EndBlock cfiCond252
          CFI EndBlock cfiPicker253
// 2041 #endif // ( ZG_BUILD_JOINING_TYPE )
// 2042 
// 2043 #if ( ZG_BUILD_COORDINATOR_TYPE )
// 2044 /******************************************************************************
// 2045  * @fn          ZDSecMgrAppKeyTypeSet
// 2046  *
// 2047  * @brief       Set application key type.
// 2048  *
// 2049  * @param       keyType - [in] application key type (KEY_TYPE_APP_MASTER@2 or
// 2050  *                                                   KEY_TYPE_APP_LINK@3
// 2051  *
// 2052  * @return      ZStatus_t
// 2053  */

        RSEG BANKED_CODE:CODE:NOROOT(0)
// 2054 ZStatus_t ZDSecMgrAppKeyTypeSet( uint8 keyType )
ZDSecMgrAppKeyTypeSet:
          CFI Block cfiBlock254 Using cfiCommon0
          CFI Function ZDSecMgrAppKeyTypeSet
        CODE
// 2055 {
        PUSH    DPL
          CFI DPL0 Frame(CFA_SP, 4)
          CFI CFA_SP SP+-4
        PUSH    DPH
          CFI DPH0 Frame(CFA_SP, 5)
          CFI CFA_SP SP+-5
        ; Saved register size: 2
        ; Auto size: 0
        MOV     A,R1
        MOV     R0,A
// 2056   if ( keyType == KEY_TYPE_APP_LINK )
        MOV     A,#0x3
        XRL     A,R0
        MOV     DPTR,#ZDSecMgrAppKeyType
        JNZ     ??ZDSecMgrAppKeyTypeSet_0
// 2057   {
// 2058     ZDSecMgrAppKeyType = KEY_TYPE_APP_LINK;
        MOV     A,#0x3
        SJMP    ??ZDSecMgrAppKeyTypeSet_1
// 2059   }
// 2060   else
// 2061   {
// 2062     ZDSecMgrAppKeyType = KEY_TYPE_APP_MASTER;
??ZDSecMgrAppKeyTypeSet_0:
        MOV     A,#0x2
// 2063   }
??ZDSecMgrAppKeyTypeSet_1:
        LJMP    ?Subroutine8 & 0xFFFF
// 2064 
// 2065   return ZSuccess;
// 2066 }
          CFI EndBlock cfiBlock254
// 2067 #endif
// 2068 
// 2069 /******************************************************************************
// 2070  * ZigBee Device Security Manager - Stub Implementations
// 2071  */
// 2072 
// 2073 
// 2074 /******************************************************************************
// 2075  * @fn          ZDSecMgrLinkKeySet (stubs APSME_LinkKeySet)
// 2076  *
// 2077  * @brief       Set <APSME_LinkKeyData_t> for specified NWK address.
// 2078  *
// 2079  * @param       extAddr - [in] EXT address
// 2080  * @param       data    - [in] APSME_LinkKeyData_t
// 2081  *
// 2082  * @return      ZStatus_t
// 2083  */

        RSEG BANKED_CODE:CODE:NOROOT(0)
// 2084 ZStatus_t ZDSecMgrLinkKeySet( uint8* extAddr, uint8* key )
APSME_LinkKeySet:
          CFI Block cfiBlock255 Using cfiCommon0
          CFI Function APSME_LinkKeySet
        CODE
// 2085 {
        FUNCALL APSME_LinkKeySet, AddrMgrExtAddrSet
        LOCFRAME ISTACK, 0, STACK
        LOCFRAME PSTACK, 0, STACK
        LOCFRAME XSTACK, 32, STACK
        LOCFRAME IOVERLAY, 0, STATIC
        LOCFRAME DOVERLAY, 0, STATIC
        ARGFRAME ISTACK, 0, STACK
        ARGFRAME PSTACK, 0, STACK
        ARGFRAME XSTACK, 32, STACK
        ARGFRAME IOVERLAY, 0, STATIC
        ARGFRAME DOVERLAY, 0, STATIC
        FUNCALL APSME_LinkKeySet, AddrMgrEntryLookupExt
        LOCFRAME ISTACK, 0, STACK
        LOCFRAME PSTACK, 0, STACK
        LOCFRAME XSTACK, 32, STACK
        LOCFRAME IOVERLAY, 0, STATIC
        LOCFRAME DOVERLAY, 0, STATIC
        ARGFRAME ISTACK, 0, STACK
        ARGFRAME PSTACK, 0, STACK
        ARGFRAME XSTACK, 32, STACK
        ARGFRAME IOVERLAY, 0, STATIC
        ARGFRAME DOVERLAY, 0, STATIC
        FUNCALL APSME_LinkKeySet, osal_mem_alloc
        LOCFRAME ISTACK, 0, STACK
        LOCFRAME PSTACK, 0, STACK
        LOCFRAME XSTACK, 32, STACK
        LOCFRAME IOVERLAY, 0, STATIC
        LOCFRAME DOVERLAY, 0, STATIC
        ARGFRAME ISTACK, 0, STACK
        ARGFRAME PSTACK, 0, STACK
        ARGFRAME XSTACK, 32, STACK
        ARGFRAME IOVERLAY, 0, STATIC
        ARGFRAME DOVERLAY, 0, STATIC
        FUNCALL APSME_LinkKeySet, osal_nv_read
        LOCFRAME ISTACK, 0, STACK
        LOCFRAME PSTACK, 0, STACK
        LOCFRAME XSTACK, 36, STACK
        LOCFRAME IOVERLAY, 0, STATIC
        LOCFRAME DOVERLAY, 0, STATIC
        ARGFRAME ISTACK, 0, STACK
        ARGFRAME PSTACK, 0, STACK
        ARGFRAME XSTACK, 36, STACK
        ARGFRAME IOVERLAY, 0, STATIC
        ARGFRAME DOVERLAY, 0, STATIC
        FUNCALL APSME_LinkKeySet, osal_memcpy
        LOCFRAME ISTACK, 0, STACK
        LOCFRAME PSTACK, 0, STACK
        LOCFRAME XSTACK, 35, STACK
        LOCFRAME IOVERLAY, 0, STATIC
        LOCFRAME DOVERLAY, 0, STATIC
        ARGFRAME ISTACK, 0, STACK
        ARGFRAME PSTACK, 0, STACK
        ARGFRAME XSTACK, 35, STACK
        ARGFRAME IOVERLAY, 0, STATIC
        ARGFRAME DOVERLAY, 0, STATIC
        FUNCALL APSME_LinkKeySet, osal_nv_write
        LOCFRAME ISTACK, 0, STACK
        LOCFRAME PSTACK, 0, STACK
        LOCFRAME XSTACK, 36, STACK
        LOCFRAME IOVERLAY, 0, STATIC
        LOCFRAME DOVERLAY, 0, STATIC
        ARGFRAME ISTACK, 0, STACK
        ARGFRAME PSTACK, 0, STACK
        ARGFRAME XSTACK, 36, STACK
        ARGFRAME IOVERLAY, 0, STATIC
        ARGFRAME DOVERLAY, 0, STATIC
        FUNCALL APSME_LinkKeySet, osal_memset
        LOCFRAME ISTACK, 0, STACK
        LOCFRAME PSTACK, 0, STACK
        LOCFRAME XSTACK, 32, STACK
        LOCFRAME IOVERLAY, 0, STATIC
        LOCFRAME DOVERLAY, 0, STATIC
        ARGFRAME ISTACK, 0, STACK
        ARGFRAME PSTACK, 0, STACK
        ARGFRAME XSTACK, 32, STACK
        ARGFRAME IOVERLAY, 0, STATIC
        ARGFRAME DOVERLAY, 0, STATIC
        FUNCALL APSME_LinkKeySet, osal_mem_free
        LOCFRAME ISTACK, 0, STACK
        LOCFRAME PSTACK, 0, STACK
        LOCFRAME XSTACK, 32, STACK
        LOCFRAME IOVERLAY, 0, STATIC
        LOCFRAME DOVERLAY, 0, STATIC
        ARGFRAME ISTACK, 0, STACK
        ARGFRAME PSTACK, 0, STACK
        ARGFRAME XSTACK, 32, STACK
        ARGFRAME IOVERLAY, 0, STATIC
        ARGFRAME DOVERLAY, 0, STATIC
        REQUIRE ?V0
        REQUIRE ?V1
        REQUIRE ?V2
        REQUIRE ?V4
        REQUIRE ?V5
        REQUIRE ?V6
        REQUIRE ?V7
        REQUIRE ?V8
        REQUIRE ?V9
        REQUIRE ?V10
        MOV     A,#-0x13
        LCALL   ?BANKED_ENTER_XDATA
          CFI DPH0 load(1, XDATA, add(CFA_XSP16, literal(-1)))
          CFI DPL0 load(1, XDATA, add(CFA_XSP16, literal(-2)))
          CFI ?BRET_EXT load(1, XDATA, add(CFA_XSP16, literal(-3)))
          CFI ?RET_HIGH load(1, XDATA, add(CFA_XSP16, literal(-4)))
          CFI ?RET_LOW load(1, XDATA, add(CFA_XSP16, literal(-5)))
          CFI R7 load(1, XDATA, add(CFA_XSP16, literal(-6)))
          CFI V10 load(1, XDATA, add(CFA_XSP16, literal(-7)))
          CFI V9 load(1, XDATA, add(CFA_XSP16, literal(-8)))
          CFI V8 load(1, XDATA, add(CFA_XSP16, literal(-9)))
          CFI V7 load(1, XDATA, add(CFA_XSP16, literal(-10)))
          CFI V6 load(1, XDATA, add(CFA_XSP16, literal(-11)))
          CFI V5 load(1, XDATA, add(CFA_XSP16, literal(-12)))
          CFI V4 load(1, XDATA, add(CFA_XSP16, literal(-13)))
          CFI V3 load(1, XDATA, add(CFA_XSP16, literal(-14)))
          CFI V2 load(1, XDATA, add(CFA_XSP16, literal(-15)))
          CFI V1 load(1, XDATA, add(CFA_XSP16, literal(-16)))
          CFI V0 load(1, XDATA, add(CFA_XSP16, literal(-17)))
          CFI VB load(1, XDATA, add(CFA_XSP16, literal(-18)))
          CFI R6 load(1, XDATA, add(CFA_XSP16, literal(-19)))
          CFI CFA_SP SP+0
          CFI CFA_XSP16 add(XSP16, 19)
        ; Saved register size: 19
        ; Auto size: 13
        MOV     A,#-0xd
        LCALL   ?ALLOC_XSTACK8
          CFI CFA_XSP16 add(XSP16, 32)
        LCALL   ?Subroutine12 & 0xFFFF
// 2086   ZStatus_t status;
// 2087   ZDSecMgrEntry_t* entry;
// 2088   APSME_LinkKeyData_t *pApsLinkKey = NULL;
// 2089   uint16 Index;
// 2090 
// 2091   // lookup entry index for specified EXT address
// 2092   status = ZDSecMgrEntryLookupExtGetIndex( extAddr, &entry, &Index );
??CrossCallReturnLabel_154:
        LCALL   ?XSTACK_DISP0_8
        MOV     R2,DPL
        MOV     R3,DPH
        LCALL   `??AddrMgrExtAddrSet::?relay`; Banked call to: AddrMgrExtAddrSet
        ; Setup parameters for call to function AddrMgrEntryLookupExt
        MOV     R2,?XSP + 0
        MOV     R3,?XSP + 1
        LCALL   `??AddrMgrEntryLookupExt::?relay`; Banked call to: AddrMgrEntryLookupExt
        MOV     A,R1
        XRL     A,#0x1
        JNZ     ??APSME_LinkKeySet_0
        MOV     A,#0xb
        LCALL   ?XSTACK_DISP0_8
        LCALL   ?Subroutine24 & 0xFFFF
??CrossCallReturnLabel_16:
        JZ      ??APSME_LinkKeySet_0
        LCALL   ?Subroutine25 & 0xFFFF
??CrossCallReturnLabel_187:
        MOV     DPL,R2
        MOV     DPH,R3
        MOVX    A,@DPTR
        XRL     A,R4
        JNZ     ??APSME_LinkKeySet_1
        INC     DPTR
        MOVX    A,@DPTR
        XRL     A,R5
??APSME_LinkKeySet_1:
        JZ      ??APSME_LinkKeySet_2
        INC     R0
        MOV     A,R0
        JNZ     ??APSME_LinkKeySet_3
        INC     R1
??APSME_LinkKeySet_3:
        MOV     A,R2
        ADD     A,#0x5
        MOV     R2,A
        JNC     ??APSME_LinkKeySet_4
        INC     R3
??APSME_LinkKeySet_4:
        LCALL   ?Subroutine37 & 0xFFFF
??CrossCallReturnLabel_50:
        JC      ??CrossCallReturnLabel_187
??APSME_LinkKeySet_0:
        MOV     ?V2,#-0x38
        LJMP    ??CrossCallReturnLabel_149 & 0xFFFF
??APSME_LinkKeySet_2:
        LCALL   ?Subroutine38 & 0xFFFF
??CrossCallReturnLabel_58:
        MOV     ?V2,#0x0
// 2093 
// 2094   if ( status == ZSuccess )
// 2095   {
// 2096     // point to NV item
// 2097     entry->keyNvId = ZCD_NV_APS_LINK_KEY_DATA_START + Index;
        MOV     A,R2
        ADD     A,#0x2
        MOV     ?V4,A
        CLR     A
        ADDC    A,R3
        MOV     ?V5,A
        MOV     A,R0
        ADD     A,#0x1
        INC     R0
        MOV     A,R1
        ADDC    A,#0x2
        MOV     R1,A
        MOV     DPL,?V4
        MOV     DPH,?V5
        LCALL   ??Subroutine54_0 & 0xFFFF
// 2098 
// 2099     pApsLinkKey = (APSME_LinkKeyData_t *)osal_mem_alloc(sizeof(APSME_LinkKeyData_t));
??CrossCallReturnLabel_107:
        ; Setup parameters for call to function osal_mem_alloc
        MOV     R2,#0x18
        MOV     R3,#0x0
        LCALL   `??osal_mem_alloc::?relay`; Banked call to: osal_mem_alloc
        MOV     ?V0,R2
        MOV     ?V1,R3
// 2100 
// 2101     if (pApsLinkKey != NULL)
        MOV     A,R2
        ORL     A,?V1
        JNZ     $+5
        LJMP    ??CrossCallReturnLabel_149 & 0xFFFF
// 2102     {
// 2103       // read the key form NV, keyNvId must be ZCD_NV_APS_LINK_KEY_DATA_START based
// 2104       osal_nv_read( entry->keyNvId, 0,
// 2105                    sizeof(APSME_LinkKeyData_t), pApsLinkKey );
        ; Setup parameters for call to function osal_nv_read
        MOV     R0,#?V0
        LCALL   ?PUSH_XSTACK_I_TWO
          CFI CFA_XSP16 add(XSP16, 34)
        MOV     ?V6,#0x18
        MOV     ?V7,#0x0
        MOV     R0,#?V6
        LCALL   ?PUSH_XSTACK_I_TWO
          CFI CFA_XSP16 add(XSP16, 36)
        MOV     R4,#0x0
        MOV     R5,#0x0
        MOV     DPL,?V4
        MOV     DPH,?V5
        LCALL   ??Subroutine72_0 & 0xFFFF
??CrossCallReturnLabel_179:
        LCALL   `??osal_nv_read::?relay`; Banked call to: osal_nv_read
        MOV     A,#0x4
        LCALL   ?DEALLOC_XSTACK8
          CFI CFA_XSP16 add(XSP16, 32)
// 2106 
// 2107       // set new values of the key
// 2108       osal_memcpy( pApsLinkKey->key, key, SEC_KEY_LEN );
        ; Setup parameters for call to function osal_memcpy
        MOV     ?V8,R6
        MOV     ?V9,R7
        MOV     ?V10,#0x0
        MOV     R0,#?V8
        LCALL   ?PUSH_XSTACK_I_THREE
          CFI CFA_XSP16 add(XSP16, 35)
        MOV     R4,#0x10
        MOV     R5,#0x0
        MOV     R2,?V0
        MOV     R3,?V1
        LCALL   `??osal_memcpy::?relay`; Banked call to: osal_memcpy
        MOV     A,#0x3
        LCALL   ?DEALLOC_XSTACK8
          CFI CFA_XSP16 add(XSP16, 32)
// 2109       pApsLinkKey->rxFrmCntr = 0;
        MOV     A,?V0
        ADD     A,#0x14
        LCALL   ?Subroutine13 & 0xFFFF
// 2110       pApsLinkKey->txFrmCntr = 0;
??CrossCallReturnLabel_150:
        MOV     A,?V0
        ADD     A,#0x10
        LCALL   ?Subroutine13 & 0xFFFF
// 2111 
// 2112       osal_nv_write( entry->keyNvId, 0,
// 2113                     sizeof(APSME_LinkKeyData_t), pApsLinkKey );
??CrossCallReturnLabel_151:
        ; Setup parameters for call to function osal_nv_write
        MOV     R0,#?V0
        LCALL   ?PUSH_XSTACK_I_TWO
          CFI CFA_XSP16 add(XSP16, 34)
        MOV     R0,#?V6
        LCALL   ?PUSH_XSTACK_I_TWO
          CFI CFA_XSP16 add(XSP16, 36)
        MOV     R4,#0x0
        MOV     R5,#0x0
        MOV     DPL,?V4
        MOV     DPH,?V5
        LCALL   ??Subroutine72_0 & 0xFFFF
??CrossCallReturnLabel_180:
        LCALL   `??osal_nv_write::?relay`; Banked call to: osal_nv_write
        MOV     A,#0x4
        LCALL   ?DEALLOC_XSTACK8
          CFI CFA_XSP16 add(XSP16, 32)
// 2114 
// 2115       // clear copy of key in RAM
// 2116       osal_memset(pApsLinkKey, 0x00, sizeof(APSME_LinkKeyData_t));
        ; Setup parameters for call to function osal_memset
        MOV     R4,#0x18
        MOV     R5,#0x0
        MOV     R1,#0x0
        MOV     R2,?V0
        MOV     R3,?V1
        LCALL   `??osal_memset::?relay`; Banked call to: osal_memset
// 2117 
// 2118       osal_mem_free(pApsLinkKey);
        ; Setup parameters for call to function osal_mem_free
        MOV     R2,?V0
        MOV     R3,?V1
        LCALL   `??osal_mem_free::?relay`; Banked call to: osal_mem_free
        MOV     DPL,?V4
        MOV     DPH,?V5
        LCALL   ??Subroutine60_0 & 0xFFFF
??CrossCallReturnLabel_122:
        MOV     A,R0
        MOV     B,#0x9
        MUL     AB
        MOV     R0,A
        MOV     R2,B
        MOV     B,#0x9
        MOV     A,R1
        MUL     AB
        ADD     A,R2
        MOV     R1,A
        MOV     A,#ApsLinkKeyFrmCntr & 0xff
        ADD     A,R0
        MOV     R2,A
        MOV     A,#(ApsLinkKeyFrmCntr >> 8) & 0xff
        ADDC    A,R1
        MOV     R3,A
        MOV     A,R2
        ADD     A,#-0x9
        MOV     DPL,A
        MOV     A,R3
        ADDC    A,#-0x13
        LCALL   ??Subroutine67_0 & 0xFFFF
// 2119 
// 2120       // set initial values for counters in RAM
// 2121       ApsLinkKeyFrmCntr[entry->keyNvId - ZCD_NV_APS_LINK_KEY_DATA_START].txFrmCntr = 0;
// 2122       ApsLinkKeyFrmCntr[entry->keyNvId - ZCD_NV_APS_LINK_KEY_DATA_START].rxFrmCntr = 0;
??CrossCallReturnLabel_148:
        MOV     A,R2
        ADD     A,#-0x5
        MOV     DPL,A
        MOV     A,R3
        ADDC    A,#-0x13
        LCALL   ??Subroutine67_0 & 0xFFFF
// 2123     }
// 2124   }
// 2125 
// 2126   return status;
??CrossCallReturnLabel_149:
        MOV     R1,?V2
        MOV     A,#0xd
        LCALL   ?DEALLOC_XSTACK8
          CFI CFA_XSP16 add(XSP16, 19)
        MOV     R7,#0xb
        LJMP    ?BANKED_LEAVE_XDATA
          CFI R6 SameValue
          CFI VB SameValue
          CFI V0 SameValue
          CFI V1 SameValue
          CFI V2 SameValue
          CFI V3 SameValue
          CFI V4 SameValue
          CFI V5 SameValue
          CFI V6 SameValue
          CFI V7 SameValue
          CFI V8 SameValue
          CFI V9 SameValue
          CFI V10 SameValue
          CFI R7 SameValue
          CFI ?RET_LOW Frame(CFA_SP, 1)
          CFI ?RET_HIGH Frame(CFA_SP, 2)
          CFI ?BRET_EXT Frame(CFA_SP, 3)
          CFI DPL0 SameValue
          CFI DPH0 SameValue
          CFI CFA_SP SP+-3
          CFI CFA_XSP16 XSP16+0
// 2127 }
          CFI EndBlock cfiBlock255

        RSEG BANKED_CODE:CODE:NOROOT(0)
?Subroutine38:
          CFI Block cfiCond256 Using cfiCommon0
          CFI Function ZDSecMgrEntryLookupExtGetIndex
          CFI Conditional ??CrossCallReturnLabel_57
          CFI R6 load(1, XDATA, add(CFA_XSP16, literal(-9)))
          CFI VB load(1, XDATA, add(CFA_XSP16, literal(-8)))
          CFI V0 load(1, XDATA, add(CFA_XSP16, literal(-7)))
          CFI R7 load(1, XDATA, add(CFA_XSP16, literal(-6)))
          CFI ?RET_LOW load(1, XDATA, add(CFA_XSP16, literal(-5)))
          CFI ?RET_HIGH load(1, XDATA, add(CFA_XSP16, literal(-4)))
          CFI ?BRET_EXT load(1, XDATA, add(CFA_XSP16, literal(-3)))
          CFI DPL0 load(1, XDATA, add(CFA_XSP16, literal(-2)))
          CFI DPH0 load(1, XDATA, add(CFA_XSP16, literal(-1)))
          CFI CFA_SP SP+-2
          CFI CFA_XSP16 add(XSP16, 22)
          CFI Block cfiCond257 Using cfiCommon0
          CFI (cfiCond257) Function APSME_LinkKeySet
          CFI (cfiCond257) Conditional ??CrossCallReturnLabel_58
          CFI (cfiCond257) R6 load(1, XDATA, add(CFA_XSP16, literal(-19)))
          CFI (cfiCond257) VB load(1, XDATA, add(CFA_XSP16, literal(-18)))
          CFI (cfiCond257) V0 load(1, XDATA, add(CFA_XSP16, literal(-17)))
          CFI (cfiCond257) V1 load(1, XDATA, add(CFA_XSP16, literal(-16)))
          CFI (cfiCond257) V2 load(1, XDATA, add(CFA_XSP16, literal(-15)))
          CFI (cfiCond257) V3 load(1, XDATA, add(CFA_XSP16, literal(-14)))
          CFI (cfiCond257) V4 load(1, XDATA, add(CFA_XSP16, literal(-13)))
          CFI (cfiCond257) V5 load(1, XDATA, add(CFA_XSP16, literal(-12)))
          CFI (cfiCond257) V6 load(1, XDATA, add(CFA_XSP16, literal(-11)))
          CFI (cfiCond257) V7 load(1, XDATA, add(CFA_XSP16, literal(-10)))
          CFI (cfiCond257) V8 load(1, XDATA, add(CFA_XSP16, literal(-9)))
          CFI (cfiCond257) V9 load(1, XDATA, add(CFA_XSP16, literal(-8)))
          CFI (cfiCond257) V10 load(1, XDATA, add(CFA_XSP16, literal(-7)))
          CFI (cfiCond257) R7 load(1, XDATA, add(CFA_XSP16, literal(-6)))
          CFI (cfiCond257) ?RET_LOW load(1, XDATA, add(CFA_XSP16, literal(-5)))
          CFI (cfiCond257) ?RET_HIGH load(1, XDATA, add(CFA_XSP16, literal(-4)))
          CFI (cfiCond257) ?BRET_EXT load(1, XDATA, add(CFA_XSP16, literal(-3)))
          CFI (cfiCond257) DPL0 load(1, XDATA, add(CFA_XSP16, literal(-2)))
          CFI (cfiCond257) DPH0 load(1, XDATA, add(CFA_XSP16, literal(-1)))
          CFI (cfiCond257) CFA_SP SP+-2
          CFI (cfiCond257) CFA_XSP16 add(XSP16, 32)
          CFI Block cfiPicker258 Using cfiCommon1
          CFI (cfiPicker258) NoFunction
          CFI (cfiPicker258) Picker
        MOV     A,R0
        MOV     R2,A
        MOV     A,R1
        MOV     R3,A
        MOV     A,R2
        MOV     B,#0x5
        MUL     AB
        MOV     R2,A
        MOV     R4,B
        MOV     B,#0x5
        MOV     A,R3
        MUL     AB
        ADD     A,R4
        MOV     R3,A
        MOV     DPTR,#ZDSecMgrEntries
        MOVX    A,@DPTR
        ADD     A,R2
        MOV     R2,A
        INC     DPTR
        MOVX    A,@DPTR
        ADDC    A,R3
        MOV     R3,A
        RET
          CFI (cfiCond256) CFA_SP SP+0
          CFI (cfiCond257) CFA_SP SP+0
          CFI (cfiPicker258) CFA_SP SP+0
          CFI EndBlock cfiCond256
          CFI EndBlock cfiCond257
          CFI EndBlock cfiPicker258

        RSEG BANKED_CODE:CODE:NOROOT(0)
?Subroutine37:
          CFI Block cfiCond259 Using cfiCommon0
          CFI Function ZDSecMgrEntryLookup
          CFI Conditional ??CrossCallReturnLabel_44
          CFI R6 load(1, XDATA, add(CFA_XSP16, literal(-9)))
          CFI VB load(1, XDATA, add(CFA_XSP16, literal(-8)))
          CFI V0 load(1, XDATA, add(CFA_XSP16, literal(-7)))
          CFI R7 load(1, XDATA, add(CFA_XSP16, literal(-6)))
          CFI ?RET_LOW load(1, XDATA, add(CFA_XSP16, literal(-5)))
          CFI ?RET_HIGH load(1, XDATA, add(CFA_XSP16, literal(-4)))
          CFI ?BRET_EXT load(1, XDATA, add(CFA_XSP16, literal(-3)))
          CFI DPL0 load(1, XDATA, add(CFA_XSP16, literal(-2)))
          CFI DPH0 load(1, XDATA, add(CFA_XSP16, literal(-1)))
          CFI CFA_SP SP+-2
          CFI CFA_XSP16 add(XSP16, 22)
          CFI Block cfiCond260 Using cfiCommon0
          CFI (cfiCond260) Function ZDSecMgrEntryLookupAMI
          CFI (cfiCond260) Conditional ??CrossCallReturnLabel_45
          CFI (cfiCond260) R6 load(1, XDATA, add(CFA_XSP16, literal(-9)))
          CFI (cfiCond260) VB load(1, XDATA, add(CFA_XSP16, literal(-8)))
          CFI (cfiCond260) V0 load(1, XDATA, add(CFA_XSP16, literal(-7)))
          CFI (cfiCond260) R7 load(1, XDATA, add(CFA_XSP16, literal(-6)))
          CFI (cfiCond260) ?RET_LOW load(1, XDATA, add(CFA_XSP16, literal(-5)))
          CFI (cfiCond260) ?RET_HIGH load(1, XDATA, add(CFA_XSP16, literal(-4)))
          CFI (cfiCond260) ?BRET_EXT load(1, XDATA, add(CFA_XSP16, literal(-3)))
          CFI (cfiCond260) DPL0 load(1, XDATA, add(CFA_XSP16, literal(-2)))
          CFI (cfiCond260) DPH0 load(1, XDATA, add(CFA_XSP16, literal(-1)))
          CFI (cfiCond260) CFA_SP SP+-2
          CFI (cfiCond260) CFA_XSP16 add(XSP16, 9)
          CFI Block cfiCond261 Using cfiCommon0
          CFI (cfiCond261) Function ZDSecMgrEntryLookupExt
          CFI (cfiCond261) Conditional ??CrossCallReturnLabel_46
          CFI (cfiCond261) R6 load(1, XDATA, add(CFA_XSP16, literal(-10)))
          CFI (cfiCond261) VB load(1, XDATA, add(CFA_XSP16, literal(-9)))
          CFI (cfiCond261) V0 load(1, XDATA, add(CFA_XSP16, literal(-8)))
          CFI (cfiCond261) V1 load(1, XDATA, add(CFA_XSP16, literal(-7)))
          CFI (cfiCond261) R7 load(1, XDATA, add(CFA_XSP16, literal(-6)))
          CFI (cfiCond261) ?RET_LOW load(1, XDATA, add(CFA_XSP16, literal(-5)))
          CFI (cfiCond261) ?RET_HIGH load(1, XDATA, add(CFA_XSP16, literal(-4)))
          CFI (cfiCond261) ?BRET_EXT load(1, XDATA, add(CFA_XSP16, literal(-3)))
          CFI (cfiCond261) DPL0 load(1, XDATA, add(CFA_XSP16, literal(-2)))
          CFI (cfiCond261) DPH0 load(1, XDATA, add(CFA_XSP16, literal(-1)))
          CFI (cfiCond261) CFA_SP SP+-2
          CFI (cfiCond261) CFA_XSP16 add(XSP16, 23)
          CFI Block cfiCond262 Using cfiCommon0
          CFI (cfiCond262) Function ZDSecMgrEntryLookupExtGetIndex
          CFI (cfiCond262) Conditional ??CrossCallReturnLabel_47
          CFI (cfiCond262) R6 load(1, XDATA, add(CFA_XSP16, literal(-9)))
          CFI (cfiCond262) VB load(1, XDATA, add(CFA_XSP16, literal(-8)))
          CFI (cfiCond262) V0 load(1, XDATA, add(CFA_XSP16, literal(-7)))
          CFI (cfiCond262) R7 load(1, XDATA, add(CFA_XSP16, literal(-6)))
          CFI (cfiCond262) ?RET_LOW load(1, XDATA, add(CFA_XSP16, literal(-5)))
          CFI (cfiCond262) ?RET_HIGH load(1, XDATA, add(CFA_XSP16, literal(-4)))
          CFI (cfiCond262) ?BRET_EXT load(1, XDATA, add(CFA_XSP16, literal(-3)))
          CFI (cfiCond262) DPL0 load(1, XDATA, add(CFA_XSP16, literal(-2)))
          CFI (cfiCond262) DPH0 load(1, XDATA, add(CFA_XSP16, literal(-1)))
          CFI (cfiCond262) CFA_SP SP+-2
          CFI (cfiCond262) CFA_XSP16 add(XSP16, 22)
          CFI Block cfiCond263 Using cfiCommon0
          CFI (cfiCond263) Function ZDSecMgrEntryNew
          CFI (cfiCond263) Conditional ??CrossCallReturnLabel_48
          CFI (cfiCond263) R6 load(1, XDATA, add(CFA_XSP16, literal(-9)))
          CFI (cfiCond263) VB load(1, XDATA, add(CFA_XSP16, literal(-8)))
          CFI (cfiCond263) V0 load(1, XDATA, add(CFA_XSP16, literal(-7)))
          CFI (cfiCond263) R7 load(1, XDATA, add(CFA_XSP16, literal(-6)))
          CFI (cfiCond263) ?RET_LOW load(1, XDATA, add(CFA_XSP16, literal(-5)))
          CFI (cfiCond263) ?RET_HIGH load(1, XDATA, add(CFA_XSP16, literal(-4)))
          CFI (cfiCond263) ?BRET_EXT load(1, XDATA, add(CFA_XSP16, literal(-3)))
          CFI (cfiCond263) DPL0 load(1, XDATA, add(CFA_XSP16, literal(-2)))
          CFI (cfiCond263) DPH0 load(1, XDATA, add(CFA_XSP16, literal(-1)))
          CFI (cfiCond263) CFA_SP SP+-2
          CFI (cfiCond263) CFA_XSP16 add(XSP16, 9)
          CFI Block cfiCond264 Using cfiCommon0
          CFI (cfiCond264) Function ZDSecMgrDeviceRemoveByExtAddr
          CFI (cfiCond264) Conditional ??CrossCallReturnLabel_49
          CFI (cfiCond264) R6 load(1, XDATA, add(CFA_XSP16, literal(-9)))
          CFI (cfiCond264) VB load(1, XDATA, add(CFA_XSP16, literal(-8)))
          CFI (cfiCond264) V0 load(1, XDATA, add(CFA_XSP16, literal(-7)))
          CFI (cfiCond264) R7 load(1, XDATA, add(CFA_XSP16, literal(-6)))
          CFI (cfiCond264) ?RET_LOW load(1, XDATA, add(CFA_XSP16, literal(-5)))
          CFI (cfiCond264) ?RET_HIGH load(1, XDATA, add(CFA_XSP16, literal(-4)))
          CFI (cfiCond264) ?BRET_EXT load(1, XDATA, add(CFA_XSP16, literal(-3)))
          CFI (cfiCond264) DPL0 load(1, XDATA, add(CFA_XSP16, literal(-2)))
          CFI (cfiCond264) DPH0 load(1, XDATA, add(CFA_XSP16, literal(-1)))
          CFI (cfiCond264) CFA_SP SP+-2
          CFI (cfiCond264) CFA_XSP16 add(XSP16, 22)
          CFI Block cfiCond265 Using cfiCommon0
          CFI (cfiCond265) Function APSME_LinkKeySet
          CFI (cfiCond265) Conditional ??CrossCallReturnLabel_50
          CFI (cfiCond265) R6 load(1, XDATA, add(CFA_XSP16, literal(-19)))
          CFI (cfiCond265) VB load(1, XDATA, add(CFA_XSP16, literal(-18)))
          CFI (cfiCond265) V0 load(1, XDATA, add(CFA_XSP16, literal(-17)))
          CFI (cfiCond265) V1 load(1, XDATA, add(CFA_XSP16, literal(-16)))
          CFI (cfiCond265) V2 load(1, XDATA, add(CFA_XSP16, literal(-15)))
          CFI (cfiCond265) V3 load(1, XDATA, add(CFA_XSP16, literal(-14)))
          CFI (cfiCond265) V4 load(1, XDATA, add(CFA_XSP16, literal(-13)))
          CFI (cfiCond265) V5 load(1, XDATA, add(CFA_XSP16, literal(-12)))
          CFI (cfiCond265) V6 load(1, XDATA, add(CFA_XSP16, literal(-11)))
          CFI (cfiCond265) V7 load(1, XDATA, add(CFA_XSP16, literal(-10)))
          CFI (cfiCond265) V8 load(1, XDATA, add(CFA_XSP16, literal(-9)))
          CFI (cfiCond265) V9 load(1, XDATA, add(CFA_XSP16, literal(-8)))
          CFI (cfiCond265) V10 load(1, XDATA, add(CFA_XSP16, literal(-7)))
          CFI (cfiCond265) R7 load(1, XDATA, add(CFA_XSP16, literal(-6)))
          CFI (cfiCond265) ?RET_LOW load(1, XDATA, add(CFA_XSP16, literal(-5)))
          CFI (cfiCond265) ?RET_HIGH load(1, XDATA, add(CFA_XSP16, literal(-4)))
          CFI (cfiCond265) ?BRET_EXT load(1, XDATA, add(CFA_XSP16, literal(-3)))
          CFI (cfiCond265) DPL0 load(1, XDATA, add(CFA_XSP16, literal(-2)))
          CFI (cfiCond265) DPH0 load(1, XDATA, add(CFA_XSP16, literal(-1)))
          CFI (cfiCond265) CFA_SP SP+-2
          CFI (cfiCond265) CFA_XSP16 add(XSP16, 32)
          CFI Block cfiCond266 Using cfiCommon0
          CFI (cfiCond266) Function ZDSecMgrAuthenticationSet
          CFI (cfiCond266) Conditional ??CrossCallReturnLabel_51
          CFI (cfiCond266) R6 load(1, XDATA, add(CFA_XSP16, literal(-9)))
          CFI (cfiCond266) VB load(1, XDATA, add(CFA_XSP16, literal(-8)))
          CFI (cfiCond266) V0 load(1, XDATA, add(CFA_XSP16, literal(-7)))
          CFI (cfiCond266) R7 load(1, XDATA, add(CFA_XSP16, literal(-6)))
          CFI (cfiCond266) ?RET_LOW load(1, XDATA, add(CFA_XSP16, literal(-5)))
          CFI (cfiCond266) ?RET_HIGH load(1, XDATA, add(CFA_XSP16, literal(-4)))
          CFI (cfiCond266) ?BRET_EXT load(1, XDATA, add(CFA_XSP16, literal(-3)))
          CFI (cfiCond266) DPL0 load(1, XDATA, add(CFA_XSP16, literal(-2)))
          CFI (cfiCond266) DPH0 load(1, XDATA, add(CFA_XSP16, literal(-1)))
          CFI (cfiCond266) CFA_SP SP+-2
          CFI (cfiCond266) CFA_XSP16 add(XSP16, 22)
          CFI Block cfiCond267 Using cfiCommon0
          CFI (cfiCond267) Function APSME_LinkKeyNVIdGet
          CFI (cfiCond267) Conditional ??CrossCallReturnLabel_52
          CFI (cfiCond267) R6 load(1, XDATA, add(CFA_XSP16, literal(-10)))
          CFI (cfiCond267) VB load(1, XDATA, add(CFA_XSP16, literal(-9)))
          CFI (cfiCond267) V0 load(1, XDATA, add(CFA_XSP16, literal(-8)))
          CFI (cfiCond267) V1 load(1, XDATA, add(CFA_XSP16, literal(-7)))
          CFI (cfiCond267) R7 load(1, XDATA, add(CFA_XSP16, literal(-6)))
          CFI (cfiCond267) ?RET_LOW load(1, XDATA, add(CFA_XSP16, literal(-5)))
          CFI (cfiCond267) ?RET_HIGH load(1, XDATA, add(CFA_XSP16, literal(-4)))
          CFI (cfiCond267) ?BRET_EXT load(1, XDATA, add(CFA_XSP16, literal(-3)))
          CFI (cfiCond267) DPL0 load(1, XDATA, add(CFA_XSP16, literal(-2)))
          CFI (cfiCond267) DPH0 load(1, XDATA, add(CFA_XSP16, literal(-1)))
          CFI (cfiCond267) CFA_SP SP+-2
          CFI (cfiCond267) CFA_XSP16 add(XSP16, 23)
          CFI Block cfiCond268 Using cfiCommon0
          CFI (cfiCond268) Function APSME_IsLinkKeyValid
          CFI (cfiCond268) Conditional ??CrossCallReturnLabel_53
          CFI (cfiCond268) R6 load(1, XDATA, add(CFA_XSP16, literal(-15)))
          CFI (cfiCond268) VB load(1, XDATA, add(CFA_XSP16, literal(-14)))
          CFI (cfiCond268) V0 load(1, XDATA, add(CFA_XSP16, literal(-13)))
          CFI (cfiCond268) V1 load(1, XDATA, add(CFA_XSP16, literal(-12)))
          CFI (cfiCond268) V2 load(1, XDATA, add(CFA_XSP16, literal(-11)))
          CFI (cfiCond268) V3 load(1, XDATA, add(CFA_XSP16, literal(-10)))
          CFI (cfiCond268) V4 load(1, XDATA, add(CFA_XSP16, literal(-9)))
          CFI (cfiCond268) V5 load(1, XDATA, add(CFA_XSP16, literal(-8)))
          CFI (cfiCond268) V6 load(1, XDATA, add(CFA_XSP16, literal(-7)))
          CFI (cfiCond268) R7 load(1, XDATA, add(CFA_XSP16, literal(-6)))
          CFI (cfiCond268) ?RET_LOW load(1, XDATA, add(CFA_XSP16, literal(-5)))
          CFI (cfiCond268) ?RET_HIGH load(1, XDATA, add(CFA_XSP16, literal(-4)))
          CFI (cfiCond268) ?BRET_EXT load(1, XDATA, add(CFA_XSP16, literal(-3)))
          CFI (cfiCond268) DPL0 load(1, XDATA, add(CFA_XSP16, literal(-2)))
          CFI (cfiCond268) DPH0 load(1, XDATA, add(CFA_XSP16, literal(-1)))
          CFI (cfiCond268) CFA_SP SP+-2
          CFI (cfiCond268) CFA_XSP16 add(XSP16, 44)
          CFI Block cfiCond269 Using cfiCommon0
          CFI (cfiCond269) Function ZDSecMgrAddLinkKey
          CFI (cfiCond269) Conditional ??CrossCallReturnLabel_54
          CFI (cfiCond269) R6 load(1, XDATA, add(CFA_XSP16, literal(-9)))
          CFI (cfiCond269) VB load(1, XDATA, add(CFA_XSP16, literal(-8)))
          CFI (cfiCond269) V0 load(1, XDATA, add(CFA_XSP16, literal(-7)))
          CFI (cfiCond269) R7 load(1, XDATA, add(CFA_XSP16, literal(-6)))
          CFI (cfiCond269) ?RET_LOW load(1, XDATA, add(CFA_XSP16, literal(-5)))
          CFI (cfiCond269) ?RET_HIGH load(1, XDATA, add(CFA_XSP16, literal(-4)))
          CFI (cfiCond269) ?BRET_EXT load(1, XDATA, add(CFA_XSP16, literal(-3)))
          CFI (cfiCond269) DPL0 load(1, XDATA, add(CFA_XSP16, literal(-2)))
          CFI (cfiCond269) DPH0 load(1, XDATA, add(CFA_XSP16, literal(-1)))
          CFI (cfiCond269) CFA_SP SP+-2
          CFI (cfiCond269) CFA_XSP16 add(XSP16, 22)
          CFI Block cfiCond270 Using cfiCommon0
          CFI (cfiCond270) Function ZDSecMgrAddLinkKey
          CFI (cfiCond270) Conditional ??CrossCallReturnLabel_55
          CFI (cfiCond270) R6 load(1, XDATA, add(CFA_XSP16, literal(-9)))
          CFI (cfiCond270) VB load(1, XDATA, add(CFA_XSP16, literal(-8)))
          CFI (cfiCond270) V0 load(1, XDATA, add(CFA_XSP16, literal(-7)))
          CFI (cfiCond270) R7 load(1, XDATA, add(CFA_XSP16, literal(-6)))
          CFI (cfiCond270) ?RET_LOW load(1, XDATA, add(CFA_XSP16, literal(-5)))
          CFI (cfiCond270) ?RET_HIGH load(1, XDATA, add(CFA_XSP16, literal(-4)))
          CFI (cfiCond270) ?BRET_EXT load(1, XDATA, add(CFA_XSP16, literal(-3)))
          CFI (cfiCond270) DPL0 load(1, XDATA, add(CFA_XSP16, literal(-2)))
          CFI (cfiCond270) DPH0 load(1, XDATA, add(CFA_XSP16, literal(-1)))
          CFI (cfiCond270) CFA_SP SP+-2
          CFI (cfiCond270) CFA_XSP16 add(XSP16, 22)
          CFI Block cfiCond271 Using cfiCommon0
          CFI (cfiCond271) Function ZDSecMgrReadKeyFromNv
          CFI (cfiCond271) Conditional ??CrossCallReturnLabel_56
          CFI (cfiCond271) R6 load(1, XDATA, add(CFA_XSP16, literal(-10)))
          CFI (cfiCond271) VB load(1, XDATA, add(CFA_XSP16, literal(-9)))
          CFI (cfiCond271) V0 load(1, XDATA, add(CFA_XSP16, literal(-8)))
          CFI (cfiCond271) V1 load(1, XDATA, add(CFA_XSP16, literal(-7)))
          CFI (cfiCond271) R7 load(1, XDATA, add(CFA_XSP16, literal(-6)))
          CFI (cfiCond271) ?RET_LOW load(1, XDATA, add(CFA_XSP16, literal(-5)))
          CFI (cfiCond271) ?RET_HIGH load(1, XDATA, add(CFA_XSP16, literal(-4)))
          CFI (cfiCond271) ?BRET_EXT load(1, XDATA, add(CFA_XSP16, literal(-3)))
          CFI (cfiCond271) DPL0 load(1, XDATA, add(CFA_XSP16, literal(-2)))
          CFI (cfiCond271) DPH0 load(1, XDATA, add(CFA_XSP16, literal(-1)))
          CFI (cfiCond271) CFA_SP SP+-2
          CFI (cfiCond271) CFA_XSP16 add(XSP16, 10)
          CFI Block cfiPicker272 Using cfiCommon1
          CFI (cfiPicker272) NoFunction
          CFI (cfiPicker272) Picker
        CLR     C
        MOV     A,R0
        SUBB    A,#0x3
        MOV     A,R1
        SUBB    A,#0x0
        RET
          CFI (cfiCond259) CFA_SP SP+0
          CFI (cfiCond260) CFA_SP SP+0
          CFI (cfiCond261) CFA_SP SP+0
          CFI (cfiCond262) CFA_SP SP+0
          CFI (cfiCond263) CFA_SP SP+0
          CFI (cfiCond264) CFA_SP SP+0
          CFI (cfiCond265) CFA_SP SP+0
          CFI (cfiCond266) CFA_SP SP+0
          CFI (cfiCond267) CFA_SP SP+0
          CFI (cfiCond268) CFA_SP SP+0
          CFI (cfiCond269) CFA_SP SP+0
          CFI (cfiCond270) CFA_SP SP+0
          CFI (cfiCond271) CFA_SP SP+0
          CFI (cfiPicker272) CFA_SP SP+0
          CFI EndBlock cfiCond259
          CFI EndBlock cfiCond260
          CFI EndBlock cfiCond261
          CFI EndBlock cfiCond262
          CFI EndBlock cfiCond263
          CFI EndBlock cfiCond264
          CFI EndBlock cfiCond265
          CFI EndBlock cfiCond266
          CFI EndBlock cfiCond267
          CFI EndBlock cfiCond268
          CFI EndBlock cfiCond269
          CFI EndBlock cfiCond270
          CFI EndBlock cfiCond271
          CFI EndBlock cfiPicker272

        RSEG BANKED_CODE:CODE:NOROOT(0)
?Subroutine13:
          CFI Block cfiCond273 Using cfiCommon0
          CFI Function APSME_LinkKeySet
          CFI Conditional ??CrossCallReturnLabel_150
          CFI R6 load(1, XDATA, add(CFA_XSP16, literal(-19)))
          CFI VB load(1, XDATA, add(CFA_XSP16, literal(-18)))
          CFI V0 load(1, XDATA, add(CFA_XSP16, literal(-17)))
          CFI V1 load(1, XDATA, add(CFA_XSP16, literal(-16)))
          CFI V2 load(1, XDATA, add(CFA_XSP16, literal(-15)))
          CFI V3 load(1, XDATA, add(CFA_XSP16, literal(-14)))
          CFI V4 load(1, XDATA, add(CFA_XSP16, literal(-13)))
          CFI V5 load(1, XDATA, add(CFA_XSP16, literal(-12)))
          CFI V6 load(1, XDATA, add(CFA_XSP16, literal(-11)))
          CFI V7 load(1, XDATA, add(CFA_XSP16, literal(-10)))
          CFI V8 load(1, XDATA, add(CFA_XSP16, literal(-9)))
          CFI V9 load(1, XDATA, add(CFA_XSP16, literal(-8)))
          CFI V10 load(1, XDATA, add(CFA_XSP16, literal(-7)))
          CFI R7 load(1, XDATA, add(CFA_XSP16, literal(-6)))
          CFI ?RET_LOW load(1, XDATA, add(CFA_XSP16, literal(-5)))
          CFI ?RET_HIGH load(1, XDATA, add(CFA_XSP16, literal(-4)))
          CFI ?BRET_EXT load(1, XDATA, add(CFA_XSP16, literal(-3)))
          CFI DPL0 load(1, XDATA, add(CFA_XSP16, literal(-2)))
          CFI DPH0 load(1, XDATA, add(CFA_XSP16, literal(-1)))
          CFI CFA_SP SP+-2
          CFI CFA_XSP16 add(XSP16, 32)
          CFI Block cfiCond274 Using cfiCommon0
          CFI (cfiCond274) Function APSME_LinkKeySet
          CFI (cfiCond274) Conditional ??CrossCallReturnLabel_151
          CFI (cfiCond274) R6 load(1, XDATA, add(CFA_XSP16, literal(-19)))
          CFI (cfiCond274) VB load(1, XDATA, add(CFA_XSP16, literal(-18)))
          CFI (cfiCond274) V0 load(1, XDATA, add(CFA_XSP16, literal(-17)))
          CFI (cfiCond274) V1 load(1, XDATA, add(CFA_XSP16, literal(-16)))
          CFI (cfiCond274) V2 load(1, XDATA, add(CFA_XSP16, literal(-15)))
          CFI (cfiCond274) V3 load(1, XDATA, add(CFA_XSP16, literal(-14)))
          CFI (cfiCond274) V4 load(1, XDATA, add(CFA_XSP16, literal(-13)))
          CFI (cfiCond274) V5 load(1, XDATA, add(CFA_XSP16, literal(-12)))
          CFI (cfiCond274) V6 load(1, XDATA, add(CFA_XSP16, literal(-11)))
          CFI (cfiCond274) V7 load(1, XDATA, add(CFA_XSP16, literal(-10)))
          CFI (cfiCond274) V8 load(1, XDATA, add(CFA_XSP16, literal(-9)))
          CFI (cfiCond274) V9 load(1, XDATA, add(CFA_XSP16, literal(-8)))
          CFI (cfiCond274) V10 load(1, XDATA, add(CFA_XSP16, literal(-7)))
          CFI (cfiCond274) R7 load(1, XDATA, add(CFA_XSP16, literal(-6)))
          CFI (cfiCond274) ?RET_LOW load(1, XDATA, add(CFA_XSP16, literal(-5)))
          CFI (cfiCond274) ?RET_HIGH load(1, XDATA, add(CFA_XSP16, literal(-4)))
          CFI (cfiCond274) ?BRET_EXT load(1, XDATA, add(CFA_XSP16, literal(-3)))
          CFI (cfiCond274) DPL0 load(1, XDATA, add(CFA_XSP16, literal(-2)))
          CFI (cfiCond274) DPH0 load(1, XDATA, add(CFA_XSP16, literal(-1)))
          CFI (cfiCond274) CFA_SP SP+-2
          CFI (cfiCond274) CFA_XSP16 add(XSP16, 32)
          CFI Block cfiPicker275 Using cfiCommon1
          CFI (cfiPicker275) NoFunction
          CFI (cfiPicker275) Picker
        MOV     DPL,A
        CLR     A
        ADDC    A,?V1
          CFI EndBlock cfiCond273
          CFI EndBlock cfiCond274
          CFI EndBlock cfiPicker275
        REQUIRE ??Subroutine67_0
        ; // Fall through to label ??Subroutine67_0

        RSEG BANKED_CODE:CODE:NOROOT(0)
??Subroutine67_0:
          CFI Block cfiCond276 Using cfiCommon0
          CFI Function APSME_LinkKeySet
          CFI Conditional ??CrossCallReturnLabel_148
          CFI R6 load(1, XDATA, add(CFA_XSP16, literal(-19)))
          CFI VB load(1, XDATA, add(CFA_XSP16, literal(-18)))
          CFI V0 load(1, XDATA, add(CFA_XSP16, literal(-17)))
          CFI V1 load(1, XDATA, add(CFA_XSP16, literal(-16)))
          CFI V2 load(1, XDATA, add(CFA_XSP16, literal(-15)))
          CFI V3 load(1, XDATA, add(CFA_XSP16, literal(-14)))
          CFI V4 load(1, XDATA, add(CFA_XSP16, literal(-13)))
          CFI V5 load(1, XDATA, add(CFA_XSP16, literal(-12)))
          CFI V6 load(1, XDATA, add(CFA_XSP16, literal(-11)))
          CFI V7 load(1, XDATA, add(CFA_XSP16, literal(-10)))
          CFI V8 load(1, XDATA, add(CFA_XSP16, literal(-9)))
          CFI V9 load(1, XDATA, add(CFA_XSP16, literal(-8)))
          CFI V10 load(1, XDATA, add(CFA_XSP16, literal(-7)))
          CFI R7 load(1, XDATA, add(CFA_XSP16, literal(-6)))
          CFI ?RET_LOW load(1, XDATA, add(CFA_XSP16, literal(-5)))
          CFI ?RET_HIGH load(1, XDATA, add(CFA_XSP16, literal(-4)))
          CFI ?BRET_EXT load(1, XDATA, add(CFA_XSP16, literal(-3)))
          CFI DPL0 load(1, XDATA, add(CFA_XSP16, literal(-2)))
          CFI DPH0 load(1, XDATA, add(CFA_XSP16, literal(-1)))
          CFI CFA_SP SP+-2
          CFI CFA_XSP16 add(XSP16, 32)
          CFI Block cfiCond277 Using cfiCommon0
          CFI (cfiCond277) Function APSME_LinkKeySet
          CFI (cfiCond277) Conditional ??CrossCallReturnLabel_149
          CFI (cfiCond277) R6 load(1, XDATA, add(CFA_XSP16, literal(-19)))
          CFI (cfiCond277) VB load(1, XDATA, add(CFA_XSP16, literal(-18)))
          CFI (cfiCond277) V0 load(1, XDATA, add(CFA_XSP16, literal(-17)))
          CFI (cfiCond277) V1 load(1, XDATA, add(CFA_XSP16, literal(-16)))
          CFI (cfiCond277) V2 load(1, XDATA, add(CFA_XSP16, literal(-15)))
          CFI (cfiCond277) V3 load(1, XDATA, add(CFA_XSP16, literal(-14)))
          CFI (cfiCond277) V4 load(1, XDATA, add(CFA_XSP16, literal(-13)))
          CFI (cfiCond277) V5 load(1, XDATA, add(CFA_XSP16, literal(-12)))
          CFI (cfiCond277) V6 load(1, XDATA, add(CFA_XSP16, literal(-11)))
          CFI (cfiCond277) V7 load(1, XDATA, add(CFA_XSP16, literal(-10)))
          CFI (cfiCond277) V8 load(1, XDATA, add(CFA_XSP16, literal(-9)))
          CFI (cfiCond277) V9 load(1, XDATA, add(CFA_XSP16, literal(-8)))
          CFI (cfiCond277) V10 load(1, XDATA, add(CFA_XSP16, literal(-7)))
          CFI (cfiCond277) R7 load(1, XDATA, add(CFA_XSP16, literal(-6)))
          CFI (cfiCond277) ?RET_LOW load(1, XDATA, add(CFA_XSP16, literal(-5)))
          CFI (cfiCond277) ?RET_HIGH load(1, XDATA, add(CFA_XSP16, literal(-4)))
          CFI (cfiCond277) ?BRET_EXT load(1, XDATA, add(CFA_XSP16, literal(-3)))
          CFI (cfiCond277) DPL0 load(1, XDATA, add(CFA_XSP16, literal(-2)))
          CFI (cfiCond277) DPH0 load(1, XDATA, add(CFA_XSP16, literal(-1)))
          CFI (cfiCond277) CFA_SP SP+-2
          CFI (cfiCond277) CFA_XSP16 add(XSP16, 32)
          CFI Block cfiCond278 Using cfiCommon0
          CFI (cfiCond278) Function APSME_LinkKeySet
          CFI (cfiCond278) Conditional ??CrossCallReturnLabel_150
          CFI (cfiCond278) R6 load(1, XDATA, add(CFA_XSP16, literal(-19)))
          CFI (cfiCond278) VB load(1, XDATA, add(CFA_XSP16, literal(-18)))
          CFI (cfiCond278) V0 load(1, XDATA, add(CFA_XSP16, literal(-17)))
          CFI (cfiCond278) V1 load(1, XDATA, add(CFA_XSP16, literal(-16)))
          CFI (cfiCond278) V2 load(1, XDATA, add(CFA_XSP16, literal(-15)))
          CFI (cfiCond278) V3 load(1, XDATA, add(CFA_XSP16, literal(-14)))
          CFI (cfiCond278) V4 load(1, XDATA, add(CFA_XSP16, literal(-13)))
          CFI (cfiCond278) V5 load(1, XDATA, add(CFA_XSP16, literal(-12)))
          CFI (cfiCond278) V6 load(1, XDATA, add(CFA_XSP16, literal(-11)))
          CFI (cfiCond278) V7 load(1, XDATA, add(CFA_XSP16, literal(-10)))
          CFI (cfiCond278) V8 load(1, XDATA, add(CFA_XSP16, literal(-9)))
          CFI (cfiCond278) V9 load(1, XDATA, add(CFA_XSP16, literal(-8)))
          CFI (cfiCond278) V10 load(1, XDATA, add(CFA_XSP16, literal(-7)))
          CFI (cfiCond278) R7 load(1, XDATA, add(CFA_XSP16, literal(-6)))
          CFI (cfiCond278) ?RET_LOW load(1, XDATA, add(CFA_XSP16, literal(-5)))
          CFI (cfiCond278) ?RET_HIGH load(1, XDATA, add(CFA_XSP16, literal(-4)))
          CFI (cfiCond278) ?BRET_EXT load(1, XDATA, add(CFA_XSP16, literal(-3)))
          CFI (cfiCond278) DPL0 load(1, XDATA, add(CFA_XSP16, literal(-2)))
          CFI (cfiCond278) DPH0 load(1, XDATA, add(CFA_XSP16, literal(-1)))
          CFI (cfiCond278) CFA_SP SP+-2
          CFI (cfiCond278) CFA_XSP16 add(XSP16, 32)
          CFI Block cfiCond279 Using cfiCommon0
          CFI (cfiCond279) Function APSME_LinkKeySet
          CFI (cfiCond279) Conditional ??CrossCallReturnLabel_151
          CFI (cfiCond279) R6 load(1, XDATA, add(CFA_XSP16, literal(-19)))
          CFI (cfiCond279) VB load(1, XDATA, add(CFA_XSP16, literal(-18)))
          CFI (cfiCond279) V0 load(1, XDATA, add(CFA_XSP16, literal(-17)))
          CFI (cfiCond279) V1 load(1, XDATA, add(CFA_XSP16, literal(-16)))
          CFI (cfiCond279) V2 load(1, XDATA, add(CFA_XSP16, literal(-15)))
          CFI (cfiCond279) V3 load(1, XDATA, add(CFA_XSP16, literal(-14)))
          CFI (cfiCond279) V4 load(1, XDATA, add(CFA_XSP16, literal(-13)))
          CFI (cfiCond279) V5 load(1, XDATA, add(CFA_XSP16, literal(-12)))
          CFI (cfiCond279) V6 load(1, XDATA, add(CFA_XSP16, literal(-11)))
          CFI (cfiCond279) V7 load(1, XDATA, add(CFA_XSP16, literal(-10)))
          CFI (cfiCond279) V8 load(1, XDATA, add(CFA_XSP16, literal(-9)))
          CFI (cfiCond279) V9 load(1, XDATA, add(CFA_XSP16, literal(-8)))
          CFI (cfiCond279) V10 load(1, XDATA, add(CFA_XSP16, literal(-7)))
          CFI (cfiCond279) R7 load(1, XDATA, add(CFA_XSP16, literal(-6)))
          CFI (cfiCond279) ?RET_LOW load(1, XDATA, add(CFA_XSP16, literal(-5)))
          CFI (cfiCond279) ?RET_HIGH load(1, XDATA, add(CFA_XSP16, literal(-4)))
          CFI (cfiCond279) ?BRET_EXT load(1, XDATA, add(CFA_XSP16, literal(-3)))
          CFI (cfiCond279) DPL0 load(1, XDATA, add(CFA_XSP16, literal(-2)))
          CFI (cfiCond279) DPH0 load(1, XDATA, add(CFA_XSP16, literal(-1)))
          CFI (cfiCond279) CFA_SP SP+-2
          CFI (cfiCond279) CFA_XSP16 add(XSP16, 32)
          CFI Block cfiPicker280 Using cfiCommon1
          CFI (cfiPicker280) NoFunction
          CFI (cfiPicker280) Picker
        MOV     DPH,A
          CFI EndBlock cfiCond276
          CFI EndBlock cfiCond277
          CFI EndBlock cfiCond278
          CFI EndBlock cfiCond279
          CFI EndBlock cfiPicker280
        REQUIRE ??Subroutine68_0
        ; // Fall through to label ??Subroutine68_0

        RSEG BANKED_CODE:CODE:NOROOT(0)
??Subroutine68_0:
          CFI Block cfiCond281 Using cfiCommon0
          CFI Function APSME_TCLinkKeyInit
          CFI Conditional ??CrossCallReturnLabel_146
          CFI R6 load(1, XDATA, add(CFA_XSP16, literal(-11)))
          CFI VB load(1, XDATA, add(CFA_XSP16, literal(-10)))
          CFI V0 load(1, XDATA, add(CFA_XSP16, literal(-9)))
          CFI V1 load(1, XDATA, add(CFA_XSP16, literal(-8)))
          CFI V2 load(1, XDATA, add(CFA_XSP16, literal(-7)))
          CFI R7 load(1, XDATA, add(CFA_XSP16, literal(-6)))
          CFI ?RET_LOW load(1, XDATA, add(CFA_XSP16, literal(-5)))
          CFI ?RET_HIGH load(1, XDATA, add(CFA_XSP16, literal(-4)))
          CFI ?BRET_EXT load(1, XDATA, add(CFA_XSP16, literal(-3)))
          CFI DPL0 load(1, XDATA, add(CFA_XSP16, literal(-2)))
          CFI DPH0 load(1, XDATA, add(CFA_XSP16, literal(-1)))
          CFI CFA_SP SP+-2
          CFI CFA_XSP16 add(XSP16, 43)
          CFI Block cfiCond282 Using cfiCommon0
          CFI (cfiCond282) Function APSME_TCLinkKeyInit
          CFI (cfiCond282) Conditional ??CrossCallReturnLabel_147
          CFI (cfiCond282) R6 load(1, XDATA, add(CFA_XSP16, literal(-11)))
          CFI (cfiCond282) VB load(1, XDATA, add(CFA_XSP16, literal(-10)))
          CFI (cfiCond282) V0 load(1, XDATA, add(CFA_XSP16, literal(-9)))
          CFI (cfiCond282) V1 load(1, XDATA, add(CFA_XSP16, literal(-8)))
          CFI (cfiCond282) V2 load(1, XDATA, add(CFA_XSP16, literal(-7)))
          CFI (cfiCond282) R7 load(1, XDATA, add(CFA_XSP16, literal(-6)))
          CFI (cfiCond282) ?RET_LOW load(1, XDATA, add(CFA_XSP16, literal(-5)))
          CFI (cfiCond282) ?RET_HIGH load(1, XDATA, add(CFA_XSP16, literal(-4)))
          CFI (cfiCond282) ?BRET_EXT load(1, XDATA, add(CFA_XSP16, literal(-3)))
          CFI (cfiCond282) DPL0 load(1, XDATA, add(CFA_XSP16, literal(-2)))
          CFI (cfiCond282) DPH0 load(1, XDATA, add(CFA_XSP16, literal(-1)))
          CFI (cfiCond282) CFA_SP SP+-2
          CFI (cfiCond282) CFA_XSP16 add(XSP16, 43)
          CFI Block cfiCond283 Using cfiCommon0
          CFI (cfiCond283) Function APSME_LinkKeySet
          CFI (cfiCond283) Conditional ??CrossCallReturnLabel_148
          CFI (cfiCond283) R6 load(1, XDATA, add(CFA_XSP16, literal(-19)))
          CFI (cfiCond283) VB load(1, XDATA, add(CFA_XSP16, literal(-18)))
          CFI (cfiCond283) V0 load(1, XDATA, add(CFA_XSP16, literal(-17)))
          CFI (cfiCond283) V1 load(1, XDATA, add(CFA_XSP16, literal(-16)))
          CFI (cfiCond283) V2 load(1, XDATA, add(CFA_XSP16, literal(-15)))
          CFI (cfiCond283) V3 load(1, XDATA, add(CFA_XSP16, literal(-14)))
          CFI (cfiCond283) V4 load(1, XDATA, add(CFA_XSP16, literal(-13)))
          CFI (cfiCond283) V5 load(1, XDATA, add(CFA_XSP16, literal(-12)))
          CFI (cfiCond283) V6 load(1, XDATA, add(CFA_XSP16, literal(-11)))
          CFI (cfiCond283) V7 load(1, XDATA, add(CFA_XSP16, literal(-10)))
          CFI (cfiCond283) V8 load(1, XDATA, add(CFA_XSP16, literal(-9)))
          CFI (cfiCond283) V9 load(1, XDATA, add(CFA_XSP16, literal(-8)))
          CFI (cfiCond283) V10 load(1, XDATA, add(CFA_XSP16, literal(-7)))
          CFI (cfiCond283) R7 load(1, XDATA, add(CFA_XSP16, literal(-6)))
          CFI (cfiCond283) ?RET_LOW load(1, XDATA, add(CFA_XSP16, literal(-5)))
          CFI (cfiCond283) ?RET_HIGH load(1, XDATA, add(CFA_XSP16, literal(-4)))
          CFI (cfiCond283) ?BRET_EXT load(1, XDATA, add(CFA_XSP16, literal(-3)))
          CFI (cfiCond283) DPL0 load(1, XDATA, add(CFA_XSP16, literal(-2)))
          CFI (cfiCond283) DPH0 load(1, XDATA, add(CFA_XSP16, literal(-1)))
          CFI (cfiCond283) CFA_SP SP+-2
          CFI (cfiCond283) CFA_XSP16 add(XSP16, 32)
          CFI Block cfiCond284 Using cfiCommon0
          CFI (cfiCond284) Function APSME_LinkKeySet
          CFI (cfiCond284) Conditional ??CrossCallReturnLabel_149
          CFI (cfiCond284) R6 load(1, XDATA, add(CFA_XSP16, literal(-19)))
          CFI (cfiCond284) VB load(1, XDATA, add(CFA_XSP16, literal(-18)))
          CFI (cfiCond284) V0 load(1, XDATA, add(CFA_XSP16, literal(-17)))
          CFI (cfiCond284) V1 load(1, XDATA, add(CFA_XSP16, literal(-16)))
          CFI (cfiCond284) V2 load(1, XDATA, add(CFA_XSP16, literal(-15)))
          CFI (cfiCond284) V3 load(1, XDATA, add(CFA_XSP16, literal(-14)))
          CFI (cfiCond284) V4 load(1, XDATA, add(CFA_XSP16, literal(-13)))
          CFI (cfiCond284) V5 load(1, XDATA, add(CFA_XSP16, literal(-12)))
          CFI (cfiCond284) V6 load(1, XDATA, add(CFA_XSP16, literal(-11)))
          CFI (cfiCond284) V7 load(1, XDATA, add(CFA_XSP16, literal(-10)))
          CFI (cfiCond284) V8 load(1, XDATA, add(CFA_XSP16, literal(-9)))
          CFI (cfiCond284) V9 load(1, XDATA, add(CFA_XSP16, literal(-8)))
          CFI (cfiCond284) V10 load(1, XDATA, add(CFA_XSP16, literal(-7)))
          CFI (cfiCond284) R7 load(1, XDATA, add(CFA_XSP16, literal(-6)))
          CFI (cfiCond284) ?RET_LOW load(1, XDATA, add(CFA_XSP16, literal(-5)))
          CFI (cfiCond284) ?RET_HIGH load(1, XDATA, add(CFA_XSP16, literal(-4)))
          CFI (cfiCond284) ?BRET_EXT load(1, XDATA, add(CFA_XSP16, literal(-3)))
          CFI (cfiCond284) DPL0 load(1, XDATA, add(CFA_XSP16, literal(-2)))
          CFI (cfiCond284) DPH0 load(1, XDATA, add(CFA_XSP16, literal(-1)))
          CFI (cfiCond284) CFA_SP SP+-2
          CFI (cfiCond284) CFA_XSP16 add(XSP16, 32)
          CFI Block cfiCond285 Using cfiCommon0
          CFI (cfiCond285) Function APSME_LinkKeySet
          CFI (cfiCond285) Conditional ??CrossCallReturnLabel_150
          CFI (cfiCond285) R6 load(1, XDATA, add(CFA_XSP16, literal(-19)))
          CFI (cfiCond285) VB load(1, XDATA, add(CFA_XSP16, literal(-18)))
          CFI (cfiCond285) V0 load(1, XDATA, add(CFA_XSP16, literal(-17)))
          CFI (cfiCond285) V1 load(1, XDATA, add(CFA_XSP16, literal(-16)))
          CFI (cfiCond285) V2 load(1, XDATA, add(CFA_XSP16, literal(-15)))
          CFI (cfiCond285) V3 load(1, XDATA, add(CFA_XSP16, literal(-14)))
          CFI (cfiCond285) V4 load(1, XDATA, add(CFA_XSP16, literal(-13)))
          CFI (cfiCond285) V5 load(1, XDATA, add(CFA_XSP16, literal(-12)))
          CFI (cfiCond285) V6 load(1, XDATA, add(CFA_XSP16, literal(-11)))
          CFI (cfiCond285) V7 load(1, XDATA, add(CFA_XSP16, literal(-10)))
          CFI (cfiCond285) V8 load(1, XDATA, add(CFA_XSP16, literal(-9)))
          CFI (cfiCond285) V9 load(1, XDATA, add(CFA_XSP16, literal(-8)))
          CFI (cfiCond285) V10 load(1, XDATA, add(CFA_XSP16, literal(-7)))
          CFI (cfiCond285) R7 load(1, XDATA, add(CFA_XSP16, literal(-6)))
          CFI (cfiCond285) ?RET_LOW load(1, XDATA, add(CFA_XSP16, literal(-5)))
          CFI (cfiCond285) ?RET_HIGH load(1, XDATA, add(CFA_XSP16, literal(-4)))
          CFI (cfiCond285) ?BRET_EXT load(1, XDATA, add(CFA_XSP16, literal(-3)))
          CFI (cfiCond285) DPL0 load(1, XDATA, add(CFA_XSP16, literal(-2)))
          CFI (cfiCond285) DPH0 load(1, XDATA, add(CFA_XSP16, literal(-1)))
          CFI (cfiCond285) CFA_SP SP+-2
          CFI (cfiCond285) CFA_XSP16 add(XSP16, 32)
          CFI Block cfiCond286 Using cfiCommon0
          CFI (cfiCond286) Function APSME_LinkKeySet
          CFI (cfiCond286) Conditional ??CrossCallReturnLabel_151
          CFI (cfiCond286) R6 load(1, XDATA, add(CFA_XSP16, literal(-19)))
          CFI (cfiCond286) VB load(1, XDATA, add(CFA_XSP16, literal(-18)))
          CFI (cfiCond286) V0 load(1, XDATA, add(CFA_XSP16, literal(-17)))
          CFI (cfiCond286) V1 load(1, XDATA, add(CFA_XSP16, literal(-16)))
          CFI (cfiCond286) V2 load(1, XDATA, add(CFA_XSP16, literal(-15)))
          CFI (cfiCond286) V3 load(1, XDATA, add(CFA_XSP16, literal(-14)))
          CFI (cfiCond286) V4 load(1, XDATA, add(CFA_XSP16, literal(-13)))
          CFI (cfiCond286) V5 load(1, XDATA, add(CFA_XSP16, literal(-12)))
          CFI (cfiCond286) V6 load(1, XDATA, add(CFA_XSP16, literal(-11)))
          CFI (cfiCond286) V7 load(1, XDATA, add(CFA_XSP16, literal(-10)))
          CFI (cfiCond286) V8 load(1, XDATA, add(CFA_XSP16, literal(-9)))
          CFI (cfiCond286) V9 load(1, XDATA, add(CFA_XSP16, literal(-8)))
          CFI (cfiCond286) V10 load(1, XDATA, add(CFA_XSP16, literal(-7)))
          CFI (cfiCond286) R7 load(1, XDATA, add(CFA_XSP16, literal(-6)))
          CFI (cfiCond286) ?RET_LOW load(1, XDATA, add(CFA_XSP16, literal(-5)))
          CFI (cfiCond286) ?RET_HIGH load(1, XDATA, add(CFA_XSP16, literal(-4)))
          CFI (cfiCond286) ?BRET_EXT load(1, XDATA, add(CFA_XSP16, literal(-3)))
          CFI (cfiCond286) DPL0 load(1, XDATA, add(CFA_XSP16, literal(-2)))
          CFI (cfiCond286) DPH0 load(1, XDATA, add(CFA_XSP16, literal(-1)))
          CFI (cfiCond286) CFA_SP SP+-2
          CFI (cfiCond286) CFA_XSP16 add(XSP16, 32)
          CFI Block cfiPicker287 Using cfiCommon1
          CFI (cfiPicker287) NoFunction
          CFI (cfiPicker287) Picker
        CLR     A
        MOVX    @DPTR,A
        INC     DPTR
        MOVX    @DPTR,A
        INC     DPTR
        MOVX    @DPTR,A
        INC     DPTR
        MOVX    @DPTR,A
        RET
          CFI (cfiCond281) CFA_SP SP+0
          CFI (cfiCond282) CFA_SP SP+0
          CFI (cfiCond283) CFA_SP SP+0
          CFI (cfiCond284) CFA_SP SP+0
          CFI (cfiCond285) CFA_SP SP+0
          CFI (cfiCond286) CFA_SP SP+0
          CFI (cfiPicker287) CFA_SP SP+0
          CFI EndBlock cfiCond281
          CFI EndBlock cfiCond282
          CFI EndBlock cfiCond283
          CFI EndBlock cfiCond284
          CFI EndBlock cfiCond285
          CFI EndBlock cfiCond286
          CFI EndBlock cfiPicker287
// 2128 
// 2129 /******************************************************************************
// 2130  * @fn          ZDSecMgrAuthenticationSet
// 2131  *
// 2132  * @brief       Mark the specific device as authenticated or not
// 2133  *
// 2134  * @param       extAddr - [in] EXT address
// 2135  * @param       option  - [in] authenticated or not
// 2136  *
// 2137  * @return      ZStatus_t
// 2138  */

        RSEG BANKED_CODE:CODE:NOROOT(0)
// 2139 ZStatus_t ZDSecMgrAuthenticationSet( uint8* extAddr, ZDSecMgr_Authentication_Option option )
ZDSecMgrAuthenticationSet:
          CFI Block cfiBlock288 Using cfiCommon0
          CFI Function ZDSecMgrAuthenticationSet
        CODE
// 2140 {
        FUNCALL ZDSecMgrAuthenticationSet, AddrMgrExtAddrSet
        LOCFRAME ISTACK, 0, STACK
        LOCFRAME PSTACK, 0, STACK
        LOCFRAME XSTACK, 22, STACK
        LOCFRAME IOVERLAY, 0, STATIC
        LOCFRAME DOVERLAY, 0, STATIC
        ARGFRAME ISTACK, 0, STACK
        ARGFRAME PSTACK, 0, STACK
        ARGFRAME XSTACK, 22, STACK
        ARGFRAME IOVERLAY, 0, STATIC
        ARGFRAME DOVERLAY, 0, STATIC
        FUNCALL ZDSecMgrAuthenticationSet, AddrMgrEntryLookupExt
        LOCFRAME ISTACK, 0, STACK
        LOCFRAME PSTACK, 0, STACK
        LOCFRAME XSTACK, 22, STACK
        LOCFRAME IOVERLAY, 0, STATIC
        LOCFRAME DOVERLAY, 0, STATIC
        ARGFRAME ISTACK, 0, STACK
        ARGFRAME PSTACK, 0, STACK
        ARGFRAME XSTACK, 22, STACK
        ARGFRAME IOVERLAY, 0, STATIC
        ARGFRAME DOVERLAY, 0, STATIC
        REQUIRE ?V0
        MOV     A,#-0x9
        LCALL   ?BANKED_ENTER_XDATA
          CFI DPH0 load(1, XDATA, add(CFA_XSP16, literal(-1)))
          CFI DPL0 load(1, XDATA, add(CFA_XSP16, literal(-2)))
          CFI ?BRET_EXT load(1, XDATA, add(CFA_XSP16, literal(-3)))
          CFI ?RET_HIGH load(1, XDATA, add(CFA_XSP16, literal(-4)))
          CFI ?RET_LOW load(1, XDATA, add(CFA_XSP16, literal(-5)))
          CFI R7 load(1, XDATA, add(CFA_XSP16, literal(-6)))
          CFI V0 load(1, XDATA, add(CFA_XSP16, literal(-7)))
          CFI VB load(1, XDATA, add(CFA_XSP16, literal(-8)))
          CFI R6 load(1, XDATA, add(CFA_XSP16, literal(-9)))
          CFI CFA_SP SP+0
          CFI CFA_XSP16 add(XSP16, 9)
        ; Saved register size: 9
        ; Auto size: 13
        MOV     A,#-0xd
        LCALL   ?ALLOC_XSTACK8
          CFI CFA_XSP16 add(XSP16, 22)
        MOV     A,R1
        MOV     R7,A
// 2141   ZStatus_t        status;
// 2142   ZDSecMgrEntry_t* entry;
// 2143 
// 2144 
// 2145   // lookup entry index for specified EXT address
// 2146   status = ZDSecMgrEntryLookupExt( extAddr, &entry );
        MOV     R6,#-0x38
        LCALL   ??Subroutine70_0 & 0xFFFF
??CrossCallReturnLabel_158:
        LCALL   ?XSTACK_DISP0_8
        MOV     R2,DPL
        MOV     R3,DPH
        LCALL   `??AddrMgrExtAddrSet::?relay`; Banked call to: AddrMgrExtAddrSet
        ; Setup parameters for call to function AddrMgrEntryLookupExt
        MOV     R2,?XSP + 0
        MOV     R3,?XSP + 1
        LCALL   `??AddrMgrEntryLookupExt::?relay`; Banked call to: AddrMgrEntryLookupExt
        MOV     A,R1
        XRL     A,#0x1
        JNZ     ??ZDSecMgrAuthenticationSet_0
        MOV     A,#0xb
        LCALL   ?XSTACK_DISP0_8
        LCALL   ?Subroutine24 & 0xFFFF
??CrossCallReturnLabel_17:
        JZ      ??ZDSecMgrAuthenticationSet_0
        LCALL   ?Subroutine25 & 0xFFFF
??CrossCallReturnLabel_188:
        MOV     DPL,R2
        MOV     DPH,R3
        MOVX    A,@DPTR
        XRL     A,R4
        JNZ     ??ZDSecMgrAuthenticationSet_1
        INC     DPTR
        MOVX    A,@DPTR
        XRL     A,R5
??ZDSecMgrAuthenticationSet_1:
        JZ      ??ZDSecMgrAuthenticationSet_2
        INC     R0
        MOV     A,R0
        JNZ     ??ZDSecMgrAuthenticationSet_3
        INC     R1
??ZDSecMgrAuthenticationSet_3:
        MOV     A,R2
        ADD     A,#0x5
        MOV     R2,A
        JNC     ??ZDSecMgrAuthenticationSet_4
        INC     R3
??ZDSecMgrAuthenticationSet_4:
        LCALL   ?Subroutine37 & 0xFFFF
??CrossCallReturnLabel_51:
        JNC     ??ZDSecMgrAuthenticationSet_0
        SJMP    ??CrossCallReturnLabel_188
??ZDSecMgrAuthenticationSet_2:
        MOV     R6,#0x0
// 2147 
// 2148   if ( status == ZSuccess )
// 2149   {
// 2150     entry->authenticateOption = option;
        MOV     A,R0
        MOV     B,#0x5
        MUL     AB
        MOV     R0,A
        MOV     R2,B
        MOV     B,#0x5
        MOV     A,R1
        MUL     AB
        ADD     A,R2
        MOV     R1,A
        LCALL   ?Subroutine28 & 0xFFFF
// 2151   }
??CrossCallReturnLabel_25:
        MOV     A,R7
        MOVX    @DPTR,A
// 2152 
// 2153   return status;
??ZDSecMgrAuthenticationSet_0:
        LJMP    ?Subroutine0 & 0xFFFF
// 2154 }
          CFI EndBlock cfiBlock288

        RSEG BANKED_CODE:CODE:NOROOT(0)
?Subroutine28:
          CFI Block cfiCond289 Using cfiCommon0
          CFI Function ZDSecMgrEntryNew
          CFI Conditional ??CrossCallReturnLabel_24
          CFI R6 load(1, XDATA, add(CFA_XSP16, literal(-9)))
          CFI VB load(1, XDATA, add(CFA_XSP16, literal(-8)))
          CFI V0 load(1, XDATA, add(CFA_XSP16, literal(-7)))
          CFI R7 load(1, XDATA, add(CFA_XSP16, literal(-6)))
          CFI ?RET_LOW load(1, XDATA, add(CFA_XSP16, literal(-5)))
          CFI ?RET_HIGH load(1, XDATA, add(CFA_XSP16, literal(-4)))
          CFI ?BRET_EXT load(1, XDATA, add(CFA_XSP16, literal(-3)))
          CFI DPL0 load(1, XDATA, add(CFA_XSP16, literal(-2)))
          CFI DPH0 load(1, XDATA, add(CFA_XSP16, literal(-1)))
          CFI CFA_SP SP+-2
          CFI CFA_XSP16 add(XSP16, 9)
          CFI Block cfiCond290 Using cfiCommon0
          CFI (cfiCond290) Function ZDSecMgrAuthenticationSet
          CFI (cfiCond290) Conditional ??CrossCallReturnLabel_25
          CFI (cfiCond290) R6 load(1, XDATA, add(CFA_XSP16, literal(-9)))
          CFI (cfiCond290) VB load(1, XDATA, add(CFA_XSP16, literal(-8)))
          CFI (cfiCond290) V0 load(1, XDATA, add(CFA_XSP16, literal(-7)))
          CFI (cfiCond290) R7 load(1, XDATA, add(CFA_XSP16, literal(-6)))
          CFI (cfiCond290) ?RET_LOW load(1, XDATA, add(CFA_XSP16, literal(-5)))
          CFI (cfiCond290) ?RET_HIGH load(1, XDATA, add(CFA_XSP16, literal(-4)))
          CFI (cfiCond290) ?BRET_EXT load(1, XDATA, add(CFA_XSP16, literal(-3)))
          CFI (cfiCond290) DPL0 load(1, XDATA, add(CFA_XSP16, literal(-2)))
          CFI (cfiCond290) DPH0 load(1, XDATA, add(CFA_XSP16, literal(-1)))
          CFI (cfiCond290) CFA_SP SP+-2
          CFI (cfiCond290) CFA_XSP16 add(XSP16, 22)
          CFI Block cfiPicker291 Using cfiCommon1
          CFI (cfiPicker291) NoFunction
          CFI (cfiPicker291) Picker
        LCALL   ?Subroutine44 & 0xFFFF
??CrossCallReturnLabel_74:
        INC     DPTR
        INC     DPTR
        RET
          CFI (cfiCond289) CFA_SP SP+0
          CFI (cfiCond290) CFA_SP SP+0
          CFI (cfiPicker291) CFA_SP SP+0
          CFI EndBlock cfiCond289
          CFI EndBlock cfiCond290
          CFI EndBlock cfiPicker291

        RSEG BANKED_CODE:CODE:NOROOT(0)
?Subroutine24:
          CFI Block cfiCond292 Using cfiCommon0
          CFI Function ZDSecMgrEntryLookupExtGetIndex
          CFI Conditional ??CrossCallReturnLabel_13
          CFI R6 load(1, XDATA, add(CFA_XSP16, literal(-9)))
          CFI VB load(1, XDATA, add(CFA_XSP16, literal(-8)))
          CFI V0 load(1, XDATA, add(CFA_XSP16, literal(-7)))
          CFI R7 load(1, XDATA, add(CFA_XSP16, literal(-6)))
          CFI ?RET_LOW load(1, XDATA, add(CFA_XSP16, literal(-5)))
          CFI ?RET_HIGH load(1, XDATA, add(CFA_XSP16, literal(-4)))
          CFI ?BRET_EXT load(1, XDATA, add(CFA_XSP16, literal(-3)))
          CFI DPL0 load(1, XDATA, add(CFA_XSP16, literal(-2)))
          CFI DPH0 load(1, XDATA, add(CFA_XSP16, literal(-1)))
          CFI CFA_SP SP+-2
          CFI CFA_XSP16 add(XSP16, 22)
          CFI Block cfiCond293 Using cfiCommon0
          CFI (cfiCond293) Function ZDSecMgrDeviceRemoveByExtAddr
          CFI (cfiCond293) Conditional ??CrossCallReturnLabel_15
          CFI (cfiCond293) R6 load(1, XDATA, add(CFA_XSP16, literal(-9)))
          CFI (cfiCond293) VB load(1, XDATA, add(CFA_XSP16, literal(-8)))
          CFI (cfiCond293) V0 load(1, XDATA, add(CFA_XSP16, literal(-7)))
          CFI (cfiCond293) R7 load(1, XDATA, add(CFA_XSP16, literal(-6)))
          CFI (cfiCond293) ?RET_LOW load(1, XDATA, add(CFA_XSP16, literal(-5)))
          CFI (cfiCond293) ?RET_HIGH load(1, XDATA, add(CFA_XSP16, literal(-4)))
          CFI (cfiCond293) ?BRET_EXT load(1, XDATA, add(CFA_XSP16, literal(-3)))
          CFI (cfiCond293) DPL0 load(1, XDATA, add(CFA_XSP16, literal(-2)))
          CFI (cfiCond293) DPH0 load(1, XDATA, add(CFA_XSP16, literal(-1)))
          CFI (cfiCond293) CFA_SP SP+-2
          CFI (cfiCond293) CFA_XSP16 add(XSP16, 22)
          CFI Block cfiCond294 Using cfiCommon0
          CFI (cfiCond294) Function APSME_LinkKeySet
          CFI (cfiCond294) Conditional ??CrossCallReturnLabel_16
          CFI (cfiCond294) R6 load(1, XDATA, add(CFA_XSP16, literal(-19)))
          CFI (cfiCond294) VB load(1, XDATA, add(CFA_XSP16, literal(-18)))
          CFI (cfiCond294) V0 load(1, XDATA, add(CFA_XSP16, literal(-17)))
          CFI (cfiCond294) V1 load(1, XDATA, add(CFA_XSP16, literal(-16)))
          CFI (cfiCond294) V2 load(1, XDATA, add(CFA_XSP16, literal(-15)))
          CFI (cfiCond294) V3 load(1, XDATA, add(CFA_XSP16, literal(-14)))
          CFI (cfiCond294) V4 load(1, XDATA, add(CFA_XSP16, literal(-13)))
          CFI (cfiCond294) V5 load(1, XDATA, add(CFA_XSP16, literal(-12)))
          CFI (cfiCond294) V6 load(1, XDATA, add(CFA_XSP16, literal(-11)))
          CFI (cfiCond294) V7 load(1, XDATA, add(CFA_XSP16, literal(-10)))
          CFI (cfiCond294) V8 load(1, XDATA, add(CFA_XSP16, literal(-9)))
          CFI (cfiCond294) V9 load(1, XDATA, add(CFA_XSP16, literal(-8)))
          CFI (cfiCond294) V10 load(1, XDATA, add(CFA_XSP16, literal(-7)))
          CFI (cfiCond294) R7 load(1, XDATA, add(CFA_XSP16, literal(-6)))
          CFI (cfiCond294) ?RET_LOW load(1, XDATA, add(CFA_XSP16, literal(-5)))
          CFI (cfiCond294) ?RET_HIGH load(1, XDATA, add(CFA_XSP16, literal(-4)))
          CFI (cfiCond294) ?BRET_EXT load(1, XDATA, add(CFA_XSP16, literal(-3)))
          CFI (cfiCond294) DPL0 load(1, XDATA, add(CFA_XSP16, literal(-2)))
          CFI (cfiCond294) DPH0 load(1, XDATA, add(CFA_XSP16, literal(-1)))
          CFI (cfiCond294) CFA_SP SP+-2
          CFI (cfiCond294) CFA_XSP16 add(XSP16, 32)
          CFI Block cfiCond295 Using cfiCommon0
          CFI (cfiCond295) Function ZDSecMgrAuthenticationSet
          CFI (cfiCond295) Conditional ??CrossCallReturnLabel_17
          CFI (cfiCond295) R6 load(1, XDATA, add(CFA_XSP16, literal(-9)))
          CFI (cfiCond295) VB load(1, XDATA, add(CFA_XSP16, literal(-8)))
          CFI (cfiCond295) V0 load(1, XDATA, add(CFA_XSP16, literal(-7)))
          CFI (cfiCond295) R7 load(1, XDATA, add(CFA_XSP16, literal(-6)))
          CFI (cfiCond295) ?RET_LOW load(1, XDATA, add(CFA_XSP16, literal(-5)))
          CFI (cfiCond295) ?RET_HIGH load(1, XDATA, add(CFA_XSP16, literal(-4)))
          CFI (cfiCond295) ?BRET_EXT load(1, XDATA, add(CFA_XSP16, literal(-3)))
          CFI (cfiCond295) DPL0 load(1, XDATA, add(CFA_XSP16, literal(-2)))
          CFI (cfiCond295) DPH0 load(1, XDATA, add(CFA_XSP16, literal(-1)))
          CFI (cfiCond295) CFA_SP SP+-2
          CFI (cfiCond295) CFA_XSP16 add(XSP16, 22)
          CFI Block cfiCond296 Using cfiCommon0
          CFI (cfiCond296) Function APSME_LinkKeyNVIdGet
          CFI (cfiCond296) Conditional ??CrossCallReturnLabel_18
          CFI (cfiCond296) R6 load(1, XDATA, add(CFA_XSP16, literal(-10)))
          CFI (cfiCond296) VB load(1, XDATA, add(CFA_XSP16, literal(-9)))
          CFI (cfiCond296) V0 load(1, XDATA, add(CFA_XSP16, literal(-8)))
          CFI (cfiCond296) V1 load(1, XDATA, add(CFA_XSP16, literal(-7)))
          CFI (cfiCond296) R7 load(1, XDATA, add(CFA_XSP16, literal(-6)))
          CFI (cfiCond296) ?RET_LOW load(1, XDATA, add(CFA_XSP16, literal(-5)))
          CFI (cfiCond296) ?RET_HIGH load(1, XDATA, add(CFA_XSP16, literal(-4)))
          CFI (cfiCond296) ?BRET_EXT load(1, XDATA, add(CFA_XSP16, literal(-3)))
          CFI (cfiCond296) DPL0 load(1, XDATA, add(CFA_XSP16, literal(-2)))
          CFI (cfiCond296) DPH0 load(1, XDATA, add(CFA_XSP16, literal(-1)))
          CFI (cfiCond296) CFA_SP SP+-2
          CFI (cfiCond296) CFA_XSP16 add(XSP16, 23)
          CFI Block cfiCond297 Using cfiCommon0
          CFI (cfiCond297) Function APSME_IsLinkKeyValid
          CFI (cfiCond297) Conditional ??CrossCallReturnLabel_19
          CFI (cfiCond297) R6 load(1, XDATA, add(CFA_XSP16, literal(-15)))
          CFI (cfiCond297) VB load(1, XDATA, add(CFA_XSP16, literal(-14)))
          CFI (cfiCond297) V0 load(1, XDATA, add(CFA_XSP16, literal(-13)))
          CFI (cfiCond297) V1 load(1, XDATA, add(CFA_XSP16, literal(-12)))
          CFI (cfiCond297) V2 load(1, XDATA, add(CFA_XSP16, literal(-11)))
          CFI (cfiCond297) V3 load(1, XDATA, add(CFA_XSP16, literal(-10)))
          CFI (cfiCond297) V4 load(1, XDATA, add(CFA_XSP16, literal(-9)))
          CFI (cfiCond297) V5 load(1, XDATA, add(CFA_XSP16, literal(-8)))
          CFI (cfiCond297) V6 load(1, XDATA, add(CFA_XSP16, literal(-7)))
          CFI (cfiCond297) R7 load(1, XDATA, add(CFA_XSP16, literal(-6)))
          CFI (cfiCond297) ?RET_LOW load(1, XDATA, add(CFA_XSP16, literal(-5)))
          CFI (cfiCond297) ?RET_HIGH load(1, XDATA, add(CFA_XSP16, literal(-4)))
          CFI (cfiCond297) ?BRET_EXT load(1, XDATA, add(CFA_XSP16, literal(-3)))
          CFI (cfiCond297) DPL0 load(1, XDATA, add(CFA_XSP16, literal(-2)))
          CFI (cfiCond297) DPH0 load(1, XDATA, add(CFA_XSP16, literal(-1)))
          CFI (cfiCond297) CFA_SP SP+-2
          CFI (cfiCond297) CFA_XSP16 add(XSP16, 44)
          CFI Block cfiCond298 Using cfiCommon0
          CFI (cfiCond298) Function ZDSecMgrAddLinkKey
          CFI (cfiCond298) Conditional ??CrossCallReturnLabel_14
          CFI (cfiCond298) R6 load(1, XDATA, add(CFA_XSP16, literal(-9)))
          CFI (cfiCond298) VB load(1, XDATA, add(CFA_XSP16, literal(-8)))
          CFI (cfiCond298) V0 load(1, XDATA, add(CFA_XSP16, literal(-7)))
          CFI (cfiCond298) R7 load(1, XDATA, add(CFA_XSP16, literal(-6)))
          CFI (cfiCond298) ?RET_LOW load(1, XDATA, add(CFA_XSP16, literal(-5)))
          CFI (cfiCond298) ?RET_HIGH load(1, XDATA, add(CFA_XSP16, literal(-4)))
          CFI (cfiCond298) ?BRET_EXT load(1, XDATA, add(CFA_XSP16, literal(-3)))
          CFI (cfiCond298) DPL0 load(1, XDATA, add(CFA_XSP16, literal(-2)))
          CFI (cfiCond298) DPH0 load(1, XDATA, add(CFA_XSP16, literal(-1)))
          CFI (cfiCond298) CFA_SP SP+-2
          CFI (cfiCond298) CFA_XSP16 add(XSP16, 22)
          CFI Block cfiPicker299 Using cfiCommon1
          CFI (cfiPicker299) NoFunction
          CFI (cfiPicker299) Picker
        MOVX    A,@DPTR
        MOV     R4,A
        INC     DPTR
        MOVX    A,@DPTR
        MOV     R5,A
        LCALL   ?Subroutine45 & 0xFFFF
??CrossCallReturnLabel_165:
        RET
          CFI (cfiCond292) CFA_SP SP+0
          CFI (cfiCond293) CFA_SP SP+0
          CFI (cfiCond294) CFA_SP SP+0
          CFI (cfiCond295) CFA_SP SP+0
          CFI (cfiCond296) CFA_SP SP+0
          CFI (cfiCond297) CFA_SP SP+0
          CFI (cfiCond298) CFA_SP SP+0
          CFI (cfiPicker299) CFA_SP SP+0
          CFI EndBlock cfiCond292
          CFI EndBlock cfiCond293
          CFI EndBlock cfiCond294
          CFI EndBlock cfiCond295
          CFI EndBlock cfiCond296
          CFI EndBlock cfiCond297
          CFI EndBlock cfiCond298
          CFI EndBlock cfiPicker299

        RSEG BANKED_CODE:CODE:NOROOT(0)
?Subroutine45:
          CFI Block cfiCond300 Using cfiCommon0
          CFI Function ZDSecMgrEntryLookup
          CFI Conditional ??CrossCallReturnLabel_166, ??CrossCallReturnLabel_84
          CFI R6 load(1, XDATA, add(CFA_XSP16, literal(-9)))
          CFI VB load(1, XDATA, add(CFA_XSP16, literal(-8)))
          CFI V0 load(1, XDATA, add(CFA_XSP16, literal(-7)))
          CFI R7 load(1, XDATA, add(CFA_XSP16, literal(-6)))
          CFI ?RET_LOW load(1, XDATA, add(CFA_XSP16, literal(-5)))
          CFI ?RET_HIGH load(1, XDATA, add(CFA_XSP16, literal(-4)))
          CFI ?BRET_EXT load(1, XDATA, add(CFA_XSP16, literal(-3)))
          CFI DPL0 load(1, XDATA, add(CFA_XSP16, literal(-2)))
          CFI DPH0 load(1, XDATA, add(CFA_XSP16, literal(-1)))
          CFI CFA_SP SP+-4
          CFI CFA_XSP16 add(XSP16, 22)
          CFI Block cfiCond301 Using cfiCommon0
          CFI (cfiCond301) Function ZDSecMgrEntryLookupExt
          CFI (cfiCond301) Conditional ??CrossCallReturnLabel_166, ??CrossCallReturnLabel_88
          CFI (cfiCond301) R6 load(1, XDATA, add(CFA_XSP16, literal(-10)))
          CFI (cfiCond301) VB load(1, XDATA, add(CFA_XSP16, literal(-9)))
          CFI (cfiCond301) V0 load(1, XDATA, add(CFA_XSP16, literal(-8)))
          CFI (cfiCond301) V1 load(1, XDATA, add(CFA_XSP16, literal(-7)))
          CFI (cfiCond301) R7 load(1, XDATA, add(CFA_XSP16, literal(-6)))
          CFI (cfiCond301) ?RET_LOW load(1, XDATA, add(CFA_XSP16, literal(-5)))
          CFI (cfiCond301) ?RET_HIGH load(1, XDATA, add(CFA_XSP16, literal(-4)))
          CFI (cfiCond301) ?BRET_EXT load(1, XDATA, add(CFA_XSP16, literal(-3)))
          CFI (cfiCond301) DPL0 load(1, XDATA, add(CFA_XSP16, literal(-2)))
          CFI (cfiCond301) DPH0 load(1, XDATA, add(CFA_XSP16, literal(-1)))
          CFI (cfiCond301) CFA_SP SP+-4
          CFI (cfiCond301) CFA_XSP16 add(XSP16, 23)
          CFI Block cfiCond302 Using cfiCommon0
          CFI (cfiCond302) Function ZDSecMgrEntryLookupAMI
          CFI (cfiCond302) Conditional ??CrossCallReturnLabel_166, ??CrossCallReturnLabel_85
          CFI (cfiCond302) R6 load(1, XDATA, add(CFA_XSP16, literal(-9)))
          CFI (cfiCond302) VB load(1, XDATA, add(CFA_XSP16, literal(-8)))
          CFI (cfiCond302) V0 load(1, XDATA, add(CFA_XSP16, literal(-7)))
          CFI (cfiCond302) R7 load(1, XDATA, add(CFA_XSP16, literal(-6)))
          CFI (cfiCond302) ?RET_LOW load(1, XDATA, add(CFA_XSP16, literal(-5)))
          CFI (cfiCond302) ?RET_HIGH load(1, XDATA, add(CFA_XSP16, literal(-4)))
          CFI (cfiCond302) ?BRET_EXT load(1, XDATA, add(CFA_XSP16, literal(-3)))
          CFI (cfiCond302) DPL0 load(1, XDATA, add(CFA_XSP16, literal(-2)))
          CFI (cfiCond302) DPH0 load(1, XDATA, add(CFA_XSP16, literal(-1)))
          CFI (cfiCond302) CFA_SP SP+-4
          CFI (cfiCond302) CFA_XSP16 add(XSP16, 9)
          CFI Block cfiCond303 Using cfiCommon0
          CFI (cfiCond303) Function ZDSecMgrEntryNew
          CFI (cfiCond303) Conditional ??CrossCallReturnLabel_166, ??CrossCallReturnLabel_86
          CFI (cfiCond303) R6 load(1, XDATA, add(CFA_XSP16, literal(-9)))
          CFI (cfiCond303) VB load(1, XDATA, add(CFA_XSP16, literal(-8)))
          CFI (cfiCond303) V0 load(1, XDATA, add(CFA_XSP16, literal(-7)))
          CFI (cfiCond303) R7 load(1, XDATA, add(CFA_XSP16, literal(-6)))
          CFI (cfiCond303) ?RET_LOW load(1, XDATA, add(CFA_XSP16, literal(-5)))
          CFI (cfiCond303) ?RET_HIGH load(1, XDATA, add(CFA_XSP16, literal(-4)))
          CFI (cfiCond303) ?BRET_EXT load(1, XDATA, add(CFA_XSP16, literal(-3)))
          CFI (cfiCond303) DPL0 load(1, XDATA, add(CFA_XSP16, literal(-2)))
          CFI (cfiCond303) DPH0 load(1, XDATA, add(CFA_XSP16, literal(-1)))
          CFI (cfiCond303) CFA_SP SP+-4
          CFI (cfiCond303) CFA_XSP16 add(XSP16, 9)
          CFI Block cfiCond304 Using cfiCommon0
          CFI (cfiCond304) Function ZDSecMgrEntryInit
          CFI (cfiCond304) Conditional ??CrossCallReturnLabel_166, ??CrossCallReturnLabel_87
          CFI (cfiCond304) DPL0 Frame(CFA_SP, 4)
          CFI (cfiCond304) DPH0 Frame(CFA_SP, 5)
          CFI (cfiCond304) CFA_SP SP+-9
          CFI Block cfiCond305 Using cfiCommon0
          CFI (cfiCond305) Function ZDSecMgrEntryLookupExtGetIndex
          CFI (cfiCond305) Conditional ??CrossCallReturnLabel_165, ??CrossCallReturnLabel_13
          CFI (cfiCond305) R6 load(1, XDATA, add(CFA_XSP16, literal(-9)))
          CFI (cfiCond305) VB load(1, XDATA, add(CFA_XSP16, literal(-8)))
          CFI (cfiCond305) V0 load(1, XDATA, add(CFA_XSP16, literal(-7)))
          CFI (cfiCond305) R7 load(1, XDATA, add(CFA_XSP16, literal(-6)))
          CFI (cfiCond305) ?RET_LOW load(1, XDATA, add(CFA_XSP16, literal(-5)))
          CFI (cfiCond305) ?RET_HIGH load(1, XDATA, add(CFA_XSP16, literal(-4)))
          CFI (cfiCond305) ?BRET_EXT load(1, XDATA, add(CFA_XSP16, literal(-3)))
          CFI (cfiCond305) DPL0 load(1, XDATA, add(CFA_XSP16, literal(-2)))
          CFI (cfiCond305) DPH0 load(1, XDATA, add(CFA_XSP16, literal(-1)))
          CFI (cfiCond305) CFA_SP SP+-4
          CFI (cfiCond305) CFA_XSP16 add(XSP16, 22)
          CFI Block cfiCond306 Using cfiCommon0
          CFI (cfiCond306) Function ZDSecMgrDeviceRemoveByExtAddr
          CFI (cfiCond306) Conditional ??CrossCallReturnLabel_165, ??CrossCallReturnLabel_15
          CFI (cfiCond306) R6 load(1, XDATA, add(CFA_XSP16, literal(-9)))
          CFI (cfiCond306) VB load(1, XDATA, add(CFA_XSP16, literal(-8)))
          CFI (cfiCond306) V0 load(1, XDATA, add(CFA_XSP16, literal(-7)))
          CFI (cfiCond306) R7 load(1, XDATA, add(CFA_XSP16, literal(-6)))
          CFI (cfiCond306) ?RET_LOW load(1, XDATA, add(CFA_XSP16, literal(-5)))
          CFI (cfiCond306) ?RET_HIGH load(1, XDATA, add(CFA_XSP16, literal(-4)))
          CFI (cfiCond306) ?BRET_EXT load(1, XDATA, add(CFA_XSP16, literal(-3)))
          CFI (cfiCond306) DPL0 load(1, XDATA, add(CFA_XSP16, literal(-2)))
          CFI (cfiCond306) DPH0 load(1, XDATA, add(CFA_XSP16, literal(-1)))
          CFI (cfiCond306) CFA_SP SP+-4
          CFI (cfiCond306) CFA_XSP16 add(XSP16, 22)
          CFI Block cfiCond307 Using cfiCommon0
          CFI (cfiCond307) Function APSME_LinkKeySet
          CFI (cfiCond307) Conditional ??CrossCallReturnLabel_165, ??CrossCallReturnLabel_16
          CFI (cfiCond307) R6 load(1, XDATA, add(CFA_XSP16, literal(-19)))
          CFI (cfiCond307) VB load(1, XDATA, add(CFA_XSP16, literal(-18)))
          CFI (cfiCond307) V0 load(1, XDATA, add(CFA_XSP16, literal(-17)))
          CFI (cfiCond307) V1 load(1, XDATA, add(CFA_XSP16, literal(-16)))
          CFI (cfiCond307) V2 load(1, XDATA, add(CFA_XSP16, literal(-15)))
          CFI (cfiCond307) V3 load(1, XDATA, add(CFA_XSP16, literal(-14)))
          CFI (cfiCond307) V4 load(1, XDATA, add(CFA_XSP16, literal(-13)))
          CFI (cfiCond307) V5 load(1, XDATA, add(CFA_XSP16, literal(-12)))
          CFI (cfiCond307) V6 load(1, XDATA, add(CFA_XSP16, literal(-11)))
          CFI (cfiCond307) V7 load(1, XDATA, add(CFA_XSP16, literal(-10)))
          CFI (cfiCond307) V8 load(1, XDATA, add(CFA_XSP16, literal(-9)))
          CFI (cfiCond307) V9 load(1, XDATA, add(CFA_XSP16, literal(-8)))
          CFI (cfiCond307) V10 load(1, XDATA, add(CFA_XSP16, literal(-7)))
          CFI (cfiCond307) R7 load(1, XDATA, add(CFA_XSP16, literal(-6)))
          CFI (cfiCond307) ?RET_LOW load(1, XDATA, add(CFA_XSP16, literal(-5)))
          CFI (cfiCond307) ?RET_HIGH load(1, XDATA, add(CFA_XSP16, literal(-4)))
          CFI (cfiCond307) ?BRET_EXT load(1, XDATA, add(CFA_XSP16, literal(-3)))
          CFI (cfiCond307) DPL0 load(1, XDATA, add(CFA_XSP16, literal(-2)))
          CFI (cfiCond307) DPH0 load(1, XDATA, add(CFA_XSP16, literal(-1)))
          CFI (cfiCond307) CFA_SP SP+-4
          CFI (cfiCond307) CFA_XSP16 add(XSP16, 32)
          CFI Block cfiCond308 Using cfiCommon0
          CFI (cfiCond308) Function ZDSecMgrAuthenticationSet
          CFI (cfiCond308) Conditional ??CrossCallReturnLabel_165, ??CrossCallReturnLabel_17
          CFI (cfiCond308) R6 load(1, XDATA, add(CFA_XSP16, literal(-9)))
          CFI (cfiCond308) VB load(1, XDATA, add(CFA_XSP16, literal(-8)))
          CFI (cfiCond308) V0 load(1, XDATA, add(CFA_XSP16, literal(-7)))
          CFI (cfiCond308) R7 load(1, XDATA, add(CFA_XSP16, literal(-6)))
          CFI (cfiCond308) ?RET_LOW load(1, XDATA, add(CFA_XSP16, literal(-5)))
          CFI (cfiCond308) ?RET_HIGH load(1, XDATA, add(CFA_XSP16, literal(-4)))
          CFI (cfiCond308) ?BRET_EXT load(1, XDATA, add(CFA_XSP16, literal(-3)))
          CFI (cfiCond308) DPL0 load(1, XDATA, add(CFA_XSP16, literal(-2)))
          CFI (cfiCond308) DPH0 load(1, XDATA, add(CFA_XSP16, literal(-1)))
          CFI (cfiCond308) CFA_SP SP+-4
          CFI (cfiCond308) CFA_XSP16 add(XSP16, 22)
          CFI Block cfiCond309 Using cfiCommon0
          CFI (cfiCond309) Function APSME_LinkKeyNVIdGet
          CFI (cfiCond309) Conditional ??CrossCallReturnLabel_165, ??CrossCallReturnLabel_18
          CFI (cfiCond309) R6 load(1, XDATA, add(CFA_XSP16, literal(-10)))
          CFI (cfiCond309) VB load(1, XDATA, add(CFA_XSP16, literal(-9)))
          CFI (cfiCond309) V0 load(1, XDATA, add(CFA_XSP16, literal(-8)))
          CFI (cfiCond309) V1 load(1, XDATA, add(CFA_XSP16, literal(-7)))
          CFI (cfiCond309) R7 load(1, XDATA, add(CFA_XSP16, literal(-6)))
          CFI (cfiCond309) ?RET_LOW load(1, XDATA, add(CFA_XSP16, literal(-5)))
          CFI (cfiCond309) ?RET_HIGH load(1, XDATA, add(CFA_XSP16, literal(-4)))
          CFI (cfiCond309) ?BRET_EXT load(1, XDATA, add(CFA_XSP16, literal(-3)))
          CFI (cfiCond309) DPL0 load(1, XDATA, add(CFA_XSP16, literal(-2)))
          CFI (cfiCond309) DPH0 load(1, XDATA, add(CFA_XSP16, literal(-1)))
          CFI (cfiCond309) CFA_SP SP+-4
          CFI (cfiCond309) CFA_XSP16 add(XSP16, 23)
          CFI Block cfiCond310 Using cfiCommon0
          CFI (cfiCond310) Function APSME_IsLinkKeyValid
          CFI (cfiCond310) Conditional ??CrossCallReturnLabel_165, ??CrossCallReturnLabel_19
          CFI (cfiCond310) R6 load(1, XDATA, add(CFA_XSP16, literal(-15)))
          CFI (cfiCond310) VB load(1, XDATA, add(CFA_XSP16, literal(-14)))
          CFI (cfiCond310) V0 load(1, XDATA, add(CFA_XSP16, literal(-13)))
          CFI (cfiCond310) V1 load(1, XDATA, add(CFA_XSP16, literal(-12)))
          CFI (cfiCond310) V2 load(1, XDATA, add(CFA_XSP16, literal(-11)))
          CFI (cfiCond310) V3 load(1, XDATA, add(CFA_XSP16, literal(-10)))
          CFI (cfiCond310) V4 load(1, XDATA, add(CFA_XSP16, literal(-9)))
          CFI (cfiCond310) V5 load(1, XDATA, add(CFA_XSP16, literal(-8)))
          CFI (cfiCond310) V6 load(1, XDATA, add(CFA_XSP16, literal(-7)))
          CFI (cfiCond310) R7 load(1, XDATA, add(CFA_XSP16, literal(-6)))
          CFI (cfiCond310) ?RET_LOW load(1, XDATA, add(CFA_XSP16, literal(-5)))
          CFI (cfiCond310) ?RET_HIGH load(1, XDATA, add(CFA_XSP16, literal(-4)))
          CFI (cfiCond310) ?BRET_EXT load(1, XDATA, add(CFA_XSP16, literal(-3)))
          CFI (cfiCond310) DPL0 load(1, XDATA, add(CFA_XSP16, literal(-2)))
          CFI (cfiCond310) DPH0 load(1, XDATA, add(CFA_XSP16, literal(-1)))
          CFI (cfiCond310) CFA_SP SP+-4
          CFI (cfiCond310) CFA_XSP16 add(XSP16, 44)
          CFI Block cfiCond311 Using cfiCommon0
          CFI (cfiCond311) Function ZDSecMgrAddLinkKey
          CFI (cfiCond311) Conditional ??CrossCallReturnLabel_165, ??CrossCallReturnLabel_14
          CFI (cfiCond311) R6 load(1, XDATA, add(CFA_XSP16, literal(-9)))
          CFI (cfiCond311) VB load(1, XDATA, add(CFA_XSP16, literal(-8)))
          CFI (cfiCond311) V0 load(1, XDATA, add(CFA_XSP16, literal(-7)))
          CFI (cfiCond311) R7 load(1, XDATA, add(CFA_XSP16, literal(-6)))
          CFI (cfiCond311) ?RET_LOW load(1, XDATA, add(CFA_XSP16, literal(-5)))
          CFI (cfiCond311) ?RET_HIGH load(1, XDATA, add(CFA_XSP16, literal(-4)))
          CFI (cfiCond311) ?BRET_EXT load(1, XDATA, add(CFA_XSP16, literal(-3)))
          CFI (cfiCond311) DPL0 load(1, XDATA, add(CFA_XSP16, literal(-2)))
          CFI (cfiCond311) DPH0 load(1, XDATA, add(CFA_XSP16, literal(-1)))
          CFI (cfiCond311) CFA_SP SP+-4
          CFI (cfiCond311) CFA_XSP16 add(XSP16, 22)
          CFI Block cfiPicker312 Using cfiCommon1
          CFI (cfiPicker312) NoFunction
          CFI (cfiPicker312) Picker
        MOV     DPTR,#ZDSecMgrEntries
          CFI EndBlock cfiCond300
          CFI EndBlock cfiCond301
          CFI EndBlock cfiCond302
          CFI EndBlock cfiCond303
          CFI EndBlock cfiCond304
          CFI EndBlock cfiCond305
          CFI EndBlock cfiCond306
          CFI EndBlock cfiCond307
          CFI EndBlock cfiCond308
          CFI EndBlock cfiCond309
          CFI EndBlock cfiCond310
          CFI EndBlock cfiCond311
          CFI EndBlock cfiPicker312
        REQUIRE ??Subroutine69_0
        ; // Fall through to label ??Subroutine69_0

        RSEG BANKED_CODE:CODE:NOROOT(0)
??Subroutine69_0:
          CFI Block cfiCond313 Using cfiCommon0
          CFI Function ZDSecMgrEntryInit
          CFI Conditional ??CrossCallReturnLabel_167, ??CrossCallReturnLabel_163
          CFI DPL0 Frame(CFA_SP, 4)
          CFI DPH0 Frame(CFA_SP, 5)
          CFI CFA_SP SP+-9
          CFI Block cfiCond314 Using cfiCommon0
          CFI (cfiCond314) Function ZDSecMgrEntryLookupAMIGetIndex
          CFI (cfiCond314) Conditional ??CrossCallReturnLabel_167, ??CrossCallReturnLabel_164
          CFI (cfiCond314) R6 load(1, XDATA, add(CFA_XSP16, literal(-9)))
          CFI (cfiCond314) VB load(1, XDATA, add(CFA_XSP16, literal(-8)))
          CFI (cfiCond314) V0 load(1, XDATA, add(CFA_XSP16, literal(-7)))
          CFI (cfiCond314) R7 load(1, XDATA, add(CFA_XSP16, literal(-6)))
          CFI (cfiCond314) ?RET_LOW load(1, XDATA, add(CFA_XSP16, literal(-5)))
          CFI (cfiCond314) ?RET_HIGH load(1, XDATA, add(CFA_XSP16, literal(-4)))
          CFI (cfiCond314) ?BRET_EXT load(1, XDATA, add(CFA_XSP16, literal(-3)))
          CFI (cfiCond314) DPL0 load(1, XDATA, add(CFA_XSP16, literal(-2)))
          CFI (cfiCond314) DPH0 load(1, XDATA, add(CFA_XSP16, literal(-1)))
          CFI (cfiCond314) CFA_SP SP+-4
          CFI (cfiCond314) CFA_XSP16 add(XSP16, 9)
          CFI Block cfiCond315 Using cfiCommon0
          CFI (cfiCond315) Function ZDSecMgrDeviceJoin
          CFI (cfiCond315) Conditional ??CrossCallReturnLabel_167, ??CrossCallReturnLabel_160
          CFI (cfiCond315) R6 load(1, XDATA, add(CFA_XSP16, literal(-13)))
          CFI (cfiCond315) VB load(1, XDATA, add(CFA_XSP16, literal(-12)))
          CFI (cfiCond315) V0 load(1, XDATA, add(CFA_XSP16, literal(-11)))
          CFI (cfiCond315) V1 load(1, XDATA, add(CFA_XSP16, literal(-10)))
          CFI (cfiCond315) V2 load(1, XDATA, add(CFA_XSP16, literal(-9)))
          CFI (cfiCond315) V3 load(1, XDATA, add(CFA_XSP16, literal(-8)))
          CFI (cfiCond315) V4 load(1, XDATA, add(CFA_XSP16, literal(-7)))
          CFI (cfiCond315) R7 load(1, XDATA, add(CFA_XSP16, literal(-6)))
          CFI (cfiCond315) ?RET_LOW load(1, XDATA, add(CFA_XSP16, literal(-5)))
          CFI (cfiCond315) ?RET_HIGH load(1, XDATA, add(CFA_XSP16, literal(-4)))
          CFI (cfiCond315) ?BRET_EXT load(1, XDATA, add(CFA_XSP16, literal(-3)))
          CFI (cfiCond315) DPL0 load(1, XDATA, add(CFA_XSP16, literal(-2)))
          CFI (cfiCond315) DPH0 load(1, XDATA, add(CFA_XSP16, literal(-1)))
          CFI (cfiCond315) CFA_SP SP+-4
          CFI (cfiCond315) CFA_XSP16 add(XSP16, 38)
          CFI Block cfiCond316 Using cfiCommon0
          CFI (cfiCond316) Function ZDSecMgrRemoveDeviceInd
          CFI (cfiCond316) Conditional ??CrossCallReturnLabel_167, ??CrossCallReturnLabel_161
          CFI (cfiCond316) R6 load(1, XDATA, add(CFA_XSP16, literal(-9)))
          CFI (cfiCond316) VB load(1, XDATA, add(CFA_XSP16, literal(-8)))
          CFI (cfiCond316) V0 load(1, XDATA, add(CFA_XSP16, literal(-7)))
          CFI (cfiCond316) R7 load(1, XDATA, add(CFA_XSP16, literal(-6)))
          CFI (cfiCond316) ?RET_LOW load(1, XDATA, add(CFA_XSP16, literal(-5)))
          CFI (cfiCond316) ?RET_HIGH load(1, XDATA, add(CFA_XSP16, literal(-4)))
          CFI (cfiCond316) ?BRET_EXT load(1, XDATA, add(CFA_XSP16, literal(-3)))
          CFI (cfiCond316) DPL0 load(1, XDATA, add(CFA_XSP16, literal(-2)))
          CFI (cfiCond316) DPH0 load(1, XDATA, add(CFA_XSP16, literal(-1)))
          CFI (cfiCond316) CFA_SP SP+-4
          CFI (cfiCond316) CFA_XSP16 add(XSP16, 17)
          CFI Block cfiCond317 Using cfiCommon0
          CFI (cfiCond317) Function APSME_KeyFwdToChild
          CFI (cfiCond317) Conditional ??CrossCallReturnLabel_167, ??CrossCallReturnLabel_162
          CFI (cfiCond317) R6 load(1, XDATA, add(CFA_XSP16, literal(-10)))
          CFI (cfiCond317) VB load(1, XDATA, add(CFA_XSP16, literal(-9)))
          CFI (cfiCond317) V0 load(1, XDATA, add(CFA_XSP16, literal(-8)))
          CFI (cfiCond317) V1 load(1, XDATA, add(CFA_XSP16, literal(-7)))
          CFI (cfiCond317) R7 load(1, XDATA, add(CFA_XSP16, literal(-6)))
          CFI (cfiCond317) ?RET_LOW load(1, XDATA, add(CFA_XSP16, literal(-5)))
          CFI (cfiCond317) ?RET_HIGH load(1, XDATA, add(CFA_XSP16, literal(-4)))
          CFI (cfiCond317) ?BRET_EXT load(1, XDATA, add(CFA_XSP16, literal(-3)))
          CFI (cfiCond317) DPL0 load(1, XDATA, add(CFA_XSP16, literal(-2)))
          CFI (cfiCond317) DPH0 load(1, XDATA, add(CFA_XSP16, literal(-1)))
          CFI (cfiCond317) CFA_SP SP+-4
          CFI (cfiCond317) CFA_XSP16 add(XSP16, 10)
          CFI Block cfiCond318 Using cfiCommon0
          CFI (cfiCond318) Function ZDSecMgrEntryLookup
          CFI (cfiCond318) Conditional ??CrossCallReturnLabel_166, ??CrossCallReturnLabel_84
          CFI (cfiCond318) R6 load(1, XDATA, add(CFA_XSP16, literal(-9)))
          CFI (cfiCond318) VB load(1, XDATA, add(CFA_XSP16, literal(-8)))
          CFI (cfiCond318) V0 load(1, XDATA, add(CFA_XSP16, literal(-7)))
          CFI (cfiCond318) R7 load(1, XDATA, add(CFA_XSP16, literal(-6)))
          CFI (cfiCond318) ?RET_LOW load(1, XDATA, add(CFA_XSP16, literal(-5)))
          CFI (cfiCond318) ?RET_HIGH load(1, XDATA, add(CFA_XSP16, literal(-4)))
          CFI (cfiCond318) ?BRET_EXT load(1, XDATA, add(CFA_XSP16, literal(-3)))
          CFI (cfiCond318) DPL0 load(1, XDATA, add(CFA_XSP16, literal(-2)))
          CFI (cfiCond318) DPH0 load(1, XDATA, add(CFA_XSP16, literal(-1)))
          CFI (cfiCond318) CFA_SP SP+-4
          CFI (cfiCond318) CFA_XSP16 add(XSP16, 22)
          CFI Block cfiCond319 Using cfiCommon0
          CFI (cfiCond319) Function ZDSecMgrEntryLookupExt
          CFI (cfiCond319) Conditional ??CrossCallReturnLabel_166, ??CrossCallReturnLabel_88
          CFI (cfiCond319) R6 load(1, XDATA, add(CFA_XSP16, literal(-10)))
          CFI (cfiCond319) VB load(1, XDATA, add(CFA_XSP16, literal(-9)))
          CFI (cfiCond319) V0 load(1, XDATA, add(CFA_XSP16, literal(-8)))
          CFI (cfiCond319) V1 load(1, XDATA, add(CFA_XSP16, literal(-7)))
          CFI (cfiCond319) R7 load(1, XDATA, add(CFA_XSP16, literal(-6)))
          CFI (cfiCond319) ?RET_LOW load(1, XDATA, add(CFA_XSP16, literal(-5)))
          CFI (cfiCond319) ?RET_HIGH load(1, XDATA, add(CFA_XSP16, literal(-4)))
          CFI (cfiCond319) ?BRET_EXT load(1, XDATA, add(CFA_XSP16, literal(-3)))
          CFI (cfiCond319) DPL0 load(1, XDATA, add(CFA_XSP16, literal(-2)))
          CFI (cfiCond319) DPH0 load(1, XDATA, add(CFA_XSP16, literal(-1)))
          CFI (cfiCond319) CFA_SP SP+-4
          CFI (cfiCond319) CFA_XSP16 add(XSP16, 23)
          CFI Block cfiCond320 Using cfiCommon0
          CFI (cfiCond320) Function ZDSecMgrEntryLookupAMI
          CFI (cfiCond320) Conditional ??CrossCallReturnLabel_166, ??CrossCallReturnLabel_85
          CFI (cfiCond320) R6 load(1, XDATA, add(CFA_XSP16, literal(-9)))
          CFI (cfiCond320) VB load(1, XDATA, add(CFA_XSP16, literal(-8)))
          CFI (cfiCond320) V0 load(1, XDATA, add(CFA_XSP16, literal(-7)))
          CFI (cfiCond320) R7 load(1, XDATA, add(CFA_XSP16, literal(-6)))
          CFI (cfiCond320) ?RET_LOW load(1, XDATA, add(CFA_XSP16, literal(-5)))
          CFI (cfiCond320) ?RET_HIGH load(1, XDATA, add(CFA_XSP16, literal(-4)))
          CFI (cfiCond320) ?BRET_EXT load(1, XDATA, add(CFA_XSP16, literal(-3)))
          CFI (cfiCond320) DPL0 load(1, XDATA, add(CFA_XSP16, literal(-2)))
          CFI (cfiCond320) DPH0 load(1, XDATA, add(CFA_XSP16, literal(-1)))
          CFI (cfiCond320) CFA_SP SP+-4
          CFI (cfiCond320) CFA_XSP16 add(XSP16, 9)
          CFI Block cfiCond321 Using cfiCommon0
          CFI (cfiCond321) Function ZDSecMgrEntryNew
          CFI (cfiCond321) Conditional ??CrossCallReturnLabel_166, ??CrossCallReturnLabel_86
          CFI (cfiCond321) R6 load(1, XDATA, add(CFA_XSP16, literal(-9)))
          CFI (cfiCond321) VB load(1, XDATA, add(CFA_XSP16, literal(-8)))
          CFI (cfiCond321) V0 load(1, XDATA, add(CFA_XSP16, literal(-7)))
          CFI (cfiCond321) R7 load(1, XDATA, add(CFA_XSP16, literal(-6)))
          CFI (cfiCond321) ?RET_LOW load(1, XDATA, add(CFA_XSP16, literal(-5)))
          CFI (cfiCond321) ?RET_HIGH load(1, XDATA, add(CFA_XSP16, literal(-4)))
          CFI (cfiCond321) ?BRET_EXT load(1, XDATA, add(CFA_XSP16, literal(-3)))
          CFI (cfiCond321) DPL0 load(1, XDATA, add(CFA_XSP16, literal(-2)))
          CFI (cfiCond321) DPH0 load(1, XDATA, add(CFA_XSP16, literal(-1)))
          CFI (cfiCond321) CFA_SP SP+-4
          CFI (cfiCond321) CFA_XSP16 add(XSP16, 9)
          CFI Block cfiCond322 Using cfiCommon0
          CFI (cfiCond322) Function ZDSecMgrEntryInit
          CFI (cfiCond322) Conditional ??CrossCallReturnLabel_166, ??CrossCallReturnLabel_87
          CFI (cfiCond322) DPL0 Frame(CFA_SP, 4)
          CFI (cfiCond322) DPH0 Frame(CFA_SP, 5)
          CFI (cfiCond322) CFA_SP SP+-9
          CFI Block cfiCond323 Using cfiCommon0
          CFI (cfiCond323) Function ZDSecMgrEntryLookupExtGetIndex
          CFI (cfiCond323) Conditional ??CrossCallReturnLabel_165, ??CrossCallReturnLabel_13
          CFI (cfiCond323) R6 load(1, XDATA, add(CFA_XSP16, literal(-9)))
          CFI (cfiCond323) VB load(1, XDATA, add(CFA_XSP16, literal(-8)))
          CFI (cfiCond323) V0 load(1, XDATA, add(CFA_XSP16, literal(-7)))
          CFI (cfiCond323) R7 load(1, XDATA, add(CFA_XSP16, literal(-6)))
          CFI (cfiCond323) ?RET_LOW load(1, XDATA, add(CFA_XSP16, literal(-5)))
          CFI (cfiCond323) ?RET_HIGH load(1, XDATA, add(CFA_XSP16, literal(-4)))
          CFI (cfiCond323) ?BRET_EXT load(1, XDATA, add(CFA_XSP16, literal(-3)))
          CFI (cfiCond323) DPL0 load(1, XDATA, add(CFA_XSP16, literal(-2)))
          CFI (cfiCond323) DPH0 load(1, XDATA, add(CFA_XSP16, literal(-1)))
          CFI (cfiCond323) CFA_SP SP+-4
          CFI (cfiCond323) CFA_XSP16 add(XSP16, 22)
          CFI Block cfiCond324 Using cfiCommon0
          CFI (cfiCond324) Function ZDSecMgrDeviceRemoveByExtAddr
          CFI (cfiCond324) Conditional ??CrossCallReturnLabel_165, ??CrossCallReturnLabel_15
          CFI (cfiCond324) R6 load(1, XDATA, add(CFA_XSP16, literal(-9)))
          CFI (cfiCond324) VB load(1, XDATA, add(CFA_XSP16, literal(-8)))
          CFI (cfiCond324) V0 load(1, XDATA, add(CFA_XSP16, literal(-7)))
          CFI (cfiCond324) R7 load(1, XDATA, add(CFA_XSP16, literal(-6)))
          CFI (cfiCond324) ?RET_LOW load(1, XDATA, add(CFA_XSP16, literal(-5)))
          CFI (cfiCond324) ?RET_HIGH load(1, XDATA, add(CFA_XSP16, literal(-4)))
          CFI (cfiCond324) ?BRET_EXT load(1, XDATA, add(CFA_XSP16, literal(-3)))
          CFI (cfiCond324) DPL0 load(1, XDATA, add(CFA_XSP16, literal(-2)))
          CFI (cfiCond324) DPH0 load(1, XDATA, add(CFA_XSP16, literal(-1)))
          CFI (cfiCond324) CFA_SP SP+-4
          CFI (cfiCond324) CFA_XSP16 add(XSP16, 22)
          CFI Block cfiCond325 Using cfiCommon0
          CFI (cfiCond325) Function APSME_LinkKeySet
          CFI (cfiCond325) Conditional ??CrossCallReturnLabel_165, ??CrossCallReturnLabel_16
          CFI (cfiCond325) R6 load(1, XDATA, add(CFA_XSP16, literal(-19)))
          CFI (cfiCond325) VB load(1, XDATA, add(CFA_XSP16, literal(-18)))
          CFI (cfiCond325) V0 load(1, XDATA, add(CFA_XSP16, literal(-17)))
          CFI (cfiCond325) V1 load(1, XDATA, add(CFA_XSP16, literal(-16)))
          CFI (cfiCond325) V2 load(1, XDATA, add(CFA_XSP16, literal(-15)))
          CFI (cfiCond325) V3 load(1, XDATA, add(CFA_XSP16, literal(-14)))
          CFI (cfiCond325) V4 load(1, XDATA, add(CFA_XSP16, literal(-13)))
          CFI (cfiCond325) V5 load(1, XDATA, add(CFA_XSP16, literal(-12)))
          CFI (cfiCond325) V6 load(1, XDATA, add(CFA_XSP16, literal(-11)))
          CFI (cfiCond325) V7 load(1, XDATA, add(CFA_XSP16, literal(-10)))
          CFI (cfiCond325) V8 load(1, XDATA, add(CFA_XSP16, literal(-9)))
          CFI (cfiCond325) V9 load(1, XDATA, add(CFA_XSP16, literal(-8)))
          CFI (cfiCond325) V10 load(1, XDATA, add(CFA_XSP16, literal(-7)))
          CFI (cfiCond325) R7 load(1, XDATA, add(CFA_XSP16, literal(-6)))
          CFI (cfiCond325) ?RET_LOW load(1, XDATA, add(CFA_XSP16, literal(-5)))
          CFI (cfiCond325) ?RET_HIGH load(1, XDATA, add(CFA_XSP16, literal(-4)))
          CFI (cfiCond325) ?BRET_EXT load(1, XDATA, add(CFA_XSP16, literal(-3)))
          CFI (cfiCond325) DPL0 load(1, XDATA, add(CFA_XSP16, literal(-2)))
          CFI (cfiCond325) DPH0 load(1, XDATA, add(CFA_XSP16, literal(-1)))
          CFI (cfiCond325) CFA_SP SP+-4
          CFI (cfiCond325) CFA_XSP16 add(XSP16, 32)
          CFI Block cfiCond326 Using cfiCommon0
          CFI (cfiCond326) Function ZDSecMgrAuthenticationSet
          CFI (cfiCond326) Conditional ??CrossCallReturnLabel_165, ??CrossCallReturnLabel_17
          CFI (cfiCond326) R6 load(1, XDATA, add(CFA_XSP16, literal(-9)))
          CFI (cfiCond326) VB load(1, XDATA, add(CFA_XSP16, literal(-8)))
          CFI (cfiCond326) V0 load(1, XDATA, add(CFA_XSP16, literal(-7)))
          CFI (cfiCond326) R7 load(1, XDATA, add(CFA_XSP16, literal(-6)))
          CFI (cfiCond326) ?RET_LOW load(1, XDATA, add(CFA_XSP16, literal(-5)))
          CFI (cfiCond326) ?RET_HIGH load(1, XDATA, add(CFA_XSP16, literal(-4)))
          CFI (cfiCond326) ?BRET_EXT load(1, XDATA, add(CFA_XSP16, literal(-3)))
          CFI (cfiCond326) DPL0 load(1, XDATA, add(CFA_XSP16, literal(-2)))
          CFI (cfiCond326) DPH0 load(1, XDATA, add(CFA_XSP16, literal(-1)))
          CFI (cfiCond326) CFA_SP SP+-4
          CFI (cfiCond326) CFA_XSP16 add(XSP16, 22)
          CFI Block cfiCond327 Using cfiCommon0
          CFI (cfiCond327) Function APSME_LinkKeyNVIdGet
          CFI (cfiCond327) Conditional ??CrossCallReturnLabel_165, ??CrossCallReturnLabel_18
          CFI (cfiCond327) R6 load(1, XDATA, add(CFA_XSP16, literal(-10)))
          CFI (cfiCond327) VB load(1, XDATA, add(CFA_XSP16, literal(-9)))
          CFI (cfiCond327) V0 load(1, XDATA, add(CFA_XSP16, literal(-8)))
          CFI (cfiCond327) V1 load(1, XDATA, add(CFA_XSP16, literal(-7)))
          CFI (cfiCond327) R7 load(1, XDATA, add(CFA_XSP16, literal(-6)))
          CFI (cfiCond327) ?RET_LOW load(1, XDATA, add(CFA_XSP16, literal(-5)))
          CFI (cfiCond327) ?RET_HIGH load(1, XDATA, add(CFA_XSP16, literal(-4)))
          CFI (cfiCond327) ?BRET_EXT load(1, XDATA, add(CFA_XSP16, literal(-3)))
          CFI (cfiCond327) DPL0 load(1, XDATA, add(CFA_XSP16, literal(-2)))
          CFI (cfiCond327) DPH0 load(1, XDATA, add(CFA_XSP16, literal(-1)))
          CFI (cfiCond327) CFA_SP SP+-4
          CFI (cfiCond327) CFA_XSP16 add(XSP16, 23)
          CFI Block cfiCond328 Using cfiCommon0
          CFI (cfiCond328) Function APSME_IsLinkKeyValid
          CFI (cfiCond328) Conditional ??CrossCallReturnLabel_165, ??CrossCallReturnLabel_19
          CFI (cfiCond328) R6 load(1, XDATA, add(CFA_XSP16, literal(-15)))
          CFI (cfiCond328) VB load(1, XDATA, add(CFA_XSP16, literal(-14)))
          CFI (cfiCond328) V0 load(1, XDATA, add(CFA_XSP16, literal(-13)))
          CFI (cfiCond328) V1 load(1, XDATA, add(CFA_XSP16, literal(-12)))
          CFI (cfiCond328) V2 load(1, XDATA, add(CFA_XSP16, literal(-11)))
          CFI (cfiCond328) V3 load(1, XDATA, add(CFA_XSP16, literal(-10)))
          CFI (cfiCond328) V4 load(1, XDATA, add(CFA_XSP16, literal(-9)))
          CFI (cfiCond328) V5 load(1, XDATA, add(CFA_XSP16, literal(-8)))
          CFI (cfiCond328) V6 load(1, XDATA, add(CFA_XSP16, literal(-7)))
          CFI (cfiCond328) R7 load(1, XDATA, add(CFA_XSP16, literal(-6)))
          CFI (cfiCond328) ?RET_LOW load(1, XDATA, add(CFA_XSP16, literal(-5)))
          CFI (cfiCond328) ?RET_HIGH load(1, XDATA, add(CFA_XSP16, literal(-4)))
          CFI (cfiCond328) ?BRET_EXT load(1, XDATA, add(CFA_XSP16, literal(-3)))
          CFI (cfiCond328) DPL0 load(1, XDATA, add(CFA_XSP16, literal(-2)))
          CFI (cfiCond328) DPH0 load(1, XDATA, add(CFA_XSP16, literal(-1)))
          CFI (cfiCond328) CFA_SP SP+-4
          CFI (cfiCond328) CFA_XSP16 add(XSP16, 44)
          CFI Block cfiCond329 Using cfiCommon0
          CFI (cfiCond329) Function ZDSecMgrAddLinkKey
          CFI (cfiCond329) Conditional ??CrossCallReturnLabel_165, ??CrossCallReturnLabel_14
          CFI (cfiCond329) R6 load(1, XDATA, add(CFA_XSP16, literal(-9)))
          CFI (cfiCond329) VB load(1, XDATA, add(CFA_XSP16, literal(-8)))
          CFI (cfiCond329) V0 load(1, XDATA, add(CFA_XSP16, literal(-7)))
          CFI (cfiCond329) R7 load(1, XDATA, add(CFA_XSP16, literal(-6)))
          CFI (cfiCond329) ?RET_LOW load(1, XDATA, add(CFA_XSP16, literal(-5)))
          CFI (cfiCond329) ?RET_HIGH load(1, XDATA, add(CFA_XSP16, literal(-4)))
          CFI (cfiCond329) ?BRET_EXT load(1, XDATA, add(CFA_XSP16, literal(-3)))
          CFI (cfiCond329) DPL0 load(1, XDATA, add(CFA_XSP16, literal(-2)))
          CFI (cfiCond329) DPH0 load(1, XDATA, add(CFA_XSP16, literal(-1)))
          CFI (cfiCond329) CFA_SP SP+-4
          CFI (cfiCond329) CFA_XSP16 add(XSP16, 22)
          CFI Block cfiPicker330 Using cfiCommon1
          CFI (cfiPicker330) NoFunction
          CFI (cfiPicker330) Picker
        MOVX    A,@DPTR
        MOV     R0,A
        INC     DPTR
        MOVX    A,@DPTR
        MOV     R1,A
        MOV     A,R0
        ORL     A,R1
        RET
          CFI (cfiCond313) CFA_SP SP+-7
          CFI (cfiCond314) CFA_SP SP+-2
          CFI (cfiCond315) CFA_SP SP+-2
          CFI (cfiCond316) CFA_SP SP+-2
          CFI (cfiCond317) CFA_SP SP+-2
          CFI (cfiCond318) CFA_SP SP+-2
          CFI (cfiCond319) CFA_SP SP+-2
          CFI (cfiCond320) CFA_SP SP+-2
          CFI (cfiCond321) CFA_SP SP+-2
          CFI (cfiCond322) CFA_SP SP+-7
          CFI (cfiCond323) CFA_SP SP+-2
          CFI (cfiCond324) CFA_SP SP+-2
          CFI (cfiCond325) CFA_SP SP+-2
          CFI (cfiCond326) CFA_SP SP+-2
          CFI (cfiCond327) CFA_SP SP+-2
          CFI (cfiCond328) CFA_SP SP+-2
          CFI (cfiCond329) CFA_SP SP+-2
          CFI (cfiPicker330) CFA_SP SP+0
          CFI EndBlock cfiCond313
          CFI EndBlock cfiCond314
          CFI EndBlock cfiCond315
          CFI EndBlock cfiCond316
          CFI EndBlock cfiCond317
          CFI EndBlock cfiCond318
          CFI EndBlock cfiCond319
          CFI EndBlock cfiCond320
          CFI EndBlock cfiCond321
          CFI EndBlock cfiCond322
          CFI EndBlock cfiCond323
          CFI EndBlock cfiCond324
          CFI EndBlock cfiCond325
          CFI EndBlock cfiCond326
          CFI EndBlock cfiCond327
          CFI EndBlock cfiCond328
          CFI EndBlock cfiCond329
          CFI EndBlock cfiPicker330
// 2155 
// 2156 /******************************************************************************
// 2157  * @fn          ZDSecMgrAuthenticationCheck
// 2158  *
// 2159  * @brief       Check if the specific device has been authenticated or not
// 2160  *              For non-trust center device, always return TRUE
// 2161  *
// 2162  * @param       shortAddr - [in] short address
// 2163  *
// 2164  * @return      TRUE @ authenticated with CBKE
// 2165  *              FALSE @ not authenticated
// 2166  */
// 2167 

        RSEG BANKED_CODE:CODE:NOROOT(0)
// 2168 uint8 ZDSecMgrAuthenticationCheck( uint16 shortAddr )
ZDSecMgrAuthenticationCheck:
          CFI Block cfiBlock331 Using cfiCommon0
          CFI Function ZDSecMgrAuthenticationCheck
        CODE
// 2169 {
        ; Saved register size: 0
        ; Auto size: 0
// 2170 #if defined (TC_LINKKEY_JOIN)
// 2171 
// 2172   ZDSecMgrEntry_t* entry;
// 2173   uint8 extAddr[Z_EXTADDR_LEN];
// 2174 
// 2175   // If the local device is not the trust center, always return TRUE
// 2176   APSME_GetRequest( apsTrustCenterAddress, 0, extAddr );
// 2177   if ( ! osal_ExtAddrEqual( extAddr , NLME_GetExtAddr() ) )
// 2178   {
// 2179     return TRUE;
// 2180   }
// 2181   // Otherwise, check the authentication option
// 2182   else if ( AddrMgrExtAddrLookup( shortAddr, extAddr ) )
// 2183   {
// 2184     // lookup entry index for specified EXT address
// 2185     if ( ZDSecMgrEntryLookupExt( extAddr, &entry ) == ZSuccess )
// 2186     {
// 2187       if ( entry->authenticateOption != ZDSecMgr_Not_Authenticated )
// 2188       {
// 2189         return TRUE;
// 2190       }
// 2191       else
// 2192       {
// 2193         return FALSE;
// 2194       }
// 2195     }
// 2196     else
// 2197     {
// 2198       // it may have been secured with TCLK only
// 2199       uint16    ami;
// 2200 
// 2201       // lookup address index in address manager
// 2202       if ( ZDSecMgrExtAddrLookup( extAddr, &ami ) == ZSuccess )
// 2203       {
// 2204         return TRUE;
// 2205       }
// 2206     }
// 2207   }
// 2208   return FALSE;
// 2209 
// 2210 #else
// 2211   (void)shortAddr;  // Intentionally unreferenced parameter
// 2212 
// 2213   // For non AMI/SE Profile, perform no check and always return TRUE.
// 2214   return TRUE;
        MOV     R1,#0x1
        LJMP    ?BRET
// 2215 
// 2216 #endif // TC_LINKKEY_JOIN
// 2217 }
          CFI EndBlock cfiBlock331
// 2218 
// 2219 /******************************************************************************
// 2220  * @fn          ZDSecMgrLinkKeyNVIdGet (stubs APSME_LinkKeyNVIdGet)
// 2221  *
// 2222  * @brief       Get Key NV ID for specified NWK address.
// 2223  *
// 2224  * @param       extAddr - [in] EXT address
// 2225  * @param       keyNvId - [out] NV ID
// 2226  *
// 2227  * @return      ZStatus_t
// 2228  */

        RSEG BANKED_CODE:CODE:NOROOT(0)
// 2229 ZStatus_t ZDSecMgrLinkKeyNVIdGet(uint8* extAddr, uint16 *pKeyNvId)
APSME_LinkKeyNVIdGet:
          CFI Block cfiBlock332 Using cfiCommon0
          CFI Function APSME_LinkKeyNVIdGet
        CODE
// 2230 {
        FUNCALL APSME_LinkKeyNVIdGet, AddrMgrExtAddrSet
        LOCFRAME ISTACK, 0, STACK
        LOCFRAME PSTACK, 0, STACK
        LOCFRAME XSTACK, 23, STACK
        LOCFRAME IOVERLAY, 0, STATIC
        LOCFRAME DOVERLAY, 0, STATIC
        ARGFRAME ISTACK, 0, STACK
        ARGFRAME PSTACK, 0, STACK
        ARGFRAME XSTACK, 23, STACK
        ARGFRAME IOVERLAY, 0, STATIC
        ARGFRAME DOVERLAY, 0, STATIC
        FUNCALL APSME_LinkKeyNVIdGet, AddrMgrEntryLookupExt
        LOCFRAME ISTACK, 0, STACK
        LOCFRAME PSTACK, 0, STACK
        LOCFRAME XSTACK, 23, STACK
        LOCFRAME IOVERLAY, 0, STATIC
        LOCFRAME DOVERLAY, 0, STATIC
        ARGFRAME ISTACK, 0, STACK
        ARGFRAME PSTACK, 0, STACK
        ARGFRAME XSTACK, 23, STACK
        ARGFRAME IOVERLAY, 0, STATIC
        ARGFRAME DOVERLAY, 0, STATIC
        REQUIRE ?V0
        REQUIRE ?V1
        MOV     A,#-0xa
        LCALL   ?BANKED_ENTER_XDATA
          CFI DPH0 load(1, XDATA, add(CFA_XSP16, literal(-1)))
          CFI DPL0 load(1, XDATA, add(CFA_XSP16, literal(-2)))
          CFI ?BRET_EXT load(1, XDATA, add(CFA_XSP16, literal(-3)))
          CFI ?RET_HIGH load(1, XDATA, add(CFA_XSP16, literal(-4)))
          CFI ?RET_LOW load(1, XDATA, add(CFA_XSP16, literal(-5)))
          CFI R7 load(1, XDATA, add(CFA_XSP16, literal(-6)))
          CFI V1 load(1, XDATA, add(CFA_XSP16, literal(-7)))
          CFI V0 load(1, XDATA, add(CFA_XSP16, literal(-8)))
          CFI VB load(1, XDATA, add(CFA_XSP16, literal(-9)))
          CFI R6 load(1, XDATA, add(CFA_XSP16, literal(-10)))
          CFI CFA_SP SP+0
          CFI CFA_XSP16 add(XSP16, 10)
        ; Saved register size: 10
        ; Auto size: 13
        MOV     A,#-0xd
        LCALL   ?ALLOC_XSTACK8
          CFI CFA_XSP16 add(XSP16, 23)
        MOV     A,R4
        MOV     R6,A
        MOV     A,R5
        MOV     R7,A
// 2231   ZStatus_t status;
// 2232   ZDSecMgrEntry_t* entry;
// 2233 
// 2234   // lookup entry index for specified NWK address
// 2235   status = ZDSecMgrEntryLookupExt( extAddr, &entry );
        MOV     ?V0,#-0x38
        LCALL   ??Subroutine70_0 & 0xFFFF
??CrossCallReturnLabel_159:
        LCALL   ?XSTACK_DISP0_8
        MOV     R2,DPL
        MOV     R3,DPH
        LCALL   `??AddrMgrExtAddrSet::?relay`; Banked call to: AddrMgrExtAddrSet
        ; Setup parameters for call to function AddrMgrEntryLookupExt
        MOV     R2,?XSP + 0
        MOV     R3,?XSP + 1
        LCALL   `??AddrMgrEntryLookupExt::?relay`; Banked call to: AddrMgrEntryLookupExt
        MOV     A,R1
        XRL     A,#0x1
        JNZ     ??APSME_LinkKeyNVIdGet_0
        MOV     A,#0xb
        LCALL   ?XSTACK_DISP0_8
        LCALL   ?Subroutine24 & 0xFFFF
??CrossCallReturnLabel_18:
        JZ      ??APSME_LinkKeyNVIdGet_0
        LCALL   ?Subroutine25 & 0xFFFF
??CrossCallReturnLabel_189:
        MOV     DPL,R2
        MOV     DPH,R3
        MOVX    A,@DPTR
        XRL     A,R4
        JNZ     ??APSME_LinkKeyNVIdGet_1
        INC     DPTR
        MOVX    A,@DPTR
        XRL     A,R5
??APSME_LinkKeyNVIdGet_1:
        JZ      ??APSME_LinkKeyNVIdGet_2
        INC     R0
        MOV     A,R0
        JNZ     ??APSME_LinkKeyNVIdGet_3
        INC     R1
??APSME_LinkKeyNVIdGet_3:
        MOV     A,R2
        ADD     A,#0x5
        MOV     R2,A
        JNC     ??APSME_LinkKeyNVIdGet_4
        INC     R3
??APSME_LinkKeyNVIdGet_4:
        LCALL   ?Subroutine37 & 0xFFFF
??CrossCallReturnLabel_52:
        JC      ??CrossCallReturnLabel_189
// 2236 
// 2237   if ( status == ZSuccess )
// 2238   {
// 2239     // return the index to the NV table
// 2240     *pKeyNvId = entry->keyNvId;
// 2241   }
// 2242   else
// 2243   {
// 2244     *pKeyNvId = SEC_NO_KEY_NV_ID;
??APSME_LinkKeyNVIdGet_0:
        MOV     DPL,R6
        MOV     DPH,R7
        CLR     A
        MOVX    @DPTR,A
        INC     DPTR
??APSME_LinkKeyNVIdGet_5:
        MOVX    @DPTR,A
// 2245   }
// 2246 
// 2247   return status;
        LJMP    ?Subroutine2 & 0xFFFF
??APSME_LinkKeyNVIdGet_2:
        MOV     ?V0,#0x0
        LCALL   ?Subroutine31 & 0xFFFF
??CrossCallReturnLabel_32:
        MOV     R0,A
        INC     DPTR
        MOVX    A,@DPTR
        MOV     R1,A
        MOV     DPL,R6
        MOV     DPH,R7
        MOV     A,R0
        MOVX    @DPTR,A
        INC     DPTR
        MOV     A,R1
        SJMP    ??APSME_LinkKeyNVIdGet_5
// 2248 }
          CFI EndBlock cfiBlock332

        RSEG BANKED_CODE:CODE:NOROOT(0)
?Subroutine12:
          CFI Block cfiCond333 Using cfiCommon0
          CFI Function ZDSecMgrExtAddrLookup
          CFI Conditional ??CrossCallReturnLabel_152
          CFI R6 load(1, XDATA, add(CFA_XSP16, literal(-9)))
          CFI VB load(1, XDATA, add(CFA_XSP16, literal(-8)))
          CFI V0 load(1, XDATA, add(CFA_XSP16, literal(-7)))
          CFI R7 load(1, XDATA, add(CFA_XSP16, literal(-6)))
          CFI ?RET_LOW load(1, XDATA, add(CFA_XSP16, literal(-5)))
          CFI ?RET_HIGH load(1, XDATA, add(CFA_XSP16, literal(-4)))
          CFI ?BRET_EXT load(1, XDATA, add(CFA_XSP16, literal(-3)))
          CFI DPL0 load(1, XDATA, add(CFA_XSP16, literal(-2)))
          CFI DPH0 load(1, XDATA, add(CFA_XSP16, literal(-1)))
          CFI CFA_SP SP+-2
          CFI CFA_XSP16 add(XSP16, 22)
          CFI Block cfiCond334 Using cfiCommon0
          CFI (cfiCond334) Function ZDSecMgrEntryLookupExtGetIndex
          CFI (cfiCond334) Conditional ??CrossCallReturnLabel_153
          CFI (cfiCond334) R6 load(1, XDATA, add(CFA_XSP16, literal(-9)))
          CFI (cfiCond334) VB load(1, XDATA, add(CFA_XSP16, literal(-8)))
          CFI (cfiCond334) V0 load(1, XDATA, add(CFA_XSP16, literal(-7)))
          CFI (cfiCond334) R7 load(1, XDATA, add(CFA_XSP16, literal(-6)))
          CFI (cfiCond334) ?RET_LOW load(1, XDATA, add(CFA_XSP16, literal(-5)))
          CFI (cfiCond334) ?RET_HIGH load(1, XDATA, add(CFA_XSP16, literal(-4)))
          CFI (cfiCond334) ?BRET_EXT load(1, XDATA, add(CFA_XSP16, literal(-3)))
          CFI (cfiCond334) DPL0 load(1, XDATA, add(CFA_XSP16, literal(-2)))
          CFI (cfiCond334) DPH0 load(1, XDATA, add(CFA_XSP16, literal(-1)))
          CFI (cfiCond334) CFA_SP SP+-2
          CFI (cfiCond334) CFA_XSP16 add(XSP16, 22)
          CFI Block cfiCond335 Using cfiCommon0
          CFI (cfiCond335) Function APSME_LinkKeySet
          CFI (cfiCond335) Conditional ??CrossCallReturnLabel_154
          CFI (cfiCond335) R6 load(1, XDATA, add(CFA_XSP16, literal(-19)))
          CFI (cfiCond335) VB load(1, XDATA, add(CFA_XSP16, literal(-18)))
          CFI (cfiCond335) V0 load(1, XDATA, add(CFA_XSP16, literal(-17)))
          CFI (cfiCond335) V1 load(1, XDATA, add(CFA_XSP16, literal(-16)))
          CFI (cfiCond335) V2 load(1, XDATA, add(CFA_XSP16, literal(-15)))
          CFI (cfiCond335) V3 load(1, XDATA, add(CFA_XSP16, literal(-14)))
          CFI (cfiCond335) V4 load(1, XDATA, add(CFA_XSP16, literal(-13)))
          CFI (cfiCond335) V5 load(1, XDATA, add(CFA_XSP16, literal(-12)))
          CFI (cfiCond335) V6 load(1, XDATA, add(CFA_XSP16, literal(-11)))
          CFI (cfiCond335) V7 load(1, XDATA, add(CFA_XSP16, literal(-10)))
          CFI (cfiCond335) V8 load(1, XDATA, add(CFA_XSP16, literal(-9)))
          CFI (cfiCond335) V9 load(1, XDATA, add(CFA_XSP16, literal(-8)))
          CFI (cfiCond335) V10 load(1, XDATA, add(CFA_XSP16, literal(-7)))
          CFI (cfiCond335) R7 load(1, XDATA, add(CFA_XSP16, literal(-6)))
          CFI (cfiCond335) ?RET_LOW load(1, XDATA, add(CFA_XSP16, literal(-5)))
          CFI (cfiCond335) ?RET_HIGH load(1, XDATA, add(CFA_XSP16, literal(-4)))
          CFI (cfiCond335) ?BRET_EXT load(1, XDATA, add(CFA_XSP16, literal(-3)))
          CFI (cfiCond335) DPL0 load(1, XDATA, add(CFA_XSP16, literal(-2)))
          CFI (cfiCond335) DPH0 load(1, XDATA, add(CFA_XSP16, literal(-1)))
          CFI (cfiCond335) CFA_SP SP+-2
          CFI (cfiCond335) CFA_XSP16 add(XSP16, 32)
          CFI Block cfiPicker336 Using cfiCommon1
          CFI (cfiPicker336) NoFunction
          CFI (cfiPicker336) Picker
        MOV     A,R4
        MOV     R6,A
        MOV     A,R5
        MOV     R7,A
          CFI EndBlock cfiCond333
          CFI EndBlock cfiCond334
          CFI EndBlock cfiCond335
          CFI EndBlock cfiPicker336
        REQUIRE ??Subroutine70_0
        ; // Fall through to label ??Subroutine70_0

        RSEG BANKED_CODE:CODE:NOROOT(0)
??Subroutine70_0:
          CFI Block cfiCond337 Using cfiCommon0
          CFI Function ZDSecMgrAddrClear
          CFI Conditional ??CrossCallReturnLabel_155
          CFI R6 load(1, XDATA, add(CFA_XSP16, literal(-9)))
          CFI VB load(1, XDATA, add(CFA_XSP16, literal(-8)))
          CFI V0 load(1, XDATA, add(CFA_XSP16, literal(-7)))
          CFI R7 load(1, XDATA, add(CFA_XSP16, literal(-6)))
          CFI ?RET_LOW load(1, XDATA, add(CFA_XSP16, literal(-5)))
          CFI ?RET_HIGH load(1, XDATA, add(CFA_XSP16, literal(-4)))
          CFI ?BRET_EXT load(1, XDATA, add(CFA_XSP16, literal(-3)))
          CFI DPL0 load(1, XDATA, add(CFA_XSP16, literal(-2)))
          CFI DPH0 load(1, XDATA, add(CFA_XSP16, literal(-1)))
          CFI CFA_SP SP+-2
          CFI CFA_XSP16 add(XSP16, 35)
          CFI Block cfiCond338 Using cfiCommon0
          CFI (cfiCond338) Function ZDSecMgrEntryLookupExt
          CFI (cfiCond338) Conditional ??CrossCallReturnLabel_156
          CFI (cfiCond338) R6 load(1, XDATA, add(CFA_XSP16, literal(-10)))
          CFI (cfiCond338) VB load(1, XDATA, add(CFA_XSP16, literal(-9)))
          CFI (cfiCond338) V0 load(1, XDATA, add(CFA_XSP16, literal(-8)))
          CFI (cfiCond338) V1 load(1, XDATA, add(CFA_XSP16, literal(-7)))
          CFI (cfiCond338) R7 load(1, XDATA, add(CFA_XSP16, literal(-6)))
          CFI (cfiCond338) ?RET_LOW load(1, XDATA, add(CFA_XSP16, literal(-5)))
          CFI (cfiCond338) ?RET_HIGH load(1, XDATA, add(CFA_XSP16, literal(-4)))
          CFI (cfiCond338) ?BRET_EXT load(1, XDATA, add(CFA_XSP16, literal(-3)))
          CFI (cfiCond338) DPL0 load(1, XDATA, add(CFA_XSP16, literal(-2)))
          CFI (cfiCond338) DPH0 load(1, XDATA, add(CFA_XSP16, literal(-1)))
          CFI (cfiCond338) CFA_SP SP+-2
          CFI (cfiCond338) CFA_XSP16 add(XSP16, 23)
          CFI Block cfiCond339 Using cfiCommon0
          CFI (cfiCond339) Function ZDSecMgrDeviceRemoveByExtAddr
          CFI (cfiCond339) Conditional ??CrossCallReturnLabel_157
          CFI (cfiCond339) R6 load(1, XDATA, add(CFA_XSP16, literal(-9)))
          CFI (cfiCond339) VB load(1, XDATA, add(CFA_XSP16, literal(-8)))
          CFI (cfiCond339) V0 load(1, XDATA, add(CFA_XSP16, literal(-7)))
          CFI (cfiCond339) R7 load(1, XDATA, add(CFA_XSP16, literal(-6)))
          CFI (cfiCond339) ?RET_LOW load(1, XDATA, add(CFA_XSP16, literal(-5)))
          CFI (cfiCond339) ?RET_HIGH load(1, XDATA, add(CFA_XSP16, literal(-4)))
          CFI (cfiCond339) ?BRET_EXT load(1, XDATA, add(CFA_XSP16, literal(-3)))
          CFI (cfiCond339) DPL0 load(1, XDATA, add(CFA_XSP16, literal(-2)))
          CFI (cfiCond339) DPH0 load(1, XDATA, add(CFA_XSP16, literal(-1)))
          CFI (cfiCond339) CFA_SP SP+-2
          CFI (cfiCond339) CFA_XSP16 add(XSP16, 22)
          CFI Block cfiCond340 Using cfiCommon0
          CFI (cfiCond340) Function ZDSecMgrAuthenticationSet
          CFI (cfiCond340) Conditional ??CrossCallReturnLabel_158
          CFI (cfiCond340) R6 load(1, XDATA, add(CFA_XSP16, literal(-9)))
          CFI (cfiCond340) VB load(1, XDATA, add(CFA_XSP16, literal(-8)))
          CFI (cfiCond340) V0 load(1, XDATA, add(CFA_XSP16, literal(-7)))
          CFI (cfiCond340) R7 load(1, XDATA, add(CFA_XSP16, literal(-6)))
          CFI (cfiCond340) ?RET_LOW load(1, XDATA, add(CFA_XSP16, literal(-5)))
          CFI (cfiCond340) ?RET_HIGH load(1, XDATA, add(CFA_XSP16, literal(-4)))
          CFI (cfiCond340) ?BRET_EXT load(1, XDATA, add(CFA_XSP16, literal(-3)))
          CFI (cfiCond340) DPL0 load(1, XDATA, add(CFA_XSP16, literal(-2)))
          CFI (cfiCond340) DPH0 load(1, XDATA, add(CFA_XSP16, literal(-1)))
          CFI (cfiCond340) CFA_SP SP+-2
          CFI (cfiCond340) CFA_XSP16 add(XSP16, 22)
          CFI Block cfiCond341 Using cfiCommon0
          CFI (cfiCond341) Function APSME_LinkKeyNVIdGet
          CFI (cfiCond341) Conditional ??CrossCallReturnLabel_159
          CFI (cfiCond341) R6 load(1, XDATA, add(CFA_XSP16, literal(-10)))
          CFI (cfiCond341) VB load(1, XDATA, add(CFA_XSP16, literal(-9)))
          CFI (cfiCond341) V0 load(1, XDATA, add(CFA_XSP16, literal(-8)))
          CFI (cfiCond341) V1 load(1, XDATA, add(CFA_XSP16, literal(-7)))
          CFI (cfiCond341) R7 load(1, XDATA, add(CFA_XSP16, literal(-6)))
          CFI (cfiCond341) ?RET_LOW load(1, XDATA, add(CFA_XSP16, literal(-5)))
          CFI (cfiCond341) ?RET_HIGH load(1, XDATA, add(CFA_XSP16, literal(-4)))
          CFI (cfiCond341) ?BRET_EXT load(1, XDATA, add(CFA_XSP16, literal(-3)))
          CFI (cfiCond341) DPL0 load(1, XDATA, add(CFA_XSP16, literal(-2)))
          CFI (cfiCond341) DPH0 load(1, XDATA, add(CFA_XSP16, literal(-1)))
          CFI (cfiCond341) CFA_SP SP+-2
          CFI (cfiCond341) CFA_XSP16 add(XSP16, 23)
          CFI Block cfiCond342 Using cfiCommon0
          CFI (cfiCond342) Function ZDSecMgrExtAddrLookup
          CFI (cfiCond342) Conditional ??CrossCallReturnLabel_152
          CFI (cfiCond342) R6 load(1, XDATA, add(CFA_XSP16, literal(-9)))
          CFI (cfiCond342) VB load(1, XDATA, add(CFA_XSP16, literal(-8)))
          CFI (cfiCond342) V0 load(1, XDATA, add(CFA_XSP16, literal(-7)))
          CFI (cfiCond342) R7 load(1, XDATA, add(CFA_XSP16, literal(-6)))
          CFI (cfiCond342) ?RET_LOW load(1, XDATA, add(CFA_XSP16, literal(-5)))
          CFI (cfiCond342) ?RET_HIGH load(1, XDATA, add(CFA_XSP16, literal(-4)))
          CFI (cfiCond342) ?BRET_EXT load(1, XDATA, add(CFA_XSP16, literal(-3)))
          CFI (cfiCond342) DPL0 load(1, XDATA, add(CFA_XSP16, literal(-2)))
          CFI (cfiCond342) DPH0 load(1, XDATA, add(CFA_XSP16, literal(-1)))
          CFI (cfiCond342) CFA_SP SP+-2
          CFI (cfiCond342) CFA_XSP16 add(XSP16, 22)
          CFI Block cfiCond343 Using cfiCommon0
          CFI (cfiCond343) Function ZDSecMgrEntryLookupExtGetIndex
          CFI (cfiCond343) Conditional ??CrossCallReturnLabel_153
          CFI (cfiCond343) R6 load(1, XDATA, add(CFA_XSP16, literal(-9)))
          CFI (cfiCond343) VB load(1, XDATA, add(CFA_XSP16, literal(-8)))
          CFI (cfiCond343) V0 load(1, XDATA, add(CFA_XSP16, literal(-7)))
          CFI (cfiCond343) R7 load(1, XDATA, add(CFA_XSP16, literal(-6)))
          CFI (cfiCond343) ?RET_LOW load(1, XDATA, add(CFA_XSP16, literal(-5)))
          CFI (cfiCond343) ?RET_HIGH load(1, XDATA, add(CFA_XSP16, literal(-4)))
          CFI (cfiCond343) ?BRET_EXT load(1, XDATA, add(CFA_XSP16, literal(-3)))
          CFI (cfiCond343) DPL0 load(1, XDATA, add(CFA_XSP16, literal(-2)))
          CFI (cfiCond343) DPH0 load(1, XDATA, add(CFA_XSP16, literal(-1)))
          CFI (cfiCond343) CFA_SP SP+-2
          CFI (cfiCond343) CFA_XSP16 add(XSP16, 22)
          CFI Block cfiCond344 Using cfiCommon0
          CFI (cfiCond344) Function APSME_LinkKeySet
          CFI (cfiCond344) Conditional ??CrossCallReturnLabel_154
          CFI (cfiCond344) R6 load(1, XDATA, add(CFA_XSP16, literal(-19)))
          CFI (cfiCond344) VB load(1, XDATA, add(CFA_XSP16, literal(-18)))
          CFI (cfiCond344) V0 load(1, XDATA, add(CFA_XSP16, literal(-17)))
          CFI (cfiCond344) V1 load(1, XDATA, add(CFA_XSP16, literal(-16)))
          CFI (cfiCond344) V2 load(1, XDATA, add(CFA_XSP16, literal(-15)))
          CFI (cfiCond344) V3 load(1, XDATA, add(CFA_XSP16, literal(-14)))
          CFI (cfiCond344) V4 load(1, XDATA, add(CFA_XSP16, literal(-13)))
          CFI (cfiCond344) V5 load(1, XDATA, add(CFA_XSP16, literal(-12)))
          CFI (cfiCond344) V6 load(1, XDATA, add(CFA_XSP16, literal(-11)))
          CFI (cfiCond344) V7 load(1, XDATA, add(CFA_XSP16, literal(-10)))
          CFI (cfiCond344) V8 load(1, XDATA, add(CFA_XSP16, literal(-9)))
          CFI (cfiCond344) V9 load(1, XDATA, add(CFA_XSP16, literal(-8)))
          CFI (cfiCond344) V10 load(1, XDATA, add(CFA_XSP16, literal(-7)))
          CFI (cfiCond344) R7 load(1, XDATA, add(CFA_XSP16, literal(-6)))
          CFI (cfiCond344) ?RET_LOW load(1, XDATA, add(CFA_XSP16, literal(-5)))
          CFI (cfiCond344) ?RET_HIGH load(1, XDATA, add(CFA_XSP16, literal(-4)))
          CFI (cfiCond344) ?BRET_EXT load(1, XDATA, add(CFA_XSP16, literal(-3)))
          CFI (cfiCond344) DPL0 load(1, XDATA, add(CFA_XSP16, literal(-2)))
          CFI (cfiCond344) DPH0 load(1, XDATA, add(CFA_XSP16, literal(-1)))
          CFI (cfiCond344) CFA_SP SP+-2
          CFI (cfiCond344) CFA_XSP16 add(XSP16, 32)
          CFI Block cfiPicker345 Using cfiCommon1
          CFI (cfiPicker345) NoFunction
          CFI (cfiPicker345) Picker
        MOV     DPL,?XSP + 0
        MOV     DPH,?XSP + 1
        MOV     A,#0x2
        MOVX    @DPTR,A
        ; Setup parameters for call to function AddrMgrExtAddrSet
        ; Setup parameters for call to function AddrMgrExtAddrSet
        ; Setup parameters for call to function AddrMgrExtAddrSet
        ; Setup parameters for call to function AddrMgrExtAddrSet
        ; Setup parameters for call to function AddrMgrExtAddrSet
        ; Setup parameters for call to function AddrMgrExtAddrSet
        ; Setup parameters for call to function AddrMgrExtAddrSet
        ; Setup parameters for call to function AddrMgrExtAddrSet
        MOV     A,R2
        MOV     R4,A
        MOV     A,R3
        MOV     R5,A
        MOV     A,#0x3
        RET
          CFI (cfiCond337) CFA_SP SP+0
          CFI (cfiCond338) CFA_SP SP+0
          CFI (cfiCond339) CFA_SP SP+0
          CFI (cfiCond340) CFA_SP SP+0
          CFI (cfiCond341) CFA_SP SP+0
          CFI (cfiCond342) CFA_SP SP+0
          CFI (cfiCond343) CFA_SP SP+0
          CFI (cfiCond344) CFA_SP SP+0
          CFI (cfiPicker345) CFA_SP SP+0
          CFI EndBlock cfiCond337
          CFI EndBlock cfiCond338
          CFI EndBlock cfiCond339
          CFI EndBlock cfiCond340
          CFI EndBlock cfiCond341
          CFI EndBlock cfiCond342
          CFI EndBlock cfiCond343
          CFI EndBlock cfiCond344
          CFI EndBlock cfiPicker345
// 2249 
// 2250 /******************************************************************************
// 2251  * @fn          ZDSecMgrIsLinkKeyValid (stubs APSME_IsLinkKeyValid)
// 2252  *
// 2253  * @brief       Verifies if Link Key in NV has been set.
// 2254  *
// 2255  * @param       extAddr - [in] EXT address
// 2256  *
// 2257  * @return      TRUE - Link Key has been established
// 2258  *              FALSE - Link Key in NV has default value.
// 2259  */

        RSEG BANKED_CODE:CODE:NOROOT(0)
// 2260 uint8 ZDSecMgrIsLinkKeyValid(uint8* extAddr)
APSME_IsLinkKeyValid:
          CFI Block cfiBlock346 Using cfiCommon0
          CFI Function APSME_IsLinkKeyValid
        CODE
// 2261 {
        FUNCALL APSME_IsLinkKeyValid, osal_memset
        LOCFRAME ISTACK, 0, STACK
        LOCFRAME PSTACK, 0, STACK
        LOCFRAME XSTACK, 44, STACK
        LOCFRAME IOVERLAY, 0, STATIC
        LOCFRAME DOVERLAY, 0, STATIC
        ARGFRAME ISTACK, 0, STACK
        ARGFRAME PSTACK, 0, STACK
        ARGFRAME XSTACK, 44, STACK
        ARGFRAME IOVERLAY, 0, STATIC
        ARGFRAME DOVERLAY, 0, STATIC
        FUNCALL APSME_IsLinkKeyValid, AddrMgrExtAddrSet
        LOCFRAME ISTACK, 0, STACK
        LOCFRAME PSTACK, 0, STACK
        LOCFRAME XSTACK, 44, STACK
        LOCFRAME IOVERLAY, 0, STATIC
        LOCFRAME DOVERLAY, 0, STATIC
        ARGFRAME ISTACK, 0, STACK
        ARGFRAME PSTACK, 0, STACK
        ARGFRAME XSTACK, 44, STACK
        ARGFRAME IOVERLAY, 0, STATIC
        ARGFRAME DOVERLAY, 0, STATIC
        FUNCALL APSME_IsLinkKeyValid, AddrMgrEntryLookupExt
        LOCFRAME ISTACK, 0, STACK
        LOCFRAME PSTACK, 0, STACK
        LOCFRAME XSTACK, 44, STACK
        LOCFRAME IOVERLAY, 0, STATIC
        LOCFRAME DOVERLAY, 0, STATIC
        ARGFRAME ISTACK, 0, STACK
        ARGFRAME PSTACK, 0, STACK
        ARGFRAME XSTACK, 44, STACK
        ARGFRAME IOVERLAY, 0, STATIC
        ARGFRAME DOVERLAY, 0, STATIC
        FUNCALL APSME_IsLinkKeyValid, osal_mem_alloc
        LOCFRAME ISTACK, 0, STACK
        LOCFRAME PSTACK, 0, STACK
        LOCFRAME XSTACK, 44, STACK
        LOCFRAME IOVERLAY, 0, STATIC
        LOCFRAME DOVERLAY, 0, STATIC
        ARGFRAME ISTACK, 0, STACK
        ARGFRAME PSTACK, 0, STACK
        ARGFRAME XSTACK, 44, STACK
        ARGFRAME IOVERLAY, 0, STATIC
        ARGFRAME DOVERLAY, 0, STATIC
        FUNCALL APSME_IsLinkKeyValid, osal_nv_read
        LOCFRAME ISTACK, 0, STACK
        LOCFRAME PSTACK, 0, STACK
        LOCFRAME XSTACK, 48, STACK
        LOCFRAME IOVERLAY, 0, STATIC
        LOCFRAME DOVERLAY, 0, STATIC
        ARGFRAME ISTACK, 0, STACK
        ARGFRAME PSTACK, 0, STACK
        ARGFRAME XSTACK, 48, STACK
        ARGFRAME IOVERLAY, 0, STATIC
        ARGFRAME DOVERLAY, 0, STATIC
        FUNCALL APSME_IsLinkKeyValid, osal_memcmp
        LOCFRAME ISTACK, 0, STACK
        LOCFRAME PSTACK, 0, STACK
        LOCFRAME XSTACK, 47, STACK
        LOCFRAME IOVERLAY, 0, STATIC
        LOCFRAME DOVERLAY, 0, STATIC
        ARGFRAME ISTACK, 0, STACK
        ARGFRAME PSTACK, 0, STACK
        ARGFRAME XSTACK, 47, STACK
        ARGFRAME IOVERLAY, 0, STATIC
        ARGFRAME DOVERLAY, 0, STATIC
        FUNCALL APSME_IsLinkKeyValid, osal_memset
        LOCFRAME ISTACK, 0, STACK
        LOCFRAME PSTACK, 0, STACK
        LOCFRAME XSTACK, 44, STACK
        LOCFRAME IOVERLAY, 0, STATIC
        LOCFRAME DOVERLAY, 0, STATIC
        ARGFRAME ISTACK, 0, STACK
        ARGFRAME PSTACK, 0, STACK
        ARGFRAME XSTACK, 44, STACK
        ARGFRAME IOVERLAY, 0, STATIC
        ARGFRAME DOVERLAY, 0, STATIC
        FUNCALL APSME_IsLinkKeyValid, osal_mem_free
        LOCFRAME ISTACK, 0, STACK
        LOCFRAME PSTACK, 0, STACK
        LOCFRAME XSTACK, 44, STACK
        LOCFRAME IOVERLAY, 0, STATIC
        LOCFRAME DOVERLAY, 0, STATIC
        ARGFRAME ISTACK, 0, STACK
        ARGFRAME PSTACK, 0, STACK
        ARGFRAME XSTACK, 44, STACK
        ARGFRAME IOVERLAY, 0, STATIC
        ARGFRAME DOVERLAY, 0, STATIC
        REQUIRE ?V0
        REQUIRE ?V2
        REQUIRE ?V3
        REQUIRE ?V4
        REQUIRE ?V5
        REQUIRE ?V6
        MOV     A,#-0xf
        LCALL   ?BANKED_ENTER_XDATA
          CFI DPH0 load(1, XDATA, add(CFA_XSP16, literal(-1)))
          CFI DPL0 load(1, XDATA, add(CFA_XSP16, literal(-2)))
          CFI ?BRET_EXT load(1, XDATA, add(CFA_XSP16, literal(-3)))
          CFI ?RET_HIGH load(1, XDATA, add(CFA_XSP16, literal(-4)))
          CFI ?RET_LOW load(1, XDATA, add(CFA_XSP16, literal(-5)))
          CFI R7 load(1, XDATA, add(CFA_XSP16, literal(-6)))
          CFI V6 load(1, XDATA, add(CFA_XSP16, literal(-7)))
          CFI V5 load(1, XDATA, add(CFA_XSP16, literal(-8)))
          CFI V4 load(1, XDATA, add(CFA_XSP16, literal(-9)))
          CFI V3 load(1, XDATA, add(CFA_XSP16, literal(-10)))
          CFI V2 load(1, XDATA, add(CFA_XSP16, literal(-11)))
          CFI V1 load(1, XDATA, add(CFA_XSP16, literal(-12)))
          CFI V0 load(1, XDATA, add(CFA_XSP16, literal(-13)))
          CFI VB load(1, XDATA, add(CFA_XSP16, literal(-14)))
          CFI R6 load(1, XDATA, add(CFA_XSP16, literal(-15)))
          CFI CFA_SP SP+0
          CFI CFA_XSP16 add(XSP16, 15)
        ; Saved register size: 15
        ; Auto size: 29
        MOV     A,#-0x1d
        LCALL   ?ALLOC_XSTACK8
          CFI CFA_XSP16 add(XSP16, 44)
        MOV     A,R2
        MOV     R6,A
        MOV     A,R3
        MOV     R7,A
// 2262   APSME_LinkKeyData_t *pKeyData;
// 2263   uint16 apsLinkKeyNvId;
// 2264   uint8 nullKey[SEC_KEY_LEN];
// 2265   uint8 status = FALSE;
        MOV     ?V0,#0x0
// 2266 
// 2267   // initialize default vealue to compare to
// 2268   osal_memset(nullKey, 0x00, SEC_KEY_LEN);
        ; Setup parameters for call to function osal_memset
        MOV     R4,#0x10
        MOV     R5,#0x0
        MOV     R1,#0x0
        MOV     A,#0xd
        LCALL   ?XSTACK_DISP101_8
        LCALL   `??osal_memset::?relay`; Banked call to: osal_memset
// 2269 
// 2270   // check for APS link NV ID
// 2271   APSME_LinkKeyNVIdGet( extAddr, &apsLinkKeyNvId );
        MOV     DPL,?XSP + 0
        MOV     DPH,?XSP + 1
        MOV     A,#0x2
        MOVX    @DPTR,A
        ; Setup parameters for call to function AddrMgrExtAddrSet
        MOV     A,R6
        MOV     R4,A
        MOV     A,R7
        MOV     R5,A
        MOV     A,#0x3
        LCALL   ?XSTACK_DISP0_8
        MOV     R2,DPL
        MOV     R3,DPH
        LCALL   `??AddrMgrExtAddrSet::?relay`; Banked call to: AddrMgrExtAddrSet
        ; Setup parameters for call to function AddrMgrEntryLookupExt
        MOV     R2,?XSP + 0
        MOV     R3,?XSP + 1
        LCALL   `??AddrMgrEntryLookupExt::?relay`; Banked call to: AddrMgrEntryLookupExt
        MOV     A,R1
        XRL     A,#0x1
        JZ      $+5
        LJMP    ??APSME_IsLinkKeyValid_0 & 0xFFFF
        MOV     A,#0xb
        LCALL   ?XSTACK_DISP0_8
        LCALL   ?Subroutine24 & 0xFFFF
??CrossCallReturnLabel_19:
        JNZ     $+5
        LJMP    ??APSME_IsLinkKeyValid_0 & 0xFFFF
        LCALL   ?Subroutine25 & 0xFFFF
??CrossCallReturnLabel_190:
        MOV     DPL,R2
        MOV     DPH,R3
        MOVX    A,@DPTR
        XRL     A,R4
        JNZ     ??APSME_IsLinkKeyValid_1
        INC     DPTR
        MOVX    A,@DPTR
        XRL     A,R5
??APSME_IsLinkKeyValid_1:
        JZ      ??APSME_IsLinkKeyValid_2
        INC     R0
        MOV     A,R0
        JNZ     ??APSME_IsLinkKeyValid_3
        INC     R1
??APSME_IsLinkKeyValid_3:
        MOV     A,R2
        ADD     A,#0x5
        MOV     R2,A
        JNC     ??APSME_IsLinkKeyValid_4
        INC     R3
??APSME_IsLinkKeyValid_4:
        LCALL   ?Subroutine37 & 0xFFFF
??CrossCallReturnLabel_53:
        JC      $+5
        LJMP    ??APSME_IsLinkKeyValid_0 & 0xFFFF
        SJMP    ??CrossCallReturnLabel_190
??APSME_IsLinkKeyValid_2:
        LCALL   ?Subroutine31 & 0xFFFF
??CrossCallReturnLabel_31:
        MOV     R6,A
        INC     DPTR
        MOVX    A,@DPTR
        MOV     R7,A
// 2272 
// 2273   if (apsLinkKeyNvId != SEC_NO_KEY_NV_ID )
        MOV     A,R6
        ORL     A,R7
        JZ      ??APSME_IsLinkKeyValid_0
// 2274   {
// 2275     pKeyData = (APSME_LinkKeyData_t *)osal_mem_alloc(sizeof(APSME_LinkKeyData_t));
        ; Setup parameters for call to function osal_mem_alloc
        MOV     R2,#0x18
        MOV     R3,#0x0
        LCALL   `??osal_mem_alloc::?relay`; Banked call to: osal_mem_alloc
        MOV     ?V2,R2
        MOV     ?V3,R3
// 2276 
// 2277     if (pKeyData != NULL)
        MOV     A,R2
        ORL     A,?V3
        JZ      ??APSME_IsLinkKeyValid_0
// 2278     {
// 2279       // retrieve key from NV
// 2280       if ( osal_nv_read( apsLinkKeyNvId, 0,
// 2281                         sizeof(APSME_LinkKeyData_t), pKeyData) == ZSUCCESS)
        ; Setup parameters for call to function osal_nv_read
        MOV     R0,#?V2
        LCALL   ?PUSH_XSTACK_I_TWO
          CFI CFA_XSP16 add(XSP16, 46)
        MOV     ?V4,#0x18
        MOV     ?V5,#0x0
        MOV     R0,#?V4
        LCALL   ?PUSH_XSTACK_I_TWO
          CFI CFA_XSP16 add(XSP16, 48)
        MOV     R4,#0x0
        MOV     R5,#0x0
        MOV     A,R6
        MOV     R2,A
        MOV     A,R7
        MOV     R3,A
        LCALL   `??osal_nv_read::?relay`; Banked call to: osal_nv_read
        MOV     A,#0x4
        LCALL   ?DEALLOC_XSTACK8
          CFI CFA_XSP16 add(XSP16, 44)
        MOV     A,R1
        JNZ     ??APSME_IsLinkKeyValid_5
// 2282       {
// 2283         // if stored key is different than default value, then a key has been established
// 2284         if (!osal_memcmp(pKeyData, nullKey, SEC_KEY_LEN))
        ; Setup parameters for call to function osal_memcmp
        MOV     A,#0xd
        LCALL   ?XSTACK_DISP100_8
        MOV     ?V4,R0
        MOV     ?V5,R1
        MOV     ?V6,#0x0
        MOV     R0,#?V4
        LCALL   ?PUSH_XSTACK_I_THREE
          CFI CFA_XSP16 add(XSP16, 47)
        MOV     R4,#0x10
        MOV     R5,#0x0
        MOV     DPL,?V2
        MOV     DPH,?V3
        MOV     R1,DPL
        MOV     R2,DPH
        MOV     R3,#0x0
        LCALL   `??osal_memcmp::?relay`; Banked call to: osal_memcmp
        MOV     A,#0x3
        LCALL   ?DEALLOC_XSTACK8
          CFI CFA_XSP16 add(XSP16, 44)
        MOV     A,R1
        JNZ     ??APSME_IsLinkKeyValid_5
// 2285         {
// 2286           status = TRUE;
        MOV     ?V0,#0x1
// 2287         }
// 2288       }
// 2289 
// 2290       // clear copy of key in RAM
// 2291       osal_memset(pKeyData, 0x00, sizeof(APSME_LinkKeyData_t));
??APSME_IsLinkKeyValid_5:
        ; Setup parameters for call to function osal_memset
        MOV     R4,#0x18
        MOV     R5,#0x0
        MOV     R1,#0x0
        MOV     R2,?V2
        MOV     R3,?V3
        LCALL   `??osal_memset::?relay`; Banked call to: osal_memset
// 2292 
// 2293       osal_mem_free(pKeyData);
        ; Setup parameters for call to function osal_mem_free
        MOV     R2,?V2
        MOV     R3,?V3
        LCALL   `??osal_mem_free::?relay`; Banked call to: osal_mem_free
// 2294     }
// 2295   }
// 2296 
// 2297   return status;
??APSME_IsLinkKeyValid_0:
        MOV     R1,?V0
        MOV     A,#0x1d
        LCALL   ?DEALLOC_XSTACK8
          CFI CFA_XSP16 add(XSP16, 15)
        MOV     R7,#0x7
        LJMP    ?BANKED_LEAVE_XDATA
          CFI R6 SameValue
          CFI VB SameValue
          CFI V0 SameValue
          CFI V1 SameValue
          CFI V2 SameValue
          CFI V3 SameValue
          CFI V4 SameValue
          CFI V5 SameValue
          CFI V6 SameValue
          CFI R7 SameValue
          CFI ?RET_LOW Frame(CFA_SP, 1)
          CFI ?RET_HIGH Frame(CFA_SP, 2)
          CFI ?BRET_EXT Frame(CFA_SP, 3)
          CFI DPL0 SameValue
          CFI DPH0 SameValue
          CFI CFA_SP SP+-3
          CFI CFA_XSP16 XSP16+0
// 2298 }
          CFI EndBlock cfiBlock346

        RSEG BANKED_CODE:CODE:NOROOT(0)
?Subroutine31:
          CFI Block cfiCond347 Using cfiCommon0
          CFI Function APSME_LinkKeyNVIdGet
          CFI Conditional ??CrossCallReturnLabel_32
          CFI R6 load(1, XDATA, add(CFA_XSP16, literal(-10)))
          CFI VB load(1, XDATA, add(CFA_XSP16, literal(-9)))
          CFI V0 load(1, XDATA, add(CFA_XSP16, literal(-8)))
          CFI V1 load(1, XDATA, add(CFA_XSP16, literal(-7)))
          CFI R7 load(1, XDATA, add(CFA_XSP16, literal(-6)))
          CFI ?RET_LOW load(1, XDATA, add(CFA_XSP16, literal(-5)))
          CFI ?RET_HIGH load(1, XDATA, add(CFA_XSP16, literal(-4)))
          CFI ?BRET_EXT load(1, XDATA, add(CFA_XSP16, literal(-3)))
          CFI DPL0 load(1, XDATA, add(CFA_XSP16, literal(-2)))
          CFI DPH0 load(1, XDATA, add(CFA_XSP16, literal(-1)))
          CFI CFA_SP SP+-2
          CFI CFA_XSP16 add(XSP16, 23)
          CFI Block cfiCond348 Using cfiCommon0
          CFI (cfiCond348) Function APSME_IsLinkKeyValid
          CFI (cfiCond348) Conditional ??CrossCallReturnLabel_31
          CFI (cfiCond348) R6 load(1, XDATA, add(CFA_XSP16, literal(-15)))
          CFI (cfiCond348) VB load(1, XDATA, add(CFA_XSP16, literal(-14)))
          CFI (cfiCond348) V0 load(1, XDATA, add(CFA_XSP16, literal(-13)))
          CFI (cfiCond348) V1 load(1, XDATA, add(CFA_XSP16, literal(-12)))
          CFI (cfiCond348) V2 load(1, XDATA, add(CFA_XSP16, literal(-11)))
          CFI (cfiCond348) V3 load(1, XDATA, add(CFA_XSP16, literal(-10)))
          CFI (cfiCond348) V4 load(1, XDATA, add(CFA_XSP16, literal(-9)))
          CFI (cfiCond348) V5 load(1, XDATA, add(CFA_XSP16, literal(-8)))
          CFI (cfiCond348) V6 load(1, XDATA, add(CFA_XSP16, literal(-7)))
          CFI (cfiCond348) R7 load(1, XDATA, add(CFA_XSP16, literal(-6)))
          CFI (cfiCond348) ?RET_LOW load(1, XDATA, add(CFA_XSP16, literal(-5)))
          CFI (cfiCond348) ?RET_HIGH load(1, XDATA, add(CFA_XSP16, literal(-4)))
          CFI (cfiCond348) ?BRET_EXT load(1, XDATA, add(CFA_XSP16, literal(-3)))
          CFI (cfiCond348) DPL0 load(1, XDATA, add(CFA_XSP16, literal(-2)))
          CFI (cfiCond348) DPH0 load(1, XDATA, add(CFA_XSP16, literal(-1)))
          CFI (cfiCond348) CFA_SP SP+-2
          CFI (cfiCond348) CFA_XSP16 add(XSP16, 44)
          CFI Block cfiPicker349 Using cfiCommon1
          CFI (cfiPicker349) NoFunction
          CFI (cfiPicker349) Picker
        MOV     A,R0
        MOV     B,#0x5
        MUL     AB
        MOV     R0,A
        MOV     R2,B
        MOV     B,#0x5
        MOV     A,R1
        MUL     AB
        ADD     A,R2
        MOV     R1,A
        LCALL   ?Subroutine44 & 0xFFFF
??CrossCallReturnLabel_75:
        MOVX    A,@DPTR
        RET
          CFI (cfiCond347) CFA_SP SP+0
          CFI (cfiCond348) CFA_SP SP+0
          CFI (cfiPicker349) CFA_SP SP+0
          CFI EndBlock cfiCond347
          CFI EndBlock cfiCond348
          CFI EndBlock cfiPicker349

        RSEG BANKED_CODE:CODE:NOROOT(0)
?Subroutine44:
          CFI Block cfiCond350 Using cfiCommon0
          CFI Function ZDSecMgrEntryNew
          CFI Conditional ??CrossCallReturnLabel_74, ??CrossCallReturnLabel_24
          CFI R6 load(1, XDATA, add(CFA_XSP16, literal(-9)))
          CFI VB load(1, XDATA, add(CFA_XSP16, literal(-8)))
          CFI V0 load(1, XDATA, add(CFA_XSP16, literal(-7)))
          CFI R7 load(1, XDATA, add(CFA_XSP16, literal(-6)))
          CFI ?RET_LOW load(1, XDATA, add(CFA_XSP16, literal(-5)))
          CFI ?RET_HIGH load(1, XDATA, add(CFA_XSP16, literal(-4)))
          CFI ?BRET_EXT load(1, XDATA, add(CFA_XSP16, literal(-3)))
          CFI DPL0 load(1, XDATA, add(CFA_XSP16, literal(-2)))
          CFI DPH0 load(1, XDATA, add(CFA_XSP16, literal(-1)))
          CFI CFA_SP SP+-4
          CFI CFA_XSP16 add(XSP16, 9)
          CFI Block cfiCond351 Using cfiCommon0
          CFI (cfiCond351) Function ZDSecMgrAuthenticationSet
          CFI (cfiCond351) Conditional ??CrossCallReturnLabel_74, ??CrossCallReturnLabel_25
          CFI (cfiCond351) R6 load(1, XDATA, add(CFA_XSP16, literal(-9)))
          CFI (cfiCond351) VB load(1, XDATA, add(CFA_XSP16, literal(-8)))
          CFI (cfiCond351) V0 load(1, XDATA, add(CFA_XSP16, literal(-7)))
          CFI (cfiCond351) R7 load(1, XDATA, add(CFA_XSP16, literal(-6)))
          CFI (cfiCond351) ?RET_LOW load(1, XDATA, add(CFA_XSP16, literal(-5)))
          CFI (cfiCond351) ?RET_HIGH load(1, XDATA, add(CFA_XSP16, literal(-4)))
          CFI (cfiCond351) ?BRET_EXT load(1, XDATA, add(CFA_XSP16, literal(-3)))
          CFI (cfiCond351) DPL0 load(1, XDATA, add(CFA_XSP16, literal(-2)))
          CFI (cfiCond351) DPH0 load(1, XDATA, add(CFA_XSP16, literal(-1)))
          CFI (cfiCond351) CFA_SP SP+-4
          CFI (cfiCond351) CFA_XSP16 add(XSP16, 22)
          CFI Block cfiCond352 Using cfiCommon0
          CFI (cfiCond352) Function APSME_LinkKeyNVIdGet
          CFI (cfiCond352) Conditional ??CrossCallReturnLabel_75, ??CrossCallReturnLabel_32
          CFI (cfiCond352) R6 load(1, XDATA, add(CFA_XSP16, literal(-10)))
          CFI (cfiCond352) VB load(1, XDATA, add(CFA_XSP16, literal(-9)))
          CFI (cfiCond352) V0 load(1, XDATA, add(CFA_XSP16, literal(-8)))
          CFI (cfiCond352) V1 load(1, XDATA, add(CFA_XSP16, literal(-7)))
          CFI (cfiCond352) R7 load(1, XDATA, add(CFA_XSP16, literal(-6)))
          CFI (cfiCond352) ?RET_LOW load(1, XDATA, add(CFA_XSP16, literal(-5)))
          CFI (cfiCond352) ?RET_HIGH load(1, XDATA, add(CFA_XSP16, literal(-4)))
          CFI (cfiCond352) ?BRET_EXT load(1, XDATA, add(CFA_XSP16, literal(-3)))
          CFI (cfiCond352) DPL0 load(1, XDATA, add(CFA_XSP16, literal(-2)))
          CFI (cfiCond352) DPH0 load(1, XDATA, add(CFA_XSP16, literal(-1)))
          CFI (cfiCond352) CFA_SP SP+-4
          CFI (cfiCond352) CFA_XSP16 add(XSP16, 23)
          CFI Block cfiCond353 Using cfiCommon0
          CFI (cfiCond353) Function APSME_IsLinkKeyValid
          CFI (cfiCond353) Conditional ??CrossCallReturnLabel_75, ??CrossCallReturnLabel_31
          CFI (cfiCond353) R6 load(1, XDATA, add(CFA_XSP16, literal(-15)))
          CFI (cfiCond353) VB load(1, XDATA, add(CFA_XSP16, literal(-14)))
          CFI (cfiCond353) V0 load(1, XDATA, add(CFA_XSP16, literal(-13)))
          CFI (cfiCond353) V1 load(1, XDATA, add(CFA_XSP16, literal(-12)))
          CFI (cfiCond353) V2 load(1, XDATA, add(CFA_XSP16, literal(-11)))
          CFI (cfiCond353) V3 load(1, XDATA, add(CFA_XSP16, literal(-10)))
          CFI (cfiCond353) V4 load(1, XDATA, add(CFA_XSP16, literal(-9)))
          CFI (cfiCond353) V5 load(1, XDATA, add(CFA_XSP16, literal(-8)))
          CFI (cfiCond353) V6 load(1, XDATA, add(CFA_XSP16, literal(-7)))
          CFI (cfiCond353) R7 load(1, XDATA, add(CFA_XSP16, literal(-6)))
          CFI (cfiCond353) ?RET_LOW load(1, XDATA, add(CFA_XSP16, literal(-5)))
          CFI (cfiCond353) ?RET_HIGH load(1, XDATA, add(CFA_XSP16, literal(-4)))
          CFI (cfiCond353) ?BRET_EXT load(1, XDATA, add(CFA_XSP16, literal(-3)))
          CFI (cfiCond353) DPL0 load(1, XDATA, add(CFA_XSP16, literal(-2)))
          CFI (cfiCond353) DPH0 load(1, XDATA, add(CFA_XSP16, literal(-1)))
          CFI (cfiCond353) CFA_SP SP+-4
          CFI (cfiCond353) CFA_XSP16 add(XSP16, 44)
          CFI Block cfiPicker354 Using cfiCommon1
          CFI (cfiPicker354) NoFunction
          CFI (cfiPicker354) Picker
        MOV     DPTR,#ZDSecMgrEntries
        MOVX    A,@DPTR
        ADD     A,R0
        MOV     R2,A
        INC     DPTR
        MOVX    A,@DPTR
        ADDC    A,R1
        MOV     DPL,R2
        MOV     DPH,A
        INC     DPTR
        INC     DPTR
        RET
          CFI (cfiCond350) CFA_SP SP+-2
          CFI (cfiCond351) CFA_SP SP+-2
          CFI (cfiCond352) CFA_SP SP+-2
          CFI (cfiCond353) CFA_SP SP+-2
          CFI (cfiPicker354) CFA_SP SP+0
          CFI EndBlock cfiCond350
          CFI EndBlock cfiCond351
          CFI EndBlock cfiCond352
          CFI EndBlock cfiCond353
          CFI EndBlock cfiPicker354
// 2299 
// 2300 /******************************************************************************
// 2301  * @fn          ZDSecMgrKeyFwdToChild (stubs APSME_KeyFwdToChild)
// 2302  *
// 2303  * @brief       Verify and process key transportation to child.
// 2304  *
// 2305  * @param       ind - [in] APSME_TransportKeyInd_t
// 2306  *
// 2307  * @return      uint8 - success(TRUE:FALSE)
// 2308  */

        RSEG BANKED_CODE:CODE:NOROOT(0)
// 2309 uint8 ZDSecMgrKeyFwdToChild( APSME_TransportKeyInd_t* ind )
APSME_KeyFwdToChild:
          CFI Block cfiBlock355 Using cfiCommon0
          CFI Function APSME_KeyFwdToChild
        CODE
// 2310 {
        FUNCALL APSME_KeyFwdToChild, AssocGetWithExt
        LOCFRAME ISTACK, 0, STACK
        LOCFRAME PSTACK, 0, STACK
        LOCFRAME XSTACK, 10, STACK
        LOCFRAME IOVERLAY, 0, STATIC
        LOCFRAME DOVERLAY, 0, STATIC
        ARGFRAME ISTACK, 0, STACK
        ARGFRAME PSTACK, 0, STACK
        ARGFRAME XSTACK, 10, STACK
        ARGFRAME IOVERLAY, 0, STATIC
        ARGFRAME DOVERLAY, 0, STATIC
        REQUIRE ?V0
        REQUIRE ?V1
        MOV     A,#-0xa
        LCALL   ?BANKED_ENTER_XDATA
          CFI DPH0 load(1, XDATA, add(CFA_XSP16, literal(-1)))
          CFI DPL0 load(1, XDATA, add(CFA_XSP16, literal(-2)))
          CFI ?BRET_EXT load(1, XDATA, add(CFA_XSP16, literal(-3)))
          CFI ?RET_HIGH load(1, XDATA, add(CFA_XSP16, literal(-4)))
          CFI ?RET_LOW load(1, XDATA, add(CFA_XSP16, literal(-5)))
          CFI R7 load(1, XDATA, add(CFA_XSP16, literal(-6)))
          CFI V1 load(1, XDATA, add(CFA_XSP16, literal(-7)))
          CFI V0 load(1, XDATA, add(CFA_XSP16, literal(-8)))
          CFI VB load(1, XDATA, add(CFA_XSP16, literal(-9)))
          CFI R6 load(1, XDATA, add(CFA_XSP16, literal(-10)))
          CFI CFA_SP SP+0
          CFI CFA_XSP16 add(XSP16, 10)
        ; Saved register size: 10
        ; Auto size: 0
// 2311   // verify from Trust Center
// 2312   if ( ind->srcAddr == APSME_TRUSTCENTER_NWKADDR )
        MOV     DPL,R2
        MOV     DPH,R3
        LCALL   ??Subroutine71_0 & 0xFFFF
??CrossCallReturnLabel_162:
        JNZ     ??APSME_KeyFwdToChild_0
// 2313   {
// 2314     // check for initial NWK key
// 2315     if ( ( ind->keyType == KEY_TYPE_NWK ) ||
// 2316          ( ind->keyType == 6            ) )
        MOV     DPL,R2
        MOV     DPH,R3
        INC     DPTR
        INC     DPTR
        MOVX    A,@DPTR
        MOV     R0,A
        MOV     A,#0x1
        XRL     A,R0
        JZ      ??APSME_KeyFwdToChild_1
        MOV     A,#0x6
        XRL     A,R0
        JNZ     ??CrossCallReturnLabel_117
// 2317     {
// 2318       // set association status to authenticated
// 2319       ZDSecMgrAssocDeviceAuth( AssocGetWithExt( ind->dstExtAddr ) );
??APSME_KeyFwdToChild_1:
        ; Setup parameters for call to function AssocGetWithExt
        MOV     DPL,R2
        MOV     DPH,R3
        INC     DPTR
        INC     DPTR
        INC     DPTR
        INC     DPTR
        INC     DPTR
        INC     DPTR
        LCALL   ??Subroutine72_0 & 0xFFFF
// 2320     }
??CrossCallReturnLabel_181:
        LCALL   `??AssocGetWithExt::?relay`; Banked call to: AssocGetWithExt
        MOV     DPL,R2
        MOV     DPH,R3
        MOV     A,DPL
        ORL     A,DPH
        JZ      ??CrossCallReturnLabel_117
        LCALL   ?Subroutine35 & 0xFFFF
// 2321 
// 2322     return TRUE;
??CrossCallReturnLabel_117:
        MOV     R1,#0x1
        SJMP    ??APSME_KeyFwdToChild_2
// 2323   }
// 2324 
// 2325   return FALSE;
??APSME_KeyFwdToChild_0:
        MOV     R1,#0x0
??APSME_KeyFwdToChild_2:
        LJMP    ??Subroutine56_0 & 0xFFFF
// 2326 }
          CFI EndBlock cfiBlock355

        RSEG BANKED_CODE:CODE:NOROOT(0)
?Subroutine26:
          CFI Block cfiCond356 Using cfiCommon0
          CFI Function ZDSecMgrEntryInit
          CFI Conditional ??CrossCallReturnLabel_163
          CFI DPL0 Frame(CFA_SP, 4)
          CFI DPH0 Frame(CFA_SP, 5)
          CFI CFA_SP SP+-7
          CFI Block cfiCond357 Using cfiCommon0
          CFI (cfiCond357) Function ZDSecMgrEntryLookupAMIGetIndex
          CFI (cfiCond357) Conditional ??CrossCallReturnLabel_164
          CFI (cfiCond357) R6 load(1, XDATA, add(CFA_XSP16, literal(-9)))
          CFI (cfiCond357) VB load(1, XDATA, add(CFA_XSP16, literal(-8)))
          CFI (cfiCond357) V0 load(1, XDATA, add(CFA_XSP16, literal(-7)))
          CFI (cfiCond357) R7 load(1, XDATA, add(CFA_XSP16, literal(-6)))
          CFI (cfiCond357) ?RET_LOW load(1, XDATA, add(CFA_XSP16, literal(-5)))
          CFI (cfiCond357) ?RET_HIGH load(1, XDATA, add(CFA_XSP16, literal(-4)))
          CFI (cfiCond357) ?BRET_EXT load(1, XDATA, add(CFA_XSP16, literal(-3)))
          CFI (cfiCond357) DPL0 load(1, XDATA, add(CFA_XSP16, literal(-2)))
          CFI (cfiCond357) DPH0 load(1, XDATA, add(CFA_XSP16, literal(-1)))
          CFI (cfiCond357) CFA_SP SP+-2
          CFI (cfiCond357) CFA_XSP16 add(XSP16, 9)
          CFI Block cfiPicker358 Using cfiCommon1
          CFI (cfiPicker358) NoFunction
          CFI (cfiPicker358) Picker
        MOV     DPTR,#ZDSecMgrEntries
          CFI EndBlock cfiCond356
          CFI EndBlock cfiCond357
          CFI EndBlock cfiPicker358
        REQUIRE ??Subroutine71_0
        ; // Fall through to label ??Subroutine71_0

        RSEG BANKED_CODE:CODE:NOROOT(0)
??Subroutine71_0:
          CFI Block cfiCond359 Using cfiCommon0
          CFI Function ZDSecMgrDeviceJoin
          CFI Conditional ??CrossCallReturnLabel_160
          CFI R6 load(1, XDATA, add(CFA_XSP16, literal(-13)))
          CFI VB load(1, XDATA, add(CFA_XSP16, literal(-12)))
          CFI V0 load(1, XDATA, add(CFA_XSP16, literal(-11)))
          CFI V1 load(1, XDATA, add(CFA_XSP16, literal(-10)))
          CFI V2 load(1, XDATA, add(CFA_XSP16, literal(-9)))
          CFI V3 load(1, XDATA, add(CFA_XSP16, literal(-8)))
          CFI V4 load(1, XDATA, add(CFA_XSP16, literal(-7)))
          CFI R7 load(1, XDATA, add(CFA_XSP16, literal(-6)))
          CFI ?RET_LOW load(1, XDATA, add(CFA_XSP16, literal(-5)))
          CFI ?RET_HIGH load(1, XDATA, add(CFA_XSP16, literal(-4)))
          CFI ?BRET_EXT load(1, XDATA, add(CFA_XSP16, literal(-3)))
          CFI DPL0 load(1, XDATA, add(CFA_XSP16, literal(-2)))
          CFI DPH0 load(1, XDATA, add(CFA_XSP16, literal(-1)))
          CFI CFA_SP SP+-2
          CFI CFA_XSP16 add(XSP16, 38)
          CFI Block cfiCond360 Using cfiCommon0
          CFI (cfiCond360) Function ZDSecMgrRemoveDeviceInd
          CFI (cfiCond360) Conditional ??CrossCallReturnLabel_161
          CFI (cfiCond360) R6 load(1, XDATA, add(CFA_XSP16, literal(-9)))
          CFI (cfiCond360) VB load(1, XDATA, add(CFA_XSP16, literal(-8)))
          CFI (cfiCond360) V0 load(1, XDATA, add(CFA_XSP16, literal(-7)))
          CFI (cfiCond360) R7 load(1, XDATA, add(CFA_XSP16, literal(-6)))
          CFI (cfiCond360) ?RET_LOW load(1, XDATA, add(CFA_XSP16, literal(-5)))
          CFI (cfiCond360) ?RET_HIGH load(1, XDATA, add(CFA_XSP16, literal(-4)))
          CFI (cfiCond360) ?BRET_EXT load(1, XDATA, add(CFA_XSP16, literal(-3)))
          CFI (cfiCond360) DPL0 load(1, XDATA, add(CFA_XSP16, literal(-2)))
          CFI (cfiCond360) DPH0 load(1, XDATA, add(CFA_XSP16, literal(-1)))
          CFI (cfiCond360) CFA_SP SP+-2
          CFI (cfiCond360) CFA_XSP16 add(XSP16, 17)
          CFI Block cfiCond361 Using cfiCommon0
          CFI (cfiCond361) Function APSME_KeyFwdToChild
          CFI (cfiCond361) Conditional ??CrossCallReturnLabel_162
          CFI (cfiCond361) R6 load(1, XDATA, add(CFA_XSP16, literal(-10)))
          CFI (cfiCond361) VB load(1, XDATA, add(CFA_XSP16, literal(-9)))
          CFI (cfiCond361) V0 load(1, XDATA, add(CFA_XSP16, literal(-8)))
          CFI (cfiCond361) V1 load(1, XDATA, add(CFA_XSP16, literal(-7)))
          CFI (cfiCond361) R7 load(1, XDATA, add(CFA_XSP16, literal(-6)))
          CFI (cfiCond361) ?RET_LOW load(1, XDATA, add(CFA_XSP16, literal(-5)))
          CFI (cfiCond361) ?RET_HIGH load(1, XDATA, add(CFA_XSP16, literal(-4)))
          CFI (cfiCond361) ?BRET_EXT load(1, XDATA, add(CFA_XSP16, literal(-3)))
          CFI (cfiCond361) DPL0 load(1, XDATA, add(CFA_XSP16, literal(-2)))
          CFI (cfiCond361) DPH0 load(1, XDATA, add(CFA_XSP16, literal(-1)))
          CFI (cfiCond361) CFA_SP SP+-2
          CFI (cfiCond361) CFA_XSP16 add(XSP16, 10)
          CFI Block cfiCond362 Using cfiCommon0
          CFI (cfiCond362) Function ZDSecMgrEntryInit
          CFI (cfiCond362) Conditional ??CrossCallReturnLabel_163
          CFI (cfiCond362) DPL0 Frame(CFA_SP, 4)
          CFI (cfiCond362) DPH0 Frame(CFA_SP, 5)
          CFI (cfiCond362) CFA_SP SP+-7
          CFI Block cfiCond363 Using cfiCommon0
          CFI (cfiCond363) Function ZDSecMgrEntryLookupAMIGetIndex
          CFI (cfiCond363) Conditional ??CrossCallReturnLabel_164
          CFI (cfiCond363) R6 load(1, XDATA, add(CFA_XSP16, literal(-9)))
          CFI (cfiCond363) VB load(1, XDATA, add(CFA_XSP16, literal(-8)))
          CFI (cfiCond363) V0 load(1, XDATA, add(CFA_XSP16, literal(-7)))
          CFI (cfiCond363) R7 load(1, XDATA, add(CFA_XSP16, literal(-6)))
          CFI (cfiCond363) ?RET_LOW load(1, XDATA, add(CFA_XSP16, literal(-5)))
          CFI (cfiCond363) ?RET_HIGH load(1, XDATA, add(CFA_XSP16, literal(-4)))
          CFI (cfiCond363) ?BRET_EXT load(1, XDATA, add(CFA_XSP16, literal(-3)))
          CFI (cfiCond363) DPL0 load(1, XDATA, add(CFA_XSP16, literal(-2)))
          CFI (cfiCond363) DPH0 load(1, XDATA, add(CFA_XSP16, literal(-1)))
          CFI (cfiCond363) CFA_SP SP+-2
          CFI (cfiCond363) CFA_XSP16 add(XSP16, 9)
          CFI Block cfiPicker364 Using cfiCommon1
          CFI (cfiPicker364) NoFunction
          CFI (cfiPicker364) Picker
        LCALL   ??Subroutine69_0 & 0xFFFF
??CrossCallReturnLabel_167:
        RET
          CFI (cfiCond359) CFA_SP SP+0
          CFI (cfiCond360) CFA_SP SP+0
          CFI (cfiCond361) CFA_SP SP+0
          CFI (cfiCond362) CFA_SP SP+-5
          CFI (cfiCond363) CFA_SP SP+0
          CFI (cfiPicker364) CFA_SP SP+0
          CFI EndBlock cfiCond359
          CFI EndBlock cfiCond360
          CFI EndBlock cfiCond361
          CFI EndBlock cfiCond362
          CFI EndBlock cfiCond363
          CFI EndBlock cfiPicker364

        RSEG BANKED_CODE:CODE:NOROOT(0)
?Subroutine25:
          CFI Block cfiCond365 Using cfiCommon0
          CFI Function ZDSecMgrEntryLookup
          CFI Conditional ??CrossCallReturnLabel_182
          CFI R6 load(1, XDATA, add(CFA_XSP16, literal(-9)))
          CFI VB load(1, XDATA, add(CFA_XSP16, literal(-8)))
          CFI V0 load(1, XDATA, add(CFA_XSP16, literal(-7)))
          CFI R7 load(1, XDATA, add(CFA_XSP16, literal(-6)))
          CFI ?RET_LOW load(1, XDATA, add(CFA_XSP16, literal(-5)))
          CFI ?RET_HIGH load(1, XDATA, add(CFA_XSP16, literal(-4)))
          CFI ?BRET_EXT load(1, XDATA, add(CFA_XSP16, literal(-3)))
          CFI DPL0 load(1, XDATA, add(CFA_XSP16, literal(-2)))
          CFI DPH0 load(1, XDATA, add(CFA_XSP16, literal(-1)))
          CFI CFA_SP SP+-2
          CFI CFA_XSP16 add(XSP16, 22)
          CFI Block cfiCond366 Using cfiCommon0
          CFI (cfiCond366) Function ZDSecMgrEntryLookupAMI
          CFI (cfiCond366) Conditional ??CrossCallReturnLabel_183
          CFI (cfiCond366) R6 load(1, XDATA, add(CFA_XSP16, literal(-9)))
          CFI (cfiCond366) VB load(1, XDATA, add(CFA_XSP16, literal(-8)))
          CFI (cfiCond366) V0 load(1, XDATA, add(CFA_XSP16, literal(-7)))
          CFI (cfiCond366) R7 load(1, XDATA, add(CFA_XSP16, literal(-6)))
          CFI (cfiCond366) ?RET_LOW load(1, XDATA, add(CFA_XSP16, literal(-5)))
          CFI (cfiCond366) ?RET_HIGH load(1, XDATA, add(CFA_XSP16, literal(-4)))
          CFI (cfiCond366) ?BRET_EXT load(1, XDATA, add(CFA_XSP16, literal(-3)))
          CFI (cfiCond366) DPL0 load(1, XDATA, add(CFA_XSP16, literal(-2)))
          CFI (cfiCond366) DPH0 load(1, XDATA, add(CFA_XSP16, literal(-1)))
          CFI (cfiCond366) CFA_SP SP+-2
          CFI (cfiCond366) CFA_XSP16 add(XSP16, 9)
          CFI Block cfiCond367 Using cfiCommon0
          CFI (cfiCond367) Function ZDSecMgrEntryLookupExt
          CFI (cfiCond367) Conditional ??CrossCallReturnLabel_184
          CFI (cfiCond367) R6 load(1, XDATA, add(CFA_XSP16, literal(-10)))
          CFI (cfiCond367) VB load(1, XDATA, add(CFA_XSP16, literal(-9)))
          CFI (cfiCond367) V0 load(1, XDATA, add(CFA_XSP16, literal(-8)))
          CFI (cfiCond367) V1 load(1, XDATA, add(CFA_XSP16, literal(-7)))
          CFI (cfiCond367) R7 load(1, XDATA, add(CFA_XSP16, literal(-6)))
          CFI (cfiCond367) ?RET_LOW load(1, XDATA, add(CFA_XSP16, literal(-5)))
          CFI (cfiCond367) ?RET_HIGH load(1, XDATA, add(CFA_XSP16, literal(-4)))
          CFI (cfiCond367) ?BRET_EXT load(1, XDATA, add(CFA_XSP16, literal(-3)))
          CFI (cfiCond367) DPL0 load(1, XDATA, add(CFA_XSP16, literal(-2)))
          CFI (cfiCond367) DPH0 load(1, XDATA, add(CFA_XSP16, literal(-1)))
          CFI (cfiCond367) CFA_SP SP+-2
          CFI (cfiCond367) CFA_XSP16 add(XSP16, 23)
          CFI Block cfiCond368 Using cfiCommon0
          CFI (cfiCond368) Function ZDSecMgrEntryLookupExtGetIndex
          CFI (cfiCond368) Conditional ??CrossCallReturnLabel_185
          CFI (cfiCond368) R6 load(1, XDATA, add(CFA_XSP16, literal(-9)))
          CFI (cfiCond368) VB load(1, XDATA, add(CFA_XSP16, literal(-8)))
          CFI (cfiCond368) V0 load(1, XDATA, add(CFA_XSP16, literal(-7)))
          CFI (cfiCond368) R7 load(1, XDATA, add(CFA_XSP16, literal(-6)))
          CFI (cfiCond368) ?RET_LOW load(1, XDATA, add(CFA_XSP16, literal(-5)))
          CFI (cfiCond368) ?RET_HIGH load(1, XDATA, add(CFA_XSP16, literal(-4)))
          CFI (cfiCond368) ?BRET_EXT load(1, XDATA, add(CFA_XSP16, literal(-3)))
          CFI (cfiCond368) DPL0 load(1, XDATA, add(CFA_XSP16, literal(-2)))
          CFI (cfiCond368) DPH0 load(1, XDATA, add(CFA_XSP16, literal(-1)))
          CFI (cfiCond368) CFA_SP SP+-2
          CFI (cfiCond368) CFA_XSP16 add(XSP16, 22)
          CFI Block cfiCond369 Using cfiCommon0
          CFI (cfiCond369) Function ZDSecMgrDeviceRemoveByExtAddr
          CFI (cfiCond369) Conditional ??CrossCallReturnLabel_186
          CFI (cfiCond369) R6 load(1, XDATA, add(CFA_XSP16, literal(-9)))
          CFI (cfiCond369) VB load(1, XDATA, add(CFA_XSP16, literal(-8)))
          CFI (cfiCond369) V0 load(1, XDATA, add(CFA_XSP16, literal(-7)))
          CFI (cfiCond369) R7 load(1, XDATA, add(CFA_XSP16, literal(-6)))
          CFI (cfiCond369) ?RET_LOW load(1, XDATA, add(CFA_XSP16, literal(-5)))
          CFI (cfiCond369) ?RET_HIGH load(1, XDATA, add(CFA_XSP16, literal(-4)))
          CFI (cfiCond369) ?BRET_EXT load(1, XDATA, add(CFA_XSP16, literal(-3)))
          CFI (cfiCond369) DPL0 load(1, XDATA, add(CFA_XSP16, literal(-2)))
          CFI (cfiCond369) DPH0 load(1, XDATA, add(CFA_XSP16, literal(-1)))
          CFI (cfiCond369) CFA_SP SP+-2
          CFI (cfiCond369) CFA_XSP16 add(XSP16, 22)
          CFI Block cfiCond370 Using cfiCommon0
          CFI (cfiCond370) Function APSME_LinkKeySet
          CFI (cfiCond370) Conditional ??CrossCallReturnLabel_187
          CFI (cfiCond370) R6 load(1, XDATA, add(CFA_XSP16, literal(-19)))
          CFI (cfiCond370) VB load(1, XDATA, add(CFA_XSP16, literal(-18)))
          CFI (cfiCond370) V0 load(1, XDATA, add(CFA_XSP16, literal(-17)))
          CFI (cfiCond370) V1 load(1, XDATA, add(CFA_XSP16, literal(-16)))
          CFI (cfiCond370) V2 load(1, XDATA, add(CFA_XSP16, literal(-15)))
          CFI (cfiCond370) V3 load(1, XDATA, add(CFA_XSP16, literal(-14)))
          CFI (cfiCond370) V4 load(1, XDATA, add(CFA_XSP16, literal(-13)))
          CFI (cfiCond370) V5 load(1, XDATA, add(CFA_XSP16, literal(-12)))
          CFI (cfiCond370) V6 load(1, XDATA, add(CFA_XSP16, literal(-11)))
          CFI (cfiCond370) V7 load(1, XDATA, add(CFA_XSP16, literal(-10)))
          CFI (cfiCond370) V8 load(1, XDATA, add(CFA_XSP16, literal(-9)))
          CFI (cfiCond370) V9 load(1, XDATA, add(CFA_XSP16, literal(-8)))
          CFI (cfiCond370) V10 load(1, XDATA, add(CFA_XSP16, literal(-7)))
          CFI (cfiCond370) R7 load(1, XDATA, add(CFA_XSP16, literal(-6)))
          CFI (cfiCond370) ?RET_LOW load(1, XDATA, add(CFA_XSP16, literal(-5)))
          CFI (cfiCond370) ?RET_HIGH load(1, XDATA, add(CFA_XSP16, literal(-4)))
          CFI (cfiCond370) ?BRET_EXT load(1, XDATA, add(CFA_XSP16, literal(-3)))
          CFI (cfiCond370) DPL0 load(1, XDATA, add(CFA_XSP16, literal(-2)))
          CFI (cfiCond370) DPH0 load(1, XDATA, add(CFA_XSP16, literal(-1)))
          CFI (cfiCond370) CFA_SP SP+-2
          CFI (cfiCond370) CFA_XSP16 add(XSP16, 32)
          CFI Block cfiCond371 Using cfiCommon0
          CFI (cfiCond371) Function ZDSecMgrAuthenticationSet
          CFI (cfiCond371) Conditional ??CrossCallReturnLabel_188
          CFI (cfiCond371) R6 load(1, XDATA, add(CFA_XSP16, literal(-9)))
          CFI (cfiCond371) VB load(1, XDATA, add(CFA_XSP16, literal(-8)))
          CFI (cfiCond371) V0 load(1, XDATA, add(CFA_XSP16, literal(-7)))
          CFI (cfiCond371) R7 load(1, XDATA, add(CFA_XSP16, literal(-6)))
          CFI (cfiCond371) ?RET_LOW load(1, XDATA, add(CFA_XSP16, literal(-5)))
          CFI (cfiCond371) ?RET_HIGH load(1, XDATA, add(CFA_XSP16, literal(-4)))
          CFI (cfiCond371) ?BRET_EXT load(1, XDATA, add(CFA_XSP16, literal(-3)))
          CFI (cfiCond371) DPL0 load(1, XDATA, add(CFA_XSP16, literal(-2)))
          CFI (cfiCond371) DPH0 load(1, XDATA, add(CFA_XSP16, literal(-1)))
          CFI (cfiCond371) CFA_SP SP+-2
          CFI (cfiCond371) CFA_XSP16 add(XSP16, 22)
          CFI Block cfiCond372 Using cfiCommon0
          CFI (cfiCond372) Function APSME_LinkKeyNVIdGet
          CFI (cfiCond372) Conditional ??CrossCallReturnLabel_189
          CFI (cfiCond372) R6 load(1, XDATA, add(CFA_XSP16, literal(-10)))
          CFI (cfiCond372) VB load(1, XDATA, add(CFA_XSP16, literal(-9)))
          CFI (cfiCond372) V0 load(1, XDATA, add(CFA_XSP16, literal(-8)))
          CFI (cfiCond372) V1 load(1, XDATA, add(CFA_XSP16, literal(-7)))
          CFI (cfiCond372) R7 load(1, XDATA, add(CFA_XSP16, literal(-6)))
          CFI (cfiCond372) ?RET_LOW load(1, XDATA, add(CFA_XSP16, literal(-5)))
          CFI (cfiCond372) ?RET_HIGH load(1, XDATA, add(CFA_XSP16, literal(-4)))
          CFI (cfiCond372) ?BRET_EXT load(1, XDATA, add(CFA_XSP16, literal(-3)))
          CFI (cfiCond372) DPL0 load(1, XDATA, add(CFA_XSP16, literal(-2)))
          CFI (cfiCond372) DPH0 load(1, XDATA, add(CFA_XSP16, literal(-1)))
          CFI (cfiCond372) CFA_SP SP+-2
          CFI (cfiCond372) CFA_XSP16 add(XSP16, 23)
          CFI Block cfiCond373 Using cfiCommon0
          CFI (cfiCond373) Function APSME_IsLinkKeyValid
          CFI (cfiCond373) Conditional ??CrossCallReturnLabel_190
          CFI (cfiCond373) R6 load(1, XDATA, add(CFA_XSP16, literal(-15)))
          CFI (cfiCond373) VB load(1, XDATA, add(CFA_XSP16, literal(-14)))
          CFI (cfiCond373) V0 load(1, XDATA, add(CFA_XSP16, literal(-13)))
          CFI (cfiCond373) V1 load(1, XDATA, add(CFA_XSP16, literal(-12)))
          CFI (cfiCond373) V2 load(1, XDATA, add(CFA_XSP16, literal(-11)))
          CFI (cfiCond373) V3 load(1, XDATA, add(CFA_XSP16, literal(-10)))
          CFI (cfiCond373) V4 load(1, XDATA, add(CFA_XSP16, literal(-9)))
          CFI (cfiCond373) V5 load(1, XDATA, add(CFA_XSP16, literal(-8)))
          CFI (cfiCond373) V6 load(1, XDATA, add(CFA_XSP16, literal(-7)))
          CFI (cfiCond373) R7 load(1, XDATA, add(CFA_XSP16, literal(-6)))
          CFI (cfiCond373) ?RET_LOW load(1, XDATA, add(CFA_XSP16, literal(-5)))
          CFI (cfiCond373) ?RET_HIGH load(1, XDATA, add(CFA_XSP16, literal(-4)))
          CFI (cfiCond373) ?BRET_EXT load(1, XDATA, add(CFA_XSP16, literal(-3)))
          CFI (cfiCond373) DPL0 load(1, XDATA, add(CFA_XSP16, literal(-2)))
          CFI (cfiCond373) DPH0 load(1, XDATA, add(CFA_XSP16, literal(-1)))
          CFI (cfiCond373) CFA_SP SP+-2
          CFI (cfiCond373) CFA_XSP16 add(XSP16, 44)
          CFI Block cfiCond374 Using cfiCommon0
          CFI (cfiCond374) Function ZDSecMgrAddLinkKey
          CFI (cfiCond374) Conditional ??CrossCallReturnLabel_191
          CFI (cfiCond374) R6 load(1, XDATA, add(CFA_XSP16, literal(-9)))
          CFI (cfiCond374) VB load(1, XDATA, add(CFA_XSP16, literal(-8)))
          CFI (cfiCond374) V0 load(1, XDATA, add(CFA_XSP16, literal(-7)))
          CFI (cfiCond374) R7 load(1, XDATA, add(CFA_XSP16, literal(-6)))
          CFI (cfiCond374) ?RET_LOW load(1, XDATA, add(CFA_XSP16, literal(-5)))
          CFI (cfiCond374) ?RET_HIGH load(1, XDATA, add(CFA_XSP16, literal(-4)))
          CFI (cfiCond374) ?BRET_EXT load(1, XDATA, add(CFA_XSP16, literal(-3)))
          CFI (cfiCond374) DPL0 load(1, XDATA, add(CFA_XSP16, literal(-2)))
          CFI (cfiCond374) DPH0 load(1, XDATA, add(CFA_XSP16, literal(-1)))
          CFI (cfiCond374) CFA_SP SP+-2
          CFI (cfiCond374) CFA_XSP16 add(XSP16, 22)
          CFI Block cfiCond375 Using cfiCommon0
          CFI (cfiCond375) Function ZDSecMgrAddLinkKey
          CFI (cfiCond375) Conditional ??CrossCallReturnLabel_192
          CFI (cfiCond375) R6 load(1, XDATA, add(CFA_XSP16, literal(-9)))
          CFI (cfiCond375) VB load(1, XDATA, add(CFA_XSP16, literal(-8)))
          CFI (cfiCond375) V0 load(1, XDATA, add(CFA_XSP16, literal(-7)))
          CFI (cfiCond375) R7 load(1, XDATA, add(CFA_XSP16, literal(-6)))
          CFI (cfiCond375) ?RET_LOW load(1, XDATA, add(CFA_XSP16, literal(-5)))
          CFI (cfiCond375) ?RET_HIGH load(1, XDATA, add(CFA_XSP16, literal(-4)))
          CFI (cfiCond375) ?BRET_EXT load(1, XDATA, add(CFA_XSP16, literal(-3)))
          CFI (cfiCond375) DPL0 load(1, XDATA, add(CFA_XSP16, literal(-2)))
          CFI (cfiCond375) DPH0 load(1, XDATA, add(CFA_XSP16, literal(-1)))
          CFI (cfiCond375) CFA_SP SP+-2
          CFI (cfiCond375) CFA_XSP16 add(XSP16, 22)
          CFI Block cfiPicker376 Using cfiCommon1
          CFI (cfiPicker376) NoFunction
          CFI (cfiPicker376) Picker
        MOV     R0,#0x0
        MOV     R1,#0x0
        MOV     DPTR,#ZDSecMgrEntries
          CFI EndBlock cfiCond365
          CFI EndBlock cfiCond366
          CFI EndBlock cfiCond367
          CFI EndBlock cfiCond368
          CFI EndBlock cfiCond369
          CFI EndBlock cfiCond370
          CFI EndBlock cfiCond371
          CFI EndBlock cfiCond372
          CFI EndBlock cfiCond373
          CFI EndBlock cfiCond374
          CFI EndBlock cfiCond375
          CFI EndBlock cfiPicker376
        REQUIRE ??Subroutine72_0
        ; // Fall through to label ??Subroutine72_0

        RSEG BANKED_CODE:CODE:NOROOT(0)
??Subroutine72_0:
          CFI Block cfiCond377 Using cfiCommon0
          CFI Function ZDSecMgrEntryFree
          CFI Conditional ??CrossCallReturnLabel_168
          CFI R6 load(1, XDATA, add(CFA_XSP16, literal(-14)))
          CFI VB load(1, XDATA, add(CFA_XSP16, literal(-13)))
          CFI V0 load(1, XDATA, add(CFA_XSP16, literal(-12)))
          CFI V1 load(1, XDATA, add(CFA_XSP16, literal(-11)))
          CFI V2 load(1, XDATA, add(CFA_XSP16, literal(-10)))
          CFI V3 load(1, XDATA, add(CFA_XSP16, literal(-9)))
          CFI V4 load(1, XDATA, add(CFA_XSP16, literal(-8)))
          CFI V5 load(1, XDATA, add(CFA_XSP16, literal(-7)))
          CFI R7 load(1, XDATA, add(CFA_XSP16, literal(-6)))
          CFI ?RET_LOW load(1, XDATA, add(CFA_XSP16, literal(-5)))
          CFI ?RET_HIGH load(1, XDATA, add(CFA_XSP16, literal(-4)))
          CFI ?BRET_EXT load(1, XDATA, add(CFA_XSP16, literal(-3)))
          CFI DPL0 load(1, XDATA, add(CFA_XSP16, literal(-2)))
          CFI DPH0 load(1, XDATA, add(CFA_XSP16, literal(-1)))
          CFI CFA_SP SP+-2
          CFI CFA_XSP16 add(XSP16, 18)
          CFI Block cfiCond378 Using cfiCommon0
          CFI (cfiCond378) Function ZDSecMgrAppKeyGet
          CFI (cfiCond378) Conditional ??CrossCallReturnLabel_169
          CFI (cfiCond378) DPL0 Frame(CFA_SP, 4)
          CFI (cfiCond378) DPH0 Frame(CFA_SP, 5)
          CFI (cfiCond378) CFA_SP SP+-7
          CFI Block cfiCond379 Using cfiCommon0
          CFI (cfiCond379) Function ZDSecMgrAppKeyReq
          CFI (cfiCond379) Conditional ??CrossCallReturnLabel_170
          CFI (cfiCond379) R6 load(1, XDATA, add(CFA_XSP16, literal(-10)))
          CFI (cfiCond379) VB load(1, XDATA, add(CFA_XSP16, literal(-9)))
          CFI (cfiCond379) V0 load(1, XDATA, add(CFA_XSP16, literal(-8)))
          CFI (cfiCond379) V1 load(1, XDATA, add(CFA_XSP16, literal(-7)))
          CFI (cfiCond379) R7 load(1, XDATA, add(CFA_XSP16, literal(-6)))
          CFI (cfiCond379) ?RET_LOW load(1, XDATA, add(CFA_XSP16, literal(-5)))
          CFI (cfiCond379) ?RET_HIGH load(1, XDATA, add(CFA_XSP16, literal(-4)))
          CFI (cfiCond379) ?BRET_EXT load(1, XDATA, add(CFA_XSP16, literal(-3)))
          CFI (cfiCond379) DPL0 load(1, XDATA, add(CFA_XSP16, literal(-2)))
          CFI (cfiCond379) DPH0 load(1, XDATA, add(CFA_XSP16, literal(-1)))
          CFI (cfiCond379) CFA_SP SP+-2
          CFI (cfiCond379) CFA_XSP16 add(XSP16, 49)
          CFI Block cfiCond380 Using cfiCommon0
          CFI (cfiCond380) Function ZDSecMgrDeviceRemove
          CFI (cfiCond380) Conditional ??CrossCallReturnLabel_171
          CFI (cfiCond380) R6 load(1, XDATA, add(CFA_XSP16, literal(-10)))
          CFI (cfiCond380) VB load(1, XDATA, add(CFA_XSP16, literal(-9)))
          CFI (cfiCond380) V0 load(1, XDATA, add(CFA_XSP16, literal(-8)))
          CFI (cfiCond380) V1 load(1, XDATA, add(CFA_XSP16, literal(-7)))
          CFI (cfiCond380) R7 load(1, XDATA, add(CFA_XSP16, literal(-6)))
          CFI (cfiCond380) ?RET_LOW load(1, XDATA, add(CFA_XSP16, literal(-5)))
          CFI (cfiCond380) ?RET_HIGH load(1, XDATA, add(CFA_XSP16, literal(-4)))
          CFI (cfiCond380) ?BRET_EXT load(1, XDATA, add(CFA_XSP16, literal(-3)))
          CFI (cfiCond380) DPL0 load(1, XDATA, add(CFA_XSP16, literal(-2)))
          CFI (cfiCond380) DPH0 load(1, XDATA, add(CFA_XSP16, literal(-1)))
          CFI (cfiCond380) CFA_SP SP+-2
          CFI (cfiCond380) CFA_XSP16 add(XSP16, 20)
          CFI Block cfiCond381 Using cfiCommon0
          CFI (cfiCond381) Function ZDSecMgrDeviceRemove
          CFI (cfiCond381) Conditional ??CrossCallReturnLabel_172
          CFI (cfiCond381) R6 load(1, XDATA, add(CFA_XSP16, literal(-10)))
          CFI (cfiCond381) VB load(1, XDATA, add(CFA_XSP16, literal(-9)))
          CFI (cfiCond381) V0 load(1, XDATA, add(CFA_XSP16, literal(-8)))
          CFI (cfiCond381) V1 load(1, XDATA, add(CFA_XSP16, literal(-7)))
          CFI (cfiCond381) R7 load(1, XDATA, add(CFA_XSP16, literal(-6)))
          CFI (cfiCond381) ?RET_LOW load(1, XDATA, add(CFA_XSP16, literal(-5)))
          CFI (cfiCond381) ?RET_HIGH load(1, XDATA, add(CFA_XSP16, literal(-4)))
          CFI (cfiCond381) ?BRET_EXT load(1, XDATA, add(CFA_XSP16, literal(-3)))
          CFI (cfiCond381) DPL0 load(1, XDATA, add(CFA_XSP16, literal(-2)))
          CFI (cfiCond381) DPH0 load(1, XDATA, add(CFA_XSP16, literal(-1)))
          CFI (cfiCond381) CFA_SP SP+-2
          CFI (cfiCond381) CFA_XSP16 add(XSP16, 20)
          CFI Block cfiCond382 Using cfiCommon0
          CFI (cfiCond382) Function ZDSecMgrDeviceRemove
          CFI (cfiCond382) Conditional ??CrossCallReturnLabel_173
          CFI (cfiCond382) R6 load(1, XDATA, add(CFA_XSP16, literal(-10)))
          CFI (cfiCond382) VB load(1, XDATA, add(CFA_XSP16, literal(-9)))
          CFI (cfiCond382) V0 load(1, XDATA, add(CFA_XSP16, literal(-8)))
          CFI (cfiCond382) V1 load(1, XDATA, add(CFA_XSP16, literal(-7)))
          CFI (cfiCond382) R7 load(1, XDATA, add(CFA_XSP16, literal(-6)))
          CFI (cfiCond382) ?RET_LOW load(1, XDATA, add(CFA_XSP16, literal(-5)))
          CFI (cfiCond382) ?RET_HIGH load(1, XDATA, add(CFA_XSP16, literal(-4)))
          CFI (cfiCond382) ?BRET_EXT load(1, XDATA, add(CFA_XSP16, literal(-3)))
          CFI (cfiCond382) DPL0 load(1, XDATA, add(CFA_XSP16, literal(-2)))
          CFI (cfiCond382) DPH0 load(1, XDATA, add(CFA_XSP16, literal(-1)))
          CFI (cfiCond382) CFA_SP SP+-2
          CFI (cfiCond382) CFA_XSP16 add(XSP16, 20)
          CFI Block cfiCond383 Using cfiCommon0
          CFI (cfiCond383) Function ZDSecMgrDeviceJoin
          CFI (cfiCond383) Conditional ??CrossCallReturnLabel_174
          CFI (cfiCond383) R6 load(1, XDATA, add(CFA_XSP16, literal(-13)))
          CFI (cfiCond383) VB load(1, XDATA, add(CFA_XSP16, literal(-12)))
          CFI (cfiCond383) V0 load(1, XDATA, add(CFA_XSP16, literal(-11)))
          CFI (cfiCond383) V1 load(1, XDATA, add(CFA_XSP16, literal(-10)))
          CFI (cfiCond383) V2 load(1, XDATA, add(CFA_XSP16, literal(-9)))
          CFI (cfiCond383) V3 load(1, XDATA, add(CFA_XSP16, literal(-8)))
          CFI (cfiCond383) V4 load(1, XDATA, add(CFA_XSP16, literal(-7)))
          CFI (cfiCond383) R7 load(1, XDATA, add(CFA_XSP16, literal(-6)))
          CFI (cfiCond383) ?RET_LOW load(1, XDATA, add(CFA_XSP16, literal(-5)))
          CFI (cfiCond383) ?RET_HIGH load(1, XDATA, add(CFA_XSP16, literal(-4)))
          CFI (cfiCond383) ?BRET_EXT load(1, XDATA, add(CFA_XSP16, literal(-3)))
          CFI (cfiCond383) DPL0 load(1, XDATA, add(CFA_XSP16, literal(-2)))
          CFI (cfiCond383) DPH0 load(1, XDATA, add(CFA_XSP16, literal(-1)))
          CFI (cfiCond383) CFA_SP SP+-2
          CFI (cfiCond383) CFA_XSP16 add(XSP16, 38)
          CFI Block cfiCond384 Using cfiCommon0
          CFI (cfiCond384) Function ZDSecMgrDeviceJoinDirect
          CFI (cfiCond384) Conditional ??CrossCallReturnLabel_175
          CFI (cfiCond384) R6 load(1, XDATA, add(CFA_XSP16, literal(-12)))
          CFI (cfiCond384) VB load(1, XDATA, add(CFA_XSP16, literal(-11)))
          CFI (cfiCond384) V0 load(1, XDATA, add(CFA_XSP16, literal(-10)))
          CFI (cfiCond384) V1 load(1, XDATA, add(CFA_XSP16, literal(-9)))
          CFI (cfiCond384) V2 load(1, XDATA, add(CFA_XSP16, literal(-8)))
          CFI (cfiCond384) V3 load(1, XDATA, add(CFA_XSP16, literal(-7)))
          CFI (cfiCond384) R7 load(1, XDATA, add(CFA_XSP16, literal(-6)))
          CFI (cfiCond384) ?RET_LOW load(1, XDATA, add(CFA_XSP16, literal(-5)))
          CFI (cfiCond384) ?RET_HIGH load(1, XDATA, add(CFA_XSP16, literal(-4)))
          CFI (cfiCond384) ?BRET_EXT load(1, XDATA, add(CFA_XSP16, literal(-3)))
          CFI (cfiCond384) DPL0 load(1, XDATA, add(CFA_XSP16, literal(-2)))
          CFI (cfiCond384) DPH0 load(1, XDATA, add(CFA_XSP16, literal(-1)))
          CFI (cfiCond384) CFA_SP SP+-2
          CFI (cfiCond384) CFA_XSP16 add(XSP16, 12)
          CFI Block cfiCond385 Using cfiCommon0
          CFI (cfiCond385) Function ZDSecMgrDeviceJoinFwd
          CFI (cfiCond385) Conditional ??CrossCallReturnLabel_176
          CFI (cfiCond385) R6 load(1, XDATA, add(CFA_XSP16, literal(-10)))
          CFI (cfiCond385) VB load(1, XDATA, add(CFA_XSP16, literal(-9)))
          CFI (cfiCond385) V0 load(1, XDATA, add(CFA_XSP16, literal(-8)))
          CFI (cfiCond385) V1 load(1, XDATA, add(CFA_XSP16, literal(-7)))
          CFI (cfiCond385) R7 load(1, XDATA, add(CFA_XSP16, literal(-6)))
          CFI (cfiCond385) ?RET_LOW load(1, XDATA, add(CFA_XSP16, literal(-5)))
          CFI (cfiCond385) ?RET_HIGH load(1, XDATA, add(CFA_XSP16, literal(-4)))
          CFI (cfiCond385) ?BRET_EXT load(1, XDATA, add(CFA_XSP16, literal(-3)))
          CFI (cfiCond385) DPL0 load(1, XDATA, add(CFA_XSP16, literal(-2)))
          CFI (cfiCond385) DPH0 load(1, XDATA, add(CFA_XSP16, literal(-1)))
          CFI (cfiCond385) CFA_SP SP+-2
          CFI (cfiCond385) CFA_XSP16 add(XSP16, 18)
          CFI Block cfiCond386 Using cfiCommon0
          CFI (cfiCond386) Function ZDSecMgrDeviceNew
          CFI (cfiCond386) Conditional ??CrossCallReturnLabel_177
          CFI (cfiCond386) R6 load(1, XDATA, add(CFA_XSP16, literal(-12)))
          CFI (cfiCond386) VB load(1, XDATA, add(CFA_XSP16, literal(-11)))
          CFI (cfiCond386) V0 load(1, XDATA, add(CFA_XSP16, literal(-10)))
          CFI (cfiCond386) V1 load(1, XDATA, add(CFA_XSP16, literal(-9)))
          CFI (cfiCond386) V2 load(1, XDATA, add(CFA_XSP16, literal(-8)))
          CFI (cfiCond386) V3 load(1, XDATA, add(CFA_XSP16, literal(-7)))
          CFI (cfiCond386) R7 load(1, XDATA, add(CFA_XSP16, literal(-6)))
          CFI (cfiCond386) ?RET_LOW load(1, XDATA, add(CFA_XSP16, literal(-5)))
          CFI (cfiCond386) ?RET_HIGH load(1, XDATA, add(CFA_XSP16, literal(-4)))
          CFI (cfiCond386) ?BRET_EXT load(1, XDATA, add(CFA_XSP16, literal(-3)))
          CFI (cfiCond386) DPL0 load(1, XDATA, add(CFA_XSP16, literal(-2)))
          CFI (cfiCond386) DPH0 load(1, XDATA, add(CFA_XSP16, literal(-1)))
          CFI (cfiCond386) CFA_SP SP+-2
          CFI (cfiCond386) CFA_XSP16 add(XSP16, 12)
          CFI Block cfiCond387 Using cfiCommon0
          CFI (cfiCond387) Function ZDSecMgrNewDeviceEvent
          CFI (cfiCond387) Conditional ??CrossCallReturnLabel_178
          CFI (cfiCond387) R6 load(1, XDATA, add(CFA_XSP16, literal(-14)))
          CFI (cfiCond387) VB load(1, XDATA, add(CFA_XSP16, literal(-13)))
          CFI (cfiCond387) V0 load(1, XDATA, add(CFA_XSP16, literal(-12)))
          CFI (cfiCond387) V1 load(1, XDATA, add(CFA_XSP16, literal(-11)))
          CFI (cfiCond387) V2 load(1, XDATA, add(CFA_XSP16, literal(-10)))
          CFI (cfiCond387) V3 load(1, XDATA, add(CFA_XSP16, literal(-9)))
          CFI (cfiCond387) V4 load(1, XDATA, add(CFA_XSP16, literal(-8)))
          CFI (cfiCond387) V5 load(1, XDATA, add(CFA_XSP16, literal(-7)))
          CFI (cfiCond387) R7 load(1, XDATA, add(CFA_XSP16, literal(-6)))
          CFI (cfiCond387) ?RET_LOW load(1, XDATA, add(CFA_XSP16, literal(-5)))
          CFI (cfiCond387) ?RET_HIGH load(1, XDATA, add(CFA_XSP16, literal(-4)))
          CFI (cfiCond387) ?BRET_EXT load(1, XDATA, add(CFA_XSP16, literal(-3)))
          CFI (cfiCond387) DPL0 load(1, XDATA, add(CFA_XSP16, literal(-2)))
          CFI (cfiCond387) DPH0 load(1, XDATA, add(CFA_XSP16, literal(-1)))
          CFI (cfiCond387) CFA_SP SP+-2
          CFI (cfiCond387) CFA_XSP16 add(XSP16, 35)
          CFI Block cfiCond388 Using cfiCommon0
          CFI (cfiCond388) Function APSME_LinkKeySet
          CFI (cfiCond388) Conditional ??CrossCallReturnLabel_179
          CFI (cfiCond388) R6 load(1, XDATA, add(CFA_XSP16, literal(-19)))
          CFI (cfiCond388) VB load(1, XDATA, add(CFA_XSP16, literal(-18)))
          CFI (cfiCond388) V0 load(1, XDATA, add(CFA_XSP16, literal(-17)))
          CFI (cfiCond388) V1 load(1, XDATA, add(CFA_XSP16, literal(-16)))
          CFI (cfiCond388) V2 load(1, XDATA, add(CFA_XSP16, literal(-15)))
          CFI (cfiCond388) V3 load(1, XDATA, add(CFA_XSP16, literal(-14)))
          CFI (cfiCond388) V4 load(1, XDATA, add(CFA_XSP16, literal(-13)))
          CFI (cfiCond388) V5 load(1, XDATA, add(CFA_XSP16, literal(-12)))
          CFI (cfiCond388) V6 load(1, XDATA, add(CFA_XSP16, literal(-11)))
          CFI (cfiCond388) V7 load(1, XDATA, add(CFA_XSP16, literal(-10)))
          CFI (cfiCond388) V8 load(1, XDATA, add(CFA_XSP16, literal(-9)))
          CFI (cfiCond388) V9 load(1, XDATA, add(CFA_XSP16, literal(-8)))
          CFI (cfiCond388) V10 load(1, XDATA, add(CFA_XSP16, literal(-7)))
          CFI (cfiCond388) R7 load(1, XDATA, add(CFA_XSP16, literal(-6)))
          CFI (cfiCond388) ?RET_LOW load(1, XDATA, add(CFA_XSP16, literal(-5)))
          CFI (cfiCond388) ?RET_HIGH load(1, XDATA, add(CFA_XSP16, literal(-4)))
          CFI (cfiCond388) ?BRET_EXT load(1, XDATA, add(CFA_XSP16, literal(-3)))
          CFI (cfiCond388) DPL0 load(1, XDATA, add(CFA_XSP16, literal(-2)))
          CFI (cfiCond388) DPH0 load(1, XDATA, add(CFA_XSP16, literal(-1)))
          CFI (cfiCond388) CFA_SP SP+-2
          CFI (cfiCond388) CFA_XSP16 add(XSP16, 36)
          CFI Block cfiCond389 Using cfiCommon0
          CFI (cfiCond389) Function APSME_LinkKeySet
          CFI (cfiCond389) Conditional ??CrossCallReturnLabel_180
          CFI (cfiCond389) R6 load(1, XDATA, add(CFA_XSP16, literal(-19)))
          CFI (cfiCond389) VB load(1, XDATA, add(CFA_XSP16, literal(-18)))
          CFI (cfiCond389) V0 load(1, XDATA, add(CFA_XSP16, literal(-17)))
          CFI (cfiCond389) V1 load(1, XDATA, add(CFA_XSP16, literal(-16)))
          CFI (cfiCond389) V2 load(1, XDATA, add(CFA_XSP16, literal(-15)))
          CFI (cfiCond389) V3 load(1, XDATA, add(CFA_XSP16, literal(-14)))
          CFI (cfiCond389) V4 load(1, XDATA, add(CFA_XSP16, literal(-13)))
          CFI (cfiCond389) V5 load(1, XDATA, add(CFA_XSP16, literal(-12)))
          CFI (cfiCond389) V6 load(1, XDATA, add(CFA_XSP16, literal(-11)))
          CFI (cfiCond389) V7 load(1, XDATA, add(CFA_XSP16, literal(-10)))
          CFI (cfiCond389) V8 load(1, XDATA, add(CFA_XSP16, literal(-9)))
          CFI (cfiCond389) V9 load(1, XDATA, add(CFA_XSP16, literal(-8)))
          CFI (cfiCond389) V10 load(1, XDATA, add(CFA_XSP16, literal(-7)))
          CFI (cfiCond389) R7 load(1, XDATA, add(CFA_XSP16, literal(-6)))
          CFI (cfiCond389) ?RET_LOW load(1, XDATA, add(CFA_XSP16, literal(-5)))
          CFI (cfiCond389) ?RET_HIGH load(1, XDATA, add(CFA_XSP16, literal(-4)))
          CFI (cfiCond389) ?BRET_EXT load(1, XDATA, add(CFA_XSP16, literal(-3)))
          CFI (cfiCond389) DPL0 load(1, XDATA, add(CFA_XSP16, literal(-2)))
          CFI (cfiCond389) DPH0 load(1, XDATA, add(CFA_XSP16, literal(-1)))
          CFI (cfiCond389) CFA_SP SP+-2
          CFI (cfiCond389) CFA_XSP16 add(XSP16, 36)
          CFI Block cfiCond390 Using cfiCommon0
          CFI (cfiCond390) Function APSME_KeyFwdToChild
          CFI (cfiCond390) Conditional ??CrossCallReturnLabel_181
          CFI (cfiCond390) R6 load(1, XDATA, add(CFA_XSP16, literal(-10)))
          CFI (cfiCond390) VB load(1, XDATA, add(CFA_XSP16, literal(-9)))
          CFI (cfiCond390) V0 load(1, XDATA, add(CFA_XSP16, literal(-8)))
          CFI (cfiCond390) V1 load(1, XDATA, add(CFA_XSP16, literal(-7)))
          CFI (cfiCond390) R7 load(1, XDATA, add(CFA_XSP16, literal(-6)))
          CFI (cfiCond390) ?RET_LOW load(1, XDATA, add(CFA_XSP16, literal(-5)))
          CFI (cfiCond390) ?RET_HIGH load(1, XDATA, add(CFA_XSP16, literal(-4)))
          CFI (cfiCond390) ?BRET_EXT load(1, XDATA, add(CFA_XSP16, literal(-3)))
          CFI (cfiCond390) DPL0 load(1, XDATA, add(CFA_XSP16, literal(-2)))
          CFI (cfiCond390) DPH0 load(1, XDATA, add(CFA_XSP16, literal(-1)))
          CFI (cfiCond390) CFA_SP SP+-2
          CFI (cfiCond390) CFA_XSP16 add(XSP16, 10)
          CFI Block cfiCond391 Using cfiCommon0
          CFI (cfiCond391) Function ZDSecMgrEntryLookup
          CFI (cfiCond391) Conditional ??CrossCallReturnLabel_182
          CFI (cfiCond391) R6 load(1, XDATA, add(CFA_XSP16, literal(-9)))
          CFI (cfiCond391) VB load(1, XDATA, add(CFA_XSP16, literal(-8)))
          CFI (cfiCond391) V0 load(1, XDATA, add(CFA_XSP16, literal(-7)))
          CFI (cfiCond391) R7 load(1, XDATA, add(CFA_XSP16, literal(-6)))
          CFI (cfiCond391) ?RET_LOW load(1, XDATA, add(CFA_XSP16, literal(-5)))
          CFI (cfiCond391) ?RET_HIGH load(1, XDATA, add(CFA_XSP16, literal(-4)))
          CFI (cfiCond391) ?BRET_EXT load(1, XDATA, add(CFA_XSP16, literal(-3)))
          CFI (cfiCond391) DPL0 load(1, XDATA, add(CFA_XSP16, literal(-2)))
          CFI (cfiCond391) DPH0 load(1, XDATA, add(CFA_XSP16, literal(-1)))
          CFI (cfiCond391) CFA_SP SP+-2
          CFI (cfiCond391) CFA_XSP16 add(XSP16, 22)
          CFI Block cfiCond392 Using cfiCommon0
          CFI (cfiCond392) Function ZDSecMgrEntryLookupAMI
          CFI (cfiCond392) Conditional ??CrossCallReturnLabel_183
          CFI (cfiCond392) R6 load(1, XDATA, add(CFA_XSP16, literal(-9)))
          CFI (cfiCond392) VB load(1, XDATA, add(CFA_XSP16, literal(-8)))
          CFI (cfiCond392) V0 load(1, XDATA, add(CFA_XSP16, literal(-7)))
          CFI (cfiCond392) R7 load(1, XDATA, add(CFA_XSP16, literal(-6)))
          CFI (cfiCond392) ?RET_LOW load(1, XDATA, add(CFA_XSP16, literal(-5)))
          CFI (cfiCond392) ?RET_HIGH load(1, XDATA, add(CFA_XSP16, literal(-4)))
          CFI (cfiCond392) ?BRET_EXT load(1, XDATA, add(CFA_XSP16, literal(-3)))
          CFI (cfiCond392) DPL0 load(1, XDATA, add(CFA_XSP16, literal(-2)))
          CFI (cfiCond392) DPH0 load(1, XDATA, add(CFA_XSP16, literal(-1)))
          CFI (cfiCond392) CFA_SP SP+-2
          CFI (cfiCond392) CFA_XSP16 add(XSP16, 9)
          CFI Block cfiCond393 Using cfiCommon0
          CFI (cfiCond393) Function ZDSecMgrEntryLookupExt
          CFI (cfiCond393) Conditional ??CrossCallReturnLabel_184
          CFI (cfiCond393) R6 load(1, XDATA, add(CFA_XSP16, literal(-10)))
          CFI (cfiCond393) VB load(1, XDATA, add(CFA_XSP16, literal(-9)))
          CFI (cfiCond393) V0 load(1, XDATA, add(CFA_XSP16, literal(-8)))
          CFI (cfiCond393) V1 load(1, XDATA, add(CFA_XSP16, literal(-7)))
          CFI (cfiCond393) R7 load(1, XDATA, add(CFA_XSP16, literal(-6)))
          CFI (cfiCond393) ?RET_LOW load(1, XDATA, add(CFA_XSP16, literal(-5)))
          CFI (cfiCond393) ?RET_HIGH load(1, XDATA, add(CFA_XSP16, literal(-4)))
          CFI (cfiCond393) ?BRET_EXT load(1, XDATA, add(CFA_XSP16, literal(-3)))
          CFI (cfiCond393) DPL0 load(1, XDATA, add(CFA_XSP16, literal(-2)))
          CFI (cfiCond393) DPH0 load(1, XDATA, add(CFA_XSP16, literal(-1)))
          CFI (cfiCond393) CFA_SP SP+-2
          CFI (cfiCond393) CFA_XSP16 add(XSP16, 23)
          CFI Block cfiCond394 Using cfiCommon0
          CFI (cfiCond394) Function ZDSecMgrEntryLookupExtGetIndex
          CFI (cfiCond394) Conditional ??CrossCallReturnLabel_185
          CFI (cfiCond394) R6 load(1, XDATA, add(CFA_XSP16, literal(-9)))
          CFI (cfiCond394) VB load(1, XDATA, add(CFA_XSP16, literal(-8)))
          CFI (cfiCond394) V0 load(1, XDATA, add(CFA_XSP16, literal(-7)))
          CFI (cfiCond394) R7 load(1, XDATA, add(CFA_XSP16, literal(-6)))
          CFI (cfiCond394) ?RET_LOW load(1, XDATA, add(CFA_XSP16, literal(-5)))
          CFI (cfiCond394) ?RET_HIGH load(1, XDATA, add(CFA_XSP16, literal(-4)))
          CFI (cfiCond394) ?BRET_EXT load(1, XDATA, add(CFA_XSP16, literal(-3)))
          CFI (cfiCond394) DPL0 load(1, XDATA, add(CFA_XSP16, literal(-2)))
          CFI (cfiCond394) DPH0 load(1, XDATA, add(CFA_XSP16, literal(-1)))
          CFI (cfiCond394) CFA_SP SP+-2
          CFI (cfiCond394) CFA_XSP16 add(XSP16, 22)
          CFI Block cfiCond395 Using cfiCommon0
          CFI (cfiCond395) Function ZDSecMgrDeviceRemoveByExtAddr
          CFI (cfiCond395) Conditional ??CrossCallReturnLabel_186
          CFI (cfiCond395) R6 load(1, XDATA, add(CFA_XSP16, literal(-9)))
          CFI (cfiCond395) VB load(1, XDATA, add(CFA_XSP16, literal(-8)))
          CFI (cfiCond395) V0 load(1, XDATA, add(CFA_XSP16, literal(-7)))
          CFI (cfiCond395) R7 load(1, XDATA, add(CFA_XSP16, literal(-6)))
          CFI (cfiCond395) ?RET_LOW load(1, XDATA, add(CFA_XSP16, literal(-5)))
          CFI (cfiCond395) ?RET_HIGH load(1, XDATA, add(CFA_XSP16, literal(-4)))
          CFI (cfiCond395) ?BRET_EXT load(1, XDATA, add(CFA_XSP16, literal(-3)))
          CFI (cfiCond395) DPL0 load(1, XDATA, add(CFA_XSP16, literal(-2)))
          CFI (cfiCond395) DPH0 load(1, XDATA, add(CFA_XSP16, literal(-1)))
          CFI (cfiCond395) CFA_SP SP+-2
          CFI (cfiCond395) CFA_XSP16 add(XSP16, 22)
          CFI Block cfiCond396 Using cfiCommon0
          CFI (cfiCond396) Function APSME_LinkKeySet
          CFI (cfiCond396) Conditional ??CrossCallReturnLabel_187
          CFI (cfiCond396) R6 load(1, XDATA, add(CFA_XSP16, literal(-19)))
          CFI (cfiCond396) VB load(1, XDATA, add(CFA_XSP16, literal(-18)))
          CFI (cfiCond396) V0 load(1, XDATA, add(CFA_XSP16, literal(-17)))
          CFI (cfiCond396) V1 load(1, XDATA, add(CFA_XSP16, literal(-16)))
          CFI (cfiCond396) V2 load(1, XDATA, add(CFA_XSP16, literal(-15)))
          CFI (cfiCond396) V3 load(1, XDATA, add(CFA_XSP16, literal(-14)))
          CFI (cfiCond396) V4 load(1, XDATA, add(CFA_XSP16, literal(-13)))
          CFI (cfiCond396) V5 load(1, XDATA, add(CFA_XSP16, literal(-12)))
          CFI (cfiCond396) V6 load(1, XDATA, add(CFA_XSP16, literal(-11)))
          CFI (cfiCond396) V7 load(1, XDATA, add(CFA_XSP16, literal(-10)))
          CFI (cfiCond396) V8 load(1, XDATA, add(CFA_XSP16, literal(-9)))
          CFI (cfiCond396) V9 load(1, XDATA, add(CFA_XSP16, literal(-8)))
          CFI (cfiCond396) V10 load(1, XDATA, add(CFA_XSP16, literal(-7)))
          CFI (cfiCond396) R7 load(1, XDATA, add(CFA_XSP16, literal(-6)))
          CFI (cfiCond396) ?RET_LOW load(1, XDATA, add(CFA_XSP16, literal(-5)))
          CFI (cfiCond396) ?RET_HIGH load(1, XDATA, add(CFA_XSP16, literal(-4)))
          CFI (cfiCond396) ?BRET_EXT load(1, XDATA, add(CFA_XSP16, literal(-3)))
          CFI (cfiCond396) DPL0 load(1, XDATA, add(CFA_XSP16, literal(-2)))
          CFI (cfiCond396) DPH0 load(1, XDATA, add(CFA_XSP16, literal(-1)))
          CFI (cfiCond396) CFA_SP SP+-2
          CFI (cfiCond396) CFA_XSP16 add(XSP16, 32)
          CFI Block cfiCond397 Using cfiCommon0
          CFI (cfiCond397) Function ZDSecMgrAuthenticationSet
          CFI (cfiCond397) Conditional ??CrossCallReturnLabel_188
          CFI (cfiCond397) R6 load(1, XDATA, add(CFA_XSP16, literal(-9)))
          CFI (cfiCond397) VB load(1, XDATA, add(CFA_XSP16, literal(-8)))
          CFI (cfiCond397) V0 load(1, XDATA, add(CFA_XSP16, literal(-7)))
          CFI (cfiCond397) R7 load(1, XDATA, add(CFA_XSP16, literal(-6)))
          CFI (cfiCond397) ?RET_LOW load(1, XDATA, add(CFA_XSP16, literal(-5)))
          CFI (cfiCond397) ?RET_HIGH load(1, XDATA, add(CFA_XSP16, literal(-4)))
          CFI (cfiCond397) ?BRET_EXT load(1, XDATA, add(CFA_XSP16, literal(-3)))
          CFI (cfiCond397) DPL0 load(1, XDATA, add(CFA_XSP16, literal(-2)))
          CFI (cfiCond397) DPH0 load(1, XDATA, add(CFA_XSP16, literal(-1)))
          CFI (cfiCond397) CFA_SP SP+-2
          CFI (cfiCond397) CFA_XSP16 add(XSP16, 22)
          CFI Block cfiCond398 Using cfiCommon0
          CFI (cfiCond398) Function APSME_LinkKeyNVIdGet
          CFI (cfiCond398) Conditional ??CrossCallReturnLabel_189
          CFI (cfiCond398) R6 load(1, XDATA, add(CFA_XSP16, literal(-10)))
          CFI (cfiCond398) VB load(1, XDATA, add(CFA_XSP16, literal(-9)))
          CFI (cfiCond398) V0 load(1, XDATA, add(CFA_XSP16, literal(-8)))
          CFI (cfiCond398) V1 load(1, XDATA, add(CFA_XSP16, literal(-7)))
          CFI (cfiCond398) R7 load(1, XDATA, add(CFA_XSP16, literal(-6)))
          CFI (cfiCond398) ?RET_LOW load(1, XDATA, add(CFA_XSP16, literal(-5)))
          CFI (cfiCond398) ?RET_HIGH load(1, XDATA, add(CFA_XSP16, literal(-4)))
          CFI (cfiCond398) ?BRET_EXT load(1, XDATA, add(CFA_XSP16, literal(-3)))
          CFI (cfiCond398) DPL0 load(1, XDATA, add(CFA_XSP16, literal(-2)))
          CFI (cfiCond398) DPH0 load(1, XDATA, add(CFA_XSP16, literal(-1)))
          CFI (cfiCond398) CFA_SP SP+-2
          CFI (cfiCond398) CFA_XSP16 add(XSP16, 23)
          CFI Block cfiCond399 Using cfiCommon0
          CFI (cfiCond399) Function APSME_IsLinkKeyValid
          CFI (cfiCond399) Conditional ??CrossCallReturnLabel_190
          CFI (cfiCond399) R6 load(1, XDATA, add(CFA_XSP16, literal(-15)))
          CFI (cfiCond399) VB load(1, XDATA, add(CFA_XSP16, literal(-14)))
          CFI (cfiCond399) V0 load(1, XDATA, add(CFA_XSP16, literal(-13)))
          CFI (cfiCond399) V1 load(1, XDATA, add(CFA_XSP16, literal(-12)))
          CFI (cfiCond399) V2 load(1, XDATA, add(CFA_XSP16, literal(-11)))
          CFI (cfiCond399) V3 load(1, XDATA, add(CFA_XSP16, literal(-10)))
          CFI (cfiCond399) V4 load(1, XDATA, add(CFA_XSP16, literal(-9)))
          CFI (cfiCond399) V5 load(1, XDATA, add(CFA_XSP16, literal(-8)))
          CFI (cfiCond399) V6 load(1, XDATA, add(CFA_XSP16, literal(-7)))
          CFI (cfiCond399) R7 load(1, XDATA, add(CFA_XSP16, literal(-6)))
          CFI (cfiCond399) ?RET_LOW load(1, XDATA, add(CFA_XSP16, literal(-5)))
          CFI (cfiCond399) ?RET_HIGH load(1, XDATA, add(CFA_XSP16, literal(-4)))
          CFI (cfiCond399) ?BRET_EXT load(1, XDATA, add(CFA_XSP16, literal(-3)))
          CFI (cfiCond399) DPL0 load(1, XDATA, add(CFA_XSP16, literal(-2)))
          CFI (cfiCond399) DPH0 load(1, XDATA, add(CFA_XSP16, literal(-1)))
          CFI (cfiCond399) CFA_SP SP+-2
          CFI (cfiCond399) CFA_XSP16 add(XSP16, 44)
          CFI Block cfiCond400 Using cfiCommon0
          CFI (cfiCond400) Function ZDSecMgrAddLinkKey
          CFI (cfiCond400) Conditional ??CrossCallReturnLabel_191
          CFI (cfiCond400) R6 load(1, XDATA, add(CFA_XSP16, literal(-9)))
          CFI (cfiCond400) VB load(1, XDATA, add(CFA_XSP16, literal(-8)))
          CFI (cfiCond400) V0 load(1, XDATA, add(CFA_XSP16, literal(-7)))
          CFI (cfiCond400) R7 load(1, XDATA, add(CFA_XSP16, literal(-6)))
          CFI (cfiCond400) ?RET_LOW load(1, XDATA, add(CFA_XSP16, literal(-5)))
          CFI (cfiCond400) ?RET_HIGH load(1, XDATA, add(CFA_XSP16, literal(-4)))
          CFI (cfiCond400) ?BRET_EXT load(1, XDATA, add(CFA_XSP16, literal(-3)))
          CFI (cfiCond400) DPL0 load(1, XDATA, add(CFA_XSP16, literal(-2)))
          CFI (cfiCond400) DPH0 load(1, XDATA, add(CFA_XSP16, literal(-1)))
          CFI (cfiCond400) CFA_SP SP+-2
          CFI (cfiCond400) CFA_XSP16 add(XSP16, 22)
          CFI Block cfiCond401 Using cfiCommon0
          CFI (cfiCond401) Function ZDSecMgrAddLinkKey
          CFI (cfiCond401) Conditional ??CrossCallReturnLabel_192
          CFI (cfiCond401) R6 load(1, XDATA, add(CFA_XSP16, literal(-9)))
          CFI (cfiCond401) VB load(1, XDATA, add(CFA_XSP16, literal(-8)))
          CFI (cfiCond401) V0 load(1, XDATA, add(CFA_XSP16, literal(-7)))
          CFI (cfiCond401) R7 load(1, XDATA, add(CFA_XSP16, literal(-6)))
          CFI (cfiCond401) ?RET_LOW load(1, XDATA, add(CFA_XSP16, literal(-5)))
          CFI (cfiCond401) ?RET_HIGH load(1, XDATA, add(CFA_XSP16, literal(-4)))
          CFI (cfiCond401) ?BRET_EXT load(1, XDATA, add(CFA_XSP16, literal(-3)))
          CFI (cfiCond401) DPL0 load(1, XDATA, add(CFA_XSP16, literal(-2)))
          CFI (cfiCond401) DPH0 load(1, XDATA, add(CFA_XSP16, literal(-1)))
          CFI (cfiCond401) CFA_SP SP+-2
          CFI (cfiCond401) CFA_XSP16 add(XSP16, 22)
          CFI Block cfiPicker402 Using cfiCommon1
          CFI (cfiPicker402) NoFunction
          CFI (cfiPicker402) Picker
        MOVX    A,@DPTR
        MOV     R2,A
        INC     DPTR
        MOVX    A,@DPTR
        MOV     R3,A
        RET
          CFI (cfiCond377) CFA_SP SP+0
          CFI (cfiCond378) CFA_SP SP+-5
          CFI (cfiCond379) CFA_SP SP+0
          CFI (cfiCond380) CFA_SP SP+0
          CFI (cfiCond381) CFA_SP SP+0
          CFI (cfiCond382) CFA_SP SP+0
          CFI (cfiCond383) CFA_SP SP+0
          CFI (cfiCond384) CFA_SP SP+0
          CFI (cfiCond385) CFA_SP SP+0
          CFI (cfiCond386) CFA_SP SP+0
          CFI (cfiCond387) CFA_SP SP+0
          CFI (cfiCond388) CFA_SP SP+0
          CFI (cfiCond389) CFA_SP SP+0
          CFI (cfiCond390) CFA_SP SP+0
          CFI (cfiCond391) CFA_SP SP+0
          CFI (cfiCond392) CFA_SP SP+0
          CFI (cfiCond393) CFA_SP SP+0
          CFI (cfiCond394) CFA_SP SP+0
          CFI (cfiCond395) CFA_SP SP+0
          CFI (cfiCond396) CFA_SP SP+0
          CFI (cfiCond397) CFA_SP SP+0
          CFI (cfiCond398) CFA_SP SP+0
          CFI (cfiCond399) CFA_SP SP+0
          CFI (cfiCond400) CFA_SP SP+0
          CFI (cfiCond401) CFA_SP SP+0
          CFI (cfiPicker402) CFA_SP SP+0
          CFI EndBlock cfiCond377
          CFI EndBlock cfiCond378
          CFI EndBlock cfiCond379
          CFI EndBlock cfiCond380
          CFI EndBlock cfiCond381
          CFI EndBlock cfiCond382
          CFI EndBlock cfiCond383
          CFI EndBlock cfiCond384
          CFI EndBlock cfiCond385
          CFI EndBlock cfiCond386
          CFI EndBlock cfiCond387
          CFI EndBlock cfiCond388
          CFI EndBlock cfiCond389
          CFI EndBlock cfiCond390
          CFI EndBlock cfiCond391
          CFI EndBlock cfiCond392
          CFI EndBlock cfiCond393
          CFI EndBlock cfiCond394
          CFI EndBlock cfiCond395
          CFI EndBlock cfiCond396
          CFI EndBlock cfiCond397
          CFI EndBlock cfiCond398
          CFI EndBlock cfiCond399
          CFI EndBlock cfiCond400
          CFI EndBlock cfiCond401
          CFI EndBlock cfiPicker402
// 2327 
// 2328 /******************************************************************************
// 2329  * @fn          ZDSecMgrAddLinkKey
// 2330  *
// 2331  * @brief       Add the application link key to ZDSecMgr. Also mark the device
// 2332  *              as authenticated in the authenticateOption. Note that this function
// 2333  *              is hardwared to CBKE right now.
// 2334  *
// 2335  * @param       shortAddr - short address of the partner device
// 2336  * @param       extAddr - extended address of the partner device
// 2337  * @param       key - link key
// 2338  *
// 2339  * @return      ZStatus_t
// 2340  */

        RSEG BANKED_CODE:CODE:NOROOT(0)
// 2341 ZStatus_t ZDSecMgrAddLinkKey( uint16 shortAddr, uint8 *extAddr, uint8 *key)
ZDSecMgrAddLinkKey:
          CFI Block cfiBlock403 Using cfiCommon0
          CFI Function ZDSecMgrAddLinkKey
        CODE
// 2342 {
        FUNCALL ZDSecMgrAddLinkKey, AddrMgrExtAddrSet
        LOCFRAME ISTACK, 0, STACK
        LOCFRAME PSTACK, 0, STACK
        LOCFRAME XSTACK, 22, STACK
        LOCFRAME IOVERLAY, 0, STATIC
        LOCFRAME DOVERLAY, 0, STATIC
        ARGFRAME ISTACK, 0, STACK
        ARGFRAME PSTACK, 0, STACK
        ARGFRAME XSTACK, 22, STACK
        ARGFRAME IOVERLAY, 0, STATIC
        ARGFRAME DOVERLAY, 0, STATIC
        FUNCALL ZDSecMgrAddLinkKey, AddrMgrEntryUpdate
        LOCFRAME ISTACK, 0, STACK
        LOCFRAME PSTACK, 0, STACK
        LOCFRAME XSTACK, 22, STACK
        LOCFRAME IOVERLAY, 0, STATIC
        LOCFRAME DOVERLAY, 0, STATIC
        ARGFRAME ISTACK, 0, STACK
        ARGFRAME PSTACK, 0, STACK
        ARGFRAME XSTACK, 22, STACK
        ARGFRAME IOVERLAY, 0, STATIC
        ARGFRAME DOVERLAY, 0, STATIC
        FUNCALL ZDSecMgrAddLinkKey, APSME_LinkKeySet
        LOCFRAME ISTACK, 0, STACK
        LOCFRAME PSTACK, 0, STACK
        LOCFRAME XSTACK, 22, STACK
        LOCFRAME IOVERLAY, 0, STATIC
        LOCFRAME DOVERLAY, 0, STATIC
        ARGFRAME ISTACK, 0, STACK
        ARGFRAME PSTACK, 0, STACK
        ARGFRAME XSTACK, 22, STACK
        ARGFRAME IOVERLAY, 0, STATIC
        ARGFRAME DOVERLAY, 0, STATIC
        REQUIRE ?V0
        MOV     A,#-0x9
        LCALL   ?BANKED_ENTER_XDATA
          CFI DPH0 load(1, XDATA, add(CFA_XSP16, literal(-1)))
          CFI DPL0 load(1, XDATA, add(CFA_XSP16, literal(-2)))
          CFI ?BRET_EXT load(1, XDATA, add(CFA_XSP16, literal(-3)))
          CFI ?RET_HIGH load(1, XDATA, add(CFA_XSP16, literal(-4)))
          CFI ?RET_LOW load(1, XDATA, add(CFA_XSP16, literal(-5)))
          CFI R7 load(1, XDATA, add(CFA_XSP16, literal(-6)))
          CFI V0 load(1, XDATA, add(CFA_XSP16, literal(-7)))
          CFI VB load(1, XDATA, add(CFA_XSP16, literal(-8)))
          CFI R6 load(1, XDATA, add(CFA_XSP16, literal(-9)))
          CFI CFA_SP SP+0
          CFI CFA_XSP16 add(XSP16, 9)
        ; Saved register size: 9
        ; Auto size: 13
        MOV     A,#-0xd
        LCALL   ?ALLOC_XSTACK8
          CFI CFA_XSP16 add(XSP16, 22)
        MOV     A,R4
        MOV     R6,A
        MOV     A,R5
        MOV     R7,A
// 2343   uint16           ami;
// 2344   ZDSecMgrEntry_t* entry;
// 2345 
// 2346   /* Store the device address in the addr manager */
// 2347   if( ZDSecMgrAddrStore( shortAddr, extAddr, &ami ) != ZSuccess )
        MOV     DPL,?XSP + 0
        MOV     DPH,?XSP + 1
        MOV     A,#0x2
        MOVX    @DPTR,A
        DEC     A
        LCALL   ?XSTACK_DISP0_8
        LCALL   ?Subroutine18 & 0xFFFF
??CrossCallReturnLabel_7:
        LCALL   ?XSTACK_DISP0_8
        MOV     R2,DPL
        MOV     R3,DPH
        LCALL   `??AddrMgrExtAddrSet::?relay`; Banked call to: AddrMgrExtAddrSet
        ; Setup parameters for call to function AddrMgrEntryUpdate
        MOV     R2,?XSP + 0
        MOV     R3,?XSP + 1
        LCALL   `??AddrMgrEntryUpdate::?relay`; Banked call to: AddrMgrEntryUpdate
        MOV     A,R1
        XRL     A,#0x1
        JNZ     ??ZDSecMgrAddLinkKey_0
        MOV     A,#0xb
        LCALL   ?XSTACK_DISP0_8
        LCALL   ?Subroutine24 & 0xFFFF
??CrossCallReturnLabel_14:
        JZ      ??ZDSecMgrAddLinkKey_1
        LCALL   ?Subroutine25 & 0xFFFF
??CrossCallReturnLabel_191:
        MOV     DPL,R2
        MOV     DPH,R3
        MOVX    A,@DPTR
        XRL     A,R4
        JNZ     ??ZDSecMgrAddLinkKey_2
        INC     DPTR
        MOVX    A,@DPTR
        XRL     A,R5
??ZDSecMgrAddLinkKey_2:
        JZ      ??ZDSecMgrAddLinkKey_3
        INC     R0
        MOV     A,R0
        JNZ     ??ZDSecMgrAddLinkKey_4
        INC     R1
??ZDSecMgrAddLinkKey_4:
        MOV     A,R2
        ADD     A,#0x5
        MOV     R2,A
        JNC     ??ZDSecMgrAddLinkKey_5
        INC     R3
??ZDSecMgrAddLinkKey_5:
        LCALL   ?Subroutine37 & 0xFFFF
??CrossCallReturnLabel_54:
        JNC     ??ZDSecMgrAddLinkKey_6
        SJMP    ??CrossCallReturnLabel_191
// 2348   {
// 2349     /* Adding to Addr Manager fails */
// 2350     return ZFailure;
??ZDSecMgrAddLinkKey_0:
        MOV     R1,#0x1
        SJMP    ??ZDSecMgrAddLinkKey_7
// 2351   }
// 2352 
// 2353   /* Lookup entry using specified address index */
// 2354   ZDSecMgrEntryLookupAMI( ami, &entry );
// 2355 
// 2356   // If no existing entry, create one
// 2357   if ( entry == NULL )
??ZDSecMgrAddLinkKey_3:
        LCALL   ?Subroutine27 & 0xFFFF
??CrossCallReturnLabel_22:
        MOV     A,R0
        ORL     A,R1
        JNZ     ??ZDSecMgrAddLinkKey_8
??ZDSecMgrAddLinkKey_6:
        LCALL   ?Subroutine25 & 0xFFFF
??CrossCallReturnLabel_192:
        MOV     DPL,R2
        MOV     DPH,R3
        MOVX    A,@DPTR
        XRL     A,#0xfe
        JNZ     ??ZDSecMgrAddLinkKey_9
        INC     DPTR
        MOVX    A,@DPTR
        CPL     A
??ZDSecMgrAddLinkKey_9:
        JZ      ??ZDSecMgrAddLinkKey_10
        INC     R0
        MOV     A,R0
        JNZ     ??ZDSecMgrAddLinkKey_11
        INC     R1
??ZDSecMgrAddLinkKey_11:
        MOV     A,R2
        ADD     A,#0x5
        MOV     R2,A
        JNC     ??ZDSecMgrAddLinkKey_12
        INC     R3
??ZDSecMgrAddLinkKey_12:
        LCALL   ?Subroutine37 & 0xFFFF
??CrossCallReturnLabel_55:
        JC      ??CrossCallReturnLabel_192
// 2358   {
// 2359     if ( ZDSecMgrEntryNew( &entry ) == ZSuccess )
// 2360     {
// 2361       entry->ami = ami;
// 2362     }
// 2363     else
// 2364     {
// 2365       /* Security Manager full */
// 2366       return ZBufferFull;
??ZDSecMgrAddLinkKey_1:
        MOV     R1,#0x11
        SJMP    ??ZDSecMgrAddLinkKey_7
// 2367     }
// 2368   }
??ZDSecMgrAddLinkKey_10:
        LCALL   ?Subroutine27 & 0xFFFF
??CrossCallReturnLabel_23:
        MOV     DPL,R0
        MOV     DPH,R1
        INC     DPTR
        INC     DPTR
        INC     DPTR
        INC     DPTR
        LCALL   ?Subroutine23 & 0xFFFF
??CrossCallReturnLabel_90:
        MOV     A,R4
        MOVX    @DPTR,A
        INC     DPTR
        MOV     A,R5
        MOVX    @DPTR,A
// 2369   // Write the link key
// 2370   APSME_LinkKeySet( extAddr, key );
??ZDSecMgrAddLinkKey_8:
        ; Setup parameters for call to function APSME_LinkKeySet
        MOV     A,#0x16
        LCALL   ?XSTACK_DISP0_8
        LCALL   ?Subroutine34 & 0xFFFF
??CrossCallReturnLabel_40:
        MOV     A,R6
        MOV     R2,A
        MOV     A,R7
        MOV     R3,A
        LCALL   `??APSME_LinkKeySet::?relay`; Banked call to: APSME_LinkKeySet
// 2371 
// 2372 #if defined (TC_LINKKEY_JOIN)
// 2373   // Mark the device as authenticated.
// 2374   ZDSecMgrAuthenticationSet( extAddr, ZDSecMgr_Authenticated_CBCK );
// 2375 #endif
// 2376 
// 2377 #if defined NV_RESTORE
// 2378   ZDSecMgrWriteNV();  // Write the new established link key to NV.
// 2379 #endif
// 2380 
// 2381   return ZSuccess;
        MOV     R1,#0x0
??ZDSecMgrAddLinkKey_7:
        LJMP    ??Subroutine61_0 & 0xFFFF
// 2382 }
          CFI EndBlock cfiBlock403
// 2383 
// 2384 /******************************************************************************
// 2385  * @fn          ZDSecMgrInitNV
// 2386  *
// 2387  * @brief       Initialize the SecMgr entry data in NV with all values set to 0
// 2388  *
// 2389  * @param       none
// 2390  *
// 2391  * @return      uint8 - <osal_nv_item_init> return codes
// 2392  */

        RSEG BANKED_CODE:CODE:NOROOT(0)
// 2393 uint8 ZDSecMgrInitNV(void)
ZDSecMgrInitNV:
          CFI Block cfiBlock404 Using cfiCommon0
          CFI Function ZDSecMgrInitNV
        CODE
// 2394 {
        FUNCALL ZDSecMgrInitNV, osal_nv_item_init
        LOCFRAME ISTACK, 0, STACK
        LOCFRAME PSTACK, 0, STACK
        LOCFRAME XSTACK, 14, STACK
        LOCFRAME IOVERLAY, 0, STATIC
        LOCFRAME DOVERLAY, 0, STATIC
        ARGFRAME ISTACK, 0, STACK
        ARGFRAME PSTACK, 0, STACK
        ARGFRAME XSTACK, 14, STACK
        ARGFRAME IOVERLAY, 0, STATIC
        ARGFRAME DOVERLAY, 0, STATIC
        FUNCALL ZDSecMgrInitNV, osal_nv_write
        LOCFRAME ISTACK, 0, STACK
        LOCFRAME PSTACK, 0, STACK
        LOCFRAME XSTACK, 16, STACK
        LOCFRAME IOVERLAY, 0, STATIC
        LOCFRAME DOVERLAY, 0, STATIC
        ARGFRAME ISTACK, 0, STACK
        ARGFRAME PSTACK, 0, STACK
        ARGFRAME XSTACK, 16, STACK
        ARGFRAME IOVERLAY, 0, STATIC
        ARGFRAME DOVERLAY, 0, STATIC
        FUNCALL ZDSecMgrInitNV, osal_nv_item_init
        LOCFRAME ISTACK, 0, STACK
        LOCFRAME PSTACK, 0, STACK
        LOCFRAME XSTACK, 14, STACK
        LOCFRAME IOVERLAY, 0, STATIC
        LOCFRAME DOVERLAY, 0, STATIC
        ARGFRAME ISTACK, 0, STACK
        ARGFRAME PSTACK, 0, STACK
        ARGFRAME XSTACK, 14, STACK
        ARGFRAME IOVERLAY, 0, STATIC
        ARGFRAME DOVERLAY, 0, STATIC
        REQUIRE ?V0
        REQUIRE ?V1
        MOV     A,#-0xa
        LCALL   ?BANKED_ENTER_XDATA
          CFI DPH0 load(1, XDATA, add(CFA_XSP16, literal(-1)))
          CFI DPL0 load(1, XDATA, add(CFA_XSP16, literal(-2)))
          CFI ?BRET_EXT load(1, XDATA, add(CFA_XSP16, literal(-3)))
          CFI ?RET_HIGH load(1, XDATA, add(CFA_XSP16, literal(-4)))
          CFI ?RET_LOW load(1, XDATA, add(CFA_XSP16, literal(-5)))
          CFI R7 load(1, XDATA, add(CFA_XSP16, literal(-6)))
          CFI V1 load(1, XDATA, add(CFA_XSP16, literal(-7)))
          CFI V0 load(1, XDATA, add(CFA_XSP16, literal(-8)))
          CFI VB load(1, XDATA, add(CFA_XSP16, literal(-9)))
          CFI R6 load(1, XDATA, add(CFA_XSP16, literal(-10)))
          CFI CFA_SP SP+0
          CFI CFA_XSP16 add(XSP16, 10)
        ; Saved register size: 10
        ; Auto size: 2
        MOV     A,#-0x2
        LCALL   ?ALLOC_XSTACK8
          CFI CFA_XSP16 add(XSP16, 12)
// 2395 
// 2396   uint8 rtrn = osal_nv_item_init(ZCD_NV_APS_LINK_KEY_TABLE,
// 2397                 (sizeof(nvDeviceListHdr_t) + (sizeof(ZDSecMgrEntry_t) * ZDSECMGR_ENTRY_MAX)), NULL);
        ; Setup parameters for call to function osal_nv_item_init
        CLR     A
        MOV     ?V0,A
        MOV     ?V1,A
        MOV     R0,#?V0
        LCALL   ?PUSH_XSTACK_I_TWO
          CFI CFA_XSP16 add(XSP16, 14)
        MOV     R4,#0x11
        MOV     R5,#0x0
        MOV     R2,#0x4c
        MOV     R3,#0x0
        LCALL   `??osal_nv_item_init::?relay`; Banked call to: osal_nv_item_init
        MOV     A,#0x2
        LCALL   ?DEALLOC_XSTACK8
          CFI CFA_XSP16 add(XSP16, 12)
        MOV     A,R1
        MOV     R6,A
// 2398 
// 2399   // If the item does not already exist, set all values to 0
// 2400   if (rtrn != SUCCESS)
        JZ      ??ZDSecMgrInitNV_0
// 2401   {
// 2402     nvDeviceListHdr_t hdr;
// 2403     hdr.numRecs = 0;
        LCALL   ?Subroutine17 & 0xFFFF
// 2404     osal_nv_write(ZCD_NV_APS_LINK_KEY_TABLE, 0, sizeof(nvDeviceListHdr_t), &hdr);
// 2405   }
??CrossCallReturnLabel_2:
        LCALL   ?PUSH_XSTACK_I_TWO
          CFI CFA_XSP16 add(XSP16, 14)
        MOV     ?V0,#0x2
        MOV     ?V1,#0x0
        MOV     R0,#?V0
        LCALL   ?PUSH_XSTACK_I_TWO
          CFI CFA_XSP16 add(XSP16, 16)
        MOV     R4,#0x0
        MOV     R5,#0x0
        MOV     R2,#0x4c
        MOV     R3,#0x0
        LCALL   `??osal_nv_write::?relay`; Banked call to: osal_nv_write
        MOV     A,#0x4
        LCALL   ?DEALLOC_XSTACK8
          CFI CFA_XSP16 add(XSP16, 12)
// 2406 
// 2407   rtrn |= osal_nv_item_init( ZCD_NV_TRUSTCENTER_ADDR, Z_EXTADDR_LEN,
// 2408                              zgApsTrustCenterAddr );
// 2409 
// 2410   return rtrn;
??ZDSecMgrInitNV_0:
        ; Setup parameters for call to function osal_nv_item_init
        MOV     ?V0,#zgApsTrustCenterAddr & 0xff
        MOV     ?V1,#(zgApsTrustCenterAddr >> 8) & 0xff
        MOV     R0,#?V0
        LCALL   ?PUSH_XSTACK_I_TWO
          CFI CFA_XSP16 add(XSP16, 14)
        MOV     R4,#0x8
        MOV     R5,#0x0
        MOV     R2,#0x71
        MOV     R3,#0x0
        LCALL   `??osal_nv_item_init::?relay`; Banked call to: osal_nv_item_init
        MOV     A,#0x2
        LCALL   ?DEALLOC_XSTACK8
          CFI CFA_XSP16 add(XSP16, 12)
        MOV     A,R1
        ORL     A,R6
        MOV     R1,A
        MOV     A,#0x2
        LJMP    ??Subroutine55_0 & 0xFFFF
// 2411 }
          CFI EndBlock cfiBlock404
// 2412 
// 2413 #if defined ( NV_RESTORE )
// 2414 /*********************************************************************
// 2415  * @fn      ZDSecMgrWriteNV()
// 2416  *
// 2417  * @brief   Save off the APS link key list to NV
// 2418  *
// 2419  * @param   none
// 2420  *
// 2421  * @return  none
// 2422  */
// 2423 static void ZDSecMgrWriteNV( void )
// 2424 {
// 2425   uint16 i;
// 2426   nvDeviceListHdr_t hdr;
// 2427 
// 2428   hdr.numRecs = 0;
// 2429 
// 2430   if (ZDSecMgrEntries != NULL)
// 2431   {
// 2432     for ( i = 0; i < ZDSECMGR_ENTRY_MAX; i++ )
// 2433     {
// 2434       // Save off the record
// 2435       osal_nv_write( ZCD_NV_APS_LINK_KEY_TABLE,
// 2436                     (uint16)((sizeof(nvDeviceListHdr_t)) + (i * sizeof(ZDSecMgrEntry_t))),
// 2437                     sizeof(ZDSecMgrEntry_t), &ZDSecMgrEntries[i] );
// 2438 
// 2439       if ( ZDSecMgrEntries[i].ami != INVALID_NODE_ADDR )
// 2440       {
// 2441         hdr.numRecs++;
// 2442       }
// 2443     }
// 2444   }
// 2445 
// 2446   // Save off the header
// 2447   osal_nv_write( ZCD_NV_APS_LINK_KEY_TABLE, 0, sizeof( nvDeviceListHdr_t ), &hdr );
// 2448 }
// 2449 #endif // NV_RESTORE
// 2450 
// 2451 #if defined ( NV_RESTORE )
// 2452 /******************************************************************************
// 2453  * @fn          ZDSecMgrRestoreFromNV
// 2454  *
// 2455  * @brief       Restore the APS Link Key entry data from NV. It does not restore
// 2456  *              the key data itself as they remain in NV until they are used.
// 2457  *              Only list data is restored.
// 2458  *              Restore zgTrustCenterAdress from NV.
// 2459  *
// 2460  * @param       none
// 2461  *
// 2462  * @return      None.
// 2463  */
// 2464 static void ZDSecMgrRestoreFromNV( void )
// 2465 {
// 2466   nvDeviceListHdr_t hdr;
// 2467   APSME_LinkKeyData_t *pApsLinkKey = NULL;
// 2468 
// 2469   if ((osal_nv_read(ZCD_NV_APS_LINK_KEY_TABLE, 0, sizeof(nvDeviceListHdr_t), &hdr) == ZSUCCESS) &&
// 2470       ((hdr.numRecs > 0) && (hdr.numRecs <= ZDSECMGR_ENTRY_MAX)))
// 2471   {
// 2472     uint8 x;
// 2473 
// 2474     pApsLinkKey = (APSME_LinkKeyData_t *)osal_mem_alloc(sizeof(APSME_LinkKeyData_t));
// 2475 
// 2476     for (x = 0; x < ZDSECMGR_ENTRY_MAX; x++)
// 2477     {
// 2478       if ( osal_nv_read( ZCD_NV_APS_LINK_KEY_TABLE,
// 2479                         (uint16)(sizeof(nvDeviceListHdr_t) + (x * sizeof(ZDSecMgrEntry_t))),
// 2480                         sizeof(ZDSecMgrEntry_t), &ZDSecMgrEntries[x] ) == SUCCESS )
// 2481       {
// 2482         // update data only for valid entries
// 2483         if ( ZDSecMgrEntries[x].ami != INVALID_NODE_ADDR )
// 2484         {
// 2485           if (pApsLinkKey != NULL)
// 2486           {
// 2487             // read the key form NV, keyNvId must be ZCD_NV_APS_LINK_KEY_DATA_START based
// 2488             osal_nv_read( ZDSecMgrEntries[x].keyNvId, 0,
// 2489                          sizeof(APSME_LinkKeyData_t), pApsLinkKey );
// 2490 
// 2491             // set new values for the counter
// 2492             pApsLinkKey->txFrmCntr += ( MAX_APS_FRAMECOUNTER_CHANGES + 1 );
// 2493 
// 2494             // restore values for counters in RAM
// 2495             ApsLinkKeyFrmCntr[ZDSecMgrEntries[x].keyNvId - ZCD_NV_APS_LINK_KEY_DATA_START].txFrmCntr =
// 2496                                             pApsLinkKey->txFrmCntr;
// 2497 
// 2498             ApsLinkKeyFrmCntr[ZDSecMgrEntries[x].keyNvId - ZCD_NV_APS_LINK_KEY_DATA_START].rxFrmCntr =
// 2499                                             pApsLinkKey->rxFrmCntr;
// 2500 
// 2501             osal_nv_write( ZDSecMgrEntries[x].keyNvId, 0,
// 2502                           sizeof(APSME_LinkKeyData_t), pApsLinkKey );
// 2503 
// 2504             // clear copy of key in RAM
// 2505             osal_memset(pApsLinkKey, 0x00, sizeof(APSME_LinkKeyData_t));
// 2506           }
// 2507         }
// 2508       }
// 2509     }
// 2510 
// 2511     if (pApsLinkKey != NULL)
// 2512     {
// 2513       osal_mem_free(pApsLinkKey);
// 2514     }
// 2515   }
// 2516 
// 2517   osal_nv_read( ZCD_NV_TRUSTCENTER_ADDR, 0, Z_EXTADDR_LEN, zgApsTrustCenterAddr );
// 2518 }
// 2519 #endif // NV_RESTORE
// 2520 
// 2521 /*********************************************************************
// 2522  * @fn          ZDSecMgrSetDefaultNV
// 2523  *
// 2524  * @brief       Write the defaults to NV for Entry table and for APS key data table
// 2525  *
// 2526  * @param       none
// 2527  *
// 2528  * @return      none
// 2529  */

        RSEG BANKED_CODE:CODE:NOROOT(0)
// 2530 void ZDSecMgrSetDefaultNV( void )
ZDSecMgrSetDefaultNV:
          CFI Block cfiBlock405 Using cfiCommon0
          CFI Function ZDSecMgrSetDefaultNV
        CODE
// 2531 {
        FUNCALL ZDSecMgrSetDefaultNV, osal_nv_write
        LOCFRAME ISTACK, 0, STACK
        LOCFRAME PSTACK, 0, STACK
        LOCFRAME XSTACK, 23, STACK
        LOCFRAME IOVERLAY, 0, STATIC
        LOCFRAME DOVERLAY, 0, STATIC
        ARGFRAME ISTACK, 0, STACK
        ARGFRAME PSTACK, 0, STACK
        ARGFRAME XSTACK, 23, STACK
        ARGFRAME IOVERLAY, 0, STATIC
        ARGFRAME DOVERLAY, 0, STATIC
        FUNCALL ZDSecMgrSetDefaultNV, osal_memset
        LOCFRAME ISTACK, 0, STACK
        LOCFRAME PSTACK, 0, STACK
        LOCFRAME XSTACK, 19, STACK
        LOCFRAME IOVERLAY, 0, STATIC
        LOCFRAME DOVERLAY, 0, STATIC
        ARGFRAME ISTACK, 0, STACK
        ARGFRAME PSTACK, 0, STACK
        ARGFRAME XSTACK, 19, STACK
        ARGFRAME IOVERLAY, 0, STATIC
        ARGFRAME DOVERLAY, 0, STATIC
        FUNCALL ZDSecMgrSetDefaultNV, osal_nv_write
        LOCFRAME ISTACK, 0, STACK
        LOCFRAME PSTACK, 0, STACK
        LOCFRAME XSTACK, 23, STACK
        LOCFRAME IOVERLAY, 0, STATIC
        LOCFRAME DOVERLAY, 0, STATIC
        ARGFRAME ISTACK, 0, STACK
        ARGFRAME PSTACK, 0, STACK
        ARGFRAME XSTACK, 23, STACK
        ARGFRAME IOVERLAY, 0, STATIC
        ARGFRAME DOVERLAY, 0, STATIC
        FUNCALL ZDSecMgrSetDefaultNV, osal_mem_alloc
        LOCFRAME ISTACK, 0, STACK
        LOCFRAME PSTACK, 0, STACK
        LOCFRAME XSTACK, 19, STACK
        LOCFRAME IOVERLAY, 0, STATIC
        LOCFRAME DOVERLAY, 0, STATIC
        ARGFRAME ISTACK, 0, STACK
        ARGFRAME PSTACK, 0, STACK
        ARGFRAME XSTACK, 19, STACK
        ARGFRAME IOVERLAY, 0, STATIC
        ARGFRAME DOVERLAY, 0, STATIC
        FUNCALL ZDSecMgrSetDefaultNV, osal_memset
        LOCFRAME ISTACK, 0, STACK
        LOCFRAME PSTACK, 0, STACK
        LOCFRAME XSTACK, 19, STACK
        LOCFRAME IOVERLAY, 0, STATIC
        LOCFRAME DOVERLAY, 0, STATIC
        ARGFRAME ISTACK, 0, STACK
        ARGFRAME PSTACK, 0, STACK
        ARGFRAME XSTACK, 19, STACK
        ARGFRAME IOVERLAY, 0, STATIC
        ARGFRAME DOVERLAY, 0, STATIC
        FUNCALL ZDSecMgrSetDefaultNV, osal_nv_write
        LOCFRAME ISTACK, 0, STACK
        LOCFRAME PSTACK, 0, STACK
        LOCFRAME XSTACK, 23, STACK
        LOCFRAME IOVERLAY, 0, STATIC
        LOCFRAME DOVERLAY, 0, STATIC
        ARGFRAME ISTACK, 0, STACK
        ARGFRAME PSTACK, 0, STACK
        ARGFRAME XSTACK, 23, STACK
        ARGFRAME IOVERLAY, 0, STATIC
        ARGFRAME DOVERLAY, 0, STATIC
        FUNCALL ZDSecMgrSetDefaultNV, osal_mem_free
        LOCFRAME ISTACK, 0, STACK
        LOCFRAME PSTACK, 0, STACK
        LOCFRAME XSTACK, 19, STACK
        LOCFRAME IOVERLAY, 0, STATIC
        LOCFRAME DOVERLAY, 0, STATIC
        ARGFRAME ISTACK, 0, STACK
        ARGFRAME PSTACK, 0, STACK
        ARGFRAME XSTACK, 19, STACK
        ARGFRAME IOVERLAY, 0, STATIC
        ARGFRAME DOVERLAY, 0, STATIC
        REQUIRE ?V0
        REQUIRE ?V1
        REQUIRE ?V2
        REQUIRE ?V3
        MOV     A,#-0xc
        LCALL   ?BANKED_ENTER_XDATA
          CFI DPH0 load(1, XDATA, add(CFA_XSP16, literal(-1)))
          CFI DPL0 load(1, XDATA, add(CFA_XSP16, literal(-2)))
          CFI ?BRET_EXT load(1, XDATA, add(CFA_XSP16, literal(-3)))
          CFI ?RET_HIGH load(1, XDATA, add(CFA_XSP16, literal(-4)))
          CFI ?RET_LOW load(1, XDATA, add(CFA_XSP16, literal(-5)))
          CFI R7 load(1, XDATA, add(CFA_XSP16, literal(-6)))
          CFI V3 load(1, XDATA, add(CFA_XSP16, literal(-7)))
          CFI V2 load(1, XDATA, add(CFA_XSP16, literal(-8)))
          CFI V1 load(1, XDATA, add(CFA_XSP16, literal(-9)))
          CFI V0 load(1, XDATA, add(CFA_XSP16, literal(-10)))
          CFI VB load(1, XDATA, add(CFA_XSP16, literal(-11)))
          CFI R6 load(1, XDATA, add(CFA_XSP16, literal(-12)))
          CFI CFA_SP SP+0
          CFI CFA_XSP16 add(XSP16, 12)
        ; Saved register size: 12
        ; Auto size: 7
        MOV     A,#-0x7
        LCALL   ?ALLOC_XSTACK8
          CFI CFA_XSP16 add(XSP16, 19)
// 2532   uint16 i;
// 2533   nvDeviceListHdr_t hdr;
// 2534   ZDSecMgrEntry_t secMgrEntry;
// 2535   APSME_LinkKeyData_t *pApsLinkKey = NULL;
// 2536 
// 2537   // Initialize the header
// 2538   hdr.numRecs = 0;
        LCALL   ?Subroutine17 & 0xFFFF
// 2539 
// 2540   // clear the header
// 2541   osal_nv_write(ZCD_NV_APS_LINK_KEY_TABLE, 0, sizeof(nvDeviceListHdr_t), &hdr);
??CrossCallReturnLabel_3:
        LCALL   ?PUSH_XSTACK_I_TWO
          CFI CFA_XSP16 add(XSP16, 21)
        MOV     ?V0,#0x2
        MOV     ?V1,#0x0
        MOV     R0,#?V0
        LCALL   ?PUSH_XSTACK_I_TWO
          CFI CFA_XSP16 add(XSP16, 23)
        MOV     R4,#0x0
        MOV     R5,#0x0
        MOV     R2,#0x4c
        MOV     R3,#0x0
        LCALL   `??osal_nv_write::?relay`; Banked call to: osal_nv_write
        MOV     A,#0x4
        LCALL   ?DEALLOC_XSTACK8
          CFI CFA_XSP16 add(XSP16, 19)
// 2542 
// 2543   osal_memset( &secMgrEntry, 0x00, sizeof(ZDSecMgrEntry_t) );
        ; Setup parameters for call to function osal_memset
        MOV     R4,#0x5
        MOV     R5,#0x0
        MOV     R1,#0x0
        MOV     A,#0x2
        LCALL   ?XSTACK_DISP101_8
        LCALL   `??osal_memset::?relay`; Banked call to: osal_memset
// 2544 
// 2545   for ( i = 0; i < ZDSECMGR_ENTRY_MAX; i++ )
        MOV     R6,#0x2
        MOV     R7,#0x0
// 2546   {
// 2547     // Clear the record
// 2548     osal_nv_write( ZCD_NV_APS_LINK_KEY_TABLE,
// 2549                 (uint16)((sizeof(nvDeviceListHdr_t)) + (i * sizeof(ZDSecMgrEntry_t))),
// 2550                         sizeof(ZDSecMgrEntry_t), &secMgrEntry );
??ZDSecMgrSetDefaultNV_0:
        ; Setup parameters for call to function osal_nv_write
        MOV     A,#0x2
        LCALL   ?XSTACK_DISP100_8
        MOV     ?V0,R0
        MOV     ?V1,R1
        MOV     R0,#?V0
        LCALL   ?PUSH_XSTACK_I_TWO
          CFI CFA_XSP16 add(XSP16, 21)
        MOV     ?V0,#0x5
        MOV     ?V1,#0x0
        MOV     R0,#?V0
        LCALL   ?PUSH_XSTACK_I_TWO
          CFI CFA_XSP16 add(XSP16, 23)
        MOV     A,R6
        MOV     R4,A
        MOV     A,R7
        MOV     R5,A
        MOV     R2,#0x4c
        MOV     R3,#0x0
        LCALL   `??osal_nv_write::?relay`; Banked call to: osal_nv_write
        MOV     A,#0x4
        LCALL   ?DEALLOC_XSTACK8
          CFI CFA_XSP16 add(XSP16, 19)
// 2551   }
        MOV     A,R6
        ADD     A,#0x5
        MOV     R6,A
        CLR     A
        ADDC    A,R7
        MOV     R7,A
        MOV     A,#0x11
        XRL     A,R6
        ORL     A,R7
        JNZ     ??ZDSecMgrSetDefaultNV_0
// 2552 
// 2553   pApsLinkKey = (APSME_LinkKeyData_t *)osal_mem_alloc(sizeof(APSME_LinkKeyData_t));
        ; Setup parameters for call to function osal_mem_alloc
        MOV     R2,#0x18
        MOV     R3,#0x0
        LCALL   `??osal_mem_alloc::?relay`; Banked call to: osal_mem_alloc
        MOV     ?V0,R2
        MOV     ?V1,R3
// 2554 
// 2555   if (pApsLinkKey != NULL)
        MOV     A,R2
        ORL     A,?V1
        JZ      ??ZDSecMgrSetDefaultNV_1
// 2556   {
// 2557     osal_memset( pApsLinkKey, 0x00, sizeof(APSME_LinkKeyData_t) );
        ; Setup parameters for call to function osal_memset
        MOV     R4,#0x18
        MOV     R5,#0x0
        MOV     R1,#0x0
        LCALL   `??osal_memset::?relay`; Banked call to: osal_memset
// 2558 
// 2559     for ( i = 0; i < ZDSECMGR_ENTRY_MAX; i++ )
        MOV     R6,#0x0
        MOV     R7,#0x0
// 2560     {
// 2561       // Clear the record
// 2562       osal_nv_write( (ZCD_NV_APS_LINK_KEY_DATA_START + i), 0,
// 2563                     sizeof(APSME_LinkKeyData_t), pApsLinkKey);
??ZDSecMgrSetDefaultNV_2:
        ; Setup parameters for call to function osal_nv_write
        MOV     R0,#?V0
        LCALL   ?PUSH_XSTACK_I_TWO
          CFI CFA_XSP16 add(XSP16, 21)
        MOV     ?V2,#0x18
        MOV     ?V3,#0x0
        MOV     R0,#?V2
        LCALL   ?PUSH_XSTACK_I_TWO
          CFI CFA_XSP16 add(XSP16, 23)
        MOV     R4,#0x0
        MOV     R5,#0x0
        MOV     A,R6
        ADD     A,#0x1
        MOV     R2,A
        MOV     A,R7
        ADDC    A,#0x2
        MOV     R3,A
        LCALL   `??osal_nv_write::?relay`; Banked call to: osal_nv_write
        MOV     A,#0x4
        LCALL   ?DEALLOC_XSTACK8
          CFI CFA_XSP16 add(XSP16, 19)
// 2564     }
        INC     R6
        MOV     A,R6
        JNZ     ??ZDSecMgrSetDefaultNV_3
        INC     R7
??ZDSecMgrSetDefaultNV_3:
        CLR     C
        SUBB    A,#0x3
        MOV     A,R7
        SUBB    A,#0x0
        JC      ??ZDSecMgrSetDefaultNV_2
// 2565 
// 2566     osal_mem_free(pApsLinkKey);
        ; Setup parameters for call to function osal_mem_free
        MOV     R2,?V0
        MOV     R3,?V1
        LCALL   `??osal_mem_free::?relay`; Banked call to: osal_mem_free
// 2567   }
// 2568 }
??ZDSecMgrSetDefaultNV_1:
        MOV     A,#0x7
        SJMP    ??Subroutine73_0
          CFI EndBlock cfiBlock405

        RSEG BANKED_CODE:CODE:NOROOT(0)
?Subroutine17:
          CFI Block cfiCond406 Using cfiCommon0
          CFI Function ZDSecMgrInitNV
          CFI Conditional ??CrossCallReturnLabel_2
          CFI R6 load(1, XDATA, add(CFA_XSP16, literal(-10)))
          CFI VB load(1, XDATA, add(CFA_XSP16, literal(-9)))
          CFI V0 load(1, XDATA, add(CFA_XSP16, literal(-8)))
          CFI V1 load(1, XDATA, add(CFA_XSP16, literal(-7)))
          CFI R7 load(1, XDATA, add(CFA_XSP16, literal(-6)))
          CFI ?RET_LOW load(1, XDATA, add(CFA_XSP16, literal(-5)))
          CFI ?RET_HIGH load(1, XDATA, add(CFA_XSP16, literal(-4)))
          CFI ?BRET_EXT load(1, XDATA, add(CFA_XSP16, literal(-3)))
          CFI DPL0 load(1, XDATA, add(CFA_XSP16, literal(-2)))
          CFI DPH0 load(1, XDATA, add(CFA_XSP16, literal(-1)))
          CFI CFA_SP SP+-2
          CFI CFA_XSP16 add(XSP16, 12)
          CFI Block cfiCond407 Using cfiCommon0
          CFI (cfiCond407) Function ZDSecMgrSetDefaultNV
          CFI (cfiCond407) Conditional ??CrossCallReturnLabel_3
          CFI (cfiCond407) R6 load(1, XDATA, add(CFA_XSP16, literal(-12)))
          CFI (cfiCond407) VB load(1, XDATA, add(CFA_XSP16, literal(-11)))
          CFI (cfiCond407) V0 load(1, XDATA, add(CFA_XSP16, literal(-10)))
          CFI (cfiCond407) V1 load(1, XDATA, add(CFA_XSP16, literal(-9)))
          CFI (cfiCond407) V2 load(1, XDATA, add(CFA_XSP16, literal(-8)))
          CFI (cfiCond407) V3 load(1, XDATA, add(CFA_XSP16, literal(-7)))
          CFI (cfiCond407) R7 load(1, XDATA, add(CFA_XSP16, literal(-6)))
          CFI (cfiCond407) ?RET_LOW load(1, XDATA, add(CFA_XSP16, literal(-5)))
          CFI (cfiCond407) ?RET_HIGH load(1, XDATA, add(CFA_XSP16, literal(-4)))
          CFI (cfiCond407) ?BRET_EXT load(1, XDATA, add(CFA_XSP16, literal(-3)))
          CFI (cfiCond407) DPL0 load(1, XDATA, add(CFA_XSP16, literal(-2)))
          CFI (cfiCond407) DPH0 load(1, XDATA, add(CFA_XSP16, literal(-1)))
          CFI (cfiCond407) CFA_SP SP+-2
          CFI (cfiCond407) CFA_XSP16 add(XSP16, 19)
          CFI Block cfiPicker408 Using cfiCommon1
          CFI (cfiPicker408) NoFunction
          CFI (cfiPicker408) Picker
        MOV     DPL,?XSP + 0
        MOV     DPH,?XSP + 1
        CLR     A
        MOVX    @DPTR,A
        INC     DPTR
        MOVX    @DPTR,A
        ; Setup parameters for call to function osal_nv_write
        ; Setup parameters for call to function osal_nv_write
        MOV     R0,?XSP + 0
        MOV     R1,?XSP + 1
        MOV     ?V0,R0
        MOV     ?V1,R1
        MOV     R0,#?V0
        RET
          CFI (cfiCond406) CFA_SP SP+0
          CFI (cfiCond407) CFA_SP SP+0
          CFI (cfiPicker408) CFA_SP SP+0
          CFI EndBlock cfiCond406
          CFI EndBlock cfiCond407
          CFI EndBlock cfiPicker408

        RSEG BANKED_CODE:CODE:NOROOT(0)
?Subroutine4:
          CFI Block cfiBlock409 Using cfiCommon0
          CFI NoFunction
          CFI CFA_SP SP+0
          CFI CFA_XSP16 add(XSP16, 36)
          CFI VB load(1, XDATA, add(CFA_XSP16, literal(-11)))
          CFI DPL0 load(1, XDATA, add(CFA_XSP16, literal(-2)))
          CFI DPH0 load(1, XDATA, add(CFA_XSP16, literal(-1)))
          CFI R6 load(1, XDATA, add(CFA_XSP16, literal(-12)))
          CFI R7 load(1, XDATA, add(CFA_XSP16, literal(-6)))
          CFI V0 load(1, XDATA, add(CFA_XSP16, literal(-10)))
          CFI V1 load(1, XDATA, add(CFA_XSP16, literal(-9)))
          CFI V2 load(1, XDATA, add(CFA_XSP16, literal(-8)))
          CFI V3 load(1, XDATA, add(CFA_XSP16, literal(-7)))
          CFI ?BRET_EXT load(1, XDATA, add(CFA_XSP16, literal(-3)))
          CFI ?RET_HIGH load(1, XDATA, add(CFA_XSP16, literal(-4)))
          CFI ?RET_LOW load(1, XDATA, add(CFA_XSP16, literal(-5)))
        MOV     A,#0x18
          CFI EndBlock cfiBlock409
        REQUIRE ??Subroutine73_0
        ; // Fall through to label ??Subroutine73_0

        RSEG BANKED_CODE:CODE:NOROOT(0)
??Subroutine73_0:
          CFI Block cfiBlock410 Using cfiCommon0
          CFI NoFunction
          CFI CFA_SP SP+0
          CFI CFA_XSP16 add(XSP16, 25)
          CFI VB load(1, XDATA, add(CFA_XSP16, literal(-11)))
          CFI DPL0 load(1, XDATA, add(CFA_XSP16, literal(-2)))
          CFI DPH0 load(1, XDATA, add(CFA_XSP16, literal(-1)))
          CFI R6 load(1, XDATA, add(CFA_XSP16, literal(-12)))
          CFI R7 load(1, XDATA, add(CFA_XSP16, literal(-6)))
          CFI V0 load(1, XDATA, add(CFA_XSP16, literal(-10)))
          CFI V1 load(1, XDATA, add(CFA_XSP16, literal(-9)))
          CFI V2 load(1, XDATA, add(CFA_XSP16, literal(-8)))
          CFI V3 load(1, XDATA, add(CFA_XSP16, literal(-7)))
          CFI ?BRET_EXT load(1, XDATA, add(CFA_XSP16, literal(-3)))
          CFI ?RET_HIGH load(1, XDATA, add(CFA_XSP16, literal(-4)))
          CFI ?RET_LOW load(1, XDATA, add(CFA_XSP16, literal(-5)))
          CFI Invalid
        LCALL   ?DEALLOC_XSTACK8
          CFI CFA_XSP16 add(XSP16, 12)
          CFI Valid
          CFI EndBlock cfiBlock410
        REQUIRE ??Subroutine74_0
        ; // Fall through to label ??Subroutine74_0

        RSEG BANKED_CODE:CODE:NOROOT(0)
??Subroutine74_0:
          CFI Block cfiBlock411 Using cfiCommon0
          CFI NoFunction
          CFI CFA_SP SP+0
          CFI CFA_XSP16 add(XSP16, 12)
          CFI VB load(1, XDATA, add(CFA_XSP16, literal(-11)))
          CFI DPL0 load(1, XDATA, add(CFA_XSP16, literal(-2)))
          CFI DPH0 load(1, XDATA, add(CFA_XSP16, literal(-1)))
          CFI R6 load(1, XDATA, add(CFA_XSP16, literal(-12)))
          CFI R7 load(1, XDATA, add(CFA_XSP16, literal(-6)))
          CFI V0 load(1, XDATA, add(CFA_XSP16, literal(-10)))
          CFI V1 load(1, XDATA, add(CFA_XSP16, literal(-9)))
          CFI V2 load(1, XDATA, add(CFA_XSP16, literal(-8)))
          CFI V3 load(1, XDATA, add(CFA_XSP16, literal(-7)))
          CFI ?BRET_EXT load(1, XDATA, add(CFA_XSP16, literal(-3)))
          CFI ?RET_HIGH load(1, XDATA, add(CFA_XSP16, literal(-4)))
          CFI ?RET_LOW load(1, XDATA, add(CFA_XSP16, literal(-5)))
        MOV     R7,#0x4
        LJMP    ?BANKED_LEAVE_XDATA
          CFI CFA_SP SP+-3
          CFI CFA_XSP16 XSP16+0
          CFI VB SameValue
          CFI DPL0 SameValue
          CFI DPH0 SameValue
          CFI R6 SameValue
          CFI R7 SameValue
          CFI V0 SameValue
          CFI V1 SameValue
          CFI V2 SameValue
          CFI V3 SameValue
          CFI ?BRET_EXT Frame(CFA_SP, 3)
          CFI ?RET_HIGH Frame(CFA_SP, 2)
          CFI ?RET_LOW Frame(CFA_SP, 1)
          CFI EndBlock cfiBlock411
// 2569 
// 2570 #if defined ( NV_RESTORE )
// 2571 /*********************************************************************
// 2572  * @fn      ZDSecMgrUpdateNV()
// 2573  *
// 2574  * @brief   Updates one entry of the APS link key table to NV
// 2575  *
// 2576  * @param   index - to the entry in security manager table
// 2577  *
// 2578  * @return  none
// 2579  */
// 2580 static void ZDSecMgrUpdateNV( uint16 index )
// 2581 {
// 2582   nvDeviceListHdr_t hdr;
// 2583 
// 2584   if (ZDSecMgrEntries != NULL)
// 2585   {
// 2586     // Save off the record
// 2587     osal_nv_write( ZCD_NV_APS_LINK_KEY_TABLE,
// 2588                    (uint16)((sizeof(nvDeviceListHdr_t)) + (index * sizeof(ZDSecMgrEntry_t))),
// 2589                    sizeof(ZDSecMgrEntry_t), &ZDSecMgrEntries[index] );
// 2590   }
// 2591 
// 2592   if (osal_nv_read(ZCD_NV_APS_LINK_KEY_TABLE, 0, sizeof(nvDeviceListHdr_t), &hdr) == ZSUCCESS)
// 2593   {
// 2594     if ( ZDSecMgrEntries[index].ami == INVALID_NODE_ADDR )
// 2595     {
// 2596       if (hdr.numRecs > 0)
// 2597       {
// 2598         hdr.numRecs--;
// 2599       }
// 2600     }
// 2601     else
// 2602     {
// 2603       hdr.numRecs++;
// 2604     }
// 2605 
// 2606     // Save off the header
// 2607     osal_nv_write( ZCD_NV_APS_LINK_KEY_TABLE, 0, sizeof( nvDeviceListHdr_t ), &hdr );
// 2608   }
// 2609 }
// 2610 #endif // NV_RESTORE
// 2611 
// 2612 /******************************************************************************
// 2613  * @fn          ZDSecMgrAPSRemove
// 2614  *
// 2615  * @brief       Remove device from network.
// 2616  *
// 2617  * @param       nwkAddr - device's NWK address
// 2618  * @param       extAddr - device's Extended address
// 2619  * @param       parentAddr - parent's NWK address
// 2620  *
// 2621  * @return      ZStatus_t
// 2622  */

        RSEG BANKED_CODE:CODE:NOROOT(0)
// 2623 ZStatus_t ZDSecMgrAPSRemove( uint16 nwkAddr, uint8 *extAddr, uint16 parentAddr )
ZDSecMgrAPSRemove:
          CFI Block cfiBlock412 Using cfiCommon0
          CFI Function ZDSecMgrAPSRemove
        CODE
// 2624 {
        FUNCALL ZDSecMgrAPSRemove, ZDSecMgrDeviceRemove
        LOCFRAME ISTACK, 2, STACK
        LOCFRAME PSTACK, 0, STACK
        LOCFRAME XSTACK, 8, STACK
        LOCFRAME IOVERLAY, 0, STATIC
        LOCFRAME DOVERLAY, 0, STATIC
        ARGFRAME ISTACK, 2, STACK
        ARGFRAME PSTACK, 0, STACK
        ARGFRAME XSTACK, 8, STACK
        ARGFRAME IOVERLAY, 0, STATIC
        ARGFRAME DOVERLAY, 0, STATIC
        PUSH    DPL
          CFI DPL0 Frame(CFA_SP, 4)
          CFI CFA_SP SP+-4
        PUSH    DPH
          CFI DPH0 Frame(CFA_SP, 5)
          CFI CFA_SP SP+-5
        ; Saved register size: 2
        ; Auto size: 8
        MOV     A,#-0x8
        LCALL   ?ALLOC_XSTACK8
          CFI CFA_XSP16 add(XSP16, 8)
// 2625   ZDSecMgrDevice_t device;
// 2626 
// 2627   if ( ( nwkAddr == INVALID_NODE_ADDR ) ||
// 2628        ( extAddr == NULL )              ||
// 2629        ( parentAddr == INVALID_NODE_ADDR ) )
        MOV     A,#-0x2
        XRL     A,R2
        JNZ     ??ZDSecMgrAPSRemove_0
        MOV     A,#-0x1
        XRL     A,R3
??ZDSecMgrAPSRemove_0:
        JZ      ??ZDSecMgrAPSRemove_1
        MOV     A,R4
        ORL     A,R5
        JZ      ??ZDSecMgrAPSRemove_1
        MOV     A,#0x8
        LCALL   ?XSTACK_DISP0_8
        LCALL   ??Subroutine60_0 & 0xFFFF
??CrossCallReturnLabel_123:
        MOV     A,#-0x2
        XRL     A,R0
        JNZ     ??ZDSecMgrAPSRemove_2
        MOV     A,#-0x1
        XRL     A,R1
??ZDSecMgrAPSRemove_2:
        JNZ     ??ZDSecMgrAPSRemove_3
// 2630   {
// 2631     return ( ZFailure );
??ZDSecMgrAPSRemove_1:
        MOV     R1,#0x1
        SJMP    ??ZDSecMgrAPSRemove_4
// 2632   }
// 2633 
// 2634   device.nwkAddr = nwkAddr;
??ZDSecMgrAPSRemove_3:
        LCALL   ?Subroutine19 & 0xFFFF
// 2635   device.extAddr = extAddr;
??CrossCallReturnLabel_144:
        LCALL   ?XSTACK_DISP0_8
        MOV     A,R4
        MOVX    @DPTR,A
        INC     DPTR
        MOV     A,R5
        MOVX    @DPTR,A
// 2636   device.parentAddr = parentAddr;
        MOV     A,#0x4
        LCALL   ?XSTACK_DISP0_8
        MOV     A,R0
        MOVX    @DPTR,A
        INC     DPTR
        MOV     A,R1
        LCALL   ??Subroutine65_0 & 0xFFFF
// 2637 
// 2638   // remove device
// 2639   ZDSecMgrDeviceRemove( &device );
??CrossCallReturnLabel_141:
        LCALL   `??ZDSecMgrDeviceRemove::?relay`; Banked call to: ZDSecMgrDeviceRemove
// 2640 
// 2641   return ( ZSuccess );
        MOV     R1,#0x0
??ZDSecMgrAPSRemove_4:
        LJMP    ?Subroutine7 & 0xFFFF
// 2642 }
          CFI EndBlock cfiBlock412
// 2643 
// 2644 /******************************************************************************
// 2645  * @fn          APSME_TCLinkKeyInit
// 2646  *
// 2647  * @brief       Initialize the NV table for preconfigured TC link key
// 2648  *
// 2649  *              When zgUseDefaultTCL is set to TRUE, the default preconfig
// 2650  *              Trust Center Link Key is written to NV. A single tclk is used
// 2651  *              by all devices joining the network.
// 2652  *
// 2653  * @param       setDefault - TRUE to set default values
// 2654  *
// 2655  * @return      none
// 2656  */

        RSEG BANKED_CODE:CODE:NOROOT(0)
// 2657 void APSME_TCLinkKeyInit(uint8 setDefault)
APSME_TCLinkKeyInit:
          CFI Block cfiBlock413 Using cfiCommon0
          CFI Function APSME_TCLinkKeyInit
        CODE
// 2658 {
        FUNCALL APSME_TCLinkKeyInit, osal_memset
        LOCFRAME ISTACK, 0, STACK
        LOCFRAME PSTACK, 0, STACK
        LOCFRAME XSTACK, 43, STACK
        LOCFRAME IOVERLAY, 0, STATIC
        LOCFRAME DOVERLAY, 0, STATIC
        ARGFRAME ISTACK, 0, STACK
        ARGFRAME PSTACK, 0, STACK
        ARGFRAME XSTACK, 43, STACK
        ARGFRAME IOVERLAY, 0, STATIC
        ARGFRAME DOVERLAY, 0, STATIC
        FUNCALL APSME_TCLinkKeyInit, osal_memset
        LOCFRAME ISTACK, 0, STACK
        LOCFRAME PSTACK, 0, STACK
        LOCFRAME XSTACK, 43, STACK
        LOCFRAME IOVERLAY, 0, STATIC
        LOCFRAME DOVERLAY, 0, STATIC
        ARGFRAME ISTACK, 0, STACK
        ARGFRAME PSTACK, 0, STACK
        ARGFRAME XSTACK, 43, STACK
        ARGFRAME IOVERLAY, 0, STATIC
        ARGFRAME DOVERLAY, 0, STATIC
        FUNCALL APSME_TCLinkKeyInit, osal_memcpy
        LOCFRAME ISTACK, 0, STACK
        LOCFRAME PSTACK, 0, STACK
        LOCFRAME XSTACK, 46, STACK
        LOCFRAME IOVERLAY, 0, STATIC
        LOCFRAME DOVERLAY, 0, STATIC
        ARGFRAME ISTACK, 0, STACK
        ARGFRAME PSTACK, 0, STACK
        ARGFRAME XSTACK, 46, STACK
        ARGFRAME IOVERLAY, 0, STATIC
        ARGFRAME DOVERLAY, 0, STATIC
        FUNCALL APSME_TCLinkKeyInit, osal_nv_item_init
        LOCFRAME ISTACK, 0, STACK
        LOCFRAME PSTACK, 0, STACK
        LOCFRAME XSTACK, 45, STACK
        LOCFRAME IOVERLAY, 0, STATIC
        LOCFRAME DOVERLAY, 0, STATIC
        ARGFRAME ISTACK, 0, STACK
        ARGFRAME PSTACK, 0, STACK
        ARGFRAME XSTACK, 45, STACK
        ARGFRAME IOVERLAY, 0, STATIC
        ARGFRAME DOVERLAY, 0, STATIC
        FUNCALL APSME_TCLinkKeyInit, osal_nv_read
        LOCFRAME ISTACK, 0, STACK
        LOCFRAME PSTACK, 0, STACK
        LOCFRAME XSTACK, 47, STACK
        LOCFRAME IOVERLAY, 0, STATIC
        LOCFRAME DOVERLAY, 0, STATIC
        ARGFRAME ISTACK, 0, STACK
        ARGFRAME PSTACK, 0, STACK
        ARGFRAME XSTACK, 47, STACK
        ARGFRAME IOVERLAY, 0, STATIC
        ARGFRAME DOVERLAY, 0, STATIC
        FUNCALL APSME_TCLinkKeyInit, osal_nv_write
        LOCFRAME ISTACK, 0, STACK
        LOCFRAME PSTACK, 0, STACK
        LOCFRAME XSTACK, 47, STACK
        LOCFRAME IOVERLAY, 0, STATIC
        LOCFRAME DOVERLAY, 0, STATIC
        ARGFRAME ISTACK, 0, STACK
        ARGFRAME PSTACK, 0, STACK
        ARGFRAME XSTACK, 47, STACK
        ARGFRAME IOVERLAY, 0, STATIC
        ARGFRAME DOVERLAY, 0, STATIC
        FUNCALL APSME_TCLinkKeyInit, osal_memset
        LOCFRAME ISTACK, 0, STACK
        LOCFRAME PSTACK, 0, STACK
        LOCFRAME XSTACK, 43, STACK
        LOCFRAME IOVERLAY, 0, STATIC
        LOCFRAME DOVERLAY, 0, STATIC
        ARGFRAME ISTACK, 0, STACK
        ARGFRAME PSTACK, 0, STACK
        ARGFRAME XSTACK, 43, STACK
        ARGFRAME IOVERLAY, 0, STATIC
        ARGFRAME DOVERLAY, 0, STATIC
        REQUIRE ?V0
        REQUIRE ?V1
        REQUIRE ?V2
        MOV     A,#-0xb
        LCALL   ?BANKED_ENTER_XDATA
          CFI DPH0 load(1, XDATA, add(CFA_XSP16, literal(-1)))
          CFI DPL0 load(1, XDATA, add(CFA_XSP16, literal(-2)))
          CFI ?BRET_EXT load(1, XDATA, add(CFA_XSP16, literal(-3)))
          CFI ?RET_HIGH load(1, XDATA, add(CFA_XSP16, literal(-4)))
          CFI ?RET_LOW load(1, XDATA, add(CFA_XSP16, literal(-5)))
          CFI R7 load(1, XDATA, add(CFA_XSP16, literal(-6)))
          CFI V2 load(1, XDATA, add(CFA_XSP16, literal(-7)))
          CFI V1 load(1, XDATA, add(CFA_XSP16, literal(-8)))
          CFI V0 load(1, XDATA, add(CFA_XSP16, literal(-9)))
          CFI VB load(1, XDATA, add(CFA_XSP16, literal(-10)))
          CFI R6 load(1, XDATA, add(CFA_XSP16, literal(-11)))
          CFI CFA_SP SP+0
          CFI CFA_XSP16 add(XSP16, 11)
        ; Saved register size: 11
        ; Auto size: 32
        MOV     A,#-0x20
        LCALL   ?ALLOC_XSTACK8
          CFI CFA_XSP16 add(XSP16, 43)
// 2659   uint8             i;
// 2660   APSME_TCLinkKey_t tcLinkKey;
// 2661   uint8             rtrn;
// 2662 
// 2663   // Initialize all NV items for preconfigured TCLK
// 2664   for( i = 0; i < ZDSECMGR_TC_DEVICE_MAX; i++ )
// 2665   {
// 2666     // Making sure data is cleared for every key all the time
// 2667     osal_memset( &tcLinkKey, 0x00, sizeof(APSME_TCLinkKey_t) );
        ; Setup parameters for call to function osal_memset
        MOV     R4,#0x20
        MOV     R5,#0x0
        MOV     R1,#0x0
        MOV     R2,?XSP + 0
        MOV     R3,?XSP + 1
        LCALL   `??osal_memset::?relay`; Banked call to: osal_memset
// 2668 
// 2669     // Initialize first element of the table with the default TCLK
// 2670     if((i == 0) && ( zgUseDefaultTCLK == TRUE ))
        MOV     DPTR,#zgUseDefaultTCLK
        MOVX    A,@DPTR
        XRL     A,#0x1
        JNZ     ??APSME_TCLinkKeyInit_0
// 2671     {
// 2672       osal_memset( tcLinkKey.extAddr, 0xFF, Z_EXTADDR_LEN );
        ; Setup parameters for call to function osal_memset
        MOV     R4,#0x8
        MOV     R5,#0x0
        MOV     R1,#-0x1
        MOV     R2,?XSP + 0
        MOV     R3,?XSP + 1
        LCALL   `??osal_memset::?relay`; Banked call to: osal_memset
// 2673       osal_memcpy( tcLinkKey.key, defaultTCLinkKey, SEC_KEY_LEN);
        ; Setup parameters for call to function osal_memcpy
        MOV     ?V0,#defaultTCLinkKey & 0xff
        MOV     ?V1,#(defaultTCLinkKey >> 8) & 0xff
        MOV     ?V2,#-0x80
        MOV     R0,#?V0
        LCALL   ?PUSH_XSTACK_I_THREE
          CFI CFA_XSP16 add(XSP16, 46)
        MOV     R4,#0x10
        MOV     R5,#0x0
        MOV     A,#0xb
        LCALL   ?XSTACK_DISP0_8
        MOV     R2,DPL
        MOV     R3,DPH
        LCALL   `??osal_memcpy::?relay`; Banked call to: osal_memcpy
        MOV     A,#0x3
        LCALL   ?DEALLOC_XSTACK8
          CFI CFA_XSP16 add(XSP16, 43)
// 2674     }
// 2675 
// 2676     // If the item doesn't exist in NV memory, create and initialize
// 2677     // it with the default value passed in, either defaultTCLK or 0
// 2678     rtrn = osal_nv_item_init( (ZCD_NV_TCLK_TABLE_START + i),
// 2679                                sizeof(APSME_TCLinkKey_t), &tcLinkKey);
// 2680 
// 2681     if (rtrn == SUCCESS)
??APSME_TCLinkKeyInit_0:
        ; Setup parameters for call to function osal_nv_item_init
        MOV     R0,?XSP + 0
        MOV     R1,?XSP + 1
        MOV     ?V0,R0
        MOV     ?V1,R1
        MOV     R0,#?V0
        LCALL   ?PUSH_XSTACK_I_TWO
          CFI CFA_XSP16 add(XSP16, 45)
        MOV     R4,#0x20
        MOV     R5,#0x0
        MOV     R2,#0x1
        MOV     R3,#0x1
        LCALL   `??osal_nv_item_init::?relay`; Banked call to: osal_nv_item_init
        MOV     A,#0x2
        LCALL   ?DEALLOC_XSTACK8
          CFI CFA_XSP16 add(XSP16, 43)
        MOV     A,R1
        JNZ     ??APSME_TCLinkKeyInit_1
// 2682     {
// 2683       // set the Frame counters to 0 to existing keys in NV
// 2684       osal_nv_read( ( ZCD_NV_TCLK_TABLE_START + i), 0,
// 2685                      sizeof(APSME_TCLinkKey_t), &tcLinkKey );
        ; Setup parameters for call to function osal_nv_read
        MOV     R0,#?V0
        LCALL   ?PUSH_XSTACK_I_TWO
          CFI CFA_XSP16 add(XSP16, 45)
        MOV     ?V0,#0x20
        MOV     ?V1,#0x0
        MOV     R0,#?V0
        LCALL   ?PUSH_XSTACK_I_TWO
          CFI CFA_XSP16 add(XSP16, 47)
        MOV     R4,#0x0
        MOV     R5,#0x0
        MOV     R2,#0x1
        MOV     R3,#0x1
        LCALL   `??osal_nv_read::?relay`; Banked call to: osal_nv_read
        MOV     A,#0x4
        LCALL   ?DEALLOC_XSTACK8
          CFI CFA_XSP16 add(XSP16, 43)
// 2686 
// 2687 #if defined ( NV_RESTORE )
// 2688       if (setDefault == TRUE)
// 2689       {
// 2690         // clear the value stored in NV
// 2691         tcLinkKey.txFrmCntr = 0;
// 2692       }
// 2693       else
// 2694       {
// 2695         // increase the value stored in NV
// 2696         tcLinkKey.txFrmCntr += ( MAX_TCLK_FRAMECOUNTER_CHANGES + 1 );
// 2697       }
// 2698 #else
// 2699       // Clear the counters if NV_RESTORE is not enabled and this NV item
// 2700       // already existed in the NV memory
// 2701       tcLinkKey.txFrmCntr = 0;
        MOV     A,#0x18
        LCALL   ?XSTACK_DISP0_8
        LCALL   ??Subroutine68_0 & 0xFFFF
// 2702       tcLinkKey.rxFrmCntr = 0;
??CrossCallReturnLabel_146:
        MOV     A,#0x1c
        LCALL   ?XSTACK_DISP0_8
        LCALL   ??Subroutine68_0 & 0xFFFF
// 2703 #endif  // NV_RESTORE
// 2704 
// 2705       osal_nv_write( ( ZCD_NV_TCLK_TABLE_START + i), 0,
// 2706                       sizeof(APSME_TCLinkKey_t), &tcLinkKey );
??CrossCallReturnLabel_147:
        ; Setup parameters for call to function osal_nv_write
        MOV     R0,?XSP + 0
        MOV     R1,?XSP + 1
        MOV     ?V0,R0
        MOV     ?V1,R1
        MOV     R0,#?V0
        LCALL   ?PUSH_XSTACK_I_TWO
          CFI CFA_XSP16 add(XSP16, 45)
        MOV     ?V0,#0x20
        MOV     ?V1,#0x0
        MOV     R0,#?V0
        LCALL   ?PUSH_XSTACK_I_TWO
          CFI CFA_XSP16 add(XSP16, 47)
        MOV     R4,#0x0
        MOV     R5,#0x0
        MOV     R2,#0x1
        MOV     R3,#0x1
        LCALL   `??osal_nv_write::?relay`; Banked call to: osal_nv_write
        MOV     A,#0x4
        LCALL   ?DEALLOC_XSTACK8
          CFI CFA_XSP16 add(XSP16, 43)
// 2707 
// 2708       // set initial values for counters in RAM
// 2709       TCLinkKeyFrmCntr[i].txFrmCntr = tcLinkKey.txFrmCntr;
        MOV     A,#0x18
        LCALL   ?XSTACK_DISP0_8
        LCALL   ?XLOAD_R0123
        MOV     DPTR,#TCLinkKeyFrmCntr
        LCALL   ?XSTORE_R0123
// 2710       TCLinkKeyFrmCntr[i].rxFrmCntr = tcLinkKey.rxFrmCntr;
        MOV     A,#0x1c
        LCALL   ?XSTACK_DISP0_8
        LCALL   ?XLOAD_R0123
        MOV     DPTR,#TCLinkKeyFrmCntr + 4
        LCALL   ?XSTORE_R0123
// 2711     }
// 2712   }
// 2713 
// 2714   // clear copy of key in RAM
// 2715   osal_memset( &tcLinkKey, 0x00, sizeof(APSME_TCLinkKey_t) );
??APSME_TCLinkKeyInit_1:
        ; Setup parameters for call to function osal_memset
        MOV     R4,#0x20
        MOV     R5,#0x0
        MOV     R1,#0x0
        MOV     R2,?XSP + 0
        MOV     R3,?XSP + 1
        LCALL   `??osal_memset::?relay`; Banked call to: osal_memset
// 2716 
// 2717 }
        MOV     A,#0x20
        LCALL   ?DEALLOC_XSTACK8
          CFI CFA_XSP16 add(XSP16, 11)
        MOV     R7,#0x3
        LJMP    ?BANKED_LEAVE_XDATA
          CFI R6 SameValue
          CFI VB SameValue
          CFI V0 SameValue
          CFI V1 SameValue
          CFI V2 SameValue
          CFI R7 SameValue
          CFI ?RET_LOW Frame(CFA_SP, 1)
          CFI ?RET_HIGH Frame(CFA_SP, 2)
          CFI ?BRET_EXT Frame(CFA_SP, 3)
          CFI DPL0 SameValue
          CFI DPH0 SameValue
          CFI CFA_SP SP+-3
          CFI CFA_XSP16 XSP16+0
          CFI EndBlock cfiBlock413
// 2718 
// 2719 /******************************************************************************
// 2720  * @fn          APSME_TCLinkKeySync
// 2721  *
// 2722  * @brief       Sync Trust Center LINK key data.
// 2723  *
// 2724  * @param       srcAddr - [in] srcAddr
// 2725  * @param       si      - [in, out] SSP_Info_t
// 2726  *
// 2727  * @return      ZStatus_t
// 2728  */

        RSEG BANKED_CODE:CODE:NOROOT(0)
// 2729 ZStatus_t APSME_TCLinkKeySync( uint16 srcAddr, SSP_Info_t* si )
APSME_TCLinkKeySync:
          CFI Block cfiBlock414 Using cfiCommon0
          CFI Function APSME_TCLinkKeySync
        CODE
// 2730 {
        FUNCALL APSME_TCLinkKeySync, AddrMgrExtAddrValid
        LOCFRAME ISTACK, 0, STACK
        LOCFRAME PSTACK, 0, STACK
        LOCFRAME XSTACK, 48, STACK
        LOCFRAME IOVERLAY, 0, STATIC
        LOCFRAME DOVERLAY, 0, STATIC
        ARGFRAME ISTACK, 0, STACK
        ARGFRAME PSTACK, 0, STACK
        ARGFRAME XSTACK, 48, STACK
        ARGFRAME IOVERLAY, 0, STATIC
        ARGFRAME DOVERLAY, 0, STATIC
        FUNCALL APSME_TCLinkKeySync, APSME_LookupExtAddr
        LOCFRAME ISTACK, 0, STACK
        LOCFRAME PSTACK, 0, STACK
        LOCFRAME XSTACK, 48, STACK
        LOCFRAME IOVERLAY, 0, STATIC
        LOCFRAME DOVERLAY, 0, STATIC
        ARGFRAME ISTACK, 0, STACK
        ARGFRAME PSTACK, 0, STACK
        ARGFRAME XSTACK, 48, STACK
        ARGFRAME IOVERLAY, 0, STATIC
        ARGFRAME DOVERLAY, 0, STATIC
        FUNCALL APSME_TCLinkKeySync, sAddrExtCmp
        LOCFRAME ISTACK, 0, STACK
        LOCFRAME PSTACK, 0, STACK
        LOCFRAME XSTACK, 48, STACK
        LOCFRAME IOVERLAY, 0, STATIC
        LOCFRAME DOVERLAY, 0, STATIC
        ARGFRAME ISTACK, 0, STACK
        ARGFRAME PSTACK, 0, STACK
        ARGFRAME XSTACK, 48, STACK
        ARGFRAME IOVERLAY, 0, STATIC
        ARGFRAME DOVERLAY, 0, STATIC
        FUNCALL APSME_TCLinkKeySync, osal_nv_read
        LOCFRAME ISTACK, 0, STACK
        LOCFRAME PSTACK, 0, STACK
        LOCFRAME XSTACK, 52, STACK
        LOCFRAME IOVERLAY, 0, STATIC
        LOCFRAME DOVERLAY, 0, STATIC
        ARGFRAME ISTACK, 0, STACK
        ARGFRAME PSTACK, 0, STACK
        ARGFRAME XSTACK, 52, STACK
        ARGFRAME IOVERLAY, 0, STATIC
        ARGFRAME DOVERLAY, 0, STATIC
        FUNCALL APSME_TCLinkKeySync, AddrMgrExtAddrEqual
        LOCFRAME ISTACK, 0, STACK
        LOCFRAME PSTACK, 0, STACK
        LOCFRAME XSTACK, 48, STACK
        LOCFRAME IOVERLAY, 0, STATIC
        LOCFRAME DOVERLAY, 0, STATIC
        ARGFRAME ISTACK, 0, STACK
        ARGFRAME PSTACK, 0, STACK
        ARGFRAME XSTACK, 48, STACK
        ARGFRAME IOVERLAY, 0, STATIC
        ARGFRAME DOVERLAY, 0, STATIC
        FUNCALL APSME_TCLinkKeySync, osal_isbufset
        LOCFRAME ISTACK, 0, STACK
        LOCFRAME PSTACK, 0, STACK
        LOCFRAME XSTACK, 48, STACK
        LOCFRAME IOVERLAY, 0, STATIC
        LOCFRAME DOVERLAY, 0, STATIC
        ARGFRAME ISTACK, 0, STACK
        ARGFRAME PSTACK, 0, STACK
        ARGFRAME XSTACK, 48, STACK
        ARGFRAME IOVERLAY, 0, STATIC
        ARGFRAME DOVERLAY, 0, STATIC
        FUNCALL APSME_TCLinkKeySync, osal_memset
        LOCFRAME ISTACK, 0, STACK
        LOCFRAME PSTACK, 0, STACK
        LOCFRAME XSTACK, 48, STACK
        LOCFRAME IOVERLAY, 0, STATIC
        LOCFRAME DOVERLAY, 0, STATIC
        ARGFRAME ISTACK, 0, STACK
        ARGFRAME PSTACK, 0, STACK
        ARGFRAME XSTACK, 48, STACK
        ARGFRAME IOVERLAY, 0, STATIC
        ARGFRAME DOVERLAY, 0, STATIC
        REQUIRE ?V0
        REQUIRE ?V1
        REQUIRE ?V2
        REQUIRE ?V4
        REQUIRE ?V5
        REQUIRE ?V6
        REQUIRE ?V7
        MOV     A,#-0x10
        LCALL   ?BANKED_ENTER_XDATA
          CFI DPH0 load(1, XDATA, add(CFA_XSP16, literal(-1)))
          CFI DPL0 load(1, XDATA, add(CFA_XSP16, literal(-2)))
          CFI ?BRET_EXT load(1, XDATA, add(CFA_XSP16, literal(-3)))
          CFI ?RET_HIGH load(1, XDATA, add(CFA_XSP16, literal(-4)))
          CFI ?RET_LOW load(1, XDATA, add(CFA_XSP16, literal(-5)))
          CFI R7 load(1, XDATA, add(CFA_XSP16, literal(-6)))
          CFI V7 load(1, XDATA, add(CFA_XSP16, literal(-7)))
          CFI V6 load(1, XDATA, add(CFA_XSP16, literal(-8)))
          CFI V5 load(1, XDATA, add(CFA_XSP16, literal(-9)))
          CFI V4 load(1, XDATA, add(CFA_XSP16, literal(-10)))
          CFI V3 load(1, XDATA, add(CFA_XSP16, literal(-11)))
          CFI V2 load(1, XDATA, add(CFA_XSP16, literal(-12)))
          CFI V1 load(1, XDATA, add(CFA_XSP16, literal(-13)))
          CFI V0 load(1, XDATA, add(CFA_XSP16, literal(-14)))
          CFI VB load(1, XDATA, add(CFA_XSP16, literal(-15)))
          CFI R6 load(1, XDATA, add(CFA_XSP16, literal(-16)))
          CFI CFA_SP SP+0
          CFI CFA_XSP16 add(XSP16, 16)
        ; Saved register size: 16
        ; Auto size: 32
        MOV     A,#-0x20
        LCALL   ?ALLOC_XSTACK8
          CFI CFA_XSP16 add(XSP16, 48)
        MOV     ?V4,R2
        MOV     ?V5,R3
        MOV     ?V0,R4
        MOV     ?V1,R5
// 2731   uint8 i, selectedId = ZDSECMGR_TC_DEVICE_MAX;
// 2732   ZStatus_t status = ZSecNoKey;
        MOV     ?V2,#-0x5f
// 2733   APSME_TCLinkKey_t tcLinkKey;
// 2734   uint32 *tclkRxFrmCntr;
// 2735   uint16 originatorAddr = APSME_TRUSTCENTER_NWKADDR;
        MOV     ?V6,#0x0
        MOV     ?V7,#0x0
// 2736 
// 2737   // Look up the IEEE address of the trust center if it's available
// 2738   if ( AddrMgrExtAddrValid( si->extAddr ) == FALSE )
        MOV     A,R4
        ADD     A,#0x6
        MOV     R6,A
        CLR     A
        ADDC    A,?V1
        MOV     R7,A
        ; Setup parameters for call to function AddrMgrExtAddrValid
        MOV     A,R6
        MOV     R2,A
        MOV     A,R7
        MOV     R3,A
        LCALL   `??AddrMgrExtAddrValid::?relay`; Banked call to: AddrMgrExtAddrValid
        MOV     A,R1
        JNZ     ??APSME_TCLinkKeySync_0
// 2739   {
// 2740     APSME_LookupExtAddr( srcAddr, si->extAddr );
        ; Setup parameters for call to function APSME_LookupExtAddr
        MOV     A,R6
        MOV     R4,A
        MOV     A,R7
        MOV     R5,A
        MOV     R2,?V4
        MOV     R3,?V5
        LCALL   `??APSME_LookupExtAddr::?relay`; Banked call to: APSME_LookupExtAddr
        SJMP    ??APSME_TCLinkKeySync_1
// 2741   }
// 2742   else if ( osal_ExtAddrEqual( si->extAddr, _NIB.nwkCoordExtAddress ) )
??APSME_TCLinkKeySync_0:
        ; Setup parameters for call to function sAddrExtCmp
        MOV     R4,#(_NIB + 25) & 0xff
        MOV     R5,#((_NIB + 25) >> 8) & 0xff
        MOV     A,R6
        MOV     R2,A
        MOV     A,R7
        MOV     R3,A
        LCALL   `??sAddrExtCmp::?relay`; Banked call to: sAddrExtCmp
        MOV     A,R1
        JZ      ??APSME_TCLinkKeySync_1
// 2743   {
// 2744     originatorAddr = _NIB.nwkCoordAddress;
        MOV     DPTR,#_NIB + 23
        MOVX    A,@DPTR
        MOV     ?V6,A
        INC     DPTR
        MOVX    A,@DPTR
        MOV     ?V7,A
// 2745     // in case originated not from our parent, use the default TC address
// 2746   }
// 2747 
// 2748   // Look up the TC link key associated with the device
// 2749   // or the default TC link key (extAddr is all FFs), whichever is found
// 2750   for ( i = 0; i < ZDSECMGR_TC_DEVICE_MAX; i++ )
// 2751   {
// 2752     // Read entry i of the TC link key table from NV
// 2753     osal_nv_read( (ZCD_NV_TCLK_TABLE_START + i), 0,
// 2754                  sizeof(APSME_TCLinkKey_t), &tcLinkKey );
??APSME_TCLinkKeySync_1:
        ; Setup parameters for call to function osal_nv_read
        MOV     R0,?XSP + 0
        MOV     R1,?XSP + 1
        MOV     ?V4,R0
        MOV     ?V5,R1
        MOV     R0,#?V4
        LCALL   ?PUSH_XSTACK_I_TWO
          CFI CFA_XSP16 add(XSP16, 50)
        MOV     ?V4,#0x20
        MOV     ?V5,#0x0
        MOV     R0,#?V4
        LCALL   ?PUSH_XSTACK_I_TWO
          CFI CFA_XSP16 add(XSP16, 52)
        MOV     R4,#0x0
        MOV     R5,#0x0
        MOV     R2,#0x1
        MOV     R3,#0x1
        LCALL   `??osal_nv_read::?relay`; Banked call to: osal_nv_read
        MOV     A,#0x4
        LCALL   ?DEALLOC_XSTACK8
          CFI CFA_XSP16 add(XSP16, 48)
// 2755 
// 2756     // prefer exact match over default
// 2757     if ( AddrMgrExtAddrEqual(si->extAddr, tcLinkKey.extAddr) )
        ; Setup parameters for call to function AddrMgrExtAddrEqual
        MOV     R4,?XSP + 0
        MOV     R5,?XSP + 1
        MOV     A,R6
        MOV     R2,A
        MOV     A,R7
        MOV     R3,A
        LCALL   `??AddrMgrExtAddrEqual::?relay`; Banked call to: AddrMgrExtAddrEqual
        MOV     A,R1
        JNZ     ??APSME_TCLinkKeySync_2
// 2758     {
// 2759       selectedId = i;
// 2760       // break from the loop
// 2761       break;
// 2762     }
// 2763     else if ( APSME_IsDefaultTCLK(tcLinkKey.extAddr) )
        ; Setup parameters for call to function osal_isbufset
        MOV     R4,#0x8
        MOV     R1,#-0x1
        MOV     R2,?XSP + 0
        MOV     R3,?XSP + 1
        LCALL   `??osal_isbufset::?relay`; Banked call to: osal_isbufset
        MOV     A,R1
        JZ      ??APSME_TCLinkKeySync_3
// 2764     {
// 2765       if ( ( originatorAddr != APSME_TRUSTCENTER_NWKADDR ) && ( si->keyID == SEC_KEYID_TRANSPORT )
// 2766            && (i == 0) && ( zgUseDefaultTCLK == TRUE ) )
        MOV     A,?V6
        ORL     A,?V7
        JZ      ??APSME_TCLinkKeySync_2
        LCALL   ?Subroutine40 & 0xFFFF
// 2767       {
// 2768         //if a Key is received directly from an unusual TC,
// 2769         // don't use the first element of the table initialized with the default TCLK
// 2770         continue;
// 2771       }
// 2772       if ( selectedId == ZDSECMGR_TC_DEVICE_MAX )
// 2773       {
// 2774         selectedId = i;
// 2775       }
// 2776     }
// 2777   }
??CrossCallReturnLabel_62:
        MOVX    A,@DPTR
        XRL     A,#0x2
        JNZ     ??APSME_TCLinkKeySync_2
        MOV     DPTR,#zgUseDefaultTCLK
        MOVX    A,@DPTR
        XRL     A,#0x1
        JZ      ??APSME_TCLinkKeySync_3
// 2778 
// 2779   if ( selectedId < ZDSECMGR_TC_DEVICE_MAX )
// 2780   {
// 2781      // Only for UNIQUE keys, verify that the incoming frame counter is valid
// 2782     if ( zgApsLinkKeyType == ZG_UNIQUE_LINK_KEY )
??APSME_TCLinkKeySync_2:
        MOV     DPTR,#zgApsLinkKeyType
        MOVX    A,@DPTR
        JNZ     ??APSME_TCLinkKeySync_4
// 2783     {
// 2784       tclkRxFrmCntr = &TCLinkKeyFrmCntr[selectedId].rxFrmCntr;
// 2785 
// 2786       if ( si->frmCntr >= *tclkRxFrmCntr )
        LCALL   ?Subroutine41 & 0xFFFF
??CrossCallReturnLabel_64:
        MOV     R0,#?V4
        LCALL   ?L_MOV_X
        MOV     DPTR,#TCLinkKeyFrmCntr + 4
        MOV     R0,#?V4
        LCALL   ?UL_GE_X
        JNC     ??APSME_TCLinkKeySync_5
// 2787       {
// 2788         // set the keyNvId to use
// 2789         si->keyNvId = (ZCD_NV_TCLK_TABLE_START + selectedId);
        LCALL   ?Subroutine36 & 0xFFFF
// 2790 
// 2791         // update the rx frame counter
// 2792         *tclkRxFrmCntr = si->frmCntr + 1;
??CrossCallReturnLabel_41:
        MOV     DPTR,#__Constant_1
        MOV     R0,#?V4
        LCALL   ?L_ADD_X
        MOV     DPTR,#TCLinkKeyFrmCntr + 4
        MOV     R0,#?V4
        LCALL   ?L_MOV_TO_X
// 2793 
// 2794         status = ZSuccess;
        SJMP    ??CrossCallReturnLabel_42
// 2795       }
// 2796       else
// 2797       {
// 2798         status = ZSecOldFrmCount;
??APSME_TCLinkKeySync_5:
        MOV     ?V2,#-0x5e
        SJMP    ??APSME_TCLinkKeySync_3
// 2799       }
// 2800     }
// 2801     else
// 2802     {
// 2803       // set the keyNvId to use
// 2804       si->keyNvId = (ZCD_NV_TCLK_TABLE_START + selectedId);
??APSME_TCLinkKeySync_4:
        LCALL   ?Subroutine36 & 0xFFFF
// 2805 
// 2806       status = ZSuccess;
??CrossCallReturnLabel_42:
        MOV     ?V2,#0x0
// 2807     }
// 2808   }
// 2809 
// 2810   // clear copy of key in RAM
// 2811   osal_memset( &tcLinkKey, 0x00, sizeof(APSME_TCLinkKey_t) );
??APSME_TCLinkKeySync_3:
        ; Setup parameters for call to function osal_memset
        MOV     R4,#0x20
        MOV     R5,#0x0
        MOV     R1,#0x0
        MOV     R2,?XSP + 0
        MOV     R3,?XSP + 1
        LCALL   `??osal_memset::?relay`; Banked call to: osal_memset
// 2812 
// 2813   return status;
        MOV     R1,?V2
        MOV     A,#0x20
        LCALL   ?DEALLOC_XSTACK8
          CFI CFA_XSP16 add(XSP16, 16)
        MOV     R7,#0x8
        LJMP    ?BANKED_LEAVE_XDATA
          CFI R6 SameValue
          CFI VB SameValue
          CFI V0 SameValue
          CFI V1 SameValue
          CFI V2 SameValue
          CFI V3 SameValue
          CFI V4 SameValue
          CFI V5 SameValue
          CFI V6 SameValue
          CFI V7 SameValue
          CFI R7 SameValue
          CFI ?RET_LOW Frame(CFA_SP, 1)
          CFI ?RET_HIGH Frame(CFA_SP, 2)
          CFI ?BRET_EXT Frame(CFA_SP, 3)
          CFI DPL0 SameValue
          CFI DPH0 SameValue
          CFI CFA_SP SP+-3
          CFI CFA_XSP16 XSP16+0
// 2814 }
          CFI EndBlock cfiBlock414
// 2815 
// 2816 /******************************************************************************
// 2817  * @fn          APSME_TCLinkKeyLoad
// 2818  *
// 2819  * @brief       Load Trust Center LINK key data.
// 2820  *
// 2821  * @param       dstAddr - [in] dstAddr
// 2822  * @param       si      - [in, out] SSP_Info_t
// 2823  *
// 2824  * @return      ZStatus_t
// 2825  */

        RSEG BANKED_CODE:CODE:NOROOT(0)
// 2826 ZStatus_t APSME_TCLinkKeyLoad( uint16 dstAddr, SSP_Info_t* si )
APSME_TCLinkKeyLoad:
          CFI Block cfiBlock415 Using cfiCommon0
          CFI Function APSME_TCLinkKeyLoad
        CODE
// 2827 {
        FUNCALL APSME_TCLinkKeyLoad, AddrMgrExtAddrValid
        LOCFRAME ISTACK, 0, STACK
        LOCFRAME PSTACK, 0, STACK
        LOCFRAME XSTACK, 59, STACK
        LOCFRAME IOVERLAY, 0, STATIC
        LOCFRAME DOVERLAY, 0, STATIC
        ARGFRAME ISTACK, 0, STACK
        ARGFRAME PSTACK, 0, STACK
        ARGFRAME XSTACK, 59, STACK
        ARGFRAME IOVERLAY, 0, STATIC
        ARGFRAME DOVERLAY, 0, STATIC
        FUNCALL APSME_TCLinkKeyLoad, osal_nv_read
        LOCFRAME ISTACK, 0, STACK
        LOCFRAME PSTACK, 0, STACK
        LOCFRAME XSTACK, 63, STACK
        LOCFRAME IOVERLAY, 0, STATIC
        LOCFRAME DOVERLAY, 0, STATIC
        ARGFRAME ISTACK, 0, STACK
        ARGFRAME PSTACK, 0, STACK
        ARGFRAME XSTACK, 63, STACK
        ARGFRAME IOVERLAY, 0, STATIC
        ARGFRAME DOVERLAY, 0, STATIC
        FUNCALL APSME_TCLinkKeyLoad, AddrMgrExtAddrEqual
        LOCFRAME ISTACK, 0, STACK
        LOCFRAME PSTACK, 0, STACK
        LOCFRAME XSTACK, 59, STACK
        LOCFRAME IOVERLAY, 0, STATIC
        LOCFRAME DOVERLAY, 0, STATIC
        ARGFRAME ISTACK, 0, STACK
        ARGFRAME PSTACK, 0, STACK
        ARGFRAME XSTACK, 59, STACK
        ARGFRAME IOVERLAY, 0, STATIC
        ARGFRAME DOVERLAY, 0, STATIC
        FUNCALL APSME_TCLinkKeyLoad, osal_isbufset
        LOCFRAME ISTACK, 0, STACK
        LOCFRAME PSTACK, 0, STACK
        LOCFRAME XSTACK, 59, STACK
        LOCFRAME IOVERLAY, 0, STATIC
        LOCFRAME DOVERLAY, 0, STATIC
        ARGFRAME ISTACK, 0, STACK
        ARGFRAME PSTACK, 0, STACK
        ARGFRAME XSTACK, 59, STACK
        ARGFRAME IOVERLAY, 0, STATIC
        ARGFRAME DOVERLAY, 0, STATIC
        FUNCALL APSME_TCLinkKeyLoad, APSME_IsDistributedSecurity
        LOCFRAME ISTACK, 0, STACK
        LOCFRAME PSTACK, 0, STACK
        LOCFRAME XSTACK, 59, STACK
        LOCFRAME IOVERLAY, 0, STATIC
        LOCFRAME DOVERLAY, 0, STATIC
        ARGFRAME ISTACK, 0, STACK
        ARGFRAME PSTACK, 0, STACK
        ARGFRAME XSTACK, 59, STACK
        ARGFRAME IOVERLAY, 0, STATIC
        ARGFRAME DOVERLAY, 0, STATIC
        FUNCALL APSME_TCLinkKeyLoad, AddrMgrEntryLookupNwk
        LOCFRAME ISTACK, 0, STACK
        LOCFRAME PSTACK, 0, STACK
        LOCFRAME XSTACK, 59, STACK
        LOCFRAME IOVERLAY, 0, STATIC
        LOCFRAME DOVERLAY, 0, STATIC
        ARGFRAME ISTACK, 0, STACK
        ARGFRAME PSTACK, 0, STACK
        ARGFRAME XSTACK, 59, STACK
        ARGFRAME IOVERLAY, 0, STATIC
        ARGFRAME DOVERLAY, 0, STATIC
        FUNCALL APSME_TCLinkKeyLoad, AddrMgrEntryRelease
        LOCFRAME ISTACK, 0, STACK
        LOCFRAME PSTACK, 0, STACK
        LOCFRAME XSTACK, 59, STACK
        LOCFRAME IOVERLAY, 0, STATIC
        LOCFRAME DOVERLAY, 0, STATIC
        ARGFRAME ISTACK, 0, STACK
        ARGFRAME PSTACK, 0, STACK
        ARGFRAME XSTACK, 59, STACK
        ARGFRAME IOVERLAY, 0, STATIC
        ARGFRAME DOVERLAY, 0, STATIC
        FUNCALL APSME_TCLinkKeyLoad, osal_memset
        LOCFRAME ISTACK, 0, STACK
        LOCFRAME PSTACK, 0, STACK
        LOCFRAME XSTACK, 59, STACK
        LOCFRAME IOVERLAY, 0, STATIC
        LOCFRAME DOVERLAY, 0, STATIC
        ARGFRAME ISTACK, 0, STACK
        ARGFRAME PSTACK, 0, STACK
        ARGFRAME XSTACK, 59, STACK
        ARGFRAME IOVERLAY, 0, STATIC
        ARGFRAME DOVERLAY, 0, STATIC
        REQUIRE ?V0
        REQUIRE ?V1
        REQUIRE ?V2
        REQUIRE ?V3
        REQUIRE ?V4
        REQUIRE ?V5
        MOV     A,#-0xe
        LCALL   ?BANKED_ENTER_XDATA
          CFI DPH0 load(1, XDATA, add(CFA_XSP16, literal(-1)))
          CFI DPL0 load(1, XDATA, add(CFA_XSP16, literal(-2)))
          CFI ?BRET_EXT load(1, XDATA, add(CFA_XSP16, literal(-3)))
          CFI ?RET_HIGH load(1, XDATA, add(CFA_XSP16, literal(-4)))
          CFI ?RET_LOW load(1, XDATA, add(CFA_XSP16, literal(-5)))
          CFI R7 load(1, XDATA, add(CFA_XSP16, literal(-6)))
          CFI V5 load(1, XDATA, add(CFA_XSP16, literal(-7)))
          CFI V4 load(1, XDATA, add(CFA_XSP16, literal(-8)))
          CFI V3 load(1, XDATA, add(CFA_XSP16, literal(-9)))
          CFI V2 load(1, XDATA, add(CFA_XSP16, literal(-10)))
          CFI V1 load(1, XDATA, add(CFA_XSP16, literal(-11)))
          CFI V0 load(1, XDATA, add(CFA_XSP16, literal(-12)))
          CFI VB load(1, XDATA, add(CFA_XSP16, literal(-13)))
          CFI R6 load(1, XDATA, add(CFA_XSP16, literal(-14)))
          CFI CFA_SP SP+0
          CFI CFA_XSP16 add(XSP16, 14)
        ; Saved register size: 14
        ; Auto size: 45
        MOV     A,#-0x2d
        LCALL   ?ALLOC_XSTACK8
          CFI CFA_XSP16 add(XSP16, 59)
        MOV     ?V0,R4
        MOV     ?V1,R5
// 2828   uint8 i;
// 2829   ZStatus_t status = ZSecNoKey;
        MOV     R6,#-0x5f
// 2830   APSME_TCLinkKey_t tcLinkKey;
// 2831   AddrMgrEntry_t addrEntry;
// 2832   uint32 *tclkTxFrmCntr;
// 2833   uint8 extAddrFound;
// 2834   uint8 defaultTCLKIdx = ZDSECMGR_TC_DEVICE_MAX;
// 2835 
// 2836   // Look up the ami of the srcAddr if available
// 2837   addrEntry.user    = ADDRMGR_USER_DEFAULT;
        MOV     DPL,?XSP + 0
        MOV     DPH,?XSP + 1
        CLR     A
        MOVX    @DPTR,A
// 2838   addrEntry.nwkAddr = dstAddr;
        INC     A
        LCALL   ?XSTACK_DISP0_8
        MOV     A,R2
        MOVX    @DPTR,A
        INC     DPTR
        MOV     A,R3
        MOVX    @DPTR,A
// 2839 
// 2840   extAddrFound = AddrMgrExtAddrValid( si->extAddr );
        MOV     A,R4
        ADD     A,#0x6
        MOV     ?V2,A
        CLR     A
        ADDC    A,?V1
        MOV     ?V3,A
        ; Setup parameters for call to function AddrMgrExtAddrValid
        MOV     R2,?V2
        MOV     R3,A
        LCALL   `??AddrMgrExtAddrValid::?relay`; Banked call to: AddrMgrExtAddrValid
        MOV     A,R1
        MOV     R7,A
// 2841 
// 2842   // Look up the TC link key associated with the device
// 2843   // or the master TC link key (ami = 0xFFFF), whichever is found
// 2844   for( i = 0; i < ZDSECMGR_TC_DEVICE_MAX; i++ )
// 2845   {
// 2846     // Read entry i of the TC link key table from NV
// 2847     osal_nv_read( (ZCD_NV_TCLK_TABLE_START + i), 0,
// 2848                  sizeof(APSME_TCLinkKey_t), &tcLinkKey );
        ; Setup parameters for call to function osal_nv_read
        MOV     A,#0xd
        LCALL   ?XSTACK_DISP100_8
        MOV     ?V4,R0
        MOV     ?V5,R1
        MOV     R0,#?V4
        LCALL   ?PUSH_XSTACK_I_TWO
          CFI CFA_XSP16 add(XSP16, 61)
        MOV     ?V4,#0x20
        MOV     ?V5,#0x0
        MOV     R0,#?V4
        LCALL   ?PUSH_XSTACK_I_TWO
          CFI CFA_XSP16 add(XSP16, 63)
        MOV     R4,#0x0
        MOV     R5,#0x0
        MOV     R2,#0x1
        MOV     R3,#0x1
        LCALL   `??osal_nv_read::?relay`; Banked call to: osal_nv_read
        MOV     A,#0x4
        LCALL   ?DEALLOC_XSTACK8
          CFI CFA_XSP16 add(XSP16, 59)
// 2849 
// 2850     if( extAddrFound && AddrMgrExtAddrEqual(si->extAddr, tcLinkKey.extAddr) )
        MOV     A,R7
        JZ      ??APSME_TCLinkKeyLoad_0
        ; Setup parameters for call to function AddrMgrExtAddrEqual
        MOV     A,#0xd
        LCALL   ?XSTACK_DISP102_8
        MOV     R2,?V2
        MOV     R3,?V3
        LCALL   `??AddrMgrExtAddrEqual::?relay`; Banked call to: AddrMgrExtAddrEqual
        MOV     A,R1
        JNZ     ??APSME_TCLinkKeyLoad_1
// 2851     {
// 2852       status = ZSuccess;
// 2853 
// 2854       break; // break from the loop
// 2855     }
// 2856 
// 2857     if ( APSME_IsDefaultTCLK(tcLinkKey.extAddr) )
??APSME_TCLinkKeyLoad_0:
        ; Setup parameters for call to function osal_isbufset
        MOV     R4,#0x8
        MOV     R1,#-0x1
        MOV     A,#0xd
        LCALL   ?XSTACK_DISP101_8
        LCALL   `??osal_isbufset::?relay`; Banked call to: osal_isbufset
        MOV     A,R1
        JZ      ??APSME_TCLinkKeyLoad_2
// 2858     {
// 2859       if ( !extAddrFound && ( !APSME_IsDistributedSecurity() ) )
        MOV     A,R7
        JNZ     ??APSME_TCLinkKeyLoad_1
        ; Setup parameters for call to function APSME_IsDistributedSecurity
        LCALL   `??APSME_IsDistributedSecurity::?relay`; Banked call to: APSME_IsDistributedSecurity
        MOV     A,R1
// 2860       {
// 2861         status = ZSuccess;
// 2862 
// 2863         break; // break from the loop
// 2864       }
// 2865 
// 2866       // Remember the last default TCLK index
// 2867       defaultTCLKIdx = i;
// 2868     }
// 2869   }
// 2870 
// 2871   if ( (status != ZSuccess) && (defaultTCLKIdx < ZDSECMGR_TC_DEVICE_MAX) )
// 2872   {
// 2873     // Exact match was not found; use the last default TC Link Key
// 2874     i = defaultTCLKIdx;
// 2875     status = ZSuccess;
// 2876   }
// 2877 
// 2878   if ( status == ZSuccess )
??APSME_TCLinkKeyLoad_1:
        MOV     R6,#0x0
// 2879   {
// 2880     tclkTxFrmCntr = &TCLinkKeyFrmCntr[i].txFrmCntr;
// 2881 
// 2882     // set the keyNvId to use
// 2883     si->keyNvId = (ZCD_NV_TCLK_TABLE_START + i);
        LCALL   ?Subroutine36 & 0xFFFF
// 2884 
// 2885     // update link key related fields
// 2886     si->keyID   = SEC_KEYID_LINK;
??CrossCallReturnLabel_43:
        LCALL   ?Subroutine40 & 0xFFFF
??CrossCallReturnLabel_63:
        CLR     A
        MOVX    @DPTR,A
// 2887     si->frmCntr = *tclkTxFrmCntr;
        MOV     DPTR,#TCLinkKeyFrmCntr
        LCALL   ?XLOAD_R0123
        LCALL   ?Subroutine41 & 0xFFFF
??CrossCallReturnLabel_65:
        LCALL   ?XSTORE_R0123
// 2888 
// 2889     // update outgoing frame counter
// 2890     (*tclkTxFrmCntr)++;
        MOV     DPTR,#__Constant_1
        MOV     R0,#?V0
        LCALL   ?L_MOV_X
        MOV     DPTR,#TCLinkKeyFrmCntr
        MOV     R0,#?V0
        LCALL   ?L_ADD_TO_X
        SJMP    ??APSME_TCLinkKeyLoad_3
??APSME_TCLinkKeyLoad_2:
        ; Setup parameters for call to function AddrMgrEntryLookupNwk
// 2891 
// 2892 #if defined ( NV_RESTORE )
// 2893     // write periodically to NV
// 2894     if ( !(*tclkTxFrmCntr % MAX_TCLK_FRAMECOUNTER_CHANGES) )
// 2895     {
// 2896       // set the flag to write key to NV
// 2897       TCLinkKeyFrmCntr[i].pendingFlag = TRUE;
// 2898 
// 2899       // Notify the ZDApp that the frame counter has changed.
// 2900       osal_set_event( ZDAppTaskID, ZDO_TCLK_FRAMECOUNTER_CHANGE );
// 2901     }
// 2902 #endif
// 2903   }
        MOV     R2,?XSP + 0
        MOV     R3,?XSP + 1
        LCALL   `??AddrMgrEntryLookupNwk::?relay`; Banked call to: AddrMgrEntryLookupNwk
        MOV     A,R1
        XRL     A,#0x1
        JNZ     ??APSME_TCLinkKeyLoad_3
// 2904 
// 2905   // If no TC link key found, remove the device from the address manager
// 2906   if ( (status != ZSuccess) && (AddrMgrEntryLookupNwk(&addrEntry) == TRUE) )
// 2907   {
// 2908     AddrMgrEntryRelease( &addrEntry );
        ; Setup parameters for call to function AddrMgrEntryRelease
        MOV     R2,?XSP + 0
        MOV     R3,?XSP + 1
        LCALL   `??AddrMgrEntryRelease::?relay`; Banked call to: AddrMgrEntryRelease
// 2909   }
// 2910 
// 2911     // clear copy of key in RAM
// 2912   osal_memset( &tcLinkKey, 0x00, sizeof(APSME_TCLinkKey_t) );
??APSME_TCLinkKeyLoad_3:
        ; Setup parameters for call to function osal_memset
        MOV     R4,#0x20
        MOV     R5,#0x0
        MOV     R1,#0x0
        MOV     A,#0xd
        LCALL   ?XSTACK_DISP101_8
        LCALL   `??osal_memset::?relay`; Banked call to: osal_memset
// 2913 
// 2914   return status;
        MOV     A,R6
        MOV     R1,A
        MOV     A,#0x2d
        LJMP    ?Subroutine3 & 0xFFFF
// 2915 }
          CFI EndBlock cfiBlock415

        RSEG BANKED_CODE:CODE:NOROOT(0)
?Subroutine41:
          CFI Block cfiCond416 Using cfiCommon0
          CFI Function APSME_TCLinkKeySync
          CFI Conditional ??CrossCallReturnLabel_64
          CFI R6 load(1, XDATA, add(CFA_XSP16, literal(-16)))
          CFI VB load(1, XDATA, add(CFA_XSP16, literal(-15)))
          CFI V0 load(1, XDATA, add(CFA_XSP16, literal(-14)))
          CFI V1 load(1, XDATA, add(CFA_XSP16, literal(-13)))
          CFI V2 load(1, XDATA, add(CFA_XSP16, literal(-12)))
          CFI V3 load(1, XDATA, add(CFA_XSP16, literal(-11)))
          CFI V4 load(1, XDATA, add(CFA_XSP16, literal(-10)))
          CFI V5 load(1, XDATA, add(CFA_XSP16, literal(-9)))
          CFI V6 load(1, XDATA, add(CFA_XSP16, literal(-8)))
          CFI V7 load(1, XDATA, add(CFA_XSP16, literal(-7)))
          CFI R7 load(1, XDATA, add(CFA_XSP16, literal(-6)))
          CFI ?RET_LOW load(1, XDATA, add(CFA_XSP16, literal(-5)))
          CFI ?RET_HIGH load(1, XDATA, add(CFA_XSP16, literal(-4)))
          CFI ?BRET_EXT load(1, XDATA, add(CFA_XSP16, literal(-3)))
          CFI DPL0 load(1, XDATA, add(CFA_XSP16, literal(-2)))
          CFI DPH0 load(1, XDATA, add(CFA_XSP16, literal(-1)))
          CFI CFA_SP SP+-2
          CFI CFA_XSP16 add(XSP16, 48)
          CFI Block cfiCond417 Using cfiCommon0
          CFI (cfiCond417) Function APSME_TCLinkKeyLoad
          CFI (cfiCond417) Conditional ??CrossCallReturnLabel_65
          CFI (cfiCond417) R6 load(1, XDATA, add(CFA_XSP16, literal(-14)))
          CFI (cfiCond417) VB load(1, XDATA, add(CFA_XSP16, literal(-13)))
          CFI (cfiCond417) V0 load(1, XDATA, add(CFA_XSP16, literal(-12)))
          CFI (cfiCond417) V1 load(1, XDATA, add(CFA_XSP16, literal(-11)))
          CFI (cfiCond417) V2 load(1, XDATA, add(CFA_XSP16, literal(-10)))
          CFI (cfiCond417) V3 load(1, XDATA, add(CFA_XSP16, literal(-9)))
          CFI (cfiCond417) V4 load(1, XDATA, add(CFA_XSP16, literal(-8)))
          CFI (cfiCond417) V5 load(1, XDATA, add(CFA_XSP16, literal(-7)))
          CFI (cfiCond417) R7 load(1, XDATA, add(CFA_XSP16, literal(-6)))
          CFI (cfiCond417) ?RET_LOW load(1, XDATA, add(CFA_XSP16, literal(-5)))
          CFI (cfiCond417) ?RET_HIGH load(1, XDATA, add(CFA_XSP16, literal(-4)))
          CFI (cfiCond417) ?BRET_EXT load(1, XDATA, add(CFA_XSP16, literal(-3)))
          CFI (cfiCond417) DPL0 load(1, XDATA, add(CFA_XSP16, literal(-2)))
          CFI (cfiCond417) DPH0 load(1, XDATA, add(CFA_XSP16, literal(-1)))
          CFI (cfiCond417) CFA_SP SP+-2
          CFI (cfiCond417) CFA_XSP16 add(XSP16, 59)
          CFI Block cfiPicker418 Using cfiCommon1
          CFI (cfiPicker418) NoFunction
          CFI (cfiPicker418) Picker
        MOV     A,?V0
        ADD     A,#0x12
        MOV     DPL,A
        CLR     A
        ADDC    A,?V1
        MOV     DPH,A
        RET
          CFI (cfiCond416) CFA_SP SP+0
          CFI (cfiCond417) CFA_SP SP+0
          CFI (cfiPicker418) CFA_SP SP+0
          CFI EndBlock cfiCond416
          CFI EndBlock cfiCond417
          CFI EndBlock cfiPicker418

        RSEG BANKED_CODE:CODE:NOROOT(0)
?Subroutine40:
          CFI Block cfiCond419 Using cfiCommon0
          CFI Function APSME_TCLinkKeySync
          CFI Conditional ??CrossCallReturnLabel_62
          CFI R6 load(1, XDATA, add(CFA_XSP16, literal(-16)))
          CFI VB load(1, XDATA, add(CFA_XSP16, literal(-15)))
          CFI V0 load(1, XDATA, add(CFA_XSP16, literal(-14)))
          CFI V1 load(1, XDATA, add(CFA_XSP16, literal(-13)))
          CFI V2 load(1, XDATA, add(CFA_XSP16, literal(-12)))
          CFI V3 load(1, XDATA, add(CFA_XSP16, literal(-11)))
          CFI V4 load(1, XDATA, add(CFA_XSP16, literal(-10)))
          CFI V5 load(1, XDATA, add(CFA_XSP16, literal(-9)))
          CFI V6 load(1, XDATA, add(CFA_XSP16, literal(-8)))
          CFI V7 load(1, XDATA, add(CFA_XSP16, literal(-7)))
          CFI R7 load(1, XDATA, add(CFA_XSP16, literal(-6)))
          CFI ?RET_LOW load(1, XDATA, add(CFA_XSP16, literal(-5)))
          CFI ?RET_HIGH load(1, XDATA, add(CFA_XSP16, literal(-4)))
          CFI ?BRET_EXT load(1, XDATA, add(CFA_XSP16, literal(-3)))
          CFI DPL0 load(1, XDATA, add(CFA_XSP16, literal(-2)))
          CFI DPH0 load(1, XDATA, add(CFA_XSP16, literal(-1)))
          CFI CFA_SP SP+-2
          CFI CFA_XSP16 add(XSP16, 48)
          CFI Block cfiCond420 Using cfiCommon0
          CFI (cfiCond420) Function APSME_TCLinkKeyLoad
          CFI (cfiCond420) Conditional ??CrossCallReturnLabel_63
          CFI (cfiCond420) R6 load(1, XDATA, add(CFA_XSP16, literal(-14)))
          CFI (cfiCond420) VB load(1, XDATA, add(CFA_XSP16, literal(-13)))
          CFI (cfiCond420) V0 load(1, XDATA, add(CFA_XSP16, literal(-12)))
          CFI (cfiCond420) V1 load(1, XDATA, add(CFA_XSP16, literal(-11)))
          CFI (cfiCond420) V2 load(1, XDATA, add(CFA_XSP16, literal(-10)))
          CFI (cfiCond420) V3 load(1, XDATA, add(CFA_XSP16, literal(-9)))
          CFI (cfiCond420) V4 load(1, XDATA, add(CFA_XSP16, literal(-8)))
          CFI (cfiCond420) V5 load(1, XDATA, add(CFA_XSP16, literal(-7)))
          CFI (cfiCond420) R7 load(1, XDATA, add(CFA_XSP16, literal(-6)))
          CFI (cfiCond420) ?RET_LOW load(1, XDATA, add(CFA_XSP16, literal(-5)))
          CFI (cfiCond420) ?RET_HIGH load(1, XDATA, add(CFA_XSP16, literal(-4)))
          CFI (cfiCond420) ?BRET_EXT load(1, XDATA, add(CFA_XSP16, literal(-3)))
          CFI (cfiCond420) DPL0 load(1, XDATA, add(CFA_XSP16, literal(-2)))
          CFI (cfiCond420) DPH0 load(1, XDATA, add(CFA_XSP16, literal(-1)))
          CFI (cfiCond420) CFA_SP SP+-2
          CFI (cfiCond420) CFA_XSP16 add(XSP16, 59)
          CFI Block cfiPicker421 Using cfiCommon1
          CFI (cfiPicker421) NoFunction
          CFI (cfiPicker421) Picker
        MOV     A,?V0
        ADD     A,#0xe
        MOV     DPL,A
        CLR     A
        ADDC    A,?V1
        MOV     DPH,A
        RET
          CFI (cfiCond419) CFA_SP SP+0
          CFI (cfiCond420) CFA_SP SP+0
          CFI (cfiPicker421) CFA_SP SP+0
          CFI EndBlock cfiCond419
          CFI EndBlock cfiCond420
          CFI EndBlock cfiPicker421

        RSEG BANKED_CODE:CODE:NOROOT(0)
?Subroutine36:
          CFI Block cfiCond422 Using cfiCommon0
          CFI Function APSME_TCLinkKeySync
          CFI Conditional ??CrossCallReturnLabel_41
          CFI R6 load(1, XDATA, add(CFA_XSP16, literal(-16)))
          CFI VB load(1, XDATA, add(CFA_XSP16, literal(-15)))
          CFI V0 load(1, XDATA, add(CFA_XSP16, literal(-14)))
          CFI V1 load(1, XDATA, add(CFA_XSP16, literal(-13)))
          CFI V2 load(1, XDATA, add(CFA_XSP16, literal(-12)))
          CFI V3 load(1, XDATA, add(CFA_XSP16, literal(-11)))
          CFI V4 load(1, XDATA, add(CFA_XSP16, literal(-10)))
          CFI V5 load(1, XDATA, add(CFA_XSP16, literal(-9)))
          CFI V6 load(1, XDATA, add(CFA_XSP16, literal(-8)))
          CFI V7 load(1, XDATA, add(CFA_XSP16, literal(-7)))
          CFI R7 load(1, XDATA, add(CFA_XSP16, literal(-6)))
          CFI ?RET_LOW load(1, XDATA, add(CFA_XSP16, literal(-5)))
          CFI ?RET_HIGH load(1, XDATA, add(CFA_XSP16, literal(-4)))
          CFI ?BRET_EXT load(1, XDATA, add(CFA_XSP16, literal(-3)))
          CFI DPL0 load(1, XDATA, add(CFA_XSP16, literal(-2)))
          CFI DPH0 load(1, XDATA, add(CFA_XSP16, literal(-1)))
          CFI CFA_SP SP+-2
          CFI CFA_XSP16 add(XSP16, 48)
          CFI Block cfiCond423 Using cfiCommon0
          CFI (cfiCond423) Function APSME_TCLinkKeySync
          CFI (cfiCond423) Conditional ??CrossCallReturnLabel_42
          CFI (cfiCond423) R6 load(1, XDATA, add(CFA_XSP16, literal(-16)))
          CFI (cfiCond423) VB load(1, XDATA, add(CFA_XSP16, literal(-15)))
          CFI (cfiCond423) V0 load(1, XDATA, add(CFA_XSP16, literal(-14)))
          CFI (cfiCond423) V1 load(1, XDATA, add(CFA_XSP16, literal(-13)))
          CFI (cfiCond423) V2 load(1, XDATA, add(CFA_XSP16, literal(-12)))
          CFI (cfiCond423) V3 load(1, XDATA, add(CFA_XSP16, literal(-11)))
          CFI (cfiCond423) V4 load(1, XDATA, add(CFA_XSP16, literal(-10)))
          CFI (cfiCond423) V5 load(1, XDATA, add(CFA_XSP16, literal(-9)))
          CFI (cfiCond423) V6 load(1, XDATA, add(CFA_XSP16, literal(-8)))
          CFI (cfiCond423) V7 load(1, XDATA, add(CFA_XSP16, literal(-7)))
          CFI (cfiCond423) R7 load(1, XDATA, add(CFA_XSP16, literal(-6)))
          CFI (cfiCond423) ?RET_LOW load(1, XDATA, add(CFA_XSP16, literal(-5)))
          CFI (cfiCond423) ?RET_HIGH load(1, XDATA, add(CFA_XSP16, literal(-4)))
          CFI (cfiCond423) ?BRET_EXT load(1, XDATA, add(CFA_XSP16, literal(-3)))
          CFI (cfiCond423) DPL0 load(1, XDATA, add(CFA_XSP16, literal(-2)))
          CFI (cfiCond423) DPH0 load(1, XDATA, add(CFA_XSP16, literal(-1)))
          CFI (cfiCond423) CFA_SP SP+-2
          CFI (cfiCond423) CFA_XSP16 add(XSP16, 48)
          CFI Block cfiCond424 Using cfiCommon0
          CFI (cfiCond424) Function APSME_TCLinkKeyLoad
          CFI (cfiCond424) Conditional ??CrossCallReturnLabel_43
          CFI (cfiCond424) R6 load(1, XDATA, add(CFA_XSP16, literal(-14)))
          CFI (cfiCond424) VB load(1, XDATA, add(CFA_XSP16, literal(-13)))
          CFI (cfiCond424) V0 load(1, XDATA, add(CFA_XSP16, literal(-12)))
          CFI (cfiCond424) V1 load(1, XDATA, add(CFA_XSP16, literal(-11)))
          CFI (cfiCond424) V2 load(1, XDATA, add(CFA_XSP16, literal(-10)))
          CFI (cfiCond424) V3 load(1, XDATA, add(CFA_XSP16, literal(-9)))
          CFI (cfiCond424) V4 load(1, XDATA, add(CFA_XSP16, literal(-8)))
          CFI (cfiCond424) V5 load(1, XDATA, add(CFA_XSP16, literal(-7)))
          CFI (cfiCond424) R7 load(1, XDATA, add(CFA_XSP16, literal(-6)))
          CFI (cfiCond424) ?RET_LOW load(1, XDATA, add(CFA_XSP16, literal(-5)))
          CFI (cfiCond424) ?RET_HIGH load(1, XDATA, add(CFA_XSP16, literal(-4)))
          CFI (cfiCond424) ?BRET_EXT load(1, XDATA, add(CFA_XSP16, literal(-3)))
          CFI (cfiCond424) DPL0 load(1, XDATA, add(CFA_XSP16, literal(-2)))
          CFI (cfiCond424) DPH0 load(1, XDATA, add(CFA_XSP16, literal(-1)))
          CFI (cfiCond424) CFA_SP SP+-2
          CFI (cfiCond424) CFA_XSP16 add(XSP16, 59)
          CFI Block cfiPicker425 Using cfiCommon1
          CFI (cfiPicker425) NoFunction
          CFI (cfiPicker425) Picker
        MOV     A,?V0
        ADD     A,#0xf
        MOV     DPL,A
        CLR     A
        ADDC    A,?V1
        MOV     DPH,A
        MOV     A,#0x1
        MOVX    @DPTR,A
        INC     DPTR
        MOVX    @DPTR,A
        RET
          CFI (cfiCond422) CFA_SP SP+0
          CFI (cfiCond423) CFA_SP SP+0
          CFI (cfiCond424) CFA_SP SP+0
          CFI (cfiPicker425) CFA_SP SP+0
          CFI EndBlock cfiCond422
          CFI EndBlock cfiCond423
          CFI EndBlock cfiCond424
          CFI EndBlock cfiPicker425
// 2916 
// 2917 /******************************************************************************
// 2918  * @fn          APSME_IsDefaultTCLK
// 2919  *
// 2920  * @brief       Return TRUE or FALSE based on the extended address.  If the
// 2921  *              input ext address is all FFs, it means the trust center link
// 2922  *              assoiciated with the address is the default trust center link key
// 2923  *
// 2924  * @param       extAddr - [in] extended address
// 2925  *
// 2926  * @return      uint8 TRUE/FALSE
// 2927  */

        RSEG BANKED_CODE:CODE:NOROOT(0)
// 2928 uint8 APSME_IsDefaultTCLK( uint8 *extAddr )
APSME_IsDefaultTCLK:
          CFI Block cfiBlock426 Using cfiCommon0
          CFI Function APSME_IsDefaultTCLK
        CODE
// 2929 {
        FUNCALL APSME_IsDefaultTCLK, osal_isbufset
        LOCFRAME ISTACK, 2, STACK
        LOCFRAME PSTACK, 0, STACK
        LOCFRAME XSTACK, 0, STACK
        LOCFRAME IOVERLAY, 0, STATIC
        LOCFRAME DOVERLAY, 0, STATIC
        ARGFRAME ISTACK, 2, STACK
        ARGFRAME PSTACK, 0, STACK
        ARGFRAME XSTACK, 0, STACK
        ARGFRAME IOVERLAY, 0, STATIC
        ARGFRAME DOVERLAY, 0, STATIC
        PUSH    DPL
          CFI DPL0 Frame(CFA_SP, 4)
          CFI CFA_SP SP+-4
        PUSH    DPH
          CFI DPH0 Frame(CFA_SP, 5)
          CFI CFA_SP SP+-5
        ; Saved register size: 2
        ; Auto size: 0
// 2930   return osal_isbufset( extAddr, 0xFF, Z_EXTADDR_LEN );
        ; Setup parameters for call to function osal_isbufset
        MOV     R4,#0x8
        MOV     R1,#-0x1
        LCALL   `??osal_isbufset::?relay`; Banked call to: osal_isbufset
        LJMP    ??Subroutine58_0 & 0xFFFF
// 2931 }
          CFI EndBlock cfiBlock426
// 2932 
// 2933 /******************************************************************************
// 2934  * @fn          ZDSecMgrNwkKeyInit
// 2935  *
// 2936  * @brief       Initialize the NV items for
// 2937  *                  ZCD_NV_NWKKEY,
// 2938  *                  ZCD_NV_NWK_ACTIVE_KEY_INFO and
// 2939  *                  ZCD_NV_NWK_ALTERN_KEY_INFO
// 2940  *
// 2941  * @param       setDefault
// 2942  *
// 2943  * @return      none
// 2944  */

        RSEG BANKED_CODE:CODE:NOROOT(0)
// 2945 void ZDSecMgrNwkKeyInit(uint8 setDefault)
ZDSecMgrNwkKeyInit:
          CFI Block cfiBlock427 Using cfiCommon0
          CFI Function ZDSecMgrNwkKeyInit
        CODE
// 2946 {
        FUNCALL ZDSecMgrNwkKeyInit, osal_memset
        LOCFRAME ISTACK, 0, STACK
        LOCFRAME PSTACK, 0, STACK
        LOCFRAME XSTACK, 48, STACK
        LOCFRAME IOVERLAY, 0, STATIC
        LOCFRAME DOVERLAY, 0, STATIC
        ARGFRAME ISTACK, 0, STACK
        ARGFRAME PSTACK, 0, STACK
        ARGFRAME XSTACK, 48, STACK
        ARGFRAME IOVERLAY, 0, STATIC
        ARGFRAME DOVERLAY, 0, STATIC
        FUNCALL ZDSecMgrNwkKeyInit, osal_nv_item_init
        LOCFRAME ISTACK, 0, STACK
        LOCFRAME PSTACK, 0, STACK
        LOCFRAME XSTACK, 50, STACK
        LOCFRAME IOVERLAY, 0, STATIC
        LOCFRAME DOVERLAY, 0, STATIC
        ARGFRAME ISTACK, 0, STACK
        ARGFRAME PSTACK, 0, STACK
        ARGFRAME XSTACK, 50, STACK
        ARGFRAME IOVERLAY, 0, STATIC
        ARGFRAME DOVERLAY, 0, STATIC
        FUNCALL ZDSecMgrNwkKeyInit, osal_nv_write
        LOCFRAME ISTACK, 0, STACK
        LOCFRAME PSTACK, 0, STACK
        LOCFRAME XSTACK, 52, STACK
        LOCFRAME IOVERLAY, 0, STATIC
        LOCFRAME DOVERLAY, 0, STATIC
        ARGFRAME ISTACK, 0, STACK
        ARGFRAME PSTACK, 0, STACK
        ARGFRAME XSTACK, 52, STACK
        ARGFRAME IOVERLAY, 0, STATIC
        ARGFRAME DOVERLAY, 0, STATIC
        FUNCALL ZDSecMgrNwkKeyInit, osal_memset
        LOCFRAME ISTACK, 0, STACK
        LOCFRAME PSTACK, 0, STACK
        LOCFRAME XSTACK, 48, STACK
        LOCFRAME IOVERLAY, 0, STATIC
        LOCFRAME DOVERLAY, 0, STATIC
        ARGFRAME ISTACK, 0, STACK
        ARGFRAME PSTACK, 0, STACK
        ARGFRAME XSTACK, 48, STACK
        ARGFRAME IOVERLAY, 0, STATIC
        ARGFRAME DOVERLAY, 0, STATIC
        FUNCALL ZDSecMgrNwkKeyInit, osal_nv_item_init
        LOCFRAME ISTACK, 0, STACK
        LOCFRAME PSTACK, 0, STACK
        LOCFRAME XSTACK, 50, STACK
        LOCFRAME IOVERLAY, 0, STATIC
        LOCFRAME DOVERLAY, 0, STATIC
        ARGFRAME ISTACK, 0, STACK
        ARGFRAME PSTACK, 0, STACK
        ARGFRAME XSTACK, 50, STACK
        ARGFRAME IOVERLAY, 0, STATIC
        ARGFRAME DOVERLAY, 0, STATIC
        FUNCALL ZDSecMgrNwkKeyInit, osal_nv_write
        LOCFRAME ISTACK, 0, STACK
        LOCFRAME PSTACK, 0, STACK
        LOCFRAME XSTACK, 52, STACK
        LOCFRAME IOVERLAY, 0, STATIC
        LOCFRAME DOVERLAY, 0, STATIC
        ARGFRAME ISTACK, 0, STACK
        ARGFRAME PSTACK, 0, STACK
        ARGFRAME XSTACK, 52, STACK
        ARGFRAME IOVERLAY, 0, STATIC
        ARGFRAME DOVERLAY, 0, STATIC
        FUNCALL ZDSecMgrNwkKeyInit, osal_nv_item_init
        LOCFRAME ISTACK, 0, STACK
        LOCFRAME PSTACK, 0, STACK
        LOCFRAME XSTACK, 50, STACK
        LOCFRAME IOVERLAY, 0, STATIC
        LOCFRAME DOVERLAY, 0, STATIC
        ARGFRAME ISTACK, 0, STACK
        ARGFRAME PSTACK, 0, STACK
        ARGFRAME XSTACK, 50, STACK
        ARGFRAME IOVERLAY, 0, STATIC
        ARGFRAME DOVERLAY, 0, STATIC
        FUNCALL ZDSecMgrNwkKeyInit, osal_nv_write
        LOCFRAME ISTACK, 0, STACK
        LOCFRAME PSTACK, 0, STACK
        LOCFRAME XSTACK, 52, STACK
        LOCFRAME IOVERLAY, 0, STATIC
        LOCFRAME DOVERLAY, 0, STATIC
        ARGFRAME ISTACK, 0, STACK
        ARGFRAME PSTACK, 0, STACK
        ARGFRAME XSTACK, 52, STACK
        ARGFRAME IOVERLAY, 0, STATIC
        ARGFRAME DOVERLAY, 0, STATIC
        REQUIRE ?V0
        REQUIRE ?V1
        MOV     A,#-0xa
        LCALL   ?BANKED_ENTER_XDATA
          CFI DPH0 load(1, XDATA, add(CFA_XSP16, literal(-1)))
          CFI DPL0 load(1, XDATA, add(CFA_XSP16, literal(-2)))
          CFI ?BRET_EXT load(1, XDATA, add(CFA_XSP16, literal(-3)))
          CFI ?RET_HIGH load(1, XDATA, add(CFA_XSP16, literal(-4)))
          CFI ?RET_LOW load(1, XDATA, add(CFA_XSP16, literal(-5)))
          CFI R7 load(1, XDATA, add(CFA_XSP16, literal(-6)))
          CFI V1 load(1, XDATA, add(CFA_XSP16, literal(-7)))
          CFI V0 load(1, XDATA, add(CFA_XSP16, literal(-8)))
          CFI VB load(1, XDATA, add(CFA_XSP16, literal(-9)))
          CFI R6 load(1, XDATA, add(CFA_XSP16, literal(-10)))
          CFI CFA_SP SP+0
          CFI CFA_XSP16 add(XSP16, 10)
        ; Saved register size: 10
        ; Auto size: 38
        MOV     A,#-0x26
        LCALL   ?ALLOC_XSTACK8
          CFI CFA_XSP16 add(XSP16, 48)
// 2947   uint8 status;
// 2948   nwkKeyDesc nwkKey;
// 2949 
// 2950   // Initialize NV items for NWK key, this structure contains the frame counter
// 2951   // and is only used when NV_RESTORE is enabled
// 2952   nwkActiveKeyItems keyItems;
// 2953 
// 2954   osal_memset( &keyItems, 0, sizeof( nwkActiveKeyItems ) );
        ; Setup parameters for call to function osal_memset
        MOV     R4,#0x15
        MOV     R5,#0x0
        MOV     R1,#0x0
        MOV     A,#0x11
        LCALL   ?XSTACK_DISP101_8
        LCALL   `??osal_memset::?relay`; Banked call to: osal_memset
// 2955 
// 2956   status = osal_nv_item_init( ZCD_NV_NWKKEY, sizeof(nwkActiveKeyItems), (void *)&keyItems );
// 2957 
// 2958 #if defined ( NV_RESTORE )
// 2959   // reset the values of NV items if NV_RESTORE is not enabled
// 2960   if ((status == SUCCESS) && (setDefault == TRUE))
// 2961   {
// 2962     // clear NV data to default values
// 2963     osal_nv_write( ZCD_NV_NWKKEY, 0, sizeof(nwkActiveKeyItems), &keyItems );
// 2964   }
// 2965 #else
// 2966   (void)setDefault;   // to eliminate compiler warning
// 2967 
// 2968   // reset the values of NV items if NV_RESTORE is not enabled
// 2969   if (status == SUCCESS)
        ; Setup parameters for call to function osal_nv_item_init
        MOV     A,#0x11
        LCALL   ?XSTACK_DISP100_8
        MOV     ?V0,R0
        MOV     ?V1,R1
        MOV     R0,#?V0
        LCALL   ?PUSH_XSTACK_I_TWO
          CFI CFA_XSP16 add(XSP16, 50)
        MOV     R4,#0x15
        MOV     R5,#0x0
        MOV     R2,#-0x7e
        MOV     R3,#0x0
        LCALL   `??osal_nv_item_init::?relay`; Banked call to: osal_nv_item_init
        MOV     A,#0x2
        LCALL   ?DEALLOC_XSTACK8
          CFI CFA_XSP16 add(XSP16, 48)
        MOV     A,R1
        JNZ     ??ZDSecMgrNwkKeyInit_0
// 2970   {
// 2971     osal_nv_write( ZCD_NV_NWKKEY, 0, sizeof(nwkActiveKeyItems), &keyItems );
        ; Setup parameters for call to function osal_nv_write
        MOV     R0,#?V0
        LCALL   ?PUSH_XSTACK_I_TWO
          CFI CFA_XSP16 add(XSP16, 50)
        MOV     ?V0,#0x15
        MOV     ?V1,#0x0
        MOV     R0,#?V0
        LCALL   ?PUSH_XSTACK_I_TWO
          CFI CFA_XSP16 add(XSP16, 52)
        MOV     R4,#0x0
        MOV     R5,#0x0
        MOV     R2,#-0x7e
        MOV     R3,#0x0
        LCALL   `??osal_nv_write::?relay`; Banked call to: osal_nv_write
        MOV     A,#0x4
        LCALL   ?DEALLOC_XSTACK8
          CFI CFA_XSP16 add(XSP16, 48)
// 2972   }
// 2973 #endif // defined (NV_RESTORE)
// 2974 
// 2975   // Initialize NV items for NWK Active and Alternate keys. These items are used
// 2976   // all the time, independently of NV_RESTORE being set or not
// 2977   osal_memset( &nwkKey, 0x00, sizeof(nwkKey) );
??ZDSecMgrNwkKeyInit_0:
        ; Setup parameters for call to function osal_memset
        MOV     R4,#0x11
        MOV     R5,#0x0
        MOV     R1,#0x0
        MOV     R2,?XSP + 0
        MOV     R3,?XSP + 1
        LCALL   `??osal_memset::?relay`; Banked call to: osal_memset
// 2978 
// 2979   status = osal_nv_item_init( ZCD_NV_NWK_ACTIVE_KEY_INFO, sizeof(nwkKey), &nwkKey);
// 2980 
// 2981 #if defined ( NV_RESTORE )
// 2982   // reset the values of NV items if NV_RESTORE is not enabled
// 2983   if ((status == SUCCESS) && (setDefault == TRUE))
// 2984   {
// 2985     // clear NV data to default values
// 2986     osal_nv_write( ZCD_NV_NWK_ACTIVE_KEY_INFO, 0, sizeof(nwkKey), &nwkKey );
// 2987   }
// 2988 #else
// 2989   // reset the values of NV items if NV_RESTORE is not enabled
// 2990   if (status == SUCCESS)
        ; Setup parameters for call to function osal_nv_item_init
        MOV     R0,?XSP + 0
        MOV     R1,?XSP + 1
        MOV     ?V0,R0
        MOV     ?V1,R1
        MOV     R0,#?V0
        LCALL   ?PUSH_XSTACK_I_TWO
          CFI CFA_XSP16 add(XSP16, 50)
        MOV     R4,#0x11
        MOV     R5,#0x0
        MOV     R2,#0x3a
        MOV     R3,#0x0
        LCALL   `??osal_nv_item_init::?relay`; Banked call to: osal_nv_item_init
        MOV     A,#0x2
        LCALL   ?DEALLOC_XSTACK8
          CFI CFA_XSP16 add(XSP16, 48)
        MOV     A,R1
        JNZ     ??ZDSecMgrNwkKeyInit_1
// 2991   {
// 2992     osal_nv_write( ZCD_NV_NWK_ACTIVE_KEY_INFO, 0, sizeof(nwkKey), &nwkKey );
        ; Setup parameters for call to function osal_nv_write
        MOV     R0,#?V0
        LCALL   ?PUSH_XSTACK_I_TWO
          CFI CFA_XSP16 add(XSP16, 50)
        MOV     ?V0,#0x11
        MOV     ?V1,#0x0
        MOV     R0,#?V0
        LCALL   ?PUSH_XSTACK_I_TWO
          CFI CFA_XSP16 add(XSP16, 52)
        MOV     R4,#0x0
        MOV     R5,#0x0
        MOV     R2,#0x3a
        MOV     R3,#0x0
        LCALL   `??osal_nv_write::?relay`; Banked call to: osal_nv_write
        MOV     A,#0x4
        LCALL   ?DEALLOC_XSTACK8
          CFI CFA_XSP16 add(XSP16, 48)
// 2993   }
// 2994 #endif // defined (NV_RESTORE)
// 2995 
// 2996   status = osal_nv_item_init( ZCD_NV_NWK_ALTERN_KEY_INFO, sizeof(nwkKey), &nwkKey );
// 2997 
// 2998 #if defined ( NV_RESTORE )
// 2999   // reset the values of NV items if NV_RESTORE is not enabled
// 3000   if ((status == SUCCESS) && (setDefault == TRUE))
// 3001   {
// 3002     // clear NV data to default values
// 3003     osal_nv_write( ZCD_NV_NWK_ALTERN_KEY_INFO, 0, sizeof(nwkKey), &nwkKey );
// 3004   }
// 3005 #else
// 3006   // reset the values of NV items if NV_RESTORE is not enabled
// 3007   if (status == SUCCESS)
??ZDSecMgrNwkKeyInit_1:
        ; Setup parameters for call to function osal_nv_item_init
        MOV     R0,?XSP + 0
        MOV     R1,?XSP + 1
        MOV     ?V0,R0
        MOV     ?V1,R1
        MOV     R0,#?V0
        LCALL   ?PUSH_XSTACK_I_TWO
          CFI CFA_XSP16 add(XSP16, 50)
        MOV     R4,#0x11
        MOV     R5,#0x0
        MOV     R2,#0x3b
        MOV     R3,#0x0
        LCALL   `??osal_nv_item_init::?relay`; Banked call to: osal_nv_item_init
        MOV     A,#0x2
        LCALL   ?DEALLOC_XSTACK8
          CFI CFA_XSP16 add(XSP16, 48)
        MOV     A,R1
        JNZ     ??ZDSecMgrNwkKeyInit_2
// 3008   {
// 3009     osal_nv_write( ZCD_NV_NWK_ALTERN_KEY_INFO, 0, sizeof(nwkKey), &nwkKey );
        ; Setup parameters for call to function osal_nv_write
        MOV     R0,#?V0
        LCALL   ?PUSH_XSTACK_I_TWO
          CFI CFA_XSP16 add(XSP16, 50)
        MOV     ?V0,#0x11
        MOV     ?V1,#0x0
        MOV     R0,#?V0
        LCALL   ?PUSH_XSTACK_I_TWO
          CFI CFA_XSP16 add(XSP16, 52)
        MOV     R4,#0x0
        MOV     R5,#0x0
        MOV     R2,#0x3b
        MOV     R3,#0x0
        LCALL   `??osal_nv_write::?relay`; Banked call to: osal_nv_write
        MOV     A,#0x4
        LCALL   ?DEALLOC_XSTACK8
          CFI CFA_XSP16 add(XSP16, 48)
// 3010   }
// 3011 #endif // defined (NV_RESTORE)
// 3012 
// 3013 }
??ZDSecMgrNwkKeyInit_2:
        MOV     A,#0x26
        LJMP    ??Subroutine55_0 & 0xFFFF
          CFI EndBlock cfiBlock427
// 3014 
// 3015 /*********************************************************************
// 3016  * @fn          ZDSecMgrReadKeyFromNv
// 3017  *
// 3018  * @brief       Looks for a specific key in NV based on Index value
// 3019  *
// 3020  * @param   keyNvId - Index of key to look in NV
// 3021  *                    valid values are:
// 3022  *                    ZCD_NV_NWK_ACTIVE_KEY_INFO
// 3023  *                    ZCD_NV_NWK_ALTERN_KEY_INFO
// 3024  *                    ZCD_NV_TCLK_TABLE_START + <offset_in_table>
// 3025  *                    ZCD_NV_APS_LINK_KEY_DATA_START + <offset_in_table>
// 3026  *                    ZCD_NV_PRECFGKEY
// 3027  *
// 3028  * @param  *keyinfo - Data is read into this buffer.
// 3029  *
// 3030  * @return  SUCCESS if NV data was copied to the keyinfo parameter .
// 3031  *          Otherwise, NV_OPER_FAILED for failure.
// 3032  */

        RSEG BANKED_CODE:CODE:NOROOT(0)
// 3033 ZStatus_t ZDSecMgrReadKeyFromNv(uint16 keyNvId, void *keyinfo)
ZDSecMgrReadKeyFromNv:
          CFI Block cfiBlock428 Using cfiCommon0
          CFI Function ZDSecMgrReadKeyFromNv
        CODE
// 3034 {
        FUNCALL ZDSecMgrReadKeyFromNv, osal_nv_read
        LOCFRAME ISTACK, 0, STACK
        LOCFRAME PSTACK, 0, STACK
        LOCFRAME XSTACK, 14, STACK
        LOCFRAME IOVERLAY, 0, STATIC
        LOCFRAME DOVERLAY, 0, STATIC
        ARGFRAME ISTACK, 0, STACK
        ARGFRAME PSTACK, 0, STACK
        ARGFRAME XSTACK, 14, STACK
        ARGFRAME IOVERLAY, 0, STATIC
        ARGFRAME DOVERLAY, 0, STATIC
        FUNCALL ZDSecMgrReadKeyFromNv, osal_nv_read
        LOCFRAME ISTACK, 0, STACK
        LOCFRAME PSTACK, 0, STACK
        LOCFRAME XSTACK, 14, STACK
        LOCFRAME IOVERLAY, 0, STATIC
        LOCFRAME DOVERLAY, 0, STATIC
        ARGFRAME ISTACK, 0, STACK
        ARGFRAME PSTACK, 0, STACK
        ARGFRAME XSTACK, 14, STACK
        ARGFRAME IOVERLAY, 0, STATIC
        ARGFRAME DOVERLAY, 0, STATIC
        FUNCALL ZDSecMgrReadKeyFromNv, osal_nv_read
        LOCFRAME ISTACK, 0, STACK
        LOCFRAME PSTACK, 0, STACK
        LOCFRAME XSTACK, 14, STACK
        LOCFRAME IOVERLAY, 0, STATIC
        LOCFRAME DOVERLAY, 0, STATIC
        ARGFRAME ISTACK, 0, STACK
        ARGFRAME PSTACK, 0, STACK
        ARGFRAME XSTACK, 14, STACK
        ARGFRAME IOVERLAY, 0, STATIC
        ARGFRAME DOVERLAY, 0, STATIC
        FUNCALL ZDSecMgrReadKeyFromNv, osal_nv_read
        LOCFRAME ISTACK, 0, STACK
        LOCFRAME PSTACK, 0, STACK
        LOCFRAME XSTACK, 14, STACK
        LOCFRAME IOVERLAY, 0, STATIC
        LOCFRAME DOVERLAY, 0, STATIC
        ARGFRAME ISTACK, 0, STACK
        ARGFRAME PSTACK, 0, STACK
        ARGFRAME XSTACK, 14, STACK
        ARGFRAME IOVERLAY, 0, STATIC
        ARGFRAME DOVERLAY, 0, STATIC
        REQUIRE ?V0
        REQUIRE ?V1
        MOV     A,#-0xa
        LCALL   ?BANKED_ENTER_XDATA
          CFI DPH0 load(1, XDATA, add(CFA_XSP16, literal(-1)))
          CFI DPL0 load(1, XDATA, add(CFA_XSP16, literal(-2)))
          CFI ?BRET_EXT load(1, XDATA, add(CFA_XSP16, literal(-3)))
          CFI ?RET_HIGH load(1, XDATA, add(CFA_XSP16, literal(-4)))
          CFI ?RET_LOW load(1, XDATA, add(CFA_XSP16, literal(-5)))
          CFI R7 load(1, XDATA, add(CFA_XSP16, literal(-6)))
          CFI V1 load(1, XDATA, add(CFA_XSP16, literal(-7)))
          CFI V0 load(1, XDATA, add(CFA_XSP16, literal(-8)))
          CFI VB load(1, XDATA, add(CFA_XSP16, literal(-9)))
          CFI R6 load(1, XDATA, add(CFA_XSP16, literal(-10)))
          CFI CFA_SP SP+0
          CFI CFA_XSP16 add(XSP16, 10)
        ; Saved register size: 10
        ; Auto size: 0
// 3035   if ((keyNvId == ZCD_NV_NWK_ACTIVE_KEY_INFO) ||
// 3036       (keyNvId == ZCD_NV_NWK_ALTERN_KEY_INFO))
        MOV     A,#0x3a
        XRL     A,R2
        JNZ     ??ZDSecMgrReadKeyFromNv_0
        MOV     A,R3
??ZDSecMgrReadKeyFromNv_0:
        JZ      ??ZDSecMgrReadKeyFromNv_1
        MOV     A,#0x3b
        XRL     A,R2
        ORL     A,R3
        JNZ     ??ZDSecMgrReadKeyFromNv_2
// 3037   {
// 3038     // get NWK active or alternate key from NV
// 3039     return (osal_nv_read(keyNvId,
// 3040                          osal_offsetof(nwkKeyDesc, key),
// 3041                          SEC_KEY_LEN,
// 3042                          keyinfo));
??ZDSecMgrReadKeyFromNv_1:
        ; Setup parameters for call to function osal_nv_read
        MOV     ?V0,R4
        MOV     ?V1,R5
        MOV     R0,#?V0
        LCALL   ?PUSH_XSTACK_I_TWO
          CFI CFA_XSP16 add(XSP16, 12)
        MOV     ?V0,#0x10
        MOV     ?V1,#0x0
        MOV     R0,#?V0
        LCALL   ?PUSH_XSTACK_I_TWO
          CFI CFA_XSP16 add(XSP16, 14)
        MOV     R4,#0x1
        SJMP    ??ZDSecMgrReadKeyFromNv_3
          CFI CFA_XSP16 add(XSP16, 10)
// 3043   }
// 3044   else if ((keyNvId >= ZCD_NV_TCLK_TABLE_START) &&
// 3045            (keyNvId < (ZCD_NV_TCLK_TABLE_START + ZDSECMGR_TC_DEVICE_MAX)))
??ZDSecMgrReadKeyFromNv_2:
        MOV     A,R2
        ADD     A,#-0x1
        MOV     R0,A
        MOV     A,R3
        ADDC    A,#-0x2
        MOV     R1,A
        MOV     A,R0
        ORL     A,R1
        JNZ     ??ZDSecMgrReadKeyFromNv_4
// 3046   {
// 3047     // Read entry keyNvId of the TC link key table from NV. keyNvId should be
// 3048     // ZCD_NV_TCLK_TABLE_START + <offset_in_table>
// 3049     return (osal_nv_read(keyNvId,
// 3050                          osal_offsetof(APSME_TCLinkKey_t, key),
// 3051                          SEC_KEY_LEN,
// 3052                          keyinfo));
        ; Setup parameters for call to function osal_nv_read
        MOV     ?V0,R4
        MOV     ?V1,R5
        MOV     R0,#?V0
        LCALL   ?PUSH_XSTACK_I_TWO
          CFI CFA_XSP16 add(XSP16, 12)
        MOV     ?V0,#0x10
        MOV     ?V1,#0x0
        MOV     R0,#?V0
        LCALL   ?PUSH_XSTACK_I_TWO
          CFI CFA_XSP16 add(XSP16, 14)
        MOV     R4,#0x8
        SJMP    ??ZDSecMgrReadKeyFromNv_3
          CFI CFA_XSP16 add(XSP16, 10)
// 3053   }
// 3054   else if ((keyNvId >= ZCD_NV_APS_LINK_KEY_DATA_START) &&
// 3055            (keyNvId < (ZCD_NV_APS_LINK_KEY_DATA_START + ZDSECMGR_ENTRY_MAX)))
??ZDSecMgrReadKeyFromNv_4:
        DEC     R1
        LCALL   ?Subroutine37 & 0xFFFF
??CrossCallReturnLabel_56:
        JNC     ??ZDSecMgrReadKeyFromNv_5
// 3056   {
// 3057     // Read entry keyNvId of the APS link key table from NV. keyNvId should be
// 3058     // ZCD_NV_APS_LINK_KEY_DATA_START + <offset_in_table>
// 3059     return (osal_nv_read(keyNvId,
// 3060                          osal_offsetof(APSME_LinkKeyData_t, key),
// 3061                          SEC_KEY_LEN,
// 3062                          keyinfo));
        ; Setup parameters for call to function osal_nv_read
        MOV     ?V0,R4
        MOV     ?V1,R5
        MOV     R0,#?V0
        LCALL   ?PUSH_XSTACK_I_TWO
          CFI CFA_XSP16 add(XSP16, 12)
        MOV     ?V0,#0x10
        MOV     ?V1,#0x0
        MOV     R0,#?V0
        LCALL   ?PUSH_XSTACK_I_TWO
          CFI CFA_XSP16 add(XSP16, 14)
        MOV     R4,#0x0
??ZDSecMgrReadKeyFromNv_3:
        MOV     R5,#0x0
        SJMP    ??ZDSecMgrReadKeyFromNv_6
          CFI CFA_XSP16 add(XSP16, 10)
// 3063   }
// 3064   else if (keyNvId == ZCD_NV_PRECFGKEY)
??ZDSecMgrReadKeyFromNv_5:
        MOV     A,#0x62
        XRL     A,R2
        ORL     A,R3
        JNZ     ??ZDSecMgrReadKeyFromNv_7
// 3065   {
// 3066     // Read entry keyNvId of the Preconfig key from NV.
// 3067     return (osal_nv_read(keyNvId,
// 3068                          0,
// 3069                          SEC_KEY_LEN,
// 3070                          keyinfo));
        ; Setup parameters for call to function osal_nv_read
        MOV     ?V0,R4
        MOV     ?V1,R5
        MOV     R0,#?V0
        LCALL   ?PUSH_XSTACK_I_TWO
          CFI CFA_XSP16 add(XSP16, 12)
        MOV     ?V0,#0x10
        MOV     ?V1,#0x0
        MOV     R0,#?V0
        LCALL   ?PUSH_XSTACK_I_TWO
          CFI CFA_XSP16 add(XSP16, 14)
        MOV     R4,#0x0
        MOV     R5,#0x0
        MOV     R2,#0x62
        MOV     R3,#0x0
??ZDSecMgrReadKeyFromNv_6:
        LCALL   `??osal_nv_read::?relay`; Banked call to: osal_nv_read
        MOV     A,#0x4
        LCALL   ?DEALLOC_XSTACK8
          CFI CFA_XSP16 add(XSP16, 10)
        SJMP    ??ZDSecMgrReadKeyFromNv_8
// 3071   }
// 3072 
// 3073   return NV_OPER_FAILED;
??ZDSecMgrReadKeyFromNv_7:
        MOV     R1,#0xa
??ZDSecMgrReadKeyFromNv_8:
        LJMP    ??Subroutine56_0 & 0xFFFF
// 3074 }
          CFI EndBlock cfiBlock428
// 3075 
// 3076 /******************************************************************************
// 3077  * @fn          ZDSecMgrApsLinkKeyInit
// 3078  *
// 3079  * @brief       Initialize the NV table for Application link keys
// 3080  *
// 3081  * @param       none
// 3082  *
// 3083  * @return      none
// 3084  */

        RSEG BANKED_CODE:CODE:NOROOT(0)
// 3085 void ZDSecMgrApsLinkKeyInit(void)
ZDSecMgrApsLinkKeyInit:
          CFI Block cfiBlock429 Using cfiCommon0
          CFI Function ZDSecMgrApsLinkKeyInit
        CODE
// 3086 {
        FUNCALL ZDSecMgrApsLinkKeyInit, osal_memset
        LOCFRAME ISTACK, 0, STACK
        LOCFRAME PSTACK, 0, STACK
        LOCFRAME XSTACK, 36, STACK
        LOCFRAME IOVERLAY, 0, STATIC
        LOCFRAME DOVERLAY, 0, STATIC
        ARGFRAME ISTACK, 0, STACK
        ARGFRAME PSTACK, 0, STACK
        ARGFRAME XSTACK, 36, STACK
        ARGFRAME IOVERLAY, 0, STATIC
        ARGFRAME DOVERLAY, 0, STATIC
        FUNCALL ZDSecMgrApsLinkKeyInit, osal_nv_item_init
        LOCFRAME ISTACK, 0, STACK
        LOCFRAME PSTACK, 0, STACK
        LOCFRAME XSTACK, 38, STACK
        LOCFRAME IOVERLAY, 0, STATIC
        LOCFRAME DOVERLAY, 0, STATIC
        ARGFRAME ISTACK, 0, STACK
        ARGFRAME PSTACK, 0, STACK
        ARGFRAME XSTACK, 38, STACK
        ARGFRAME IOVERLAY, 0, STATIC
        ARGFRAME DOVERLAY, 0, STATIC
        FUNCALL ZDSecMgrApsLinkKeyInit, osal_nv_write
        LOCFRAME ISTACK, 0, STACK
        LOCFRAME PSTACK, 0, STACK
        LOCFRAME XSTACK, 40, STACK
        LOCFRAME IOVERLAY, 0, STATIC
        LOCFRAME DOVERLAY, 0, STATIC
        ARGFRAME ISTACK, 0, STACK
        ARGFRAME PSTACK, 0, STACK
        ARGFRAME XSTACK, 40, STACK
        ARGFRAME IOVERLAY, 0, STATIC
        ARGFRAME DOVERLAY, 0, STATIC
        REQUIRE ?V0
        REQUIRE ?V2
        REQUIRE ?V3
        MOV     A,#-0xc
        LCALL   ?BANKED_ENTER_XDATA
          CFI DPH0 load(1, XDATA, add(CFA_XSP16, literal(-1)))
          CFI DPL0 load(1, XDATA, add(CFA_XSP16, literal(-2)))
          CFI ?BRET_EXT load(1, XDATA, add(CFA_XSP16, literal(-3)))
          CFI ?RET_HIGH load(1, XDATA, add(CFA_XSP16, literal(-4)))
          CFI ?RET_LOW load(1, XDATA, add(CFA_XSP16, literal(-5)))
          CFI R7 load(1, XDATA, add(CFA_XSP16, literal(-6)))
          CFI V3 load(1, XDATA, add(CFA_XSP16, literal(-7)))
          CFI V2 load(1, XDATA, add(CFA_XSP16, literal(-8)))
          CFI V1 load(1, XDATA, add(CFA_XSP16, literal(-9)))
          CFI V0 load(1, XDATA, add(CFA_XSP16, literal(-10)))
          CFI VB load(1, XDATA, add(CFA_XSP16, literal(-11)))
          CFI R6 load(1, XDATA, add(CFA_XSP16, literal(-12)))
          CFI CFA_SP SP+0
          CFI CFA_XSP16 add(XSP16, 12)
        ; Saved register size: 12
        ; Auto size: 24
        MOV     A,#-0x18
        LCALL   ?ALLOC_XSTACK8
          CFI CFA_XSP16 add(XSP16, 36)
// 3087   APSME_LinkKeyData_t pApsLinkKey;
// 3088   uint8 i;
// 3089   uint8 status;
// 3090 
// 3091   // Initialize all NV items for APS link key, if not exist already.
// 3092   osal_memset( &pApsLinkKey, 0x00, sizeof(APSME_LinkKeyData_t) );
        ; Setup parameters for call to function osal_memset
        MOV     R4,#0x18
        MOV     R5,#0x0
        MOV     R1,#0x0
        MOV     R2,?XSP + 0
        MOV     R3,?XSP + 1
        LCALL   `??osal_memset::?relay`; Banked call to: osal_memset
// 3093 
// 3094   for( i = 0; i < ZDSECMGR_ENTRY_MAX; i++ )
        MOV     ?V0,#0x0
// 3095   {
// 3096     status = osal_nv_item_init( (ZCD_NV_APS_LINK_KEY_DATA_START + i),
// 3097                                 sizeof(APSME_LinkKeyData_t), &pApsLinkKey );
// 3098 
// 3099 #if defined ( NV_RESTORE )
// 3100     (void)status;   // to eliminate compiler warning
// 3101 #else
// 3102     // reset the values of NV items if NV_RESTORE is not enabled
// 3103     if (status == SUCCESS)
??ZDSecMgrApsLinkKeyInit_0:
        MOV     A,?V0
        ADD     A,#0x1
        MOV     R6,A
        CLR     A
        ADDC    A,#0x2
        MOV     R7,A
        ; Setup parameters for call to function osal_nv_item_init
        MOV     R0,?XSP + 0
        MOV     R1,?XSP + 1
        MOV     ?V2,R0
        MOV     ?V3,R1
        MOV     R0,#?V2
        LCALL   ?PUSH_XSTACK_I_TWO
          CFI CFA_XSP16 add(XSP16, 38)
        MOV     R4,#0x18
        MOV     R5,#0x0
        MOV     A,R6
        MOV     R2,A
        MOV     A,R7
        MOV     R3,A
        LCALL   `??osal_nv_item_init::?relay`; Banked call to: osal_nv_item_init
        MOV     A,#0x2
        LCALL   ?DEALLOC_XSTACK8
          CFI CFA_XSP16 add(XSP16, 36)
        MOV     A,R1
        JNZ     ??ZDSecMgrApsLinkKeyInit_1
// 3104     {
// 3105       osal_nv_write( (ZCD_NV_APS_LINK_KEY_DATA_START + i), 0,
// 3106                      sizeof(APSME_LinkKeyData_t), &pApsLinkKey );
        ; Setup parameters for call to function osal_nv_write
        MOV     R0,#?V2
        LCALL   ?PUSH_XSTACK_I_TWO
          CFI CFA_XSP16 add(XSP16, 38)
        MOV     ?V2,#0x18
        MOV     ?V3,#0x0
        MOV     R0,#?V2
        LCALL   ?PUSH_XSTACK_I_TWO
          CFI CFA_XSP16 add(XSP16, 40)
        MOV     R4,#0x0
        MOV     R5,#0x0
        MOV     A,R6
        MOV     R2,A
        MOV     A,R7
        MOV     R3,A
        LCALL   `??osal_nv_write::?relay`; Banked call to: osal_nv_write
        MOV     A,#0x4
        LCALL   ?DEALLOC_XSTACK8
          CFI CFA_XSP16 add(XSP16, 36)
// 3107 
// 3108     }
// 3109 #endif // defined (NV_RESTORE)
// 3110   }
??ZDSecMgrApsLinkKeyInit_1:
        INC     ?V0
        MOV     A,R6
        CLR     C
        SUBB    A,#0x3
        JC      ??ZDSecMgrApsLinkKeyInit_0
// 3111 }
        LJMP    ?Subroutine4 & 0xFFFF
          CFI EndBlock cfiBlock429
// 3112 
// 3113 /******************************************************************************
// 3114  * @fn          ZDSecMgrInitNVKeyTables
// 3115  *
// 3116  * @brief       Initialize the NV table for All keys: NWK, Master, TCLK and APS
// 3117  *
// 3118  * @param       setDefault - TRUE to set default values
// 3119  *
// 3120  * @return      none
// 3121  */

        RSEG BANKED_CODE:CODE:NOROOT(0)
// 3122 void ZDSecMgrInitNVKeyTables(uint8 setDefault)
ZDSecMgrInitNVKeyTables:
          CFI Block cfiBlock430 Using cfiCommon0
          CFI Function ZDSecMgrInitNVKeyTables
        CODE
// 3123 {
        FUNCALL ZDSecMgrInitNVKeyTables, ZDSecMgrNwkKeyInit
        LOCFRAME ISTACK, 0, STACK
        LOCFRAME PSTACK, 0, STACK
        LOCFRAME XSTACK, 9, STACK
        LOCFRAME IOVERLAY, 0, STATIC
        LOCFRAME DOVERLAY, 0, STATIC
        ARGFRAME ISTACK, 0, STACK
        ARGFRAME PSTACK, 0, STACK
        ARGFRAME XSTACK, 9, STACK
        ARGFRAME IOVERLAY, 0, STATIC
        ARGFRAME DOVERLAY, 0, STATIC
        FUNCALL ZDSecMgrInitNVKeyTables, ZDSecMgrApsLinkKeyInit
        LOCFRAME ISTACK, 0, STACK
        LOCFRAME PSTACK, 0, STACK
        LOCFRAME XSTACK, 9, STACK
        LOCFRAME IOVERLAY, 0, STATIC
        LOCFRAME DOVERLAY, 0, STATIC
        ARGFRAME ISTACK, 0, STACK
        ARGFRAME PSTACK, 0, STACK
        ARGFRAME XSTACK, 9, STACK
        ARGFRAME IOVERLAY, 0, STATIC
        ARGFRAME DOVERLAY, 0, STATIC
        FUNCALL ZDSecMgrInitNVKeyTables, APSME_TCLinkKeyInit
        LOCFRAME ISTACK, 0, STACK
        LOCFRAME PSTACK, 0, STACK
        LOCFRAME XSTACK, 9, STACK
        LOCFRAME IOVERLAY, 0, STATIC
        LOCFRAME DOVERLAY, 0, STATIC
        ARGFRAME ISTACK, 0, STACK
        ARGFRAME PSTACK, 0, STACK
        ARGFRAME XSTACK, 9, STACK
        ARGFRAME IOVERLAY, 0, STATIC
        ARGFRAME DOVERLAY, 0, STATIC
        MOV     A,#-0x9
        LCALL   ?BANKED_ENTER_XDATA
          CFI DPH0 load(1, XDATA, add(CFA_XSP16, literal(-1)))
          CFI DPL0 load(1, XDATA, add(CFA_XSP16, literal(-2)))
          CFI ?BRET_EXT load(1, XDATA, add(CFA_XSP16, literal(-3)))
          CFI ?RET_HIGH load(1, XDATA, add(CFA_XSP16, literal(-4)))
          CFI ?RET_LOW load(1, XDATA, add(CFA_XSP16, literal(-5)))
          CFI R7 load(1, XDATA, add(CFA_XSP16, literal(-6)))
          CFI V0 load(1, XDATA, add(CFA_XSP16, literal(-7)))
          CFI VB load(1, XDATA, add(CFA_XSP16, literal(-8)))
          CFI R6 load(1, XDATA, add(CFA_XSP16, literal(-9)))
          CFI CFA_SP SP+0
          CFI CFA_XSP16 add(XSP16, 9)
        ; Saved register size: 9
        ; Auto size: 0
        MOV     A,R1
        MOV     R6,A
// 3124   ZDSecMgrNwkKeyInit(setDefault);
        ; Setup parameters for call to function ZDSecMgrNwkKeyInit
        LCALL   `??ZDSecMgrNwkKeyInit::?relay`; Banked call to: ZDSecMgrNwkKeyInit
// 3125   ZDSecMgrApsLinkKeyInit();
        ; Setup parameters for call to function ZDSecMgrApsLinkKeyInit
        LCALL   `??ZDSecMgrApsLinkKeyInit::?relay`; Banked call to: ZDSecMgrApsLinkKeyInit
// 3126   APSME_TCLinkKeyInit(setDefault);
        ; Setup parameters for call to function APSME_TCLinkKeyInit
        MOV     A,R6
        MOV     R1,A
        LCALL   `??APSME_TCLinkKeyInit::?relay`; Banked call to: APSME_TCLinkKeyInit
// 3127 }
        LJMP    ??Subroutine63_0 & 0xFFFF
          CFI EndBlock cfiBlock430
// 3128 
// 3129 /******************************************************************************
// 3130  * @fn          ZDSecMgrSaveApsLinkKey
// 3131  *
// 3132  * @brief       Save APS Link Key to NV. It will loop through all the keys
// 3133  *              to see which one to save.
// 3134  *
// 3135  * @param       none
// 3136  *
// 3137  * @return      none
// 3138  */

        RSEG BANKED_CODE:CODE:NOROOT(0)
// 3139 void ZDSecMgrSaveApsLinkKey(void)
ZDSecMgrSaveApsLinkKey:
          CFI Block cfiBlock431 Using cfiCommon0
          CFI Function ZDSecMgrSaveApsLinkKey
        CODE
// 3140 {
        FUNCALL ZDSecMgrSaveApsLinkKey, osal_mem_alloc
        LOCFRAME ISTACK, 0, STACK
        LOCFRAME PSTACK, 0, STACK
        LOCFRAME XSTACK, 22, STACK
        LOCFRAME IOVERLAY, 0, STATIC
        LOCFRAME DOVERLAY, 0, STATIC
        ARGFRAME ISTACK, 0, STACK
        ARGFRAME PSTACK, 0, STACK
        ARGFRAME XSTACK, 22, STACK
        ARGFRAME IOVERLAY, 0, STATIC
        ARGFRAME DOVERLAY, 0, STATIC
        FUNCALL ZDSecMgrSaveApsLinkKey, osal_nv_read
        LOCFRAME ISTACK, 0, STACK
        LOCFRAME PSTACK, 0, STACK
        LOCFRAME XSTACK, 26, STACK
        LOCFRAME IOVERLAY, 0, STATIC
        LOCFRAME DOVERLAY, 0, STATIC
        ARGFRAME ISTACK, 0, STACK
        ARGFRAME PSTACK, 0, STACK
        ARGFRAME XSTACK, 26, STACK
        ARGFRAME IOVERLAY, 0, STATIC
        ARGFRAME DOVERLAY, 0, STATIC
        FUNCALL ZDSecMgrSaveApsLinkKey, osal_nv_write
        LOCFRAME ISTACK, 0, STACK
        LOCFRAME PSTACK, 0, STACK
        LOCFRAME XSTACK, 26, STACK
        LOCFRAME IOVERLAY, 0, STATIC
        LOCFRAME DOVERLAY, 0, STATIC
        ARGFRAME ISTACK, 0, STACK
        ARGFRAME PSTACK, 0, STACK
        ARGFRAME XSTACK, 26, STACK
        ARGFRAME IOVERLAY, 0, STATIC
        ARGFRAME DOVERLAY, 0, STATIC
        FUNCALL ZDSecMgrSaveApsLinkKey, osal_memset
        LOCFRAME ISTACK, 0, STACK
        LOCFRAME PSTACK, 0, STACK
        LOCFRAME XSTACK, 22, STACK
        LOCFRAME IOVERLAY, 0, STATIC
        LOCFRAME DOVERLAY, 0, STATIC
        ARGFRAME ISTACK, 0, STACK
        ARGFRAME PSTACK, 0, STACK
        ARGFRAME XSTACK, 22, STACK
        ARGFRAME IOVERLAY, 0, STATIC
        ARGFRAME DOVERLAY, 0, STATIC
        FUNCALL ZDSecMgrSaveApsLinkKey, osal_mem_free
        LOCFRAME ISTACK, 0, STACK
        LOCFRAME PSTACK, 0, STACK
        LOCFRAME XSTACK, 22, STACK
        LOCFRAME IOVERLAY, 0, STATIC
        LOCFRAME DOVERLAY, 0, STATIC
        ARGFRAME ISTACK, 0, STACK
        ARGFRAME PSTACK, 0, STACK
        ARGFRAME XSTACK, 22, STACK
        ARGFRAME IOVERLAY, 0, STATIC
        ARGFRAME DOVERLAY, 0, STATIC
        REQUIRE ?V0
        REQUIRE ?V1
        REQUIRE ?V2
        REQUIRE ?V3
        REQUIRE ?V4
        REQUIRE ?V5
        REQUIRE ?V6
        REQUIRE ?V7
        REQUIRE ?V8
        REQUIRE ?V9
        REQUIRE ?V10
        REQUIRE ?V11
        REQUIRE ?V12
        REQUIRE ?V13
        MOV     A,#-0x16
        LCALL   ?BANKED_ENTER_XDATA
          CFI DPH0 load(1, XDATA, add(CFA_XSP16, literal(-1)))
          CFI DPL0 load(1, XDATA, add(CFA_XSP16, literal(-2)))
          CFI ?BRET_EXT load(1, XDATA, add(CFA_XSP16, literal(-3)))
          CFI ?RET_HIGH load(1, XDATA, add(CFA_XSP16, literal(-4)))
          CFI ?RET_LOW load(1, XDATA, add(CFA_XSP16, literal(-5)))
          CFI R7 load(1, XDATA, add(CFA_XSP16, literal(-6)))
          CFI V13 load(1, XDATA, add(CFA_XSP16, literal(-7)))
          CFI V12 load(1, XDATA, add(CFA_XSP16, literal(-8)))
          CFI V11 load(1, XDATA, add(CFA_XSP16, literal(-9)))
          CFI V10 load(1, XDATA, add(CFA_XSP16, literal(-10)))
          CFI V9 load(1, XDATA, add(CFA_XSP16, literal(-11)))
          CFI V8 load(1, XDATA, add(CFA_XSP16, literal(-12)))
          CFI V7 load(1, XDATA, add(CFA_XSP16, literal(-13)))
          CFI V6 load(1, XDATA, add(CFA_XSP16, literal(-14)))
          CFI V5 load(1, XDATA, add(CFA_XSP16, literal(-15)))
          CFI V4 load(1, XDATA, add(CFA_XSP16, literal(-16)))
          CFI V3 load(1, XDATA, add(CFA_XSP16, literal(-17)))
          CFI V2 load(1, XDATA, add(CFA_XSP16, literal(-18)))
          CFI V1 load(1, XDATA, add(CFA_XSP16, literal(-19)))
          CFI V0 load(1, XDATA, add(CFA_XSP16, literal(-20)))
          CFI VB load(1, XDATA, add(CFA_XSP16, literal(-21)))
          CFI R6 load(1, XDATA, add(CFA_XSP16, literal(-22)))
          CFI CFA_SP SP+0
          CFI CFA_XSP16 add(XSP16, 22)
        ; Saved register size: 22
        ; Auto size: 0
// 3141   APSME_LinkKeyData_t *pKeyData = NULL;
// 3142   int i;
// 3143 
// 3144   pKeyData = (APSME_LinkKeyData_t *)osal_mem_alloc(sizeof(APSME_LinkKeyData_t));
        ; Setup parameters for call to function osal_mem_alloc
        MOV     R2,#0x18
        MOV     R3,#0x0
        LCALL   `??osal_mem_alloc::?relay`; Banked call to: osal_mem_alloc
        MOV     ?V10,R2
        MOV     ?V11,R3
// 3145 
// 3146   if (pKeyData != NULL)
        MOV     A,R2
        ORL     A,?V11
        JNZ     $+5
        LJMP    ??ZDSecMgrSaveApsLinkKey_0 & 0xFFFF
// 3147   {
// 3148     // checks all pending flags to know which one to save
// 3149     for (i = 0; i < ZDSECMGR_ENTRY_MAX; i++)
        MOV     ?V2,#0x0
        MOV     ?V3,#0x0
        MOV     ?V0,#ApsLinkKeyFrmCntr & 0xff
        MOV     ?V1,#(ApsLinkKeyFrmCntr >> 8) & 0xff
        MOV     A,R2
        ADD     A,#0x14
        MOV     ?V8,A
        CLR     A
        ADDC    A,?V11
        MOV     ?V9,A
        MOV     A,R2
        ADD     A,#0x10
        MOV     ?V6,A
        CLR     A
        ADDC    A,?V11
        MOV     ?V7,A
// 3150     {
// 3151       if (ApsLinkKeyFrmCntr[i].pendingFlag == TRUE)
??ZDSecMgrSaveApsLinkKey_1:
        MOV     A,?V0
        ADD     A,#0x8
        MOV     ?V4,A
        CLR     A
        ADDC    A,?V1
        MOV     ?V5,A
        MOV     DPL,?V4
        MOV     DPH,A
        MOVX    A,@DPTR
        XRL     A,#0x1
        JNZ     ??ZDSecMgrSaveApsLinkKey_2
        MOV     A,?V2
        ADD     A,#0x1
        MOV     R6,A
        MOV     A,?V3
        ADDC    A,#0x2
        MOV     R7,A
        ; Setup parameters for call to function osal_nv_read
        MOV     R0,#?V10
        LCALL   ?PUSH_XSTACK_I_TWO
          CFI CFA_XSP16 add(XSP16, 24)
        MOV     ?V12,#0x18
        MOV     ?V13,#0x0
        MOV     R0,#?V12
        LCALL   ?PUSH_XSTACK_I_TWO
          CFI CFA_XSP16 add(XSP16, 26)
        MOV     R4,#0x0
        MOV     R5,#0x0
        MOV     A,R6
        MOV     R2,A
        MOV     A,R7
        MOV     R3,A
// 3152       {
// 3153         // retrieve key from NV
// 3154         if (osal_nv_read(ZCD_NV_APS_LINK_KEY_DATA_START + i, 0,
// 3155                          sizeof(APSME_LinkKeyData_t), pKeyData) == SUCCESS)
        LCALL   `??osal_nv_read::?relay`; Banked call to: osal_nv_read
        MOV     A,#0x4
        LCALL   ?DEALLOC_XSTACK8
          CFI CFA_XSP16 add(XSP16, 22)
        MOV     A,R1
        JNZ     ??ZDSecMgrSaveApsLinkKey_2
// 3156         {
// 3157           pKeyData->txFrmCntr = ApsLinkKeyFrmCntr[i].txFrmCntr;
        MOV     DPL,?V0
        MOV     DPH,?V1
        LCALL   ?XLOAD_R0123
        MOV     DPL,?V6
        MOV     DPH,?V7
        LCALL   ?XSTORE_R0123
// 3158           pKeyData->rxFrmCntr = ApsLinkKeyFrmCntr[i].rxFrmCntr;
        MOV     DPL,?V0
        MOV     DPH,?V1
        INC     DPTR
        INC     DPTR
        INC     DPTR
        INC     DPTR
        LCALL   ?XLOAD_R0123
        MOV     DPL,?V8
        MOV     DPH,?V9
        LCALL   ?XSTORE_R0123
// 3159 
// 3160           // Write the APS link key back to the NV
// 3161           osal_nv_write(ZCD_NV_APS_LINK_KEY_DATA_START + i, 0,
// 3162                         sizeof(APSME_LinkKeyData_t), pKeyData);
        ; Setup parameters for call to function osal_nv_write
        MOV     R0,#?V10
        LCALL   ?PUSH_XSTACK_I_TWO
          CFI CFA_XSP16 add(XSP16, 24)
        MOV     R0,#?V12
        LCALL   ?PUSH_XSTACK_I_TWO
          CFI CFA_XSP16 add(XSP16, 26)
        MOV     R4,#0x0
        MOV     R5,#0x0
        MOV     A,R6
        MOV     R2,A
        MOV     A,R7
        MOV     R3,A
        LCALL   `??osal_nv_write::?relay`; Banked call to: osal_nv_write
        MOV     A,#0x4
        LCALL   ?DEALLOC_XSTACK8
          CFI CFA_XSP16 add(XSP16, 22)
// 3163 
// 3164           // clear the pending write flag
// 3165           ApsLinkKeyFrmCntr[i].pendingFlag = FALSE;
        MOV     DPL,?V4
        MOV     DPH,?V5
        CLR     A
        MOVX    @DPTR,A
// 3166         }
// 3167       }
// 3168     }
??ZDSecMgrSaveApsLinkKey_2:
        INC     ?V2
        MOV     A,?V2
        JNZ     ??ZDSecMgrSaveApsLinkKey_3
        INC     ?V3
??ZDSecMgrSaveApsLinkKey_3:
        MOV     A,?V0
        ADD     A,#0x9
        MOV     ?V0,A
        JNC     ??ZDSecMgrSaveApsLinkKey_4
        INC     ?V1
??ZDSecMgrSaveApsLinkKey_4:
        CLR     C
        MOV     A,?V2
        SUBB    A,#0x3
        MOV     A,?V3
        SUBB    A,#0x0
        MOV     C,0xD0 /* PSW */.2
        XRL     A,PSW
        RLC     A
        JNC     $+5
        LJMP    ??ZDSecMgrSaveApsLinkKey_1 & 0xFFFF
// 3169 
// 3170     // clear copy of key in RAM
// 3171     osal_memset( pKeyData, 0x00, sizeof(APSME_LinkKeyData_t) );
        ; Setup parameters for call to function osal_memset
        MOV     R4,#0x18
        MOV     R5,#0x0
        MOV     R1,#0x0
        MOV     R2,?V10
        MOV     R3,?V11
        LCALL   `??osal_memset::?relay`; Banked call to: osal_memset
// 3172 
// 3173     osal_mem_free(pKeyData);
        ; Setup parameters for call to function osal_mem_free
        MOV     R2,?V10
        MOV     R3,?V11
        LCALL   `??osal_mem_free::?relay`; Banked call to: osal_mem_free
// 3174   }
// 3175 }
??ZDSecMgrSaveApsLinkKey_0:
        MOV     R7,#0xe
        LJMP    ?BANKED_LEAVE_XDATA
          CFI R6 SameValue
          CFI VB SameValue
          CFI V0 SameValue
          CFI V1 SameValue
          CFI V2 SameValue
          CFI V3 SameValue
          CFI V4 SameValue
          CFI V5 SameValue
          CFI V6 SameValue
          CFI V7 SameValue
          CFI V8 SameValue
          CFI V9 SameValue
          CFI V10 SameValue
          CFI V11 SameValue
          CFI V12 SameValue
          CFI V13 SameValue
          CFI R7 SameValue
          CFI ?RET_LOW Frame(CFA_SP, 1)
          CFI ?RET_HIGH Frame(CFA_SP, 2)
          CFI ?BRET_EXT Frame(CFA_SP, 3)
          CFI DPL0 SameValue
          CFI DPH0 SameValue
          CFI CFA_SP SP+-3
          CFI CFA_XSP16 XSP16+0
          CFI EndBlock cfiBlock431
// 3176 
// 3177 /******************************************************************************
// 3178  * @fn          ZDSecMgrSaveTCLinkKey
// 3179  *
// 3180  * @brief       Save TC Link Key to NV. It will loop through all the keys
// 3181  *              to see which one to save.
// 3182  *
// 3183  * @param       none
// 3184  *
// 3185  * @return      none
// 3186  */

        RSEG BANKED_CODE:CODE:NOROOT(0)
// 3187 void ZDSecMgrSaveTCLinkKey(void)
ZDSecMgrSaveTCLinkKey:
          CFI Block cfiBlock432 Using cfiCommon0
          CFI Function ZDSecMgrSaveTCLinkKey
        CODE
// 3188 {
        FUNCALL ZDSecMgrSaveTCLinkKey, osal_mem_alloc
        LOCFRAME ISTACK, 0, STACK
        LOCFRAME PSTACK, 0, STACK
        LOCFRAME XSTACK, 12, STACK
        LOCFRAME IOVERLAY, 0, STATIC
        LOCFRAME DOVERLAY, 0, STATIC
        ARGFRAME ISTACK, 0, STACK
        ARGFRAME PSTACK, 0, STACK
        ARGFRAME XSTACK, 12, STACK
        ARGFRAME IOVERLAY, 0, STATIC
        ARGFRAME DOVERLAY, 0, STATIC
        FUNCALL ZDSecMgrSaveTCLinkKey, osal_nv_read
        LOCFRAME ISTACK, 0, STACK
        LOCFRAME PSTACK, 0, STACK
        LOCFRAME XSTACK, 16, STACK
        LOCFRAME IOVERLAY, 0, STATIC
        LOCFRAME DOVERLAY, 0, STATIC
        ARGFRAME ISTACK, 0, STACK
        ARGFRAME PSTACK, 0, STACK
        ARGFRAME XSTACK, 16, STACK
        ARGFRAME IOVERLAY, 0, STATIC
        ARGFRAME DOVERLAY, 0, STATIC
        FUNCALL ZDSecMgrSaveTCLinkKey, osal_nv_write
        LOCFRAME ISTACK, 0, STACK
        LOCFRAME PSTACK, 0, STACK
        LOCFRAME XSTACK, 16, STACK
        LOCFRAME IOVERLAY, 0, STATIC
        LOCFRAME DOVERLAY, 0, STATIC
        ARGFRAME ISTACK, 0, STACK
        ARGFRAME PSTACK, 0, STACK
        ARGFRAME XSTACK, 16, STACK
        ARGFRAME IOVERLAY, 0, STATIC
        ARGFRAME DOVERLAY, 0, STATIC
        FUNCALL ZDSecMgrSaveTCLinkKey, osal_memset
        LOCFRAME ISTACK, 0, STACK
        LOCFRAME PSTACK, 0, STACK
        LOCFRAME XSTACK, 12, STACK
        LOCFRAME IOVERLAY, 0, STATIC
        LOCFRAME DOVERLAY, 0, STATIC
        ARGFRAME ISTACK, 0, STACK
        ARGFRAME PSTACK, 0, STACK
        ARGFRAME XSTACK, 12, STACK
        ARGFRAME IOVERLAY, 0, STATIC
        ARGFRAME DOVERLAY, 0, STATIC
        FUNCALL ZDSecMgrSaveTCLinkKey, osal_mem_free
        LOCFRAME ISTACK, 0, STACK
        LOCFRAME PSTACK, 0, STACK
        LOCFRAME XSTACK, 12, STACK
        LOCFRAME IOVERLAY, 0, STATIC
        LOCFRAME DOVERLAY, 0, STATIC
        ARGFRAME ISTACK, 0, STACK
        ARGFRAME PSTACK, 0, STACK
        ARGFRAME XSTACK, 12, STACK
        ARGFRAME IOVERLAY, 0, STATIC
        ARGFRAME DOVERLAY, 0, STATIC
        REQUIRE ?V0
        REQUIRE ?V1
        REQUIRE ?V2
        REQUIRE ?V3
        MOV     A,#-0xc
        LCALL   ?BANKED_ENTER_XDATA
          CFI DPH0 load(1, XDATA, add(CFA_XSP16, literal(-1)))
          CFI DPL0 load(1, XDATA, add(CFA_XSP16, literal(-2)))
          CFI ?BRET_EXT load(1, XDATA, add(CFA_XSP16, literal(-3)))
          CFI ?RET_HIGH load(1, XDATA, add(CFA_XSP16, literal(-4)))
          CFI ?RET_LOW load(1, XDATA, add(CFA_XSP16, literal(-5)))
          CFI R7 load(1, XDATA, add(CFA_XSP16, literal(-6)))
          CFI V3 load(1, XDATA, add(CFA_XSP16, literal(-7)))
          CFI V2 load(1, XDATA, add(CFA_XSP16, literal(-8)))
          CFI V1 load(1, XDATA, add(CFA_XSP16, literal(-9)))
          CFI V0 load(1, XDATA, add(CFA_XSP16, literal(-10)))
          CFI VB load(1, XDATA, add(CFA_XSP16, literal(-11)))
          CFI R6 load(1, XDATA, add(CFA_XSP16, literal(-12)))
          CFI CFA_SP SP+0
          CFI CFA_XSP16 add(XSP16, 12)
        ; Saved register size: 12
        ; Auto size: 0
// 3189   APSME_TCLinkKey_t *pKeyData = NULL;
// 3190   uint16 i;
// 3191 
// 3192   pKeyData = (APSME_TCLinkKey_t *)osal_mem_alloc(sizeof(APSME_TCLinkKey_t));
        ; Setup parameters for call to function osal_mem_alloc
        MOV     R2,#0x20
        MOV     R3,#0x0
        LCALL   `??osal_mem_alloc::?relay`; Banked call to: osal_mem_alloc
        MOV     ?V0,R2
        MOV     ?V1,R3
// 3193 
// 3194   if (pKeyData != NULL)
        MOV     A,R2
        ORL     A,?V1
        JNZ     $+5
        LJMP    ??ZDSecMgrSaveTCLinkKey_0 & 0xFFFF
// 3195   {
// 3196     for( i = 0; i < ZDSECMGR_TC_DEVICE_MAX; i++ )
// 3197     {
// 3198       if (TCLinkKeyFrmCntr[i].pendingFlag == TRUE)
        MOV     DPTR,#TCLinkKeyFrmCntr + 8
        MOVX    A,@DPTR
        XRL     A,#0x1
        JNZ     ??ZDSecMgrSaveTCLinkKey_1
// 3199       {
// 3200         if (osal_nv_read(ZCD_NV_TCLK_TABLE_START + i, 0,
// 3201                          sizeof(APSME_TCLinkKey_t), pKeyData) == SUCCESS)
        ; Setup parameters for call to function osal_nv_read
        MOV     R0,#?V0
        LCALL   ?PUSH_XSTACK_I_TWO
          CFI CFA_XSP16 add(XSP16, 14)
        MOV     ?V2,#0x20
        MOV     ?V3,#0x0
        MOV     R0,#?V2
        LCALL   ?PUSH_XSTACK_I_TWO
          CFI CFA_XSP16 add(XSP16, 16)
        MOV     R4,#0x0
        MOV     R5,#0x0
        MOV     R2,#0x1
        MOV     R3,#0x1
        LCALL   `??osal_nv_read::?relay`; Banked call to: osal_nv_read
        MOV     A,#0x4
        LCALL   ?DEALLOC_XSTACK8
          CFI CFA_XSP16 add(XSP16, 12)
        MOV     A,R1
        JNZ     ??ZDSecMgrSaveTCLinkKey_1
// 3202         {
// 3203           pKeyData->txFrmCntr = TCLinkKeyFrmCntr[i].txFrmCntr;
        MOV     DPTR,#TCLinkKeyFrmCntr
        LCALL   ?XLOAD_R0123
        MOV     A,?V0
        ADD     A,#0x18
        MOV     DPL,A
        CLR     A
        ADDC    A,?V1
        MOV     DPH,A
        LCALL   ?XSTORE_R0123
// 3204           pKeyData->rxFrmCntr = TCLinkKeyFrmCntr[i].rxFrmCntr;
        MOV     DPTR,#TCLinkKeyFrmCntr + 4
        LCALL   ?XLOAD_R0123
        MOV     A,?V0
        ADD     A,#0x1c
        MOV     DPL,A
        CLR     A
        ADDC    A,?V1
        MOV     DPH,A
        LCALL   ?XSTORE_R0123
// 3205 
// 3206           // Write the TC link key back to the NV
// 3207           osal_nv_write(ZCD_NV_TCLK_TABLE_START + i, 0,
// 3208                         sizeof(APSME_TCLinkKey_t), pKeyData);
        ; Setup parameters for call to function osal_nv_write
        MOV     R0,#?V0
        LCALL   ?PUSH_XSTACK_I_TWO
          CFI CFA_XSP16 add(XSP16, 14)
        MOV     R0,#?V2
        LCALL   ?PUSH_XSTACK_I_TWO
          CFI CFA_XSP16 add(XSP16, 16)
        MOV     R4,#0x0
        MOV     R5,#0x0
        MOV     R2,#0x1
        MOV     R3,#0x1
        LCALL   `??osal_nv_write::?relay`; Banked call to: osal_nv_write
        MOV     A,#0x4
        LCALL   ?DEALLOC_XSTACK8
          CFI CFA_XSP16 add(XSP16, 12)
// 3209 
// 3210           // clear the pending write flag
// 3211           TCLinkKeyFrmCntr[i].pendingFlag = FALSE;
        MOV     DPTR,#TCLinkKeyFrmCntr + 8
        CLR     A
        MOVX    @DPTR,A
// 3212         }
// 3213       }
// 3214     }
// 3215       // clear copy of key in RAM
// 3216     osal_memset( pKeyData, 0x00, sizeof(APSME_TCLinkKey_t) );
??ZDSecMgrSaveTCLinkKey_1:
        ; Setup parameters for call to function osal_memset
        MOV     R4,#0x20
        MOV     R5,#0x0
        MOV     R1,#0x0
        MOV     R2,?V0
        MOV     R3,?V1
        LCALL   `??osal_memset::?relay`; Banked call to: osal_memset
// 3217 
// 3218     osal_mem_free(pKeyData);
        ; Setup parameters for call to function osal_mem_free
        MOV     R2,?V0
        MOV     R3,?V1
        LCALL   `??osal_mem_free::?relay`; Banked call to: osal_mem_free
// 3219   }
// 3220 }
??ZDSecMgrSaveTCLinkKey_0:
        LJMP    ??Subroutine74_0 & 0xFFFF
          CFI EndBlock cfiBlock432
// 3221 
// 3222 /******************************************************************************
// 3223  * @fn          ZDSecMgrUpdateTCAddress
// 3224  *
// 3225  * @brief       Update Trust Center address and save to NV.
// 3226  *
// 3227  * @param       extAddr - [in] extended address or NULL if no TC protected
// 3228  *
// 3229  * @return      none
// 3230  */

        RSEG BANKED_CODE:CODE:NOROOT(0)
// 3231 void ZDSecMgrUpdateTCAddress( uint8 *extAddr )
ZDSecMgrUpdateTCAddress:
          CFI Block cfiBlock433 Using cfiCommon0
          CFI Function ZDSecMgrUpdateTCAddress
        CODE
// 3232 {
        FUNCALL ZDSecMgrUpdateTCAddress, APSME_SetRequest
        LOCFRAME ISTACK, 0, STACK
        LOCFRAME PSTACK, 0, STACK
        LOCFRAME XSTACK, 18, STACK
        LOCFRAME IOVERLAY, 0, STATIC
        LOCFRAME DOVERLAY, 0, STATIC
        ARGFRAME ISTACK, 0, STACK
        ARGFRAME PSTACK, 0, STACK
        ARGFRAME XSTACK, 18, STACK
        ARGFRAME IOVERLAY, 0, STATIC
        ARGFRAME DOVERLAY, 0, STATIC
        REQUIRE ?V0
        REQUIRE ?V1
        MOV     A,#-0xa
        LCALL   ?BANKED_ENTER_XDATA
          CFI DPH0 load(1, XDATA, add(CFA_XSP16, literal(-1)))
          CFI DPL0 load(1, XDATA, add(CFA_XSP16, literal(-2)))
          CFI ?BRET_EXT load(1, XDATA, add(CFA_XSP16, literal(-3)))
          CFI ?RET_HIGH load(1, XDATA, add(CFA_XSP16, literal(-4)))
          CFI ?RET_LOW load(1, XDATA, add(CFA_XSP16, literal(-5)))
          CFI R7 load(1, XDATA, add(CFA_XSP16, literal(-6)))
          CFI V1 load(1, XDATA, add(CFA_XSP16, literal(-7)))
          CFI V0 load(1, XDATA, add(CFA_XSP16, literal(-8)))
          CFI VB load(1, XDATA, add(CFA_XSP16, literal(-9)))
          CFI R6 load(1, XDATA, add(CFA_XSP16, literal(-10)))
          CFI CFA_SP SP+0
          CFI CFA_XSP16 add(XSP16, 10)
        ; Saved register size: 10
        ; Auto size: 8
        MOV     A,#-0x8
        LCALL   ?ALLOC_XSTACK8
          CFI CFA_XSP16 add(XSP16, 18)
// 3233   uint8 noTCAddress[Z_EXTADDR_LEN] = { 0xFF, 0xFF, 0xFF, 0xFF, 0xFF, 0xFF, 0xFF, 0xFF };
        MOV     DPTR,#`?<Constant {255, 255, 255, 255, 255, 255, 255,`
        MOV     R4,?XSP + 0
        MOV     R5,?XSP + 1
        MOV     A,#0x8
        LCALL   ?MOVE_LONG8_XDATA_XDATA
// 3234   APSME_SetRequest( apsTrustCenterAddress, 0, ( extAddr != NULL) ? extAddr : noTCAddress );
        MOV     A,R2
        ORL     A,R3
        JNZ     ??ZDSecMgrUpdateTCAddress_0
        MOV     R0,?XSP + 0
        MOV     R1,?XSP + 1
        MOV     ?V0,R0
        MOV     ?V1,R1
        MOV     R2,?V0
        MOV     R3,?V1
??ZDSecMgrUpdateTCAddress_0:
        ; Setup parameters for call to function APSME_SetRequest
        MOV     A,R2
        MOV     R4,A
        MOV     A,R3
        MOV     R5,A
        MOV     R2,#0x0
        MOV     R3,#0x0
        MOV     R1,#-0x55
        LCALL   `??APSME_SetRequest::?relay`; Banked call to: APSME_SetRequest
// 3235 #if defined ( NV_RESTORE )
// 3236   osal_nv_write( ZCD_NV_TRUSTCENTER_ADDR, 0, Z_EXTADDR_LEN, zgApsTrustCenterAddr );
// 3237 #endif
// 3238 }
        LJMP    ?Subroutine9 & 0xFFFF
          CFI EndBlock cfiBlock433

        RSEG XDATA_ID:CODE:NOROOT(0)
`?<Initializer for ZDSecMgrAppKeyType>`:
        DATA8
        DB 3

        RSEG BANK_RELAYS:CODE:REORDER:NOROOT(0)
`??ZDSecMgrAddrStore::?relay`:
        CODE
        LCALL   ?BDISPATCH
        DATA24
        DC24    ZDSecMgrAddrStore

        RSEG BANK_RELAYS:CODE:REORDER:NOROOT(0)
`??ZDSecMgrExtAddrStore::?relay`:
        CODE
        LCALL   ?BDISPATCH
        DATA24
        DC24    ZDSecMgrExtAddrStore

        RSEG BANK_RELAYS:CODE:REORDER:NOROOT(0)
`??ZDSecMgrExtAddrLookup::?relay`:
        CODE
        LCALL   ?BDISPATCH
        DATA24
        DC24    ZDSecMgrExtAddrLookup

        RSEG BANK_RELAYS:CODE:REORDER:NOROOT(0)
`??ZDSecMgrAddrClear::?relay`:
        CODE
        LCALL   ?BDISPATCH
        DATA24
        DC24    ZDSecMgrAddrClear

        RSEG BANK_RELAYS:CODE:REORDER:NOROOT(0)
`??ZDSecMgrEntryInit::?relay`:
        CODE
        LCALL   ?BDISPATCH
        DATA24
        DC24    ZDSecMgrEntryInit

        RSEG BANK_RELAYS:CODE:REORDER:NOROOT(0)
`??ZDSecMgrEntryLookup::?relay`:
        CODE
        LCALL   ?BDISPATCH
        DATA24
        DC24    ZDSecMgrEntryLookup

        RSEG BANK_RELAYS:CODE:REORDER:NOROOT(0)
`??ZDSecMgrEntryLookupAMI::?relay`:
        CODE
        LCALL   ?BDISPATCH
        DATA24
        DC24    ZDSecMgrEntryLookupAMI

        RSEG BANK_RELAYS:CODE:REORDER:NOROOT(0)
`??ZDSecMgrEntryLookupExt::?relay`:
        CODE
        LCALL   ?BDISPATCH
        DATA24
        DC24    ZDSecMgrEntryLookupExt

        RSEG BANK_RELAYS:CODE:REORDER:NOROOT(0)
`??ZDSecMgrEntryLookupExtGetIndex::?relay`:
        CODE
        LCALL   ?BDISPATCH
        DATA24
        DC24    ZDSecMgrEntryLookupExtGetIndex

        RSEG BANK_RELAYS:CODE:REORDER:NOROOT(0)
`??ZDSecMgrEntryLookupAMIGetIndex::?relay`:
        CODE
        LCALL   ?BDISPATCH
        DATA24
        DC24    ZDSecMgrEntryLookupAMIGetIndex

        RSEG BANK_RELAYS:CODE:REORDER:NOROOT(0)
`??ZDSecMgrEntryFree::?relay`:
        CODE
        LCALL   ?BDISPATCH
        DATA24
        DC24    ZDSecMgrEntryFree

        RSEG BANK_RELAYS:CODE:REORDER:NOROOT(0)
`??ZDSecMgrEntryNew::?relay`:
        CODE
        LCALL   ?BDISPATCH
        DATA24
        DC24    ZDSecMgrEntryNew

        RSEG BANK_RELAYS:CODE:REORDER:NOROOT(0)
`??ZDSecMgrAppKeyGet::?relay`:
        CODE
        LCALL   ?BDISPATCH
        DATA24
        DC24    ZDSecMgrAppKeyGet

        RSEG BANK_RELAYS:CODE:REORDER:NOROOT(0)
`??ZDSecMgrAppKeyReq::?relay`:
        CODE
        LCALL   ?BDISPATCH
        DATA24
        DC24    ZDSecMgrAppKeyReq

        RSEG BANK_RELAYS:CODE:REORDER:NOROOT(0)
`??ZDSecMgrSendNwkKey::?relay`:
        CODE
        LCALL   ?BDISPATCH
        DATA24
        DC24    ZDSecMgrSendNwkKey

        RSEG BANK_RELAYS:CODE:REORDER:NOROOT(0)
`??ZDSecMgrDeviceRemoveByExtAddr::?relay`:
        CODE
        LCALL   ?BDISPATCH
        DATA24
        DC24    ZDSecMgrDeviceRemoveByExtAddr

        RSEG BANK_RELAYS:CODE:REORDER:NOROOT(0)
`??ZDSecMgrDeviceRemove::?relay`:
        CODE
        LCALL   ?BDISPATCH
        DATA24
        DC24    ZDSecMgrDeviceRemove

        RSEG BANK_RELAYS:CODE:REORDER:NOROOT(0)
`??ZDSecMgrDeviceValidateRM::?relay`:
        CODE
        LCALL   ?BDISPATCH
        DATA24
        DC24    ZDSecMgrDeviceValidateRM

        RSEG BANK_RELAYS:CODE:REORDER:NOROOT(0)
`??ZDSecMgrDeviceValidate::?relay`:
        CODE
        LCALL   ?BDISPATCH
        DATA24
        DC24    ZDSecMgrDeviceValidate

        RSEG BANK_RELAYS:CODE:REORDER:NOROOT(0)
`??ZDSecMgrDeviceJoin::?relay`:
        CODE
        LCALL   ?BDISPATCH
        DATA24
        DC24    ZDSecMgrDeviceJoin

        RSEG BANK_RELAYS:CODE:REORDER:NOROOT(0)
`??ZDSecMgrDeviceJoinDirect::?relay`:
        CODE
        LCALL   ?BDISPATCH
        DATA24
        DC24    ZDSecMgrDeviceJoinDirect

        RSEG BANK_RELAYS:CODE:REORDER:NOROOT(0)
`??ZDSecMgrDeviceJoinFwd::?relay`:
        CODE
        LCALL   ?BDISPATCH
        DATA24
        DC24    ZDSecMgrDeviceJoinFwd

        RSEG BANK_RELAYS:CODE:REORDER:NOROOT(0)
`??ZDSecMgrDeviceNew::?relay`:
        CODE
        LCALL   ?BDISPATCH
        DATA24
        DC24    ZDSecMgrDeviceNew

        RSEG BANK_RELAYS:CODE:REORDER:NOROOT(0)
`??ZDSecMgrAssocDeviceAuth::?relay`:
        CODE
        LCALL   ?BDISPATCH
        DATA24
        DC24    ZDSecMgrAssocDeviceAuth

        RSEG BANK_RELAYS:CODE:REORDER:NOROOT(0)
`??ZDSecMgrAuthNwkKey::?relay`:
        CODE
        LCALL   ?BDISPATCH
        DATA24
        DC24    ZDSecMgrAuthNwkKey

        RSEG BANK_RELAYS:CODE:REORDER:NOROOT(0)
`??ZDSecMgrInit::?relay`:
        CODE
        LCALL   ?BDISPATCH
        DATA24
        DC24    ZDSecMgrInit

        RSEG BANK_RELAYS:CODE:REORDER:NOROOT(0)
`??ZDSecMgrConfig::?relay`:
        CODE
        LCALL   ?BDISPATCH
        DATA24
        DC24    ZDSecMgrConfig

        RSEG BANK_RELAYS:CODE:REORDER:NOROOT(0)
`??ZDSecMgrPermitJoining::?relay`:
        CODE
        LCALL   ?BDISPATCH
        DATA24
        DC24    ZDSecMgrPermitJoining

        RSEG BANK_RELAYS:CODE:REORDER:NOROOT(0)
`??ZDSecMgrPermitJoiningTimeout::?relay`:
        CODE
        LCALL   ?BDISPATCH
        DATA24
        DC24    ZDSecMgrPermitJoiningTimeout

        RSEG BANK_RELAYS:CODE:REORDER:NOROOT(0)
`??ZDSecMgrNewDeviceEvent::?relay`:
        CODE
        LCALL   ?BDISPATCH
        DATA24
        DC24    ZDSecMgrNewDeviceEvent

        RSEG BANK_RELAYS:CODE:REORDER:NOROOT(0)
`??ZDSecMgrTCExtAddrCheck::?relay`:
        CODE
        LCALL   ?BDISPATCH
        DATA24
        DC24    ZDSecMgrTCExtAddrCheck

        RSEG BANK_RELAYS:CODE:REORDER:NOROOT(0)
`??ZDSecMgrTCDataLoad::?relay`:
        CODE
        LCALL   ?BDISPATCH
        DATA24
        DC24    ZDSecMgrTCDataLoad

        RSEG BANK_RELAYS:CODE:REORDER:NOROOT(0)
`??ZDSecMgrTransportKeyInd::?relay`:
        CODE
        LCALL   ?BDISPATCH
        DATA24
        DC24    ZDSecMgrTransportKeyInd

        RSEG BANK_RELAYS:CODE:REORDER:NOROOT(0)
`??ZDSecMgrUpdateDeviceInd::?relay`:
        CODE
        LCALL   ?BDISPATCH
        DATA24
        DC24    ZDSecMgrUpdateDeviceInd

        RSEG BANK_RELAYS:CODE:REORDER:NOROOT(0)
`??ZDSecMgrRemoveDeviceInd::?relay`:
        CODE
        LCALL   ?BDISPATCH
        DATA24
        DC24    ZDSecMgrRemoveDeviceInd

        RSEG BANK_RELAYS:CODE:REORDER:NOROOT(0)
`??ZDSecMgrRequestKeyInd::?relay`:
        CODE
        LCALL   ?BDISPATCH
        DATA24
        DC24    ZDSecMgrRequestKeyInd

        RSEG BANK_RELAYS:CODE:REORDER:NOROOT(0)
`??ZDSecMgrSwitchKeyInd::?relay`:
        CODE
        LCALL   ?BDISPATCH
        DATA24
        DC24    ZDSecMgrSwitchKeyInd

        RSEG BANK_RELAYS:CODE:REORDER:NOROOT(0)
`??ZDSecMgrUpdateNwkKey::?relay`:
        CODE
        LCALL   ?BDISPATCH
        DATA24
        DC24    ZDSecMgrUpdateNwkKey

        RSEG BANK_RELAYS:CODE:REORDER:NOROOT(0)
`??ZDSecMgrSwitchNwkKey::?relay`:
        CODE
        LCALL   ?BDISPATCH
        DATA24
        DC24    ZDSecMgrSwitchNwkKey

        RSEG BANK_RELAYS:CODE:REORDER:NOROOT(0)
`??ZDSecMgrRequestAppKey::?relay`:
        CODE
        LCALL   ?BDISPATCH
        DATA24
        DC24    ZDSecMgrRequestAppKey

        RSEG BANK_RELAYS:CODE:REORDER:NOROOT(0)
`??ZDSecMgrSetupPartner::?relay`:
        CODE
        LCALL   ?BDISPATCH
        DATA24
        DC24    ZDSecMgrSetupPartner

        RSEG BANK_RELAYS:CODE:REORDER:NOROOT(0)
`??ZDSecMgrAppKeyTypeSet::?relay`:
        CODE
        LCALL   ?BDISPATCH
        DATA24
        DC24    ZDSecMgrAppKeyTypeSet

        RSEG BANK_RELAYS:CODE:REORDER:NOROOT(0)
`??APSME_LinkKeySet::?relay`:
        CODE
        LCALL   ?BDISPATCH
        DATA24
        DC24    APSME_LinkKeySet

        RSEG BANK_RELAYS:CODE:REORDER:NOROOT(0)
`??ZDSecMgrAuthenticationSet::?relay`:
        CODE
        LCALL   ?BDISPATCH
        DATA24
        DC24    ZDSecMgrAuthenticationSet

        RSEG BANK_RELAYS:CODE:REORDER:NOROOT(0)
`??ZDSecMgrAuthenticationCheck::?relay`:
        CODE
        LCALL   ?BDISPATCH
        DATA24
        DC24    ZDSecMgrAuthenticationCheck

        RSEG BANK_RELAYS:CODE:REORDER:NOROOT(0)
`??APSME_LinkKeyNVIdGet::?relay`:
        CODE
        LCALL   ?BDISPATCH
        DATA24
        DC24    APSME_LinkKeyNVIdGet

        RSEG BANK_RELAYS:CODE:REORDER:NOROOT(0)
`??APSME_IsLinkKeyValid::?relay`:
        CODE
        LCALL   ?BDISPATCH
        DATA24
        DC24    APSME_IsLinkKeyValid

        RSEG BANK_RELAYS:CODE:REORDER:NOROOT(0)
`??APSME_KeyFwdToChild::?relay`:
        CODE
        LCALL   ?BDISPATCH
        DATA24
        DC24    APSME_KeyFwdToChild

        RSEG BANK_RELAYS:CODE:REORDER:NOROOT(0)
`??ZDSecMgrAddLinkKey::?relay`:
        CODE
        LCALL   ?BDISPATCH
        DATA24
        DC24    ZDSecMgrAddLinkKey

        RSEG BANK_RELAYS:CODE:REORDER:NOROOT(0)
`??ZDSecMgrInitNV::?relay`:
        CODE
        LCALL   ?BDISPATCH
        DATA24
        DC24    ZDSecMgrInitNV

        RSEG BANK_RELAYS:CODE:REORDER:NOROOT(0)
`??ZDSecMgrSetDefaultNV::?relay`:
        CODE
        LCALL   ?BDISPATCH
        DATA24
        DC24    ZDSecMgrSetDefaultNV

        RSEG BANK_RELAYS:CODE:REORDER:NOROOT(0)
`??ZDSecMgrAPSRemove::?relay`:
        CODE
        LCALL   ?BDISPATCH
        DATA24
        DC24    ZDSecMgrAPSRemove

        RSEG BANK_RELAYS:CODE:REORDER:NOROOT(0)
`??APSME_TCLinkKeyInit::?relay`:
        CODE
        LCALL   ?BDISPATCH
        DATA24
        DC24    APSME_TCLinkKeyInit

        RSEG BANK_RELAYS:CODE:REORDER:NOROOT(0)
`??APSME_TCLinkKeySync::?relay`:
        CODE
        LCALL   ?BDISPATCH
        DATA24
        DC24    APSME_TCLinkKeySync

        RSEG BANK_RELAYS:CODE:REORDER:NOROOT(0)
`??APSME_TCLinkKeyLoad::?relay`:
        CODE
        LCALL   ?BDISPATCH
        DATA24
        DC24    APSME_TCLinkKeyLoad

        RSEG BANK_RELAYS:CODE:REORDER:NOROOT(0)
`??APSME_IsDefaultTCLK::?relay`:
        CODE
        LCALL   ?BDISPATCH
        DATA24
        DC24    APSME_IsDefaultTCLK

        RSEG BANK_RELAYS:CODE:REORDER:NOROOT(0)
`??ZDSecMgrNwkKeyInit::?relay`:
        CODE
        LCALL   ?BDISPATCH
        DATA24
        DC24    ZDSecMgrNwkKeyInit

        RSEG BANK_RELAYS:CODE:REORDER:NOROOT(0)
`??ZDSecMgrReadKeyFromNv::?relay`:
        CODE
        LCALL   ?BDISPATCH
        DATA24
        DC24    ZDSecMgrReadKeyFromNv

        RSEG BANK_RELAYS:CODE:REORDER:NOROOT(0)
`??ZDSecMgrApsLinkKeyInit::?relay`:
        CODE
        LCALL   ?BDISPATCH
        DATA24
        DC24    ZDSecMgrApsLinkKeyInit

        RSEG BANK_RELAYS:CODE:REORDER:NOROOT(0)
`??ZDSecMgrInitNVKeyTables::?relay`:
        CODE
        LCALL   ?BDISPATCH
        DATA24
        DC24    ZDSecMgrInitNVKeyTables

        RSEG BANK_RELAYS:CODE:REORDER:NOROOT(0)
`??ZDSecMgrSaveApsLinkKey::?relay`:
        CODE
        LCALL   ?BDISPATCH
        DATA24
        DC24    ZDSecMgrSaveApsLinkKey

        RSEG BANK_RELAYS:CODE:REORDER:NOROOT(0)
`??ZDSecMgrSaveTCLinkKey::?relay`:
        CODE
        LCALL   ?BDISPATCH
        DATA24
        DC24    ZDSecMgrSaveTCLinkKey

        RSEG BANK_RELAYS:CODE:REORDER:NOROOT(0)
`??ZDSecMgrUpdateTCAddress::?relay`:
        CODE
        LCALL   ?BDISPATCH
        DATA24
        DC24    ZDSecMgrUpdateTCAddress

        RSEG XDATA_ROM_C:CONST:REORDER:NOROOT(0)
        DATA8
`?<Constant {255, 255, 255, 255, 255, 255, 255,`:
        DB 255
        DB 255
        DB 255
        DB 255
        DB 255
        DB 255
        DB 255
        DB 255

        RSEG XDATA_ROM_C:CONST:REORDER:NOROOT(0)
        DATA32
__Constant_1:
        DD 1

        END
// 3239 
// 3240 #if defined ( ZBA_FALLBACK_NWKKEY )
// 3241 /******************************************************************************
// 3242  * @fn          ZDSecMgrFallbackNwkKey
// 3243  *
// 3244  * @brief       Use the ZBA fallback network key.
// 3245  *
// 3246  * @param       none
// 3247  *
// 3248  * @return      none
// 3249  */
// 3250 void ZDSecMgrFallbackNwkKey( void )
// 3251 {
// 3252   if ( !_NIB.nwkKeyLoaded )
// 3253   {
// 3254     uint8 fallbackKey[SEC_KEY_LEN];
// 3255 
// 3256     ZDSecMgrReadKeyFromNv( ZCD_NV_PRECFGKEY, fallbackKey );
// 3257     SSP_UpdateNwkKey( fallbackKey, 0);
// 3258     SSP_SwitchNwkKey( 0 );
// 3259 
// 3260     // clear local copy of key
// 3261     osal_memset( fallbackKey, 0x00, SEC_KEY_LEN );
// 3262 
// 3263     // handle next step in authentication process
// 3264     ZDSecMgrAuthNwkKey();
// 3265   }
// 3266 }
// 3267 #endif // defined ( ZBA_FALLBACK_NWKKEY )
// 3268 
// 3269 #if defined ( NV_RESTORE )
// 3270 /******************************************************************************
// 3271  * @fn          ZDSecMgrClearNVKeyValues
// 3272  *
// 3273  * @brief       If NV_RESTORE is enabled and the status of the network needs
// 3274  *              default values this fuction clears ZCD_NV_NWKKEY,
// 3275  *              ZCD_NV_NWK_ACTIVE_KEY_INFO and ZCD_NV_NWK_ALTERN_KEY_INFO link
// 3276  *
// 3277  * @param       none
// 3278  *
// 3279  * @return      none
// 3280  */
// 3281 void ZDSecMgrClearNVKeyValues(void)
// 3282 {
// 3283   nwkActiveKeyItems keyItems;
// 3284   nwkKeyDesc nwkKey;
// 3285 
// 3286   osal_memset(&keyItems, 0x00, sizeof(nwkActiveKeyItems));
// 3287 
// 3288   osal_nv_write(ZCD_NV_NWKKEY, 0, sizeof(nwkActiveKeyItems), &keyItems);
// 3289 
// 3290   // Initialize NV items for NWK Active and Alternate keys.
// 3291   osal_memset( &nwkKey, 0x00, sizeof(nwkKeyDesc) );
// 3292 
// 3293   osal_nv_write(ZCD_NV_NWK_ACTIVE_KEY_INFO, 0, sizeof(nwkKeyDesc), &nwkKey);
// 3294 
// 3295   osal_nv_write(ZCD_NV_NWK_ALTERN_KEY_INFO, 0, sizeof(nwkKeyDesc), &nwkKey);
// 3296 }
// 3297 #endif // defined ( NV_RESTORE )
// 3298 
// 3299 /******************************************************************************
// 3300 ******************************************************************************/
// 
// 7 617 bytes in segment BANKED_CODE
//   378 bytes in segment BANK_RELAYS
//     1 byte  in segment XDATA_I
//     1 byte  in segment XDATA_ID
//    12 bytes in segment XDATA_ROM_C
//    81 bytes in segment XDATA_Z
// 
// 7 996 bytes of CODE  memory
//     8 bytes of CONST memory (+ 4 bytes shared)
//    82 bytes of XDATA memory
//
//Errors: none
//Warnings: none
