///////////////////////////////////////////////////////////////////////////////
//
// IAR C/C++ Compiler V9.20.1.2476 for 8051               16/Mar/2016  12:50:20
// Copyright 2004-2015 IAR Systems AB.
// Standalone license - IAR Embedded Workbench for 8051
//
//    Core               =  plain
//    Code model         =  banked
//    Data model         =  large
//    Calling convention =  xdata reentrant
//    Constant location  =  data_rom
//    Dptr setup         =  1,16
//                          
//    Source file        =  
//        C:\Users\Bart\Documents\GitHub\WTSN\Components\osal\common\OSAL.c
//    Command line       =  
//        -f
//        C:\Users\Bart\Documents\GitHub\WTSN\Projects\zstack\Project\Eindopdracht\CC2530DB\..\..\..\Tools\CC2530DB\f8wEndev.cfg
//        (-DCPU32MHZ -DROOT=__near_func -DMAC_CFG_TX_DATA_MAX=3
//        -DMAC_CFG_TX_MAX=6 -DMAC_CFG_RX_MAX=3) -f
//        C:\Users\Bart\Documents\GitHub\WTSN\Projects\zstack\Project\Eindopdracht\CC2530DB\..\..\..\Tools\CC2530DB\f8wConfig.cfg
//        (-DZIGBEEPRO -DSECURE=0 -DZG_SECURE_DYNAMIC=0 -DREFLECTOR
//        -DDEFAULT_CHANLIST=0x04000000 -DZDAPP_CONFIG_PAN_ID=0x0EEE
//        -DNWK_START_DELAY=100 -DEXTENDED_JOINING_RANDOM_MASK=0x007F
//        -DBEACON_REQUEST_DELAY=100 -DBEACON_REQ_DELAY_MASK=0x00FF
//        -DLINK_STATUS_JITTER_MASK=0x007F -DROUTE_EXPIRY_TIME=30
//        -DAPSC_ACK_WAIT_DURATION_POLLED=3000 -DNWK_INDIRECT_MSG_TIMEOUT=7
//        -DMAX_RREQ_ENTRIES=8 -DAPSC_MAX_FRAME_RETRIES=3
//        -DNWK_MAX_DATA_RETRIES=2 -DMAX_POLL_FAILURE_RETRIES=2 -DMAX_BCAST=9
//        -DAPS_MAX_GROUPS=16 -DMAX_RTG_ENTRIES=40 -DNWK_MAX_BINDING_ENTRIES=4
//        -DMAX_BINDING_CLUSTER_IDS=4 "-DDEFAULT_KEY={0x01, 0x03, 0x05, 0x07,
//        0x09, 0x0B, 0x0D, 0x0F, 0x00, 0x02, 0x04, 0x06, 0x08, 0x0A, 0x0C,
//        0x0D}" -DMAC_MAX_FRAME_SIZE=116 -DZDNWKMGR_MIN_TRANSMISSIONS=20
//        "-DCONST=const __code" -DGENERIC=__generic -DRFD_RCVC_ALWAYS_ON=TRUE
//        -DPOLL_RATE=1000 -DQUEUED_POLL_RATE=100 -DRESPONSE_POLL_RATE=100)
//        -DREJOIN_POLL_RATE=440
//        C:\Users\Bart\Documents\GitHub\WTSN\Components\osal\common\OSAL.c -D
//        NWK_AUTO_POLL -D HOLD_AUTO_START -D POWER_SAVING -D NV_INIT -D
//        DEVICE_LOGICAL_TYPE=ZG_DEVICETYPE_ENDDEVICE -lC
//        C:\Users\Bart\Documents\GitHub\WTSN\Projects\zstack\Project\Eindopdracht\CC2530DB\SensorEB\List\
//        -lA
//        C:\Users\Bart\Documents\GitHub\WTSN\Projects\zstack\Project\Eindopdracht\CC2530DB\SensorEB\List\
//        --diag_suppress Pe001,Pa010,Pe1665 -o
//        C:\Users\Bart\Documents\GitHub\WTSN\Projects\zstack\Project\Eindopdracht\CC2530DB\SensorEB\Obj\
//        -e --debug --core=plain --dptr=16,1 --data_model=large
//        --code_model=banked --calling_convention=xdata_reentrant
//        --place_constants=data_rom --nr_virtual_regs 16 -I
//        C:\Users\Bart\Documents\GitHub\WTSN\Projects\zstack\Project\Eindopdracht\CC2530DB\
//        -I
//        C:\Users\Bart\Documents\GitHub\WTSN\Projects\zstack\Project\Eindopdracht\CC2530DB\..\Source\
//        -I
//        C:\Users\Bart\Documents\GitHub\WTSN\Projects\zstack\Project\Eindopdracht\CC2530DB\..\..\..\ZMain\TI2530DB\
//        -I
//        C:\Users\Bart\Documents\GitHub\WTSN\Projects\zstack\Project\Eindopdracht\CC2530DB\..\..\..\..\..\Components\hal\include\
//        -I
//        C:\Users\Bart\Documents\GitHub\WTSN\Projects\zstack\Project\Eindopdracht\CC2530DB\..\..\..\..\..\Components\hal\target\CC2530EB\
//        -I
//        C:\Users\Bart\Documents\GitHub\WTSN\Projects\zstack\Project\Eindopdracht\CC2530DB\..\..\..\..\..\Components\mac\include\
//        -I
//        C:\Users\Bart\Documents\GitHub\WTSN\Projects\zstack\Project\Eindopdracht\CC2530DB\..\..\..\..\..\Components\mac\high_level\
//        -I
//        C:\Users\Bart\Documents\GitHub\WTSN\Projects\zstack\Project\Eindopdracht\CC2530DB\..\..\..\..\..\Components\mac\low_level\srf04\
//        -I
//        C:\Users\Bart\Documents\GitHub\WTSN\Projects\zstack\Project\Eindopdracht\CC2530DB\..\..\..\..\..\Components\mac\low_level\srf04\single_chip\
//        -I
//        C:\Users\Bart\Documents\GitHub\WTSN\Projects\zstack\Project\Eindopdracht\CC2530DB\..\..\..\..\..\Components\mt\
//        -I
//        C:\Users\Bart\Documents\GitHub\WTSN\Projects\zstack\Project\Eindopdracht\CC2530DB\..\..\..\..\..\Components\osal\include\
//        -I
//        C:\Users\Bart\Documents\GitHub\WTSN\Projects\zstack\Project\Eindopdracht\CC2530DB\..\..\..\..\..\Components\services\saddr\
//        -I
//        C:\Users\Bart\Documents\GitHub\WTSN\Projects\zstack\Project\Eindopdracht\CC2530DB\..\..\..\..\..\Components\services\sdata\
//        -I
//        C:\Users\Bart\Documents\GitHub\WTSN\Projects\zstack\Project\Eindopdracht\CC2530DB\..\..\..\..\..\Components\stack\af\
//        -I
//        C:\Users\Bart\Documents\GitHub\WTSN\Projects\zstack\Project\Eindopdracht\CC2530DB\..\..\..\..\..\Components\stack\nwk\
//        -I
//        C:\Users\Bart\Documents\GitHub\WTSN\Projects\zstack\Project\Eindopdracht\CC2530DB\..\..\..\..\..\Components\stack\sapi\
//        -I
//        C:\Users\Bart\Documents\GitHub\WTSN\Projects\zstack\Project\Eindopdracht\CC2530DB\..\..\..\..\..\Components\stack\sec\
//        -I
//        C:\Users\Bart\Documents\GitHub\WTSN\Projects\zstack\Project\Eindopdracht\CC2530DB\..\..\..\..\..\Components\stack\sys\
//        -I
//        C:\Users\Bart\Documents\GitHub\WTSN\Projects\zstack\Project\Eindopdracht\CC2530DB\..\..\..\..\..\Components\stack\zdo\
//        -I
//        C:\Users\Bart\Documents\GitHub\WTSN\Projects\zstack\Project\Eindopdracht\CC2530DB\..\..\..\..\..\Components\zmac\
//        -I
//        C:\Users\Bart\Documents\GitHub\WTSN\Projects\zstack\Project\Eindopdracht\CC2530DB\..\..\..\..\..\Components\zmac\f8w\
//        -Oh --require_prototypes
//    List file          =  
//        C:\Users\Bart\Documents\GitHub\WTSN\Projects\zstack\Project\Eindopdracht\CC2530DB\SensorEB\List\OSAL.s51
//
///////////////////////////////////////////////////////////////////////////////

        NAME OSAL

        RTMODEL "__SystemLibrary", "CLib"
        RTMODEL "__calling_convention", "xdata_reentrant"
        RTMODEL "__code_model", "banked"
        RTMODEL "__core", "plain"
        RTMODEL "__data_model", "large"
        RTMODEL "__dptr_size", "16"
        RTMODEL "__extended_stack", "disabled"
        RTMODEL "__location_for_constants", "data"
        RTMODEL "__number_of_dptrs", "1"
        RTMODEL "__rt_version", "1"

        RSEG DOVERLAY:DATA:NOROOT(0)
        RSEG IOVERLAY:IDATA:NOROOT(0)
        RSEG ISTACK:IDATA:NOROOT(0)
        RSEG PSTACK:XDATA:NOROOT(0)
        RSEG XSTACK:XDATA:NOROOT(0)

        EXTERN ?V0
        EXTERN ?V1
        EXTERN ?V2
        EXTERN ?V3
        EXTERN ?V4
        EXTERN ?V5
        EXTERN ?V6
        EXTERN ?V8
        EXTERN ?V9
        EXTERN ?V10
        EXTERN ?V7
        EXTERN ?V11
        EXTERN ?V12
        EXTERN ?V13
        EXTERN ?V14
        EXTERN ?V15
        EXTERN ?ALLOC_XSTACK8
        EXTERN ?BANKED_ENTER_XDATA
        EXTERN ?BANKED_LEAVE_XDATA
        EXTERN ?BDISPATCH
        EXTERN ?BRET
        EXTERN ?CALL_IND
        EXTERN ?C_GPTR_LOAD
        EXTERN ?DEALLOC_XSTACK8
        EXTERN ?L_ADD
        EXTERN ?L_MOV_X
        EXTERN ?L_SHL
        EXTERN ?MOVE_LONG8_XDATA_XDATA
        EXTERN ?PUSH_XSTACK_I_THREE
        EXTERN ?PUSH_XSTACK_I_TWO
        EXTERN ?UL_DIV_MOD
        EXTERN ?UL_SHR
        EXTERN ?XSP
        EXTERN ?XSTACK_DISP0_8
        EXTERN ?XSTACK_DISP101_8
        EXTERN ?XSTACK_DISP102_8
        EXTERN __INIT_XDATA_I
        EXTERN __INIT_XDATA_Z

        PUBLIC `??_ltoa::?relay`
        FUNCTION `??_ltoa::?relay`,0203H
        PUBLIC `??osal_buffer_uint24::?relay`
        FUNCTION `??osal_buffer_uint24::?relay`,0203H
        PUBLIC `??osal_buffer_uint32::?relay`
        FUNCTION `??osal_buffer_uint32::?relay`,0203H
        PUBLIC `??osal_build_uint16::?relay`
        FUNCTION `??osal_build_uint16::?relay`,0203H
        PUBLIC `??osal_build_uint32::?relay`
        FUNCTION `??osal_build_uint32::?relay`,0203H
        PUBLIC `??osal_clear_event::?relay`
        FUNCTION `??osal_clear_event::?relay`,0203H
        PUBLIC `??osal_init_system::?relay`
        FUNCTION `??osal_init_system::?relay`,0203H
        PUBLIC `??osal_int_disable::?relay`
        FUNCTION `??osal_int_disable::?relay`,0203H
        PUBLIC `??osal_int_enable::?relay`
        FUNCTION `??osal_int_enable::?relay`,0203H
        PUBLIC `??osal_isbufset::?relay`
        FUNCTION `??osal_isbufset::?relay`,0203H
        PUBLIC `??osal_isr_register::?relay`
        FUNCTION `??osal_isr_register::?relay`,0203H
        PUBLIC `??osal_memcmp::?relay`
        FUNCTION `??osal_memcmp::?relay`,0203H
        PUBLIC `??osal_memcpy::?relay`
        FUNCTION `??osal_memcpy::?relay`,0203H
        PUBLIC `??osal_memdup::?relay`
        FUNCTION `??osal_memdup::?relay`,0203H
        PUBLIC `??osal_memset::?relay`
        FUNCTION `??osal_memset::?relay`,0203H
        PUBLIC `??osal_msg_allocate::?relay`
        FUNCTION `??osal_msg_allocate::?relay`,0203H
        PUBLIC `??osal_msg_count::?relay`
        FUNCTION `??osal_msg_count::?relay`,0203H
        PUBLIC `??osal_msg_deallocate::?relay`
        FUNCTION `??osal_msg_deallocate::?relay`,0203H
        PUBLIC `??osal_msg_dequeue::?relay`
        FUNCTION `??osal_msg_dequeue::?relay`,0203H
        PUBLIC `??osal_msg_enqueue::?relay`
        FUNCTION `??osal_msg_enqueue::?relay`,0203H
        PUBLIC `??osal_msg_enqueue_max::?relay`
        FUNCTION `??osal_msg_enqueue_max::?relay`,0203H
        FUNCTION `??osal_msg_enqueue_push::?relay`,0203H
        PUBLIC `??osal_msg_extract::?relay`
        FUNCTION `??osal_msg_extract::?relay`,0203H
        PUBLIC `??osal_msg_find::?relay`
        FUNCTION `??osal_msg_find::?relay`,0203H
        PUBLIC `??osal_msg_push::?relay`
        FUNCTION `??osal_msg_push::?relay`,0203H
        PUBLIC `??osal_msg_push_front::?relay`
        FUNCTION `??osal_msg_push_front::?relay`,0203H
        PUBLIC `??osal_msg_receive::?relay`
        FUNCTION `??osal_msg_receive::?relay`,0203H
        PUBLIC `??osal_msg_send::?relay`
        FUNCTION `??osal_msg_send::?relay`,0203H
        PUBLIC `??osal_rand::?relay`
        FUNCTION `??osal_rand::?relay`,0203H
        PUBLIC `??osal_revmemcpy::?relay`
        FUNCTION `??osal_revmemcpy::?relay`,0203H
        PUBLIC `??osal_run_system::?relay`
        FUNCTION `??osal_run_system::?relay`,0203H
        PUBLIC `??osal_self::?relay`
        FUNCTION `??osal_self::?relay`,0203H
        PUBLIC `??osal_set_event::?relay`
        FUNCTION `??osal_set_event::?relay`,0203H
        PUBLIC `??osal_start_system::?relay`
        FUNCTION `??osal_start_system::?relay`,0203H
        PUBLIC `??osal_strlen::?relay`
        FUNCTION `??osal_strlen::?relay`,0203H
        PUBWEAK _A_IEN0
        PUBWEAK __Constant_2710
        PUBWEAK __Constant_5f5e100
        PUBLIC _ltoa
        FUNCTION _ltoa,0a1203H
        ARGFRAME XSTACK, 2, STACK
        LOCFRAME ISTACK, 1, STACK
        LOCFRAME XSTACK, 55, STACK
        PUBLIC osal_buffer_uint24
        FUNCTION osal_buffer_uint24,080203H
        ARGFRAME XSTACK, 4, STACK
        LOCFRAME ISTACK, 1, STACK
        LOCFRAME XSTACK, 16, STACK
        PUBLIC osal_buffer_uint32
        FUNCTION osal_buffer_uint32,080203H
        ARGFRAME XSTACK, 4, STACK
        LOCFRAME ISTACK, 1, STACK
        LOCFRAME XSTACK, 16, STACK
        PUBLIC osal_build_uint16
        FUNCTION osal_build_uint16,0203H
        ARGFRAME XSTACK, 0, STACK
        LOCFRAME ISTACK, 2, STACK
        PUBLIC osal_build_uint32
        FUNCTION osal_build_uint32,080203H
        ARGFRAME XSTACK, 0, STACK
        LOCFRAME XSTACK, 16, STACK
        PUBLIC osal_clear_event
        FUNCTION osal_clear_event,0203H
        ARGFRAME XSTACK, 0, STACK
        LOCFRAME XSTACK, 9, STACK
        PUBLIC osal_init_system
        FUNCTION osal_init_system,021203H
        ARGFRAME XSTACK, 0, STACK
        LOCFRAME ISTACK, 2, STACK
        PUBLIC osal_int_disable
        FUNCTION osal_int_disable,0203H
        ARGFRAME XSTACK, 0, STACK
        PUBLIC osal_int_enable
        FUNCTION osal_int_enable,0203H
        ARGFRAME XSTACK, 0, STACK
        PUBLIC osal_isbufset
        FUNCTION osal_isbufset,0203H
        ARGFRAME XSTACK, 0, STACK
        LOCFRAME ISTACK, 2, STACK
        PUBLIC osal_isr_register
        FUNCTION osal_isr_register,0203H
        ARGFRAME XSTACK, 0, STACK
        PUBLIC osal_memcmp
        FUNCTION osal_memcmp,080203H
        ARGFRAME XSTACK, 3, STACK
        LOCFRAME XSTACK, 19, STACK
        PUBLIC osal_memcpy
        FUNCTION osal_memcpy,0203H
        ARGFRAME XSTACK, 18, STACK
        ARGFRAME IOVERLAY, 0, STATIC
        ARGFRAME DOVERLAY, 0, STATIC
        LOCFRAME ISTACK, 1, STACK
        LOCFRAME XSTACK, 9, STACK
        PUBLIC osal_memdup
        FUNCTION osal_memdup,0a1203H
        ARGFRAME XSTACK, 0, STACK
        LOCFRAME XSTACK, 18, STACK
        PUBLIC osal_memset
        FUNCTION osal_memset,0a1203H
        ARGFRAME XSTACK, 0, STACK
        LOCFRAME XSTACK, 12, STACK
        PUBLIC osal_msg_allocate
        FUNCTION osal_msg_allocate,0a1203H
        ARGFRAME XSTACK, 0, STACK
        LOCFRAME XSTACK, 10, STACK
        PUBLIC osal_msg_count
        FUNCTION osal_msg_count,0203H
        ARGFRAME XSTACK, 0, STACK
        LOCFRAME XSTACK, 9, STACK
        PUBLIC osal_msg_deallocate
        FUNCTION osal_msg_deallocate,021203H
        ARGFRAME XSTACK, 0, STACK
        LOCFRAME ISTACK, 2, STACK
        PUBLIC osal_msg_dequeue
        FUNCTION osal_msg_dequeue,080203H
        ARGFRAME XSTACK, 0, STACK
        LOCFRAME XSTACK, 10, STACK
        PUBLIC osal_msg_enqueue
        FUNCTION osal_msg_enqueue,0203H
        ARGFRAME XSTACK, 0, STACK
        LOCFRAME XSTACK, 9, STACK
        PUBLIC osal_msg_enqueue_max
        FUNCTION osal_msg_enqueue_max,080203H
        ARGFRAME XSTACK, 0, STACK
        LOCFRAME XSTACK, 10, STACK
        FUNCTION osal_msg_enqueue_push,0a1203H
        ARGFRAME XSTACK, 9, STACK
        ARGFRAME IOVERLAY, 0, STATIC
        ARGFRAME DOVERLAY, 0, STATIC
        LOCFRAME ISTACK, 1, STACK
        LOCFRAME XSTACK, 11, STACK
        PUBLIC osal_msg_extract
        FUNCTION osal_msg_extract,080203H
        ARGFRAME XSTACK, 2, STACK
        LOCFRAME XSTACK, 11, STACK
        PUBLIC osal_msg_find
        FUNCTION osal_msg_find,0203H
        ARGFRAME XSTACK, 0, STACK
        LOCFRAME ISTACK, 2, STACK
        PUBLIC osal_msg_push
        FUNCTION osal_msg_push,0203H
        ARGFRAME XSTACK, 0, STACK
        LOCFRAME XSTACK, 9, STACK
        PUBLIC osal_msg_push_front
        FUNCTION osal_msg_push_front,0a1203H
        ARGFRAME XSTACK, 0, STACK
        LOCFRAME ISTACK, 1, STACK
        LOCFRAME XSTACK, 10, STACK
        PUBLIC osal_msg_receive
        FUNCTION osal_msg_receive,080203H
        ARGFRAME XSTACK, 0, STACK
        LOCFRAME XSTACK, 13, STACK
        PUBLIC osal_msg_send
        FUNCTION osal_msg_send,021203H
        ARGFRAME XSTACK, 0, STACK
        LOCFRAME XSTACK, 9, STACK
        PUBLIC osal_qHead
        PUBLIC osal_rand
        FUNCTION osal_rand,021203H
        ARGFRAME XSTACK, 0, STACK
        LOCFRAME ISTACK, 2, STACK
        PUBLIC osal_revmemcpy
        FUNCTION osal_revmemcpy,0203H
        ARGFRAME XSTACK, 3, STACK
        LOCFRAME ISTACK, 1, STACK
        LOCFRAME XSTACK, 9, STACK
        PUBLIC osal_run_system
        FUNCTION osal_run_system,0a1203H
        ARGFRAME XSTACK, 0, STACK
        ARGFRAME IOVERLAY, 0, STATIC
        ARGFRAME DOVERLAY, 0, STATIC
        LOCFRAME XSTACK, 12, STACK
        PUBLIC osal_self
        FUNCTION osal_self,0203H
        ARGFRAME XSTACK, 0, STACK
        LOCFRAME ISTACK, 2, STACK
        PUBLIC osal_set_event
        FUNCTION osal_set_event,0203H
        ARGFRAME XSTACK, 0, STACK
        LOCFRAME XSTACK, 9, STACK
        PUBLIC osal_start_system
        FUNCTION osal_start_system,021203H
        ARGFRAME XSTACK, 0, STACK
        LOCFRAME ISTACK, 2, STACK
        PUBLIC osal_strlen
        FUNCTION osal_strlen,021203H
        ARGFRAME XSTACK, 0, STACK
        LOCFRAME ISTACK, 2, STACK
        
          CFI Names cfiNames0
          CFI StackFrame CFA_SP SP IDATA
          CFI StackFrame CFA_PSP16 PSP16 XDATA
          CFI StackFrame CFA_XSP16 XSP16 XDATA
          CFI StaticOverlayFrame CFA_IOVERLAY IOVERLAY
          CFI StaticOverlayFrame CFA_DOVERLAY DOVERLAY
          CFI Resource `PSW.CY`:1, `B.BR0`:1, `B.BR1`:1, `B.BR2`:1, `B.BR3`:1
          CFI Resource `B.BR4`:1, `B.BR5`:1, `B.BR6`:1, `B.BR7`:1, `VB.BR8`:1
          CFI Resource `VB.BR9`:1, `VB.BR10`:1, `VB.BR11`:1, `VB.BR12`:1
          CFI Resource `VB.BR13`:1, `VB.BR14`:1, `VB.BR15`:1, VB:8, B:8, A:8
          CFI Resource PSW:8, DPL0:8, DPH0:8, R0:8, R1:8, R2:8, R3:8, R4:8, R5:8
          CFI Resource R6:8, R7:8, V0:8, V1:8, V2:8, V3:8, V4:8, V5:8, V6:8, V7:8
          CFI Resource V8:8, V9:8, V10:8, V11:8, V12:8, V13:8, V14:8, V15:8, SP:8
          CFI Resource PSPH:8, PSPL:8, PSP16:16, XSPH:8, XSPL:8, XSP16:16
          CFI VirtualResource ?RET:24
          CFI Resource ?BRET_EXT:8
          CFI VirtualResource ?RET_HIGH:8, ?RET_LOW:8
          CFI ResourceParts PSP16 PSPH, PSPL
          CFI ResourceParts XSP16 XSPH, XSPL
          CFI ResourceParts ?RET ?BRET_EXT, ?RET_HIGH, ?RET_LOW
          CFI EndNames cfiNames0
        
          CFI Common cfiCommon0 Using cfiNames0
          CFI CodeAlign 1
          CFI DataAlign -1
          CFI ReturnAddress ?RET CODE
          CFI CFA_DOVERLAY Used
          CFI CFA_IOVERLAY Used
          CFI CFA_SP SP+-3
          CFI CFA_PSP16 PSP16+0
          CFI CFA_XSP16 XSP16+0
          CFI `PSW.CY` SameValue
          CFI `B.BR0` SameValue
          CFI `B.BR1` SameValue
          CFI `B.BR2` SameValue
          CFI `B.BR3` SameValue
          CFI `B.BR4` SameValue
          CFI `B.BR5` SameValue
          CFI `B.BR6` SameValue
          CFI `B.BR7` SameValue
          CFI `VB.BR8` SameValue
          CFI `VB.BR9` SameValue
          CFI `VB.BR10` SameValue
          CFI `VB.BR11` SameValue
          CFI `VB.BR12` SameValue
          CFI `VB.BR13` SameValue
          CFI `VB.BR14` SameValue
          CFI `VB.BR15` SameValue
          CFI VB SameValue
          CFI B Undefined
          CFI A Undefined
          CFI PSW SameValue
          CFI DPL0 SameValue
          CFI DPH0 SameValue
          CFI R0 Undefined
          CFI R1 Undefined
          CFI R2 Undefined
          CFI R3 Undefined
          CFI R4 Undefined
          CFI R5 Undefined
          CFI R6 SameValue
          CFI R7 SameValue
          CFI V0 SameValue
          CFI V1 SameValue
          CFI V2 SameValue
          CFI V3 SameValue
          CFI V4 SameValue
          CFI V5 SameValue
          CFI V6 SameValue
          CFI V7 SameValue
          CFI V8 SameValue
          CFI V9 SameValue
          CFI V10 SameValue
          CFI V11 SameValue
          CFI V12 SameValue
          CFI V13 SameValue
          CFI V14 SameValue
          CFI V15 SameValue
          CFI PSPH Undefined
          CFI PSPL Undefined
          CFI XSPH Undefined
          CFI XSPL Undefined
          CFI ?RET Concat
          CFI ?BRET_EXT Frame(CFA_SP, 3)
          CFI ?RET_HIGH Frame(CFA_SP, 2)
          CFI ?RET_LOW Frame(CFA_SP, 1)
          CFI EndCommon cfiCommon0
        
        
          CFI Common cfiCommon1 Using cfiNames0
          CFI CodeAlign 1
          CFI DataAlign -1
          CFI ReturnAddress ?RET CODE
          CFI CFA_DOVERLAY Used
          CFI CFA_IOVERLAY Used
          CFI CFA_SP SP+-2
          CFI CFA_PSP16 PSP16+0
          CFI CFA_XSP16 XSP16+0
          CFI `PSW.CY` SameValue
          CFI `B.BR0` SameValue
          CFI `B.BR1` SameValue
          CFI `B.BR2` SameValue
          CFI `B.BR3` SameValue
          CFI `B.BR4` SameValue
          CFI `B.BR5` SameValue
          CFI `B.BR6` SameValue
          CFI `B.BR7` SameValue
          CFI `VB.BR8` SameValue
          CFI `VB.BR9` SameValue
          CFI `VB.BR10` SameValue
          CFI `VB.BR11` SameValue
          CFI `VB.BR12` SameValue
          CFI `VB.BR13` SameValue
          CFI `VB.BR14` SameValue
          CFI `VB.BR15` SameValue
          CFI VB SameValue
          CFI B SameValue
          CFI A SameValue
          CFI PSW SameValue
          CFI DPL0 SameValue
          CFI DPH0 SameValue
          CFI R0 SameValue
          CFI R1 SameValue
          CFI R2 SameValue
          CFI R3 SameValue
          CFI R4 SameValue
          CFI R5 SameValue
          CFI R6 SameValue
          CFI R7 SameValue
          CFI V0 SameValue
          CFI V1 SameValue
          CFI V2 SameValue
          CFI V3 SameValue
          CFI V4 SameValue
          CFI V5 SameValue
          CFI V6 SameValue
          CFI V7 SameValue
          CFI V8 SameValue
          CFI V9 SameValue
          CFI V10 SameValue
          CFI V11 SameValue
          CFI V12 SameValue
          CFI V13 SameValue
          CFI V14 SameValue
          CFI V15 SameValue
          CFI PSPH Undefined
          CFI PSPL Undefined
          CFI XSPH Undefined
          CFI XSPL Undefined
          CFI ?RET Concat
          CFI ?BRET_EXT SameValue
          CFI ?RET_HIGH Frame(CFA_SP, 2)
          CFI ?RET_LOW Frame(CFA_SP, 1)
          CFI EndCommon cfiCommon1
        
Hal_ProcessPoll     SYMBOL "Hal_ProcessPoll"
`??Hal_ProcessPoll::?relay` SYMBOL "?relay", Hal_ProcessPoll
Onboard_rand        SYMBOL "Onboard_rand"
`??Onboard_rand::?relay` SYMBOL "?relay", Onboard_rand
_itoa               SYMBOL "_itoa"
`??_itoa::?relay`   SYMBOL "?relay", _itoa
memset              SYMBOL "memset"
`??memset::?relay`  SYMBOL "?relay", memset
osalInitTasks       SYMBOL "osalInitTasks"
`??osalInitTasks::?relay` SYMBOL "?relay", osalInitTasks
osalTimeUpdate      SYMBOL "osalTimeUpdate"
`??osalTimeUpdate::?relay` SYMBOL "?relay", osalTimeUpdate
osalTimerInit       SYMBOL "osalTimerInit"
`??osalTimerInit::?relay` SYMBOL "?relay", osalTimerInit
osal_mem_alloc      SYMBOL "osal_mem_alloc"
`??osal_mem_alloc::?relay` SYMBOL "?relay", osal_mem_alloc
osal_mem_free       SYMBOL "osal_mem_free"
`??osal_mem_free::?relay` SYMBOL "?relay", osal_mem_free
osal_mem_init       SYMBOL "osal_mem_init"
`??osal_mem_init::?relay` SYMBOL "?relay", osal_mem_init
osal_mem_kick       SYMBOL "osal_mem_kick"
`??osal_mem_kick::?relay` SYMBOL "?relay", osal_mem_kick
osal_pwrmgr_init    SYMBOL "osal_pwrmgr_init"
`??osal_pwrmgr_init::?relay` SYMBOL "?relay", osal_pwrmgr_init
osal_pwrmgr_powerconserve SYMBOL "osal_pwrmgr_powerconserve"
`??osal_pwrmgr_powerconserve::?relay` SYMBOL "?relay", osal_pwrmgr_powerconserve
strcat              SYMBOL "strcat"
`??strcat::?relay`  SYMBOL "?relay", strcat
strcpy              SYMBOL "strcpy"
`??strcpy::?relay`  SYMBOL "?relay", strcpy
strlen              SYMBOL "strlen"
`??strlen::?relay`  SYMBOL "?relay", strlen
_ltoa               SYMBOL "_ltoa"
`??_ltoa::?relay`   SYMBOL "?relay", _ltoa
osal_buffer_uint24  SYMBOL "osal_buffer_uint24"
`??osal_buffer_uint24::?relay` SYMBOL "?relay", osal_buffer_uint24
osal_buffer_uint32  SYMBOL "osal_buffer_uint32"
`??osal_buffer_uint32::?relay` SYMBOL "?relay", osal_buffer_uint32
osal_build_uint16   SYMBOL "osal_build_uint16"
`??osal_build_uint16::?relay` SYMBOL "?relay", osal_build_uint16
osal_build_uint32   SYMBOL "osal_build_uint32"
`??osal_build_uint32::?relay` SYMBOL "?relay", osal_build_uint32
osal_clear_event    SYMBOL "osal_clear_event"
`??osal_clear_event::?relay` SYMBOL "?relay", osal_clear_event
osal_init_system    SYMBOL "osal_init_system"
`??osal_init_system::?relay` SYMBOL "?relay", osal_init_system
osal_int_disable    SYMBOL "osal_int_disable"
`??osal_int_disable::?relay` SYMBOL "?relay", osal_int_disable
osal_int_enable     SYMBOL "osal_int_enable"
`??osal_int_enable::?relay` SYMBOL "?relay", osal_int_enable
osal_isbufset       SYMBOL "osal_isbufset"
`??osal_isbufset::?relay` SYMBOL "?relay", osal_isbufset
osal_isr_register   SYMBOL "osal_isr_register"
`??osal_isr_register::?relay` SYMBOL "?relay", osal_isr_register
osal_memcmp         SYMBOL "osal_memcmp"
`??osal_memcmp::?relay` SYMBOL "?relay", osal_memcmp
osal_memcpy         SYMBOL "osal_memcpy"
`??osal_memcpy::?relay` SYMBOL "?relay", osal_memcpy
osal_memdup         SYMBOL "osal_memdup"
`??osal_memdup::?relay` SYMBOL "?relay", osal_memdup
osal_memset         SYMBOL "osal_memset"
`??osal_memset::?relay` SYMBOL "?relay", osal_memset
osal_msg_allocate   SYMBOL "osal_msg_allocate"
`??osal_msg_allocate::?relay` SYMBOL "?relay", osal_msg_allocate
osal_msg_count      SYMBOL "osal_msg_count"
`??osal_msg_count::?relay` SYMBOL "?relay", osal_msg_count
osal_msg_deallocate SYMBOL "osal_msg_deallocate"
`??osal_msg_deallocate::?relay` SYMBOL "?relay", osal_msg_deallocate
osal_msg_dequeue    SYMBOL "osal_msg_dequeue"
`??osal_msg_dequeue::?relay` SYMBOL "?relay", osal_msg_dequeue
osal_msg_enqueue    SYMBOL "osal_msg_enqueue"
`??osal_msg_enqueue::?relay` SYMBOL "?relay", osal_msg_enqueue
osal_msg_enqueue_max SYMBOL "osal_msg_enqueue_max"
`??osal_msg_enqueue_max::?relay` SYMBOL "?relay", osal_msg_enqueue_max
osal_msg_extract    SYMBOL "osal_msg_extract"
`??osal_msg_extract::?relay` SYMBOL "?relay", osal_msg_extract
osal_msg_find       SYMBOL "osal_msg_find"
`??osal_msg_find::?relay` SYMBOL "?relay", osal_msg_find
osal_msg_push       SYMBOL "osal_msg_push"
`??osal_msg_push::?relay` SYMBOL "?relay", osal_msg_push
osal_msg_push_front SYMBOL "osal_msg_push_front"
`??osal_msg_push_front::?relay` SYMBOL "?relay", osal_msg_push_front
osal_msg_receive    SYMBOL "osal_msg_receive"
`??osal_msg_receive::?relay` SYMBOL "?relay", osal_msg_receive
osal_msg_send       SYMBOL "osal_msg_send"
`??osal_msg_send::?relay` SYMBOL "?relay", osal_msg_send
osal_rand           SYMBOL "osal_rand"
`??osal_rand::?relay` SYMBOL "?relay", osal_rand
osal_revmemcpy      SYMBOL "osal_revmemcpy"
`??osal_revmemcpy::?relay` SYMBOL "?relay", osal_revmemcpy
osal_run_system     SYMBOL "osal_run_system"
`??osal_run_system::?relay` SYMBOL "?relay", osal_run_system
osal_self           SYMBOL "osal_self"
`??osal_self::?relay` SYMBOL "?relay", osal_self
osal_set_event      SYMBOL "osal_set_event"
`??osal_set_event::?relay` SYMBOL "?relay", osal_set_event
osal_start_system   SYMBOL "osal_start_system"
`??osal_start_system::?relay` SYMBOL "?relay", osal_start_system
osal_strlen         SYMBOL "osal_strlen"
`??osal_strlen::?relay` SYMBOL "?relay", osal_strlen

        EXTERN `??Hal_ProcessPoll::?relay`
        FUNCTION `??Hal_ProcessPoll::?relay`,00H
        EXTERN `??Onboard_rand::?relay`
        FUNCTION `??Onboard_rand::?relay`,00H
        EXTERN `??_itoa::?relay`
        FUNCTION `??_itoa::?relay`,00H
        EXTERN `??memset::?relay`
        FUNCTION `??memset::?relay`,00H
        EXTERN `??osalInitTasks::?relay`
        FUNCTION `??osalInitTasks::?relay`,00H
        EXTERN `??osalTimeUpdate::?relay`
        FUNCTION `??osalTimeUpdate::?relay`,00H
        EXTERN `??osalTimerInit::?relay`
        FUNCTION `??osalTimerInit::?relay`,00H
        EXTERN `??osal_mem_alloc::?relay`
        FUNCTION `??osal_mem_alloc::?relay`,00H
        EXTERN `??osal_mem_free::?relay`
        FUNCTION `??osal_mem_free::?relay`,00H
        EXTERN `??osal_mem_init::?relay`
        FUNCTION `??osal_mem_init::?relay`,00H
        EXTERN `??osal_mem_kick::?relay`
        FUNCTION `??osal_mem_kick::?relay`,00H
        EXTERN `??osal_pwrmgr_init::?relay`
        FUNCTION `??osal_pwrmgr_init::?relay`,00H
        EXTERN `??osal_pwrmgr_powerconserve::?relay`
        FUNCTION `??osal_pwrmgr_powerconserve::?relay`,00H
        EXTERN `??strcat::?relay`
        FUNCTION `??strcat::?relay`,00H
        EXTERN `??strcpy::?relay`
        FUNCTION `??strcpy::?relay`,00H
        EXTERN `??strlen::?relay`
        FUNCTION `??strlen::?relay`,00H
        EXTERN Hal_ProcessPoll
        FUNCTION Hal_ProcessPoll,0202H
        ARGFRAME ISTACK, 0, STACK
        ARGFRAME PSTACK, 0, STACK
        ARGFRAME XSTACK, 12, STACK
        ARGFRAME IOVERLAY, 0, STATIC
        ARGFRAME DOVERLAY, 0, STATIC
        EXTERN Onboard_rand
        FUNCTION Onboard_rand,0202H
        ARGFRAME ISTACK, 2, STACK
        ARGFRAME PSTACK, 0, STACK
        ARGFRAME XSTACK, 0, STACK
        ARGFRAME IOVERLAY, 0, STATIC
        ARGFRAME DOVERLAY, 0, STATIC
        EXTERN _itoa
        FUNCTION _itoa,0202H
        ARGFRAME ISTACK, 0, STACK
        ARGFRAME PSTACK, 0, STACK
        ARGFRAME XSTACK, 55, STACK
        ARGFRAME IOVERLAY, 0, STATIC
        ARGFRAME DOVERLAY, 0, STATIC
        EXTERN memset
        FUNCTION memset,010202H
        ARGFRAME ISTACK, 0, STACK
        ARGFRAME PSTACK, 0, STACK
        ARGFRAME XSTACK, 12, STACK
        ARGFRAME IOVERLAY, 0, STATIC
        ARGFRAME DOVERLAY, 0, STATIC
        EXTERN osalInitTasks
        FUNCTION osalInitTasks,0202H
        ARGFRAME ISTACK, 2, STACK
        ARGFRAME PSTACK, 0, STACK
        ARGFRAME XSTACK, 0, STACK
        ARGFRAME IOVERLAY, 0, STATIC
        ARGFRAME DOVERLAY, 0, STATIC
        EXTERN osalTimeUpdate
        FUNCTION osalTimeUpdate,0202H
        ARGFRAME ISTACK, 0, STACK
        ARGFRAME PSTACK, 0, STACK
        ARGFRAME XSTACK, 12, STACK
        ARGFRAME IOVERLAY, 0, STATIC
        ARGFRAME DOVERLAY, 0, STATIC
        EXTERN osalTimerInit
        FUNCTION osalTimerInit,0202H
        ARGFRAME ISTACK, 2, STACK
        ARGFRAME PSTACK, 0, STACK
        ARGFRAME XSTACK, 0, STACK
        ARGFRAME IOVERLAY, 0, STATIC
        ARGFRAME DOVERLAY, 0, STATIC
        EXTERN osal_mem_alloc
        FUNCTION osal_mem_alloc,0202H
        ARGFRAME ISTACK, 0, STACK
        ARGFRAME PSTACK, 0, STACK
        ARGFRAME XSTACK, 15, STACK
        ARGFRAME IOVERLAY, 0, STATIC
        ARGFRAME DOVERLAY, 0, STATIC
        EXTERN osal_mem_free
        FUNCTION osal_mem_free,0202H
        ARGFRAME ISTACK, 2, STACK
        ARGFRAME PSTACK, 0, STACK
        ARGFRAME XSTACK, 11, STACK
        ARGFRAME IOVERLAY, 0, STATIC
        ARGFRAME DOVERLAY, 0, STATIC
        EXTERN osal_mem_init
        FUNCTION osal_mem_init,0202H
        ARGFRAME ISTACK, 2, STACK
        ARGFRAME PSTACK, 0, STACK
        ARGFRAME XSTACK, 0, STACK
        ARGFRAME IOVERLAY, 0, STATIC
        ARGFRAME DOVERLAY, 0, STATIC
        EXTERN osal_mem_kick
        FUNCTION osal_mem_kick,0202H
        ARGFRAME ISTACK, 2, STACK
        ARGFRAME PSTACK, 0, STACK
        ARGFRAME XSTACK, 0, STACK
        ARGFRAME IOVERLAY, 0, STATIC
        ARGFRAME DOVERLAY, 0, STATIC
        EXTERN osal_pwrmgr_init
        FUNCTION osal_pwrmgr_init,0202H
        ARGFRAME ISTACK, 2, STACK
        ARGFRAME PSTACK, 0, STACK
        ARGFRAME XSTACK, 0, STACK
        ARGFRAME IOVERLAY, 0, STATIC
        ARGFRAME DOVERLAY, 0, STATIC
        EXTERN osal_pwrmgr_powerconserve
        FUNCTION osal_pwrmgr_powerconserve,0202H
        ARGFRAME ISTACK, 0, STACK
        ARGFRAME PSTACK, 0, STACK
        ARGFRAME XSTACK, 12, STACK
        ARGFRAME IOVERLAY, 0, STATIC
        ARGFRAME DOVERLAY, 0, STATIC
        EXTERN strcat
        FUNCTION strcat,010202H
        ARGFRAME ISTACK, 0, STACK
        ARGFRAME PSTACK, 0, STACK
        ARGFRAME XSTACK, 55, STACK
        ARGFRAME IOVERLAY, 0, STATIC
        ARGFRAME DOVERLAY, 0, STATIC
        EXTERN strcpy
        FUNCTION strcpy,010202H
        ARGFRAME ISTACK, 0, STACK
        ARGFRAME PSTACK, 0, STACK
        ARGFRAME XSTACK, 55, STACK
        ARGFRAME IOVERLAY, 0, STATIC
        ARGFRAME DOVERLAY, 0, STATIC
        EXTERN strlen
        FUNCTION strlen,010202H
        ARGFRAME ISTACK, 2, STACK
        ARGFRAME PSTACK, 0, STACK
        ARGFRAME XSTACK, 55, STACK
        ARGFRAME IOVERLAY, 0, STATIC
        ARGFRAME DOVERLAY, 0, STATIC
        EXTERN tasksArr
        EXTERN tasksCnt
        EXTERN tasksEvents

// C:\Users\Bart\Documents\GitHub\WTSN\Components\osal\common\OSAL.c
//    1 /**************************************************************************************************
//    2   Filename:       OSAL.c
//    3   Revised:        $Date: 2014-05-06 09:41:18 -0700 (Tue, 06 May 2014) $
//    4   Revision:       $Revision: 38415 $
//    5 
//    6   Description:    This API allows the software components in the Z-stack to be written
//    7                   independently of the specifics of the operating system, kernel or tasking
//    8                   environment (including control loops or connect-to-interrupt systems).
//    9 
//   10 
//   11   Copyright 2004-2014 Texas Instruments Incorporated. All rights reserved.
//   12 
//   13   IMPORTANT: Your use of this Software is limited to those specific rights
//   14   granted under the terms of a software license agreement between the user
//   15   who downloaded the software, his/her employer (which must be your employer)
//   16   and Texas Instruments Incorporated (the "License"). You may not use this
//   17   Software unless you agree to abide by the terms of the License. The License
//   18   limits your use, and you acknowledge, that the Software may not be modified,
//   19   copied or distributed unless embedded on a Texas Instruments microcontroller
//   20   or used solely and exclusively in conjunction with a Texas Instruments radio
//   21   frequency transceiver, which is integrated into your product. Other than for
//   22   the foregoing purpose, you may not use, reproduce, copy, prepare derivative
//   23   works of, modify, distribute, perform, display or sell this Software and/or
//   24   its documentation for any purpose.
//   25 
//   26   YOU FURTHER ACKNOWLEDGE AND AGREE THAT THE SOFTWARE AND DOCUMENTATION ARE
//   27   PROVIDED “AS IS” WITHOUT WARRANTY OF ANY KIND, EITHER EXPRESS OR IMPLIED,
//   28   INCLUDING WITHOUT LIMITATION, ANY WARRANTY OF MERCHANTABILITY, TITLE,
//   29   NON-INFRINGEMENT AND FITNESS FOR A PARTICULAR PURPOSE. IN NO EVENT SHALL
//   30   TEXAS INSTRUMENTS OR ITS LICENSORS BE LIABLE OR OBLIGATED UNDER CONTRACT,
//   31   NEGLIGENCE, STRICT LIABILITY, CONTRIBUTION, BREACH OF WARRANTY, OR OTHER
//   32   LEGAL EQUITABLE THEORY ANY DIRECT OR INDIRECT DAMAGES OR EXPENSES
//   33   INCLUDING BUT NOT LIMITED TO ANY INCIDENTAL, SPECIAL, INDIRECT, PUNITIVE
//   34   OR CONSEQUENTIAL DAMAGES, LOST PROFITS OR LOST DATA, COST OF PROCUREMENT
//   35   OF SUBSTITUTE GOODS, TECHNOLOGY, SERVICES, OR ANY CLAIMS BY THIRD PARTIES
//   36   (INCLUDING BUT NOT LIMITED TO ANY DEFENSE THEREOF), OR OTHER SIMILAR COSTS.
//   37 
//   38   Should you have any questions regarding your right to use this Software,
//   39   contact Texas Instruments Incorporated at www.TI.com.
//   40 **************************************************************************************************/
//   41 
//   42 /*********************************************************************
//   43  * INCLUDES
//   44  */
//   45 
//   46 #include <string.h>
//   47 
//   48 #include "comdef.h"
//   49 #include "hal_board.h"

        ASEGN SFR_AN:DATA:NOROOT,0a8H
// union <unnamed> volatile __sfr _A_IEN0
_A_IEN0:
        DATA8
        DS 1
//   50 #include "OSAL.h"
//   51 #include "OSAL_Tasks.h"
//   52 #include "OSAL_Memory.h"
//   53 #include "OSAL_PwrMgr.h"
//   54 #include "OSAL_Clock.h"
//   55 
//   56 #include "OnBoard.h"
//   57 
//   58 /* HAL */
//   59 #include "hal_drivers.h"
//   60 
//   61 #ifdef IAR_ARMCM3_LM
//   62   #include "FreeRTOSConfig.h"
//   63   #include "osal_task.h"
//   64 #endif
//   65 
//   66 /*********************************************************************
//   67  * MACROS
//   68  */
//   69 
//   70 /*********************************************************************
//   71  * CONSTANTS
//   72  */
//   73 
//   74 /*********************************************************************
//   75  * TYPEDEFS
//   76  */
//   77 
//   78 /*********************************************************************
//   79  * GLOBAL VARIABLES
//   80  */
//   81 
//   82 // Message Pool Definitions

        RSEG XDATA_Z:XDATA:NOROOT(0)
        DATA16
//   83 osal_msg_q_t osal_qHead;
osal_qHead:
        DS 2
        REQUIRE __INIT_XDATA_Z
//   84 
//   85 /*********************************************************************
//   86  * EXTERNAL VARIABLES
//   87  */
//   88 
//   89 /*********************************************************************
//   90  * EXTERNAL FUNCTIONS
//   91  */
//   92 
//   93 /*********************************************************************
//   94  * LOCAL VARIABLES
//   95  */
//   96 
//   97 // Index of active task

        RSEG XDATA_I:XDATA:NOROOT(0)
//   98 static uint8 activeTaskID = TASK_NO_TASK;
activeTaskID:
        DATA8
        DS 1
        REQUIRE `?<Initializer for activeTaskID>`
        REQUIRE __INIT_XDATA_I
//   99 
//  100 /*********************************************************************
//  101  * LOCAL FUNCTION PROTOTYPES
//  102  */
//  103 
//  104 static uint8 osal_msg_enqueue_push( uint8 destination_task, uint8 *msg_ptr, uint8 urgent );
//  105 
//  106 /*********************************************************************
//  107  * HELPER FUNCTIONS
//  108  */
//  109 /* very ugly stub so Keil can compile */
//  110 #ifdef __KEIL__
//  111 char *  itoa ( int value, char * buffer, int radix )
//  112 {
//  113   return(buffer);
//  114 }
//  115 #endif
//  116 
//  117 /*********************************************************************
//  118  * @fn      osal_strlen
//  119  *
//  120  * @brief
//  121  *
//  122  *   Calculates the length of a string.  The string must be null
//  123  *   terminated.
//  124  *
//  125  * @param   char *pString - pointer to text string
//  126  *
//  127  * @return  int - number of characters
//  128  */

        RSEG BANKED_CODE:CODE:NOROOT(0)
//  129 int osal_strlen( char *pString )
osal_strlen:
          CFI Block cfiBlock0 Using cfiCommon0
          CFI Function osal_strlen
        CODE
//  130 {
        FUNCALL osal_strlen, strlen
        LOCFRAME ISTACK, 2, STACK
        LOCFRAME PSTACK, 0, STACK
        LOCFRAME XSTACK, 0, STACK
        LOCFRAME IOVERLAY, 0, STATIC
        LOCFRAME DOVERLAY, 0, STATIC
        ARGFRAME ISTACK, 2, STACK
        ARGFRAME PSTACK, 0, STACK
        ARGFRAME XSTACK, 0, STACK
        ARGFRAME IOVERLAY, 0, STATIC
        ARGFRAME DOVERLAY, 0, STATIC
        PUSH    DPL
          CFI DPL0 Frame(CFA_SP, 4)
          CFI CFA_SP SP+-4
        PUSH    DPH
          CFI DPH0 Frame(CFA_SP, 5)
          CFI CFA_SP SP+-5
        ; Saved register size: 2
        ; Auto size: 0
//  131   return (int)( strlen( pString ) );
        ; Setup parameters for call to function strlen
        LCALL   `??strlen::?relay`   ; Banked call to: strlen
        LJMP    ?Subroutine0 & 0xFFFF
//  132 }
          CFI EndBlock cfiBlock0
//  133 
//  134 /*********************************************************************
//  135  * @fn      osal_memcpy
//  136  *
//  137  * @brief
//  138  *
//  139  *   Generic memory copy.
//  140  *
//  141  *   Note: This function differs from the standard memcpy(), since
//  142  *         it returns the pointer to the next destination uint8. The
//  143  *         standard memcpy() returns the original destination address.
//  144  *
//  145  * @param   dst - destination address
//  146  * @param   src - source address
//  147  * @param   len - number of bytes to copy
//  148  *
//  149  * @return  pointer to end of destination buffer
//  150  */

        RSEG BANKED_CODE:CODE:NOROOT(0)
//  151 void *osal_memcpy( void *dst, const void GENERIC *src, unsigned int len )
osal_memcpy:
          CFI Block cfiBlock1 Using cfiCommon0
          CFI Function osal_memcpy
        CODE
//  152 {
        MOV     A,#-0x9
        LCALL   ?BANKED_ENTER_XDATA
          CFI DPH0 load(1, XDATA, add(CFA_XSP16, literal(-1)))
          CFI DPL0 load(1, XDATA, add(CFA_XSP16, literal(-2)))
          CFI ?BRET_EXT load(1, XDATA, add(CFA_XSP16, literal(-3)))
          CFI ?RET_HIGH load(1, XDATA, add(CFA_XSP16, literal(-4)))
          CFI ?RET_LOW load(1, XDATA, add(CFA_XSP16, literal(-5)))
          CFI R7 load(1, XDATA, add(CFA_XSP16, literal(-6)))
          CFI V0 load(1, XDATA, add(CFA_XSP16, literal(-7)))
          CFI VB load(1, XDATA, add(CFA_XSP16, literal(-8)))
          CFI R6 load(1, XDATA, add(CFA_XSP16, literal(-9)))
          CFI CFA_SP SP+0
          CFI CFA_XSP16 add(XSP16, 9)
        ; Saved register size: 9
        ; Auto size: 0
        MOV     A,R2
        MOV     R6,A
        MOV     A,R3
        MOV     R7,A
//  153   uint8 *pDst;
//  154   const uint8 GENERIC *pSrc;
//  155 
//  156   pSrc = src;
        MOV     A,#0x9
        LCALL   ?XSTACK_DISP0_8
        MOVX    A,@DPTR
        MOV     R1,A
        INC     DPTR
        LCALL   ??Subroutine31_0 & 0xFFFF
//  157   pDst = dst;
??CrossCallReturnLabel_41:
        MOV     DPL,R6
        MOV     DPH,R7
        MOV     A,R4
        ORL     A,R5
        JZ      ??osal_memcpy_0
        MOV     A,R4
        MOV     R6,A
        MOV     A,R5
        MOV     R7,A
//  158 
//  159   while ( len-- )
//  160     *pDst++ = *pSrc++;
??osal_memcpy_1:
        LCALL   ?C_GPTR_LOAD
        MOVX    @DPTR,A
        MOV     A,R1
        ADD     A,#0x1
        INC     R1
        CLR     A
        ADDC    A,R2
        LCALL   ?Subroutine19 & 0xFFFF
??CrossCallReturnLabel_20:
        JNZ     ??osal_memcpy_1
//  161 
//  162   return ( pDst );
??osal_memcpy_0:
        LJMP    ?Subroutine1 & 0xFFFF
//  163 }
          CFI EndBlock cfiBlock1
//  164 
//  165 /*********************************************************************
//  166  * @fn      osal_revmemcpy
//  167  *
//  168  * @brief   Generic reverse memory copy.  Starts at the end of the
//  169  *   source buffer, by taking the source address pointer and moving
//  170  *   pointer ahead "len" bytes, then decrementing the pointer.
//  171  *
//  172  *   Note: This function differs from the standard memcpy(), since
//  173  *         it returns the pointer to the next destination uint8. The
//  174  *         standard memcpy() returns the original destination address.
//  175  *
//  176  * @param   dst - destination address
//  177  * @param   src - source address
//  178  * @param   len - number of bytes to copy
//  179  *
//  180  * @return  pointer to end of destination buffer
//  181  */

        RSEG BANKED_CODE:CODE:NOROOT(0)
//  182 void *osal_revmemcpy( void *dst, const void GENERIC *src, unsigned int len )
osal_revmemcpy:
          CFI Block cfiBlock2 Using cfiCommon0
          CFI Function osal_revmemcpy
        CODE
//  183 {
        MOV     A,#-0x9
        LCALL   ?BANKED_ENTER_XDATA
          CFI DPH0 load(1, XDATA, add(CFA_XSP16, literal(-1)))
          CFI DPL0 load(1, XDATA, add(CFA_XSP16, literal(-2)))
          CFI ?BRET_EXT load(1, XDATA, add(CFA_XSP16, literal(-3)))
          CFI ?RET_HIGH load(1, XDATA, add(CFA_XSP16, literal(-4)))
          CFI ?RET_LOW load(1, XDATA, add(CFA_XSP16, literal(-5)))
          CFI R7 load(1, XDATA, add(CFA_XSP16, literal(-6)))
          CFI V0 load(1, XDATA, add(CFA_XSP16, literal(-7)))
          CFI VB load(1, XDATA, add(CFA_XSP16, literal(-8)))
          CFI R6 load(1, XDATA, add(CFA_XSP16, literal(-9)))
          CFI CFA_SP SP+0
          CFI CFA_XSP16 add(XSP16, 9)
        ; Saved register size: 9
        ; Auto size: 0
        MOV     A,R2
        MOV     R6,A
        MOV     A,R3
        MOV     R7,A
//  184   uint8 *pDst;
//  185   const uint8 GENERIC *pSrc;
//  186 
//  187   pSrc = src;
//  188   pSrc += (len-1);
        MOV     A,#0x9
        LCALL   ?XSTACK_DISP0_8
        MOVX    A,@DPTR
        MOV     R1,A
        INC     DPTR
        LCALL   ??Subroutine31_0 & 0xFFFF
??CrossCallReturnLabel_42:
        MOV     A,R1
        ADD     A,R4
        MOV     R1,A
        MOV     A,R2
        ADDC    A,R5
        MOV     R2,A
        MOV     A,R1
        ADD     A,#-0x1
        DEC     R1
        MOV     A,R2
        ADDC    A,#-0x1
        MOV     R2,A
//  189   pDst = dst;
        MOV     DPL,R6
        MOV     DPH,R7
        MOV     A,R4
        ORL     A,R5
        JZ      ??osal_revmemcpy_0
        MOV     A,R4
        MOV     R6,A
        MOV     A,R5
        MOV     R7,A
//  190 
//  191   while ( len-- )
//  192     *pDst++ = *pSrc--;
??osal_revmemcpy_1:
        LCALL   ?C_GPTR_LOAD
        MOVX    @DPTR,A
        MOV     A,R1
        ADD     A,#-0x1
        DEC     R1
        MOV     A,R2
        ADDC    A,#-0x1
        LCALL   ?Subroutine19 & 0xFFFF
??CrossCallReturnLabel_21:
        JNZ     ??osal_revmemcpy_1
//  193 
//  194   return ( pDst );
??osal_revmemcpy_0:
        LJMP    ?Subroutine1 & 0xFFFF
//  195 }
          CFI EndBlock cfiBlock2

        RSEG BANKED_CODE:CODE:NOROOT(0)
?Subroutine19:
          CFI Block cfiCond3 Using cfiCommon0
          CFI Function osal_memcpy
          CFI Conditional ??CrossCallReturnLabel_20
          CFI R6 load(1, XDATA, add(CFA_XSP16, literal(-9)))
          CFI VB load(1, XDATA, add(CFA_XSP16, literal(-8)))
          CFI V0 load(1, XDATA, add(CFA_XSP16, literal(-7)))
          CFI R7 load(1, XDATA, add(CFA_XSP16, literal(-6)))
          CFI ?RET_LOW load(1, XDATA, add(CFA_XSP16, literal(-5)))
          CFI ?RET_HIGH load(1, XDATA, add(CFA_XSP16, literal(-4)))
          CFI ?BRET_EXT load(1, XDATA, add(CFA_XSP16, literal(-3)))
          CFI DPL0 load(1, XDATA, add(CFA_XSP16, literal(-2)))
          CFI DPH0 load(1, XDATA, add(CFA_XSP16, literal(-1)))
          CFI CFA_SP SP+-2
          CFI CFA_XSP16 add(XSP16, 9)
          CFI Block cfiCond4 Using cfiCommon0
          CFI (cfiCond4) Function osal_revmemcpy
          CFI (cfiCond4) Conditional ??CrossCallReturnLabel_21
          CFI (cfiCond4) R6 load(1, XDATA, add(CFA_XSP16, literal(-9)))
          CFI (cfiCond4) VB load(1, XDATA, add(CFA_XSP16, literal(-8)))
          CFI (cfiCond4) V0 load(1, XDATA, add(CFA_XSP16, literal(-7)))
          CFI (cfiCond4) R7 load(1, XDATA, add(CFA_XSP16, literal(-6)))
          CFI (cfiCond4) ?RET_LOW load(1, XDATA, add(CFA_XSP16, literal(-5)))
          CFI (cfiCond4) ?RET_HIGH load(1, XDATA, add(CFA_XSP16, literal(-4)))
          CFI (cfiCond4) ?BRET_EXT load(1, XDATA, add(CFA_XSP16, literal(-3)))
          CFI (cfiCond4) DPL0 load(1, XDATA, add(CFA_XSP16, literal(-2)))
          CFI (cfiCond4) DPH0 load(1, XDATA, add(CFA_XSP16, literal(-1)))
          CFI (cfiCond4) CFA_SP SP+-2
          CFI (cfiCond4) CFA_XSP16 add(XSP16, 9)
          CFI Block cfiPicker5 Using cfiCommon1
          CFI (cfiPicker5) NoFunction
          CFI (cfiPicker5) Picker
        MOV     R2,A
        INC     DPTR
        MOV     A,R6
        ADD     A,#-0x1
        DEC     R6
        MOV     A,R7
        ADDC    A,#-0x1
        MOV     R7,A
        MOV     A,R6
        ORL     A,R7
        RET
          CFI (cfiCond3) CFA_SP SP+0
          CFI (cfiCond4) CFA_SP SP+0
          CFI (cfiPicker5) CFA_SP SP+0
          CFI EndBlock cfiCond3
          CFI EndBlock cfiCond4
          CFI EndBlock cfiPicker5
//  196 
//  197 /*********************************************************************
//  198  * @fn      osal_memdup
//  199  *
//  200  * @brief   Allocates a buffer [with osal_mem_alloc()] and copies
//  201  *          the src buffer into the newly allocated space.
//  202  *
//  203  * @param   src - source address
//  204  * @param   len - number of bytes to copy
//  205  *
//  206  * @return  pointer to the new allocated buffer, or NULL if
//  207  *          allocation problem.
//  208  */

        RSEG BANKED_CODE:CODE:NOROOT(0)
//  209 void *osal_memdup( const void GENERIC *src, unsigned int len )
osal_memdup:
          CFI Block cfiBlock6 Using cfiCommon0
          CFI Function osal_memdup
        CODE
//  210 {
        FUNCALL osal_memdup, osal_mem_alloc
        LOCFRAME ISTACK, 0, STACK
        LOCFRAME PSTACK, 0, STACK
        LOCFRAME XSTACK, 15, STACK
        LOCFRAME IOVERLAY, 0, STATIC
        LOCFRAME DOVERLAY, 0, STATIC
        ARGFRAME ISTACK, 0, STACK
        ARGFRAME PSTACK, 0, STACK
        ARGFRAME XSTACK, 15, STACK
        ARGFRAME IOVERLAY, 0, STATIC
        ARGFRAME DOVERLAY, 0, STATIC
        FUNCALL osal_memdup, osal_memcpy
        LOCFRAME ISTACK, 0, STACK
        LOCFRAME PSTACK, 0, STACK
        LOCFRAME XSTACK, 18, STACK
        LOCFRAME IOVERLAY, 0, STATIC
        LOCFRAME DOVERLAY, 0, STATIC
        ARGFRAME ISTACK, 0, STACK
        ARGFRAME PSTACK, 0, STACK
        ARGFRAME XSTACK, 18, STACK
        ARGFRAME IOVERLAY, 0, STATIC
        ARGFRAME DOVERLAY, 0, STATIC
        REQUIRE ?V0
        REQUIRE ?V1
        REQUIRE ?V2
        REQUIRE ?V3
        REQUIRE ?V4
        REQUIRE ?V5
        REQUIRE ?V6
        MOV     A,#-0xf
        LCALL   ?BANKED_ENTER_XDATA
          CFI DPH0 load(1, XDATA, add(CFA_XSP16, literal(-1)))
          CFI DPL0 load(1, XDATA, add(CFA_XSP16, literal(-2)))
          CFI ?BRET_EXT load(1, XDATA, add(CFA_XSP16, literal(-3)))
          CFI ?RET_HIGH load(1, XDATA, add(CFA_XSP16, literal(-4)))
          CFI ?RET_LOW load(1, XDATA, add(CFA_XSP16, literal(-5)))
          CFI R7 load(1, XDATA, add(CFA_XSP16, literal(-6)))
          CFI V6 load(1, XDATA, add(CFA_XSP16, literal(-7)))
          CFI V5 load(1, XDATA, add(CFA_XSP16, literal(-8)))
          CFI V4 load(1, XDATA, add(CFA_XSP16, literal(-9)))
          CFI V3 load(1, XDATA, add(CFA_XSP16, literal(-10)))
          CFI V2 load(1, XDATA, add(CFA_XSP16, literal(-11)))
          CFI V1 load(1, XDATA, add(CFA_XSP16, literal(-12)))
          CFI V0 load(1, XDATA, add(CFA_XSP16, literal(-13)))
          CFI VB load(1, XDATA, add(CFA_XSP16, literal(-14)))
          CFI R6 load(1, XDATA, add(CFA_XSP16, literal(-15)))
          CFI CFA_SP SP+0
          CFI CFA_XSP16 add(XSP16, 15)
        ; Saved register size: 15
        ; Auto size: 0
        MOV     ?V4,R1
        MOV     ?V5,R2
        MOV     ?V6,R3
        MOV     A,R4
        MOV     R6,A
        MOV     A,R5
        MOV     R7,A
//  211   uint8 *pDst;
//  212 
//  213   pDst = osal_mem_alloc( len );
        ; Setup parameters for call to function osal_mem_alloc
        MOV     A,R6
        MOV     R2,A
        MOV     A,R7
        MOV     R3,A
        LCALL   `??osal_mem_alloc::?relay`; Banked call to: osal_mem_alloc
        MOV     ?V0,R2
        MOV     ?V1,R3
//  214   if ( pDst )
        MOV     A,R2
        ORL     A,?V1
        JZ      ??osal_memdup_0
//  215   {
//  216     VOID osal_memcpy( pDst, src, len );
        ; Setup parameters for call to function osal_memcpy
        MOV     R0,#?V4
        LCALL   ?PUSH_XSTACK_I_THREE
          CFI CFA_XSP16 add(XSP16, 18)
        MOV     A,R6
        MOV     R4,A
        MOV     A,R7
        MOV     R5,A
        LCALL   `??osal_memcpy::?relay`; Banked call to: osal_memcpy
        MOV     A,#0x3
        LCALL   ?DEALLOC_XSTACK8
          CFI CFA_XSP16 add(XSP16, 15)
//  217   }
//  218 
//  219   return ( (void *)pDst );
??osal_memdup_0:
        MOV     R2,?V0
        MOV     R3,?V1
        MOV     R7,#0x7
        LJMP    ?BANKED_LEAVE_XDATA
          CFI R6 SameValue
          CFI VB SameValue
          CFI V0 SameValue
          CFI V1 SameValue
          CFI V2 SameValue
          CFI V3 SameValue
          CFI V4 SameValue
          CFI V5 SameValue
          CFI V6 SameValue
          CFI R7 SameValue
          CFI ?RET_LOW Frame(CFA_SP, 1)
          CFI ?RET_HIGH Frame(CFA_SP, 2)
          CFI ?BRET_EXT Frame(CFA_SP, 3)
          CFI DPL0 SameValue
          CFI DPH0 SameValue
          CFI CFA_SP SP+-3
          CFI CFA_XSP16 XSP16+0
//  220 }
          CFI EndBlock cfiBlock6
//  221 
//  222 /*********************************************************************
//  223  * @fn      osal_memcmp
//  224  *
//  225  * @brief
//  226  *
//  227  *   Generic memory compare.
//  228  *
//  229  * @param   src1 - source 1 addrexx
//  230  * @param   src2 - source 2 address
//  231  * @param   len - number of bytes to compare
//  232  *
//  233  * @return  TRUE - same, FALSE - different
//  234  */

        RSEG BANKED_CODE:CODE:NOROOT(0)
//  235 uint8 osal_memcmp( const void GENERIC *src1, const void GENERIC *src2, unsigned int len )
osal_memcmp:
          CFI Block cfiBlock7 Using cfiCommon0
          CFI Function osal_memcmp
        CODE
//  236 {
        REQUIRE ?V0
        REQUIRE ?V1
        REQUIRE ?V2
        REQUIRE ?V4
        REQUIRE ?V5
        REQUIRE ?V6
        REQUIRE ?V8
        REQUIRE ?V9
        REQUIRE ?V10
        MOV     A,#-0x13
        LCALL   ?BANKED_ENTER_XDATA
          CFI DPH0 load(1, XDATA, add(CFA_XSP16, literal(-1)))
          CFI DPL0 load(1, XDATA, add(CFA_XSP16, literal(-2)))
          CFI ?BRET_EXT load(1, XDATA, add(CFA_XSP16, literal(-3)))
          CFI ?RET_HIGH load(1, XDATA, add(CFA_XSP16, literal(-4)))
          CFI ?RET_LOW load(1, XDATA, add(CFA_XSP16, literal(-5)))
          CFI R7 load(1, XDATA, add(CFA_XSP16, literal(-6)))
          CFI V10 load(1, XDATA, add(CFA_XSP16, literal(-7)))
          CFI V9 load(1, XDATA, add(CFA_XSP16, literal(-8)))
          CFI V8 load(1, XDATA, add(CFA_XSP16, literal(-9)))
          CFI V7 load(1, XDATA, add(CFA_XSP16, literal(-10)))
          CFI V6 load(1, XDATA, add(CFA_XSP16, literal(-11)))
          CFI V5 load(1, XDATA, add(CFA_XSP16, literal(-12)))
          CFI V4 load(1, XDATA, add(CFA_XSP16, literal(-13)))
          CFI V3 load(1, XDATA, add(CFA_XSP16, literal(-14)))
          CFI V2 load(1, XDATA, add(CFA_XSP16, literal(-15)))
          CFI V1 load(1, XDATA, add(CFA_XSP16, literal(-16)))
          CFI V0 load(1, XDATA, add(CFA_XSP16, literal(-17)))
          CFI VB load(1, XDATA, add(CFA_XSP16, literal(-18)))
          CFI R6 load(1, XDATA, add(CFA_XSP16, literal(-19)))
          CFI CFA_SP SP+0
          CFI CFA_XSP16 add(XSP16, 19)
        ; Saved register size: 19
        ; Auto size: 0
//  237   const uint8 GENERIC *pSrc1;
//  238   const uint8 GENERIC *pSrc2;
//  239 
//  240   pSrc1 = src1;
        MOV     ?V0,R1
        MOV     ?V1,R2
        MOV     ?V2,R3
//  241   pSrc2 = src2;
        MOV     A,#0x13
        LCALL   ?XSTACK_DISP0_8
        MOVX    A,@DPTR
        MOV     ?V4,A
        INC     DPTR
        MOVX    A,@DPTR
        MOV     ?V5,A
        INC     DPTR
        MOVX    A,@DPTR
        MOV     ?V6,A
//  242 
//  243   while ( len-- )
??osal_memcmp_0:
        MOV     A,R4
        ORL     A,R5
        JZ      ??osal_memcmp_1
        MOV     A,R4
        ADD     A,#-0x1
        DEC     R4
        MOV     A,R5
        ADDC    A,#-0x1
        MOV     R5,A
//  244   {
//  245     if( *pSrc1++ != *pSrc2++ )
        MOV     R1,?V0
        MOV     R2,?V1
        MOV     R3,?V2
        MOV     A,R1
        ADD     A,#0x1
        MOV     ?V0,A
        CLR     A
        ADDC    A,R2
        MOV     ?V1,A
        MOV     ?V8,?V4
        MOV     ?V9,?V5
        MOV     ?V10,?V6
        MOV     A,?V4
        ADD     A,#0x1
        MOV     ?V4,A
        CLR     A
        ADDC    A,?V5
        MOV     ?V5,A
        LCALL   ?C_GPTR_LOAD
        MOV     R0,A
        MOV     R1,?V8
        MOV     R2,?V9
        MOV     R3,?V10
        LCALL   ?C_GPTR_LOAD
        XRL     A,R0
        JZ      ??osal_memcmp_0
//  246       return FALSE;
        MOV     R1,#0x0
        SJMP    ??osal_memcmp_2
//  247   }
//  248   return TRUE;
??osal_memcmp_1:
        MOV     R1,#0x1
??osal_memcmp_2:
        MOV     R7,#0xb
        LJMP    ?BANKED_LEAVE_XDATA
          CFI R6 SameValue
          CFI VB SameValue
          CFI V0 SameValue
          CFI V1 SameValue
          CFI V2 SameValue
          CFI V3 SameValue
          CFI V4 SameValue
          CFI V5 SameValue
          CFI V6 SameValue
          CFI V7 SameValue
          CFI V8 SameValue
          CFI V9 SameValue
          CFI V10 SameValue
          CFI R7 SameValue
          CFI ?RET_LOW Frame(CFA_SP, 1)
          CFI ?RET_HIGH Frame(CFA_SP, 2)
          CFI ?BRET_EXT Frame(CFA_SP, 3)
          CFI DPL0 SameValue
          CFI DPH0 SameValue
          CFI CFA_SP SP+-3
          CFI CFA_XSP16 XSP16+0
//  249 }
          CFI EndBlock cfiBlock7
//  250 
//  251 
//  252 /*********************************************************************
//  253  * @fn      osal_memset
//  254  *
//  255  * @brief
//  256  *
//  257  *   Set memory buffer to value.
//  258  *
//  259  * @param   dest - pointer to buffer
//  260  * @param   value - what to set each uint8 of the message
//  261  * @param   size - how big
//  262  *
//  263  * @return  pointer to destination buffer
//  264  */

        RSEG BANKED_CODE:CODE:NOROOT(0)
//  265 void *osal_memset( void *dest, uint8 value, int len )
osal_memset:
          CFI Block cfiBlock8 Using cfiCommon0
          CFI Function osal_memset
        CODE
//  266 {
        FUNCALL osal_memset, memset
        LOCFRAME ISTACK, 0, STACK
        LOCFRAME PSTACK, 0, STACK
        LOCFRAME XSTACK, 12, STACK
        LOCFRAME IOVERLAY, 0, STATIC
        LOCFRAME DOVERLAY, 0, STATIC
        ARGFRAME ISTACK, 0, STACK
        ARGFRAME PSTACK, 0, STACK
        ARGFRAME XSTACK, 12, STACK
        ARGFRAME IOVERLAY, 0, STATIC
        ARGFRAME DOVERLAY, 0, STATIC
        REQUIRE ?V0
        REQUIRE ?V1
        MOV     A,#-0xa
        LCALL   ?BANKED_ENTER_XDATA
          CFI DPH0 load(1, XDATA, add(CFA_XSP16, literal(-1)))
          CFI DPL0 load(1, XDATA, add(CFA_XSP16, literal(-2)))
          CFI ?BRET_EXT load(1, XDATA, add(CFA_XSP16, literal(-3)))
          CFI ?RET_HIGH load(1, XDATA, add(CFA_XSP16, literal(-4)))
          CFI ?RET_LOW load(1, XDATA, add(CFA_XSP16, literal(-5)))
          CFI R7 load(1, XDATA, add(CFA_XSP16, literal(-6)))
          CFI V1 load(1, XDATA, add(CFA_XSP16, literal(-7)))
          CFI V0 load(1, XDATA, add(CFA_XSP16, literal(-8)))
          CFI VB load(1, XDATA, add(CFA_XSP16, literal(-9)))
          CFI R6 load(1, XDATA, add(CFA_XSP16, literal(-10)))
          CFI CFA_SP SP+0
          CFI CFA_XSP16 add(XSP16, 10)
        ; Saved register size: 10
        ; Auto size: 0
        MOV     A,R1
        MOV     R6,A
//  267   return memset( dest, value, len );
        ; Setup parameters for call to function memset
        MOV     ?V0,R4
        MOV     ?V1,R5
        MOV     R0,#?V0
        LCALL   ?PUSH_XSTACK_I_TWO
          CFI CFA_XSP16 add(XSP16, 12)
        MOV     A,R6
        MOV     R4,A
        MOV     R5,#0x0
        LCALL   `??memset::?relay`   ; Banked call to: memset
        MOV     A,#0x2
        LCALL   ?DEALLOC_XSTACK8
          CFI CFA_XSP16 add(XSP16, 10)
        LJMP    ?Subroutine2 & 0xFFFF
//  268 }
          CFI EndBlock cfiBlock8
//  269 
//  270 /*********************************************************************
//  271  * @fn      osal_build_uint16
//  272  *
//  273  * @brief
//  274  *
//  275  *   Build a uint16 out of 2 bytes (0 then 1).
//  276  *
//  277  * @param   swapped - 0 then 1
//  278  *
//  279  * @return  uint16
//  280  */

        RSEG BANKED_CODE:CODE:NOROOT(0)
//  281 uint16 osal_build_uint16( uint8 *swapped )
osal_build_uint16:
          CFI Block cfiBlock9 Using cfiCommon0
          CFI Function osal_build_uint16
        CODE
//  282 {
        PUSH    DPL
          CFI DPL0 Frame(CFA_SP, 4)
          CFI CFA_SP SP+-4
        PUSH    DPH
          CFI DPH0 Frame(CFA_SP, 5)
          CFI CFA_SP SP+-5
        ; Saved register size: 2
        ; Auto size: 0
//  283   return ( BUILD_UINT16( swapped[0], swapped[1] ) );
        MOV     DPL,R2
        MOV     DPH,R3
        MOVX    A,@DPTR
        MOV     R4,A
        INC     DPTR
        MOVX    A,@DPTR
        MOV     R0,A
        CLR     A
        XCH     A,R0
        MOV     R1,A
        MOV     A,R4
        ADD     A,R0
        MOV     R2,A
        CLR     A
        ADDC    A,R1
        MOV     R3,A
        LJMP    ?Subroutine0 & 0xFFFF
//  284 }
          CFI EndBlock cfiBlock9
//  285 
//  286 /*********************************************************************
//  287  * @fn      osal_build_uint32
//  288  *
//  289  * @brief
//  290  *
//  291  *   Build a uint32 out of sequential bytes.
//  292  *
//  293  * @param   swapped - sequential bytes
//  294  * @param   len - number of bytes in the uint8 array
//  295  *
//  296  * @return  uint32
//  297  */

        RSEG BANKED_CODE:CODE:NOROOT(0)
//  298 uint32 osal_build_uint32( uint8 *swapped, uint8 len )
osal_build_uint32:
          CFI Block cfiBlock10 Using cfiCommon0
          CFI Function osal_build_uint32
        CODE
//  299 {
        REQUIRE ?V0
        REQUIRE ?V1
        REQUIRE ?V2
        REQUIRE ?V3
        REQUIRE ?V4
        REQUIRE ?V5
        REQUIRE ?V6
        REQUIRE ?V7
        MOV     A,#-0x10
        LCALL   ?BANKED_ENTER_XDATA
          CFI DPH0 load(1, XDATA, add(CFA_XSP16, literal(-1)))
          CFI DPL0 load(1, XDATA, add(CFA_XSP16, literal(-2)))
          CFI ?BRET_EXT load(1, XDATA, add(CFA_XSP16, literal(-3)))
          CFI ?RET_HIGH load(1, XDATA, add(CFA_XSP16, literal(-4)))
          CFI ?RET_LOW load(1, XDATA, add(CFA_XSP16, literal(-5)))
          CFI R7 load(1, XDATA, add(CFA_XSP16, literal(-6)))
          CFI V7 load(1, XDATA, add(CFA_XSP16, literal(-7)))
          CFI V6 load(1, XDATA, add(CFA_XSP16, literal(-8)))
          CFI V5 load(1, XDATA, add(CFA_XSP16, literal(-9)))
          CFI V4 load(1, XDATA, add(CFA_XSP16, literal(-10)))
          CFI V3 load(1, XDATA, add(CFA_XSP16, literal(-11)))
          CFI V2 load(1, XDATA, add(CFA_XSP16, literal(-12)))
          CFI V1 load(1, XDATA, add(CFA_XSP16, literal(-13)))
          CFI V0 load(1, XDATA, add(CFA_XSP16, literal(-14)))
          CFI VB load(1, XDATA, add(CFA_XSP16, literal(-15)))
          CFI R6 load(1, XDATA, add(CFA_XSP16, literal(-16)))
          CFI CFA_SP SP+0
          CFI CFA_XSP16 add(XSP16, 16)
        ; Saved register size: 16
        ; Auto size: 0
        MOV     A,R1
        MOV     R6,A
//  300   if ( len == 2 )
        MOV     DPL,R2
        MOV     DPH,R3
        MOVX    A,@DPTR
        MOV     ?V4,A
        CLR     A
        MOV     ?V5,A
        MOV     ?V6,A
        MOV     ?V7,A
        MOV     A,#0x2
        XRL     A,R6
        JNZ     ??osal_build_uint32_0
//  301     return ( BUILD_UINT32( swapped[0], swapped[1], 0L, 0L ) );
        LCALL   ?Subroutine26 & 0xFFFF
??CrossCallReturnLabel_33:
        SJMP    ??osal_build_uint32_1
//  302   else if ( len == 3 )
??osal_build_uint32_0:
        MOV     A,#0x3
        XRL     A,R6
        JNZ     ??osal_build_uint32_2
//  303     return ( BUILD_UINT32( swapped[0], swapped[1], swapped[2], 0L ) );
        LCALL   ?Subroutine10 & 0xFFFF
??CrossCallReturnLabel_2:
        LCALL   ?L_SHL
        MOV     R0,#?V4
        MOV     R1,#?V0
        LCALL   ?L_ADD
        LCALL   ?Subroutine13 & 0xFFFF
??CrossCallReturnLabel_8:
        SJMP    ??osal_build_uint32_1
//  304   else if ( len == 4 )
??osal_build_uint32_2:
        MOV     A,#0x4
        XRL     A,R6
        JNZ     ??osal_build_uint32_3
//  305     return ( BUILD_UINT32( swapped[0], swapped[1], swapped[2], swapped[3] ) );
        LCALL   ?Subroutine10 & 0xFFFF
??CrossCallReturnLabel_3:
        LCALL   ?L_SHL
        MOV     R0,#?V4
        MOV     R1,#?V0
        LCALL   ?L_ADD
        LCALL   ?Subroutine13 & 0xFFFF
??CrossCallReturnLabel_9:
        MOV     R0,#?V0
        LCALL   ?L_SHL
        MOV     R0,#?V4
        MOV     R1,#?V0
        LCALL   ?L_ADD
        MOV     DPL,R2
        MOV     DPH,R3
        INC     DPTR
        INC     DPTR
        INC     DPTR
        MOVX    A,@DPTR
        MOV     ?V0,A
        CLR     A
        MOV     ?V2,A
        MOV     A,#0x18
??osal_build_uint32_1:
        MOV     R0,#?V0
        LCALL   ?L_SHL
        MOV     R0,#?V4
        MOV     R1,#?V0
        LCALL   ?L_ADD
//  306   else
//  307     return ( (uint32)swapped[0] );
??osal_build_uint32_3:
        MOV     R2,?V4
        MOV     R3,?V5
        MOV     R4,?V6
        MOV     R5,?V7
          CFI EndBlock cfiBlock10
        REQUIRE ?Subroutine3
        ; // Fall through to label ?Subroutine3
//  308 }

        RSEG BANKED_CODE:CODE:NOROOT(0)
?Subroutine3:
          CFI Block cfiBlock11 Using cfiCommon0
          CFI NoFunction
          CFI CFA_SP SP+0
          CFI CFA_XSP16 add(XSP16, 16)
          CFI VB load(1, XDATA, add(CFA_XSP16, literal(-15)))
          CFI DPL0 load(1, XDATA, add(CFA_XSP16, literal(-2)))
          CFI DPH0 load(1, XDATA, add(CFA_XSP16, literal(-1)))
          CFI R6 load(1, XDATA, add(CFA_XSP16, literal(-16)))
          CFI R7 load(1, XDATA, add(CFA_XSP16, literal(-6)))
          CFI V0 load(1, XDATA, add(CFA_XSP16, literal(-14)))
          CFI V1 load(1, XDATA, add(CFA_XSP16, literal(-13)))
          CFI V2 load(1, XDATA, add(CFA_XSP16, literal(-12)))
          CFI V3 load(1, XDATA, add(CFA_XSP16, literal(-11)))
          CFI V4 load(1, XDATA, add(CFA_XSP16, literal(-10)))
          CFI V5 load(1, XDATA, add(CFA_XSP16, literal(-9)))
          CFI V6 load(1, XDATA, add(CFA_XSP16, literal(-8)))
          CFI V7 load(1, XDATA, add(CFA_XSP16, literal(-7)))
          CFI ?BRET_EXT load(1, XDATA, add(CFA_XSP16, literal(-3)))
          CFI ?RET_HIGH load(1, XDATA, add(CFA_XSP16, literal(-4)))
          CFI ?RET_LOW load(1, XDATA, add(CFA_XSP16, literal(-5)))
        MOV     R7,#0x8
        LJMP    ?BANKED_LEAVE_XDATA
          CFI CFA_SP SP+-3
          CFI CFA_XSP16 XSP16+0
          CFI VB SameValue
          CFI DPL0 SameValue
          CFI DPH0 SameValue
          CFI R6 SameValue
          CFI R7 SameValue
          CFI V0 SameValue
          CFI V1 SameValue
          CFI V2 SameValue
          CFI V3 SameValue
          CFI V4 SameValue
          CFI V5 SameValue
          CFI V6 SameValue
          CFI V7 SameValue
          CFI ?BRET_EXT Frame(CFA_SP, 3)
          CFI ?RET_HIGH Frame(CFA_SP, 2)
          CFI ?RET_LOW Frame(CFA_SP, 1)
          CFI EndBlock cfiBlock11

        RSEG BANKED_CODE:CODE:NOROOT(0)
?Subroutine13:
          CFI Block cfiCond12 Using cfiCommon0
          CFI Function osal_build_uint32
          CFI Conditional ??CrossCallReturnLabel_8
          CFI R6 load(1, XDATA, add(CFA_XSP16, literal(-16)))
          CFI VB load(1, XDATA, add(CFA_XSP16, literal(-15)))
          CFI V0 load(1, XDATA, add(CFA_XSP16, literal(-14)))
          CFI V1 load(1, XDATA, add(CFA_XSP16, literal(-13)))
          CFI V2 load(1, XDATA, add(CFA_XSP16, literal(-12)))
          CFI V3 load(1, XDATA, add(CFA_XSP16, literal(-11)))
          CFI V4 load(1, XDATA, add(CFA_XSP16, literal(-10)))
          CFI V5 load(1, XDATA, add(CFA_XSP16, literal(-9)))
          CFI V6 load(1, XDATA, add(CFA_XSP16, literal(-8)))
          CFI V7 load(1, XDATA, add(CFA_XSP16, literal(-7)))
          CFI R7 load(1, XDATA, add(CFA_XSP16, literal(-6)))
          CFI ?RET_LOW load(1, XDATA, add(CFA_XSP16, literal(-5)))
          CFI ?RET_HIGH load(1, XDATA, add(CFA_XSP16, literal(-4)))
          CFI ?BRET_EXT load(1, XDATA, add(CFA_XSP16, literal(-3)))
          CFI DPL0 load(1, XDATA, add(CFA_XSP16, literal(-2)))
          CFI DPH0 load(1, XDATA, add(CFA_XSP16, literal(-1)))
          CFI CFA_SP SP+-2
          CFI CFA_XSP16 add(XSP16, 16)
          CFI Block cfiCond13 Using cfiCommon0
          CFI (cfiCond13) Function osal_build_uint32
          CFI (cfiCond13) Conditional ??CrossCallReturnLabel_9
          CFI (cfiCond13) R6 load(1, XDATA, add(CFA_XSP16, literal(-16)))
          CFI (cfiCond13) VB load(1, XDATA, add(CFA_XSP16, literal(-15)))
          CFI (cfiCond13) V0 load(1, XDATA, add(CFA_XSP16, literal(-14)))
          CFI (cfiCond13) V1 load(1, XDATA, add(CFA_XSP16, literal(-13)))
          CFI (cfiCond13) V2 load(1, XDATA, add(CFA_XSP16, literal(-12)))
          CFI (cfiCond13) V3 load(1, XDATA, add(CFA_XSP16, literal(-11)))
          CFI (cfiCond13) V4 load(1, XDATA, add(CFA_XSP16, literal(-10)))
          CFI (cfiCond13) V5 load(1, XDATA, add(CFA_XSP16, literal(-9)))
          CFI (cfiCond13) V6 load(1, XDATA, add(CFA_XSP16, literal(-8)))
          CFI (cfiCond13) V7 load(1, XDATA, add(CFA_XSP16, literal(-7)))
          CFI (cfiCond13) R7 load(1, XDATA, add(CFA_XSP16, literal(-6)))
          CFI (cfiCond13) ?RET_LOW load(1, XDATA, add(CFA_XSP16, literal(-5)))
          CFI (cfiCond13) ?RET_HIGH load(1, XDATA, add(CFA_XSP16, literal(-4)))
          CFI (cfiCond13) ?BRET_EXT load(1, XDATA, add(CFA_XSP16, literal(-3)))
          CFI (cfiCond13) DPL0 load(1, XDATA, add(CFA_XSP16, literal(-2)))
          CFI (cfiCond13) DPH0 load(1, XDATA, add(CFA_XSP16, literal(-1)))
          CFI (cfiCond13) CFA_SP SP+-2
          CFI (cfiCond13) CFA_XSP16 add(XSP16, 16)
          CFI Block cfiPicker14 Using cfiCommon1
          CFI (cfiPicker14) NoFunction
          CFI (cfiPicker14) Picker
        MOV     DPL,R2
        MOV     DPH,R3
        INC     DPTR
        INC     DPTR
        MOVX    A,@DPTR
        MOV     ?V0,A
        CLR     A
        MOV     ?V1,A
        MOV     A,#0x10
        RET
          CFI (cfiCond12) CFA_SP SP+0
          CFI (cfiCond13) CFA_SP SP+0
          CFI (cfiPicker14) CFA_SP SP+0
          CFI EndBlock cfiCond12
          CFI EndBlock cfiCond13
          CFI EndBlock cfiPicker14

        RSEG BANKED_CODE:CODE:NOROOT(0)
?Subroutine10:
          CFI Block cfiCond15 Using cfiCommon0
          CFI Function osal_build_uint32
          CFI Conditional ??CrossCallReturnLabel_2
          CFI R6 load(1, XDATA, add(CFA_XSP16, literal(-16)))
          CFI VB load(1, XDATA, add(CFA_XSP16, literal(-15)))
          CFI V0 load(1, XDATA, add(CFA_XSP16, literal(-14)))
          CFI V1 load(1, XDATA, add(CFA_XSP16, literal(-13)))
          CFI V2 load(1, XDATA, add(CFA_XSP16, literal(-12)))
          CFI V3 load(1, XDATA, add(CFA_XSP16, literal(-11)))
          CFI V4 load(1, XDATA, add(CFA_XSP16, literal(-10)))
          CFI V5 load(1, XDATA, add(CFA_XSP16, literal(-9)))
          CFI V6 load(1, XDATA, add(CFA_XSP16, literal(-8)))
          CFI V7 load(1, XDATA, add(CFA_XSP16, literal(-7)))
          CFI R7 load(1, XDATA, add(CFA_XSP16, literal(-6)))
          CFI ?RET_LOW load(1, XDATA, add(CFA_XSP16, literal(-5)))
          CFI ?RET_HIGH load(1, XDATA, add(CFA_XSP16, literal(-4)))
          CFI ?BRET_EXT load(1, XDATA, add(CFA_XSP16, literal(-3)))
          CFI DPL0 load(1, XDATA, add(CFA_XSP16, literal(-2)))
          CFI DPH0 load(1, XDATA, add(CFA_XSP16, literal(-1)))
          CFI CFA_SP SP+-2
          CFI CFA_XSP16 add(XSP16, 16)
          CFI Block cfiCond16 Using cfiCommon0
          CFI (cfiCond16) Function osal_build_uint32
          CFI (cfiCond16) Conditional ??CrossCallReturnLabel_3
          CFI (cfiCond16) R6 load(1, XDATA, add(CFA_XSP16, literal(-16)))
          CFI (cfiCond16) VB load(1, XDATA, add(CFA_XSP16, literal(-15)))
          CFI (cfiCond16) V0 load(1, XDATA, add(CFA_XSP16, literal(-14)))
          CFI (cfiCond16) V1 load(1, XDATA, add(CFA_XSP16, literal(-13)))
          CFI (cfiCond16) V2 load(1, XDATA, add(CFA_XSP16, literal(-12)))
          CFI (cfiCond16) V3 load(1, XDATA, add(CFA_XSP16, literal(-11)))
          CFI (cfiCond16) V4 load(1, XDATA, add(CFA_XSP16, literal(-10)))
          CFI (cfiCond16) V5 load(1, XDATA, add(CFA_XSP16, literal(-9)))
          CFI (cfiCond16) V6 load(1, XDATA, add(CFA_XSP16, literal(-8)))
          CFI (cfiCond16) V7 load(1, XDATA, add(CFA_XSP16, literal(-7)))
          CFI (cfiCond16) R7 load(1, XDATA, add(CFA_XSP16, literal(-6)))
          CFI (cfiCond16) ?RET_LOW load(1, XDATA, add(CFA_XSP16, literal(-5)))
          CFI (cfiCond16) ?RET_HIGH load(1, XDATA, add(CFA_XSP16, literal(-4)))
          CFI (cfiCond16) ?BRET_EXT load(1, XDATA, add(CFA_XSP16, literal(-3)))
          CFI (cfiCond16) DPL0 load(1, XDATA, add(CFA_XSP16, literal(-2)))
          CFI (cfiCond16) DPH0 load(1, XDATA, add(CFA_XSP16, literal(-1)))
          CFI (cfiCond16) CFA_SP SP+-2
          CFI (cfiCond16) CFA_XSP16 add(XSP16, 16)
          CFI Block cfiPicker17 Using cfiCommon1
          CFI (cfiPicker17) NoFunction
          CFI (cfiPicker17) Picker
        LCALL   ?Subroutine26 & 0xFFFF
??CrossCallReturnLabel_34:
        MOV     R0,#?V0
        RET
          CFI (cfiCond15) CFA_SP SP+0
          CFI (cfiCond16) CFA_SP SP+0
          CFI (cfiPicker17) CFA_SP SP+0
          CFI EndBlock cfiCond15
          CFI EndBlock cfiCond16
          CFI EndBlock cfiPicker17

        RSEG BANKED_CODE:CODE:NOROOT(0)
?Subroutine26:
          CFI Block cfiCond18 Using cfiCommon0
          CFI Function osal_build_uint32
          CFI Conditional ??CrossCallReturnLabel_33
          CFI R6 load(1, XDATA, add(CFA_XSP16, literal(-16)))
          CFI VB load(1, XDATA, add(CFA_XSP16, literal(-15)))
          CFI V0 load(1, XDATA, add(CFA_XSP16, literal(-14)))
          CFI V1 load(1, XDATA, add(CFA_XSP16, literal(-13)))
          CFI V2 load(1, XDATA, add(CFA_XSP16, literal(-12)))
          CFI V3 load(1, XDATA, add(CFA_XSP16, literal(-11)))
          CFI V4 load(1, XDATA, add(CFA_XSP16, literal(-10)))
          CFI V5 load(1, XDATA, add(CFA_XSP16, literal(-9)))
          CFI V6 load(1, XDATA, add(CFA_XSP16, literal(-8)))
          CFI V7 load(1, XDATA, add(CFA_XSP16, literal(-7)))
          CFI R7 load(1, XDATA, add(CFA_XSP16, literal(-6)))
          CFI ?RET_LOW load(1, XDATA, add(CFA_XSP16, literal(-5)))
          CFI ?RET_HIGH load(1, XDATA, add(CFA_XSP16, literal(-4)))
          CFI ?BRET_EXT load(1, XDATA, add(CFA_XSP16, literal(-3)))
          CFI DPL0 load(1, XDATA, add(CFA_XSP16, literal(-2)))
          CFI DPH0 load(1, XDATA, add(CFA_XSP16, literal(-1)))
          CFI CFA_SP SP+-2
          CFI CFA_XSP16 add(XSP16, 16)
          CFI Block cfiCond19 Using cfiCommon0
          CFI (cfiCond19) Function osal_build_uint32
          CFI (cfiCond19) Conditional ??CrossCallReturnLabel_34, ??CrossCallReturnLabel_2
          CFI (cfiCond19) R6 load(1, XDATA, add(CFA_XSP16, literal(-16)))
          CFI (cfiCond19) VB load(1, XDATA, add(CFA_XSP16, literal(-15)))
          CFI (cfiCond19) V0 load(1, XDATA, add(CFA_XSP16, literal(-14)))
          CFI (cfiCond19) V1 load(1, XDATA, add(CFA_XSP16, literal(-13)))
          CFI (cfiCond19) V2 load(1, XDATA, add(CFA_XSP16, literal(-12)))
          CFI (cfiCond19) V3 load(1, XDATA, add(CFA_XSP16, literal(-11)))
          CFI (cfiCond19) V4 load(1, XDATA, add(CFA_XSP16, literal(-10)))
          CFI (cfiCond19) V5 load(1, XDATA, add(CFA_XSP16, literal(-9)))
          CFI (cfiCond19) V6 load(1, XDATA, add(CFA_XSP16, literal(-8)))
          CFI (cfiCond19) V7 load(1, XDATA, add(CFA_XSP16, literal(-7)))
          CFI (cfiCond19) R7 load(1, XDATA, add(CFA_XSP16, literal(-6)))
          CFI (cfiCond19) ?RET_LOW load(1, XDATA, add(CFA_XSP16, literal(-5)))
          CFI (cfiCond19) ?RET_HIGH load(1, XDATA, add(CFA_XSP16, literal(-4)))
          CFI (cfiCond19) ?BRET_EXT load(1, XDATA, add(CFA_XSP16, literal(-3)))
          CFI (cfiCond19) DPL0 load(1, XDATA, add(CFA_XSP16, literal(-2)))
          CFI (cfiCond19) DPH0 load(1, XDATA, add(CFA_XSP16, literal(-1)))
          CFI (cfiCond19) CFA_SP SP+-4
          CFI (cfiCond19) CFA_XSP16 add(XSP16, 16)
          CFI Block cfiCond20 Using cfiCommon0
          CFI (cfiCond20) Function osal_build_uint32
          CFI (cfiCond20) Conditional ??CrossCallReturnLabel_34, ??CrossCallReturnLabel_3
          CFI (cfiCond20) R6 load(1, XDATA, add(CFA_XSP16, literal(-16)))
          CFI (cfiCond20) VB load(1, XDATA, add(CFA_XSP16, literal(-15)))
          CFI (cfiCond20) V0 load(1, XDATA, add(CFA_XSP16, literal(-14)))
          CFI (cfiCond20) V1 load(1, XDATA, add(CFA_XSP16, literal(-13)))
          CFI (cfiCond20) V2 load(1, XDATA, add(CFA_XSP16, literal(-12)))
          CFI (cfiCond20) V3 load(1, XDATA, add(CFA_XSP16, literal(-11)))
          CFI (cfiCond20) V4 load(1, XDATA, add(CFA_XSP16, literal(-10)))
          CFI (cfiCond20) V5 load(1, XDATA, add(CFA_XSP16, literal(-9)))
          CFI (cfiCond20) V6 load(1, XDATA, add(CFA_XSP16, literal(-8)))
          CFI (cfiCond20) V7 load(1, XDATA, add(CFA_XSP16, literal(-7)))
          CFI (cfiCond20) R7 load(1, XDATA, add(CFA_XSP16, literal(-6)))
          CFI (cfiCond20) ?RET_LOW load(1, XDATA, add(CFA_XSP16, literal(-5)))
          CFI (cfiCond20) ?RET_HIGH load(1, XDATA, add(CFA_XSP16, literal(-4)))
          CFI (cfiCond20) ?BRET_EXT load(1, XDATA, add(CFA_XSP16, literal(-3)))
          CFI (cfiCond20) DPL0 load(1, XDATA, add(CFA_XSP16, literal(-2)))
          CFI (cfiCond20) DPH0 load(1, XDATA, add(CFA_XSP16, literal(-1)))
          CFI (cfiCond20) CFA_SP SP+-4
          CFI (cfiCond20) CFA_XSP16 add(XSP16, 16)
          CFI Block cfiPicker21 Using cfiCommon1
          CFI (cfiPicker21) NoFunction
          CFI (cfiPicker21) Picker
        INC     DPTR
        MOVX    A,@DPTR
        MOV     ?V0,A
        CLR     A
        MOV     ?V1,A
        MOV     ?V2,A
        MOV     ?V3,A
        MOV     A,#0x8
        RET
          CFI (cfiCond18) CFA_SP SP+0
          CFI (cfiCond19) CFA_SP SP+-2
          CFI (cfiCond20) CFA_SP SP+-2
          CFI (cfiPicker21) CFA_SP SP+0
          CFI EndBlock cfiCond18
          CFI EndBlock cfiCond19
          CFI EndBlock cfiCond20
          CFI EndBlock cfiPicker21
//  309 
//  310 #if !defined ( ZBIT ) && !defined ( ZBIT2 ) && !defined (UBIT)
//  311 /*********************************************************************
//  312  * @fn      _ltoa
//  313  *
//  314  * @brief
//  315  *
//  316  *   convert a long unsigned int to a string.
//  317  *
//  318  * @param  l - long to convert
//  319  * @param  buf - buffer to convert to
//  320  * @param  radix - 10 dec, 16 hex
//  321  *
//  322  * @return  pointer to buffer
//  323  */

        RSEG BANKED_CODE:CODE:NOROOT(0)
//  324 unsigned char * _ltoa(unsigned long l, unsigned char *buf, unsigned char radix)
_ltoa:
          CFI Block cfiBlock22 Using cfiCommon0
          CFI Function _ltoa
        CODE
//  325 {
        FUNCALL _ltoa, _itoa
        LOCFRAME ISTACK, 0, STACK
        LOCFRAME PSTACK, 0, STACK
        LOCFRAME XSTACK, 55, STACK
        LOCFRAME IOVERLAY, 0, STATIC
        LOCFRAME DOVERLAY, 0, STATIC
        ARGFRAME ISTACK, 0, STACK
        ARGFRAME PSTACK, 0, STACK
        ARGFRAME XSTACK, 55, STACK
        ARGFRAME IOVERLAY, 0, STATIC
        ARGFRAME DOVERLAY, 0, STATIC
        FUNCALL _ltoa, _itoa
        LOCFRAME ISTACK, 0, STACK
        LOCFRAME PSTACK, 0, STACK
        LOCFRAME XSTACK, 55, STACK
        LOCFRAME IOVERLAY, 0, STATIC
        LOCFRAME DOVERLAY, 0, STATIC
        ARGFRAME ISTACK, 0, STACK
        ARGFRAME PSTACK, 0, STACK
        ARGFRAME XSTACK, 55, STACK
        ARGFRAME IOVERLAY, 0, STATIC
        ARGFRAME DOVERLAY, 0, STATIC
        FUNCALL _ltoa, _itoa
        LOCFRAME ISTACK, 0, STACK
        LOCFRAME PSTACK, 0, STACK
        LOCFRAME XSTACK, 55, STACK
        LOCFRAME IOVERLAY, 0, STATIC
        LOCFRAME DOVERLAY, 0, STATIC
        ARGFRAME ISTACK, 0, STACK
        ARGFRAME PSTACK, 0, STACK
        ARGFRAME XSTACK, 55, STACK
        ARGFRAME IOVERLAY, 0, STATIC
        ARGFRAME DOVERLAY, 0, STATIC
        FUNCALL _ltoa, strcpy
        LOCFRAME ISTACK, 0, STACK
        LOCFRAME PSTACK, 0, STACK
        LOCFRAME XSTACK, 55, STACK
        LOCFRAME IOVERLAY, 0, STATIC
        LOCFRAME DOVERLAY, 0, STATIC
        ARGFRAME ISTACK, 0, STACK
        ARGFRAME PSTACK, 0, STACK
        ARGFRAME XSTACK, 55, STACK
        ARGFRAME IOVERLAY, 0, STATIC
        ARGFRAME DOVERLAY, 0, STATIC
        FUNCALL _ltoa, strcat
        LOCFRAME ISTACK, 0, STACK
        LOCFRAME PSTACK, 0, STACK
        LOCFRAME XSTACK, 55, STACK
        LOCFRAME IOVERLAY, 0, STATIC
        LOCFRAME DOVERLAY, 0, STATIC
        ARGFRAME ISTACK, 0, STACK
        ARGFRAME PSTACK, 0, STACK
        ARGFRAME XSTACK, 55, STACK
        ARGFRAME IOVERLAY, 0, STATIC
        ARGFRAME DOVERLAY, 0, STATIC
        FUNCALL _ltoa, strlen
        LOCFRAME ISTACK, 0, STACK
        LOCFRAME PSTACK, 0, STACK
        LOCFRAME XSTACK, 55, STACK
        LOCFRAME IOVERLAY, 0, STATIC
        LOCFRAME DOVERLAY, 0, STATIC
        ARGFRAME ISTACK, 0, STACK
        ARGFRAME PSTACK, 0, STACK
        ARGFRAME XSTACK, 55, STACK
        ARGFRAME IOVERLAY, 0, STATIC
        ARGFRAME DOVERLAY, 0, STATIC
        FUNCALL _ltoa, strcat
        LOCFRAME ISTACK, 0, STACK
        LOCFRAME PSTACK, 0, STACK
        LOCFRAME XSTACK, 55, STACK
        LOCFRAME IOVERLAY, 0, STATIC
        LOCFRAME DOVERLAY, 0, STATIC
        ARGFRAME ISTACK, 0, STACK
        ARGFRAME PSTACK, 0, STACK
        ARGFRAME XSTACK, 55, STACK
        ARGFRAME IOVERLAY, 0, STATIC
        ARGFRAME DOVERLAY, 0, STATIC
        FUNCALL _ltoa, strcat
        LOCFRAME ISTACK, 0, STACK
        LOCFRAME PSTACK, 0, STACK
        LOCFRAME XSTACK, 55, STACK
        LOCFRAME IOVERLAY, 0, STATIC
        LOCFRAME DOVERLAY, 0, STATIC
        ARGFRAME ISTACK, 0, STACK
        ARGFRAME PSTACK, 0, STACK
        ARGFRAME XSTACK, 55, STACK
        ARGFRAME IOVERLAY, 0, STATIC
        ARGFRAME DOVERLAY, 0, STATIC
        FUNCALL _ltoa, strlen
        LOCFRAME ISTACK, 0, STACK
        LOCFRAME PSTACK, 0, STACK
        LOCFRAME XSTACK, 55, STACK
        LOCFRAME IOVERLAY, 0, STATIC
        LOCFRAME DOVERLAY, 0, STATIC
        ARGFRAME ISTACK, 0, STACK
        ARGFRAME PSTACK, 0, STACK
        ARGFRAME XSTACK, 55, STACK
        ARGFRAME IOVERLAY, 0, STATIC
        ARGFRAME DOVERLAY, 0, STATIC
        FUNCALL _ltoa, strcat
        LOCFRAME ISTACK, 0, STACK
        LOCFRAME PSTACK, 0, STACK
        LOCFRAME XSTACK, 55, STACK
        LOCFRAME IOVERLAY, 0, STATIC
        LOCFRAME DOVERLAY, 0, STATIC
        ARGFRAME ISTACK, 0, STACK
        ARGFRAME PSTACK, 0, STACK
        ARGFRAME XSTACK, 55, STACK
        ARGFRAME IOVERLAY, 0, STATIC
        ARGFRAME DOVERLAY, 0, STATIC
        FUNCALL _ltoa, _itoa
        LOCFRAME ISTACK, 0, STACK
        LOCFRAME PSTACK, 0, STACK
        LOCFRAME XSTACK, 55, STACK
        LOCFRAME IOVERLAY, 0, STATIC
        LOCFRAME DOVERLAY, 0, STATIC
        ARGFRAME ISTACK, 0, STACK
        ARGFRAME PSTACK, 0, STACK
        ARGFRAME XSTACK, 55, STACK
        ARGFRAME IOVERLAY, 0, STATIC
        ARGFRAME DOVERLAY, 0, STATIC
        FUNCALL _ltoa, _itoa
        LOCFRAME ISTACK, 0, STACK
        LOCFRAME PSTACK, 0, STACK
        LOCFRAME XSTACK, 55, STACK
        LOCFRAME IOVERLAY, 0, STATIC
        LOCFRAME DOVERLAY, 0, STATIC
        ARGFRAME ISTACK, 0, STACK
        ARGFRAME PSTACK, 0, STACK
        ARGFRAME XSTACK, 55, STACK
        ARGFRAME IOVERLAY, 0, STATIC
        ARGFRAME DOVERLAY, 0, STATIC
        FUNCALL _ltoa, strcpy
        LOCFRAME ISTACK, 0, STACK
        LOCFRAME PSTACK, 0, STACK
        LOCFRAME XSTACK, 55, STACK
        LOCFRAME IOVERLAY, 0, STATIC
        LOCFRAME DOVERLAY, 0, STATIC
        ARGFRAME ISTACK, 0, STACK
        ARGFRAME PSTACK, 0, STACK
        ARGFRAME XSTACK, 55, STACK
        ARGFRAME IOVERLAY, 0, STATIC
        ARGFRAME DOVERLAY, 0, STATIC
        FUNCALL _ltoa, strcat
        LOCFRAME ISTACK, 0, STACK
        LOCFRAME PSTACK, 0, STACK
        LOCFRAME XSTACK, 55, STACK
        LOCFRAME IOVERLAY, 0, STATIC
        LOCFRAME DOVERLAY, 0, STATIC
        ARGFRAME ISTACK, 0, STACK
        ARGFRAME PSTACK, 0, STACK
        ARGFRAME XSTACK, 55, STACK
        ARGFRAME IOVERLAY, 0, STATIC
        ARGFRAME DOVERLAY, 0, STATIC
        FUNCALL _ltoa, strlen
        LOCFRAME ISTACK, 0, STACK
        LOCFRAME PSTACK, 0, STACK
        LOCFRAME XSTACK, 55, STACK
        LOCFRAME IOVERLAY, 0, STATIC
        LOCFRAME DOVERLAY, 0, STATIC
        ARGFRAME ISTACK, 0, STACK
        ARGFRAME PSTACK, 0, STACK
        ARGFRAME XSTACK, 55, STACK
        ARGFRAME IOVERLAY, 0, STATIC
        ARGFRAME DOVERLAY, 0, STATIC
        FUNCALL _ltoa, strcat
        LOCFRAME ISTACK, 0, STACK
        LOCFRAME PSTACK, 0, STACK
        LOCFRAME XSTACK, 55, STACK
        LOCFRAME IOVERLAY, 0, STATIC
        LOCFRAME DOVERLAY, 0, STATIC
        ARGFRAME ISTACK, 0, STACK
        ARGFRAME PSTACK, 0, STACK
        ARGFRAME XSTACK, 55, STACK
        ARGFRAME IOVERLAY, 0, STATIC
        ARGFRAME DOVERLAY, 0, STATIC
        FUNCALL _ltoa, strcpy
        LOCFRAME ISTACK, 0, STACK
        LOCFRAME PSTACK, 0, STACK
        LOCFRAME XSTACK, 55, STACK
        LOCFRAME IOVERLAY, 0, STATIC
        LOCFRAME DOVERLAY, 0, STATIC
        ARGFRAME ISTACK, 0, STACK
        ARGFRAME PSTACK, 0, STACK
        ARGFRAME XSTACK, 55, STACK
        ARGFRAME IOVERLAY, 0, STATIC
        ARGFRAME DOVERLAY, 0, STATIC
        REQUIRE ?V0
        REQUIRE ?V1
        REQUIRE ?V2
        REQUIRE ?V3
        REQUIRE ?V4
        REQUIRE ?V5
        REQUIRE ?V6
        REQUIRE ?V7
        REQUIRE ?V8
        REQUIRE ?V9
        REQUIRE ?V10
        REQUIRE ?V11
        REQUIRE ?V12
        REQUIRE ?V13
        REQUIRE ?V14
        REQUIRE ?V15
        MOV     A,#-0x18
        LCALL   ?BANKED_ENTER_XDATA
          CFI DPH0 load(1, XDATA, add(CFA_XSP16, literal(-1)))
          CFI DPL0 load(1, XDATA, add(CFA_XSP16, literal(-2)))
          CFI ?BRET_EXT load(1, XDATA, add(CFA_XSP16, literal(-3)))
          CFI ?RET_HIGH load(1, XDATA, add(CFA_XSP16, literal(-4)))
          CFI ?RET_LOW load(1, XDATA, add(CFA_XSP16, literal(-5)))
          CFI R7 load(1, XDATA, add(CFA_XSP16, literal(-6)))
          CFI V15 load(1, XDATA, add(CFA_XSP16, literal(-7)))
          CFI V14 load(1, XDATA, add(CFA_XSP16, literal(-8)))
          CFI V13 load(1, XDATA, add(CFA_XSP16, literal(-9)))
          CFI V12 load(1, XDATA, add(CFA_XSP16, literal(-10)))
          CFI V11 load(1, XDATA, add(CFA_XSP16, literal(-11)))
          CFI V10 load(1, XDATA, add(CFA_XSP16, literal(-12)))
          CFI V9 load(1, XDATA, add(CFA_XSP16, literal(-13)))
          CFI V8 load(1, XDATA, add(CFA_XSP16, literal(-14)))
          CFI V7 load(1, XDATA, add(CFA_XSP16, literal(-15)))
          CFI V6 load(1, XDATA, add(CFA_XSP16, literal(-16)))
          CFI V5 load(1, XDATA, add(CFA_XSP16, literal(-17)))
          CFI V4 load(1, XDATA, add(CFA_XSP16, literal(-18)))
          CFI V3 load(1, XDATA, add(CFA_XSP16, literal(-19)))
          CFI V2 load(1, XDATA, add(CFA_XSP16, literal(-20)))
          CFI V1 load(1, XDATA, add(CFA_XSP16, literal(-21)))
          CFI V0 load(1, XDATA, add(CFA_XSP16, literal(-22)))
          CFI VB load(1, XDATA, add(CFA_XSP16, literal(-23)))
          CFI R6 load(1, XDATA, add(CFA_XSP16, literal(-24)))
          CFI CFA_SP SP+0
          CFI CFA_XSP16 add(XSP16, 24)
        ; Saved register size: 24
        ; Auto size: 31
        MOV     A,#-0x1f
        LCALL   ?ALLOC_XSTACK8
          CFI CFA_XSP16 add(XSP16, 55)
        MOV     A,R1
        MOV     DPL,?XSP + 0
        MOV     DPH,?XSP + 1
        MOVX    @DPTR,A
        MOV     ?V8,R2
        MOV     ?V9,R3
        MOV     ?V10,R4
        MOV     ?V11,R5
//  326 #if defined( __GNUC__ )
//  327   return ( (char*)ltoa( l, buf, radix ) );
//  328 #else
//  329   unsigned char tmp1[10] = "", tmp2[10] = "", tmp3[10] = "";
        MOV     DPTR,#`?<Constant "">`
        MOV     A,#0x1
        LCALL   ?XSTACK_DISP102_8
        MOV     A,#0xa
        LCALL   ?MOVE_LONG8_XDATA_XDATA
        MOV     DPTR,#`?<Constant "">_1`
        MOV     A,#0xa
        LCALL   ?MOVE_LONG8_XDATA_XDATA
        MOV     DPTR,#`?<Constant "">_2`
        MOV     A,#0xa
        LCALL   ?MOVE_LONG8_XDATA_XDATA
//  330   unsigned short num1, num2, num3;
//  331   unsigned char i;
//  332 
//  333   buf[0] = '\0';
        MOV     A,#0x37
        LCALL   ?XSTACK_DISP0_8
        LCALL   ?Subroutine12 & 0xFFFF
??CrossCallReturnLabel_6:
        CLR     A
        MOVX    @DPTR,A
//  334 
//  335   if ( radix == 10 )
        MOV     DPL,?XSP + 0
        MOV     DPH,?XSP + 1
        MOVX    A,@DPTR
        XRL     A,#0xa
        JZ      $+5
        LJMP    ??_ltoa_0 & 0xFFFF
//  336   {
//  337     num1 = l % 10000;
        MOV     ?V0,R2
        MOV     ?V1,R3
        MOV     ?V2,?V10
        MOV     ?V3,?V11
        MOV     DPTR,#__Constant_2710
        MOV     R0,#?V4
        LCALL   ?L_MOV_X
        MOV     R0,#?V0
        MOV     R1,#?V4
        LCALL   ?UL_DIV_MOD
        MOV     ?V0,?V4
        MOV     ?V1,?V5
//  338     num2 = (l / 10000) % 10000;
        MOV     ?V4,R2
        MOV     ?V5,R3
        MOV     ?V6,?V10
        MOV     ?V7,?V11
        MOV     DPTR,#__Constant_2710
        MOV     R0,#?V12
        LCALL   ?L_MOV_X
        MOV     R0,#?V4
        MOV     R1,#?V12
        LCALL   ?UL_DIV_MOD
        MOV     DPTR,#__Constant_2710
        MOV     R0,#?V12
        LCALL   ?L_MOV_X
        MOV     R0,#?V4
        MOV     R1,#?V12
        LCALL   ?UL_DIV_MOD
        MOV     R6,?V12
        MOV     R7,?V13
//  339     num3 = (unsigned short)(l / 100000000);
        MOV     DPTR,#__Constant_5f5e100
        MOV     R0,#?V4
        LCALL   ?L_MOV_X
        MOV     R0,#?V8
        MOV     R1,#?V4
        LCALL   ?UL_DIV_MOD
//  340 
//  341     if (num3) _itoa(num3, tmp3, 10);
        MOV     A,?V8
        ORL     A,?V9
        JZ      ??_ltoa_1
        ; Setup parameters for call to function _itoa
        MOV     R1,#0xa
        MOV     A,#0x15
        LCALL   ?XSTACK_DISP102_8
        MOV     R2,?V8
        MOV     R3,?V9
        LCALL   `??_itoa::?relay`    ; Banked call to: _itoa
//  342     if (num2) _itoa(num2, tmp2, 10);
??_ltoa_1:
        MOV     A,R6
        ORL     A,R7
        JZ      ??_ltoa_2
        ; Setup parameters for call to function _itoa
        MOV     R1,#0xa
        MOV     A,#0xb
        LCALL   ?XSTACK_DISP102_8
        MOV     A,R6
        MOV     R2,A
        MOV     A,R7
        MOV     R3,A
        LCALL   `??_itoa::?relay`    ; Banked call to: _itoa
//  343     if (num1) _itoa(num1, tmp1, 10);
??_ltoa_2:
        MOV     A,?V0
        ORL     A,?V1
        JZ      ??_ltoa_3
        ; Setup parameters for call to function _itoa
        MOV     R1,#0xa
        MOV     A,#0x1
        LCALL   ?XSTACK_DISP102_8
        MOV     R2,?V0
        MOV     R3,?V1
        LCALL   `??_itoa::?relay`    ; Banked call to: _itoa
//  344 
//  345     if (num3)
??_ltoa_3:
        MOV     A,?V8
        ORL     A,?V9
        JZ      ??_ltoa_4
//  346     {
//  347       strcpy((char*)buf, (char const*)tmp3);
        ; Setup parameters for call to function strcpy
        MOV     A,#0x15
        LCALL   ?XSTACK_DISP102_8
        MOV     A,#0x37
        LCALL   ?XSTACK_DISP0_8
        LCALL   ??Subroutine31_0 & 0xFFFF
??CrossCallReturnLabel_43:
        LCALL   `??strcpy::?relay`   ; Banked call to: strcpy
//  348       for (i = 0; i < 4 - strlen((char const*)tmp2); i++)
        MOV     ?V4,#0x0
        MOV     ?V2,#`?<Constant "0">` & 0xff
        MOV     ?V3,#(`?<Constant "0">` >> 8) & 0xff
        SJMP    ??_ltoa_5
//  349         strcat((char*)buf, "0");
??_ltoa_6:
        ; Setup parameters for call to function strcat
        MOV     R4,?V2
        MOV     R5,?V3
        MOV     A,#0x37
        LCALL   ?XSTACK_DISP0_8
        LCALL   ??Subroutine31_0 & 0xFFFF
??CrossCallReturnLabel_44:
        LCALL   `??strcat::?relay`   ; Banked call to: strcat
        INC     ?V4
??_ltoa_5:
        MOV     ?V6,?V4
        ; Setup parameters for call to function strlen
        MOV     A,#0xb
        LCALL   ?XSTACK_DISP101_8
        LCALL   `??strlen::?relay`   ; Banked call to: strlen
        LCALL   ?Subroutine22 & 0xFFFF
//  350     }
??CrossCallReturnLabel_26:
        JC      ??_ltoa_6
//  351     strcat((char*)buf, (char const*)tmp2);
??_ltoa_4:
        ; Setup parameters for call to function strcat
        MOV     A,#0xb
        LCALL   ?XSTACK_DISP102_8
        MOV     A,#0x37
        LCALL   ?XSTACK_DISP0_8
        LCALL   ??Subroutine31_0 & 0xFFFF
??CrossCallReturnLabel_45:
        LCALL   `??strcat::?relay`   ; Banked call to: strcat
//  352     if (num3 || num2)
        MOV     A,?V8
        ORL     A,?V9
        JNZ     ??_ltoa_7
        MOV     A,R6
        ORL     A,R7
        JZ      ??_ltoa_8
//  353     {
//  354       for (i = 0; i < 4 - strlen((char const*)tmp1); i++)
??_ltoa_7:
        MOV     ?V4,#0x0
        MOV     ?V2,#`?<Constant "0">` & 0xff
        MOV     ?V3,#(`?<Constant "0">` >> 8) & 0xff
        SJMP    ??_ltoa_9
//  355         strcat((char*)buf, "0");
??_ltoa_10:
        ; Setup parameters for call to function strcat
        MOV     R4,?V2
        MOV     R5,?V3
        MOV     A,#0x37
        LCALL   ?XSTACK_DISP0_8
        LCALL   ??Subroutine31_0 & 0xFFFF
??CrossCallReturnLabel_46:
        LCALL   `??strcat::?relay`   ; Banked call to: strcat
        INC     ?V4
??_ltoa_9:
        MOV     ?V6,?V4
        ; Setup parameters for call to function strlen
        MOV     A,#0x1
        LCALL   ?XSTACK_DISP101_8
        LCALL   `??strlen::?relay`   ; Banked call to: strlen
        LCALL   ?Subroutine22 & 0xFFFF
//  356     }
??CrossCallReturnLabel_27:
        JC      ??_ltoa_10
//  357     strcat((char*)buf, (char const*)tmp1);
??_ltoa_8:
        ; Setup parameters for call to function strcat
        MOV     A,#0x1
        LCALL   ?XSTACK_DISP102_8
        MOV     A,#0x37
        LCALL   ?XSTACK_DISP0_8
        LCALL   ??Subroutine31_0 & 0xFFFF
??CrossCallReturnLabel_47:
        LCALL   `??strcat::?relay`   ; Banked call to: strcat
//  358     if (!num3 && !num2 && !num1)
        MOV     A,?V8
        ORL     A,?V9
        JNZ     ??_ltoa_11
        MOV     A,R6
        ORL     A,R7
        JNZ     $+5
        LJMP    ??_ltoa_12 & 0xFFFF
//  359       strcpy((char*)buf, "0");
//  360   }
//  361   else if ( radix == 16 )
//  362   {
//  363     num1 = l & 0x0000FFFF;
//  364     num2 = l >> 16;
//  365 
//  366     if (num2) _itoa(num2, tmp2, 16);
//  367     if (num1) _itoa(num1, tmp1, 16);
//  368 
//  369     if (num2)
//  370     {
//  371       strcpy((char*)buf,(char const*)tmp2);
//  372       for (i = 0; i < 4 - strlen((char const*)tmp1); i++)
//  373         strcat((char*)buf, "0");
//  374     }
//  375     strcat((char*)buf, (char const*)tmp1);
//  376     if (!num2 && !num1)
//  377       strcpy((char*)buf, "0");
//  378   }
//  379   else
//  380     return NULL;
//  381 
//  382   return buf;
??_ltoa_11:
        MOV     A,#0x37
        LCALL   ?XSTACK_DISP0_8
        LCALL   ??Subroutine31_0 & 0xFFFF
??CrossCallReturnLabel_48:
        MOV     A,#0x1f
        LCALL   ?DEALLOC_XSTACK8
          CFI CFA_XSP16 add(XSP16, 24)
        MOV     R7,#0x10
        LJMP    ?BANKED_LEAVE_XDATA
          CFI CFA_XSP16 add(XSP16, 55)
??_ltoa_0:
        MOVX    A,@DPTR
        XRL     A,#0x10
        JZ      $+5
        LJMP    ??_ltoa_13 & 0xFFFF
        MOV     ?V0,R2
        MOV     ?V1,R3
        MOV     A,#0x10
        MOV     R0,#?V8
        LCALL   ?UL_SHR
        MOV     R6,?V8
        MOV     R7,?V9
        MOV     A,R6
        ORL     A,R7
        JZ      ??_ltoa_14
        ; Setup parameters for call to function _itoa
        MOV     R1,#0x10
        MOV     A,#0xb
        LCALL   ?XSTACK_DISP102_8
        MOV     A,R6
        MOV     R2,A
        MOV     A,R7
        MOV     R3,A
        LCALL   `??_itoa::?relay`    ; Banked call to: _itoa
??_ltoa_14:
        MOV     A,?V0
        ORL     A,?V1
        JZ      ??_ltoa_15
        ; Setup parameters for call to function _itoa
        MOV     R1,#0x10
        MOV     A,#0x1
        LCALL   ?XSTACK_DISP102_8
        MOV     R2,?V0
        MOV     R3,?V1
        LCALL   `??_itoa::?relay`    ; Banked call to: _itoa
??_ltoa_15:
        MOV     A,R6
        ORL     A,R7
        JZ      ??_ltoa_16
        ; Setup parameters for call to function strcpy
        MOV     A,#0xb
        LCALL   ?XSTACK_DISP102_8
        MOV     A,#0x37
        LCALL   ?XSTACK_DISP0_8
        LCALL   ??Subroutine31_0 & 0xFFFF
??CrossCallReturnLabel_49:
        LCALL   `??strcpy::?relay`   ; Banked call to: strcpy
        MOV     ?V4,#0x0
        MOV     ?V2,#`?<Constant "0">` & 0xff
        MOV     ?V3,#(`?<Constant "0">` >> 8) & 0xff
        SJMP    ??_ltoa_17
??_ltoa_18:
        ; Setup parameters for call to function strcat
        MOV     R4,?V2
        MOV     R5,?V3
        MOV     A,#0x37
        LCALL   ?XSTACK_DISP0_8
        LCALL   ??Subroutine31_0 & 0xFFFF
??CrossCallReturnLabel_50:
        LCALL   `??strcat::?relay`   ; Banked call to: strcat
        INC     ?V4
??_ltoa_17:
        MOV     ?V6,?V4
        ; Setup parameters for call to function strlen
        MOV     A,#0x1
        LCALL   ?XSTACK_DISP101_8
        LCALL   `??strlen::?relay`   ; Banked call to: strlen
        MOV     ?V8,R2
        MOV     ?V9,R3
        MOV     A,#0x4
        CLR     C
        SUBB    A,?V8
        MOV     R0,A
        CLR     A
        SUBB    A,?V9
        MOV     R1,A
        CLR     C
        MOV     A,?V6
        SUBB    A,R0
        CLR     A
        SUBB    A,R1
        JC      ??_ltoa_18
??_ltoa_16:
        ; Setup parameters for call to function strcat
        MOV     A,#0x1
        LCALL   ?XSTACK_DISP102_8
        MOV     A,#0x37
        LCALL   ?XSTACK_DISP0_8
        LCALL   ??Subroutine31_0 & 0xFFFF
??CrossCallReturnLabel_51:
        LCALL   `??strcat::?relay`   ; Banked call to: strcat
        MOV     A,R6
        ORL     A,R7
        JZ      $+5
        LJMP    ??_ltoa_11 & 0xFFFF
??_ltoa_12:
        MOV     A,?V0
        ORL     A,?V1
        JZ      $+5
        LJMP    ??_ltoa_11 & 0xFFFF
        ; Setup parameters for call to function strcpy
        MOV     R4,#`?<Constant "0">` & 0xff
        MOV     R5,#(`?<Constant "0">` >> 8) & 0xff
        MOV     A,#0x37
        LCALL   ?XSTACK_DISP0_8
        LCALL   ??Subroutine31_0 & 0xFFFF
??CrossCallReturnLabel_52:
        LCALL   `??strcpy::?relay`   ; Banked call to: strcpy
        LJMP    ??_ltoa_11 & 0xFFFF
??_ltoa_13:
        MOV     R2,#0x0
        MOV     R3,#0x0
        LJMP    ??CrossCallReturnLabel_48 & 0xFFFF
//  383 #endif
//  384 }
          CFI EndBlock cfiBlock22

        RSEG BANKED_CODE:CODE:NOROOT(0)
?Subroutine22:
          CFI Block cfiCond23 Using cfiCommon0
          CFI Function _ltoa
          CFI Conditional ??CrossCallReturnLabel_26
          CFI R6 load(1, XDATA, add(CFA_XSP16, literal(-24)))
          CFI VB load(1, XDATA, add(CFA_XSP16, literal(-23)))
          CFI V0 load(1, XDATA, add(CFA_XSP16, literal(-22)))
          CFI V1 load(1, XDATA, add(CFA_XSP16, literal(-21)))
          CFI V2 load(1, XDATA, add(CFA_XSP16, literal(-20)))
          CFI V3 load(1, XDATA, add(CFA_XSP16, literal(-19)))
          CFI V4 load(1, XDATA, add(CFA_XSP16, literal(-18)))
          CFI V5 load(1, XDATA, add(CFA_XSP16, literal(-17)))
          CFI V6 load(1, XDATA, add(CFA_XSP16, literal(-16)))
          CFI V7 load(1, XDATA, add(CFA_XSP16, literal(-15)))
          CFI V8 load(1, XDATA, add(CFA_XSP16, literal(-14)))
          CFI V9 load(1, XDATA, add(CFA_XSP16, literal(-13)))
          CFI V10 load(1, XDATA, add(CFA_XSP16, literal(-12)))
          CFI V11 load(1, XDATA, add(CFA_XSP16, literal(-11)))
          CFI V12 load(1, XDATA, add(CFA_XSP16, literal(-10)))
          CFI V13 load(1, XDATA, add(CFA_XSP16, literal(-9)))
          CFI V14 load(1, XDATA, add(CFA_XSP16, literal(-8)))
          CFI V15 load(1, XDATA, add(CFA_XSP16, literal(-7)))
          CFI R7 load(1, XDATA, add(CFA_XSP16, literal(-6)))
          CFI ?RET_LOW load(1, XDATA, add(CFA_XSP16, literal(-5)))
          CFI ?RET_HIGH load(1, XDATA, add(CFA_XSP16, literal(-4)))
          CFI ?BRET_EXT load(1, XDATA, add(CFA_XSP16, literal(-3)))
          CFI DPL0 load(1, XDATA, add(CFA_XSP16, literal(-2)))
          CFI DPH0 load(1, XDATA, add(CFA_XSP16, literal(-1)))
          CFI CFA_SP SP+-2
          CFI CFA_XSP16 add(XSP16, 55)
          CFI Block cfiCond24 Using cfiCommon0
          CFI (cfiCond24) Function _ltoa
          CFI (cfiCond24) Conditional ??CrossCallReturnLabel_27
          CFI (cfiCond24) R6 load(1, XDATA, add(CFA_XSP16, literal(-24)))
          CFI (cfiCond24) VB load(1, XDATA, add(CFA_XSP16, literal(-23)))
          CFI (cfiCond24) V0 load(1, XDATA, add(CFA_XSP16, literal(-22)))
          CFI (cfiCond24) V1 load(1, XDATA, add(CFA_XSP16, literal(-21)))
          CFI (cfiCond24) V2 load(1, XDATA, add(CFA_XSP16, literal(-20)))
          CFI (cfiCond24) V3 load(1, XDATA, add(CFA_XSP16, literal(-19)))
          CFI (cfiCond24) V4 load(1, XDATA, add(CFA_XSP16, literal(-18)))
          CFI (cfiCond24) V5 load(1, XDATA, add(CFA_XSP16, literal(-17)))
          CFI (cfiCond24) V6 load(1, XDATA, add(CFA_XSP16, literal(-16)))
          CFI (cfiCond24) V7 load(1, XDATA, add(CFA_XSP16, literal(-15)))
          CFI (cfiCond24) V8 load(1, XDATA, add(CFA_XSP16, literal(-14)))
          CFI (cfiCond24) V9 load(1, XDATA, add(CFA_XSP16, literal(-13)))
          CFI (cfiCond24) V10 load(1, XDATA, add(CFA_XSP16, literal(-12)))
          CFI (cfiCond24) V11 load(1, XDATA, add(CFA_XSP16, literal(-11)))
          CFI (cfiCond24) V12 load(1, XDATA, add(CFA_XSP16, literal(-10)))
          CFI (cfiCond24) V13 load(1, XDATA, add(CFA_XSP16, literal(-9)))
          CFI (cfiCond24) V14 load(1, XDATA, add(CFA_XSP16, literal(-8)))
          CFI (cfiCond24) V15 load(1, XDATA, add(CFA_XSP16, literal(-7)))
          CFI (cfiCond24) R7 load(1, XDATA, add(CFA_XSP16, literal(-6)))
          CFI (cfiCond24) ?RET_LOW load(1, XDATA, add(CFA_XSP16, literal(-5)))
          CFI (cfiCond24) ?RET_HIGH load(1, XDATA, add(CFA_XSP16, literal(-4)))
          CFI (cfiCond24) ?BRET_EXT load(1, XDATA, add(CFA_XSP16, literal(-3)))
          CFI (cfiCond24) DPL0 load(1, XDATA, add(CFA_XSP16, literal(-2)))
          CFI (cfiCond24) DPH0 load(1, XDATA, add(CFA_XSP16, literal(-1)))
          CFI (cfiCond24) CFA_SP SP+-2
          CFI (cfiCond24) CFA_XSP16 add(XSP16, 55)
          CFI Block cfiPicker25 Using cfiCommon1
          CFI (cfiPicker25) NoFunction
          CFI (cfiPicker25) Picker
        MOV     ?V10,R2
        MOV     ?V11,R3
        MOV     A,#0x4
        CLR     C
        SUBB    A,?V10
        MOV     R0,A
        CLR     A
        SUBB    A,?V11
        MOV     R1,A
        CLR     C
        MOV     A,?V6
        SUBB    A,R0
        CLR     A
        SUBB    A,R1
        RET
          CFI (cfiCond23) CFA_SP SP+0
          CFI (cfiCond24) CFA_SP SP+0
          CFI (cfiPicker25) CFA_SP SP+0
          CFI EndBlock cfiCond23
          CFI EndBlock cfiCond24
          CFI EndBlock cfiPicker25

        RSEG BANKED_CODE:CODE:NOROOT(0)
?Subroutine6:
          CFI Block cfiCond26 Using cfiCommon0
          CFI Function osal_run_system
          CFI Conditional ??CrossCallReturnLabel_54
          CFI R6 load(1, XDATA, add(CFA_XSP16, literal(-12)))
          CFI VB load(1, XDATA, add(CFA_XSP16, literal(-11)))
          CFI V0 load(1, XDATA, add(CFA_XSP16, literal(-10)))
          CFI V1 load(1, XDATA, add(CFA_XSP16, literal(-9)))
          CFI V2 load(1, XDATA, add(CFA_XSP16, literal(-8)))
          CFI V3 load(1, XDATA, add(CFA_XSP16, literal(-7)))
          CFI R7 load(1, XDATA, add(CFA_XSP16, literal(-6)))
          CFI ?RET_LOW load(1, XDATA, add(CFA_XSP16, literal(-5)))
          CFI ?RET_HIGH load(1, XDATA, add(CFA_XSP16, literal(-4)))
          CFI ?BRET_EXT load(1, XDATA, add(CFA_XSP16, literal(-3)))
          CFI DPL0 load(1, XDATA, add(CFA_XSP16, literal(-2)))
          CFI DPH0 load(1, XDATA, add(CFA_XSP16, literal(-1)))
          CFI CFA_SP SP+-2
          CFI CFA_XSP16 add(XSP16, 12)
          CFI Block cfiCond27 Using cfiCommon0
          CFI (cfiCond27) Function osal_run_system
          CFI (cfiCond27) Conditional ??CrossCallReturnLabel_55
          CFI (cfiCond27) R6 load(1, XDATA, add(CFA_XSP16, literal(-12)))
          CFI (cfiCond27) VB load(1, XDATA, add(CFA_XSP16, literal(-11)))
          CFI (cfiCond27) V0 load(1, XDATA, add(CFA_XSP16, literal(-10)))
          CFI (cfiCond27) V1 load(1, XDATA, add(CFA_XSP16, literal(-9)))
          CFI (cfiCond27) V2 load(1, XDATA, add(CFA_XSP16, literal(-8)))
          CFI (cfiCond27) V3 load(1, XDATA, add(CFA_XSP16, literal(-7)))
          CFI (cfiCond27) R7 load(1, XDATA, add(CFA_XSP16, literal(-6)))
          CFI (cfiCond27) ?RET_LOW load(1, XDATA, add(CFA_XSP16, literal(-5)))
          CFI (cfiCond27) ?RET_HIGH load(1, XDATA, add(CFA_XSP16, literal(-4)))
          CFI (cfiCond27) ?BRET_EXT load(1, XDATA, add(CFA_XSP16, literal(-3)))
          CFI (cfiCond27) DPL0 load(1, XDATA, add(CFA_XSP16, literal(-2)))
          CFI (cfiCond27) DPH0 load(1, XDATA, add(CFA_XSP16, literal(-1)))
          CFI (cfiCond27) CFA_SP SP+-2
          CFI (cfiCond27) CFA_XSP16 add(XSP16, 12)
          CFI Block cfiPicker28 Using cfiCommon1
          CFI (cfiPicker28) NoFunction
          CFI (cfiPicker28) Picker
        MOV     DPL,R0
        MOV     DPH,R1
          CFI EndBlock cfiCond26
          CFI EndBlock cfiCond27
          CFI EndBlock cfiPicker28
        REQUIRE ??Subroutine31_0
        ; // Fall through to label ??Subroutine31_0

        RSEG BANKED_CODE:CODE:NOROOT(0)
??Subroutine31_0:
          CFI Block cfiCond29 Using cfiCommon0
          CFI Function osal_memcpy
          CFI Conditional ??CrossCallReturnLabel_41
          CFI R6 load(1, XDATA, add(CFA_XSP16, literal(-9)))
          CFI VB load(1, XDATA, add(CFA_XSP16, literal(-8)))
          CFI V0 load(1, XDATA, add(CFA_XSP16, literal(-7)))
          CFI R7 load(1, XDATA, add(CFA_XSP16, literal(-6)))
          CFI ?RET_LOW load(1, XDATA, add(CFA_XSP16, literal(-5)))
          CFI ?RET_HIGH load(1, XDATA, add(CFA_XSP16, literal(-4)))
          CFI ?BRET_EXT load(1, XDATA, add(CFA_XSP16, literal(-3)))
          CFI DPL0 load(1, XDATA, add(CFA_XSP16, literal(-2)))
          CFI DPH0 load(1, XDATA, add(CFA_XSP16, literal(-1)))
          CFI CFA_SP SP+-2
          CFI CFA_XSP16 add(XSP16, 9)
          CFI Block cfiCond30 Using cfiCommon0
          CFI (cfiCond30) Function osal_revmemcpy
          CFI (cfiCond30) Conditional ??CrossCallReturnLabel_42
          CFI (cfiCond30) R6 load(1, XDATA, add(CFA_XSP16, literal(-9)))
          CFI (cfiCond30) VB load(1, XDATA, add(CFA_XSP16, literal(-8)))
          CFI (cfiCond30) V0 load(1, XDATA, add(CFA_XSP16, literal(-7)))
          CFI (cfiCond30) R7 load(1, XDATA, add(CFA_XSP16, literal(-6)))
          CFI (cfiCond30) ?RET_LOW load(1, XDATA, add(CFA_XSP16, literal(-5)))
          CFI (cfiCond30) ?RET_HIGH load(1, XDATA, add(CFA_XSP16, literal(-4)))
          CFI (cfiCond30) ?BRET_EXT load(1, XDATA, add(CFA_XSP16, literal(-3)))
          CFI (cfiCond30) DPL0 load(1, XDATA, add(CFA_XSP16, literal(-2)))
          CFI (cfiCond30) DPH0 load(1, XDATA, add(CFA_XSP16, literal(-1)))
          CFI (cfiCond30) CFA_SP SP+-2
          CFI (cfiCond30) CFA_XSP16 add(XSP16, 9)
          CFI Block cfiCond31 Using cfiCommon0
          CFI (cfiCond31) Function _ltoa
          CFI (cfiCond31) Conditional ??CrossCallReturnLabel_43
          CFI (cfiCond31) R6 load(1, XDATA, add(CFA_XSP16, literal(-24)))
          CFI (cfiCond31) VB load(1, XDATA, add(CFA_XSP16, literal(-23)))
          CFI (cfiCond31) V0 load(1, XDATA, add(CFA_XSP16, literal(-22)))
          CFI (cfiCond31) V1 load(1, XDATA, add(CFA_XSP16, literal(-21)))
          CFI (cfiCond31) V2 load(1, XDATA, add(CFA_XSP16, literal(-20)))
          CFI (cfiCond31) V3 load(1, XDATA, add(CFA_XSP16, literal(-19)))
          CFI (cfiCond31) V4 load(1, XDATA, add(CFA_XSP16, literal(-18)))
          CFI (cfiCond31) V5 load(1, XDATA, add(CFA_XSP16, literal(-17)))
          CFI (cfiCond31) V6 load(1, XDATA, add(CFA_XSP16, literal(-16)))
          CFI (cfiCond31) V7 load(1, XDATA, add(CFA_XSP16, literal(-15)))
          CFI (cfiCond31) V8 load(1, XDATA, add(CFA_XSP16, literal(-14)))
          CFI (cfiCond31) V9 load(1, XDATA, add(CFA_XSP16, literal(-13)))
          CFI (cfiCond31) V10 load(1, XDATA, add(CFA_XSP16, literal(-12)))
          CFI (cfiCond31) V11 load(1, XDATA, add(CFA_XSP16, literal(-11)))
          CFI (cfiCond31) V12 load(1, XDATA, add(CFA_XSP16, literal(-10)))
          CFI (cfiCond31) V13 load(1, XDATA, add(CFA_XSP16, literal(-9)))
          CFI (cfiCond31) V14 load(1, XDATA, add(CFA_XSP16, literal(-8)))
          CFI (cfiCond31) V15 load(1, XDATA, add(CFA_XSP16, literal(-7)))
          CFI (cfiCond31) R7 load(1, XDATA, add(CFA_XSP16, literal(-6)))
          CFI (cfiCond31) ?RET_LOW load(1, XDATA, add(CFA_XSP16, literal(-5)))
          CFI (cfiCond31) ?RET_HIGH load(1, XDATA, add(CFA_XSP16, literal(-4)))
          CFI (cfiCond31) ?BRET_EXT load(1, XDATA, add(CFA_XSP16, literal(-3)))
          CFI (cfiCond31) DPL0 load(1, XDATA, add(CFA_XSP16, literal(-2)))
          CFI (cfiCond31) DPH0 load(1, XDATA, add(CFA_XSP16, literal(-1)))
          CFI (cfiCond31) CFA_SP SP+-2
          CFI (cfiCond31) CFA_XSP16 add(XSP16, 55)
          CFI Block cfiCond32 Using cfiCommon0
          CFI (cfiCond32) Function _ltoa
          CFI (cfiCond32) Conditional ??CrossCallReturnLabel_44
          CFI (cfiCond32) R6 load(1, XDATA, add(CFA_XSP16, literal(-24)))
          CFI (cfiCond32) VB load(1, XDATA, add(CFA_XSP16, literal(-23)))
          CFI (cfiCond32) V0 load(1, XDATA, add(CFA_XSP16, literal(-22)))
          CFI (cfiCond32) V1 load(1, XDATA, add(CFA_XSP16, literal(-21)))
          CFI (cfiCond32) V2 load(1, XDATA, add(CFA_XSP16, literal(-20)))
          CFI (cfiCond32) V3 load(1, XDATA, add(CFA_XSP16, literal(-19)))
          CFI (cfiCond32) V4 load(1, XDATA, add(CFA_XSP16, literal(-18)))
          CFI (cfiCond32) V5 load(1, XDATA, add(CFA_XSP16, literal(-17)))
          CFI (cfiCond32) V6 load(1, XDATA, add(CFA_XSP16, literal(-16)))
          CFI (cfiCond32) V7 load(1, XDATA, add(CFA_XSP16, literal(-15)))
          CFI (cfiCond32) V8 load(1, XDATA, add(CFA_XSP16, literal(-14)))
          CFI (cfiCond32) V9 load(1, XDATA, add(CFA_XSP16, literal(-13)))
          CFI (cfiCond32) V10 load(1, XDATA, add(CFA_XSP16, literal(-12)))
          CFI (cfiCond32) V11 load(1, XDATA, add(CFA_XSP16, literal(-11)))
          CFI (cfiCond32) V12 load(1, XDATA, add(CFA_XSP16, literal(-10)))
          CFI (cfiCond32) V13 load(1, XDATA, add(CFA_XSP16, literal(-9)))
          CFI (cfiCond32) V14 load(1, XDATA, add(CFA_XSP16, literal(-8)))
          CFI (cfiCond32) V15 load(1, XDATA, add(CFA_XSP16, literal(-7)))
          CFI (cfiCond32) R7 load(1, XDATA, add(CFA_XSP16, literal(-6)))
          CFI (cfiCond32) ?RET_LOW load(1, XDATA, add(CFA_XSP16, literal(-5)))
          CFI (cfiCond32) ?RET_HIGH load(1, XDATA, add(CFA_XSP16, literal(-4)))
          CFI (cfiCond32) ?BRET_EXT load(1, XDATA, add(CFA_XSP16, literal(-3)))
          CFI (cfiCond32) DPL0 load(1, XDATA, add(CFA_XSP16, literal(-2)))
          CFI (cfiCond32) DPH0 load(1, XDATA, add(CFA_XSP16, literal(-1)))
          CFI (cfiCond32) CFA_SP SP+-2
          CFI (cfiCond32) CFA_XSP16 add(XSP16, 55)
          CFI Block cfiCond33 Using cfiCommon0
          CFI (cfiCond33) Function _ltoa
          CFI (cfiCond33) Conditional ??CrossCallReturnLabel_45
          CFI (cfiCond33) R6 load(1, XDATA, add(CFA_XSP16, literal(-24)))
          CFI (cfiCond33) VB load(1, XDATA, add(CFA_XSP16, literal(-23)))
          CFI (cfiCond33) V0 load(1, XDATA, add(CFA_XSP16, literal(-22)))
          CFI (cfiCond33) V1 load(1, XDATA, add(CFA_XSP16, literal(-21)))
          CFI (cfiCond33) V2 load(1, XDATA, add(CFA_XSP16, literal(-20)))
          CFI (cfiCond33) V3 load(1, XDATA, add(CFA_XSP16, literal(-19)))
          CFI (cfiCond33) V4 load(1, XDATA, add(CFA_XSP16, literal(-18)))
          CFI (cfiCond33) V5 load(1, XDATA, add(CFA_XSP16, literal(-17)))
          CFI (cfiCond33) V6 load(1, XDATA, add(CFA_XSP16, literal(-16)))
          CFI (cfiCond33) V7 load(1, XDATA, add(CFA_XSP16, literal(-15)))
          CFI (cfiCond33) V8 load(1, XDATA, add(CFA_XSP16, literal(-14)))
          CFI (cfiCond33) V9 load(1, XDATA, add(CFA_XSP16, literal(-13)))
          CFI (cfiCond33) V10 load(1, XDATA, add(CFA_XSP16, literal(-12)))
          CFI (cfiCond33) V11 load(1, XDATA, add(CFA_XSP16, literal(-11)))
          CFI (cfiCond33) V12 load(1, XDATA, add(CFA_XSP16, literal(-10)))
          CFI (cfiCond33) V13 load(1, XDATA, add(CFA_XSP16, literal(-9)))
          CFI (cfiCond33) V14 load(1, XDATA, add(CFA_XSP16, literal(-8)))
          CFI (cfiCond33) V15 load(1, XDATA, add(CFA_XSP16, literal(-7)))
          CFI (cfiCond33) R7 load(1, XDATA, add(CFA_XSP16, literal(-6)))
          CFI (cfiCond33) ?RET_LOW load(1, XDATA, add(CFA_XSP16, literal(-5)))
          CFI (cfiCond33) ?RET_HIGH load(1, XDATA, add(CFA_XSP16, literal(-4)))
          CFI (cfiCond33) ?BRET_EXT load(1, XDATA, add(CFA_XSP16, literal(-3)))
          CFI (cfiCond33) DPL0 load(1, XDATA, add(CFA_XSP16, literal(-2)))
          CFI (cfiCond33) DPH0 load(1, XDATA, add(CFA_XSP16, literal(-1)))
          CFI (cfiCond33) CFA_SP SP+-2
          CFI (cfiCond33) CFA_XSP16 add(XSP16, 55)
          CFI Block cfiCond34 Using cfiCommon0
          CFI (cfiCond34) Function _ltoa
          CFI (cfiCond34) Conditional ??CrossCallReturnLabel_46
          CFI (cfiCond34) R6 load(1, XDATA, add(CFA_XSP16, literal(-24)))
          CFI (cfiCond34) VB load(1, XDATA, add(CFA_XSP16, literal(-23)))
          CFI (cfiCond34) V0 load(1, XDATA, add(CFA_XSP16, literal(-22)))
          CFI (cfiCond34) V1 load(1, XDATA, add(CFA_XSP16, literal(-21)))
          CFI (cfiCond34) V2 load(1, XDATA, add(CFA_XSP16, literal(-20)))
          CFI (cfiCond34) V3 load(1, XDATA, add(CFA_XSP16, literal(-19)))
          CFI (cfiCond34) V4 load(1, XDATA, add(CFA_XSP16, literal(-18)))
          CFI (cfiCond34) V5 load(1, XDATA, add(CFA_XSP16, literal(-17)))
          CFI (cfiCond34) V6 load(1, XDATA, add(CFA_XSP16, literal(-16)))
          CFI (cfiCond34) V7 load(1, XDATA, add(CFA_XSP16, literal(-15)))
          CFI (cfiCond34) V8 load(1, XDATA, add(CFA_XSP16, literal(-14)))
          CFI (cfiCond34) V9 load(1, XDATA, add(CFA_XSP16, literal(-13)))
          CFI (cfiCond34) V10 load(1, XDATA, add(CFA_XSP16, literal(-12)))
          CFI (cfiCond34) V11 load(1, XDATA, add(CFA_XSP16, literal(-11)))
          CFI (cfiCond34) V12 load(1, XDATA, add(CFA_XSP16, literal(-10)))
          CFI (cfiCond34) V13 load(1, XDATA, add(CFA_XSP16, literal(-9)))
          CFI (cfiCond34) V14 load(1, XDATA, add(CFA_XSP16, literal(-8)))
          CFI (cfiCond34) V15 load(1, XDATA, add(CFA_XSP16, literal(-7)))
          CFI (cfiCond34) R7 load(1, XDATA, add(CFA_XSP16, literal(-6)))
          CFI (cfiCond34) ?RET_LOW load(1, XDATA, add(CFA_XSP16, literal(-5)))
          CFI (cfiCond34) ?RET_HIGH load(1, XDATA, add(CFA_XSP16, literal(-4)))
          CFI (cfiCond34) ?BRET_EXT load(1, XDATA, add(CFA_XSP16, literal(-3)))
          CFI (cfiCond34) DPL0 load(1, XDATA, add(CFA_XSP16, literal(-2)))
          CFI (cfiCond34) DPH0 load(1, XDATA, add(CFA_XSP16, literal(-1)))
          CFI (cfiCond34) CFA_SP SP+-2
          CFI (cfiCond34) CFA_XSP16 add(XSP16, 55)
          CFI Block cfiCond35 Using cfiCommon0
          CFI (cfiCond35) Function _ltoa
          CFI (cfiCond35) Conditional ??CrossCallReturnLabel_47
          CFI (cfiCond35) R6 load(1, XDATA, add(CFA_XSP16, literal(-24)))
          CFI (cfiCond35) VB load(1, XDATA, add(CFA_XSP16, literal(-23)))
          CFI (cfiCond35) V0 load(1, XDATA, add(CFA_XSP16, literal(-22)))
          CFI (cfiCond35) V1 load(1, XDATA, add(CFA_XSP16, literal(-21)))
          CFI (cfiCond35) V2 load(1, XDATA, add(CFA_XSP16, literal(-20)))
          CFI (cfiCond35) V3 load(1, XDATA, add(CFA_XSP16, literal(-19)))
          CFI (cfiCond35) V4 load(1, XDATA, add(CFA_XSP16, literal(-18)))
          CFI (cfiCond35) V5 load(1, XDATA, add(CFA_XSP16, literal(-17)))
          CFI (cfiCond35) V6 load(1, XDATA, add(CFA_XSP16, literal(-16)))
          CFI (cfiCond35) V7 load(1, XDATA, add(CFA_XSP16, literal(-15)))
          CFI (cfiCond35) V8 load(1, XDATA, add(CFA_XSP16, literal(-14)))
          CFI (cfiCond35) V9 load(1, XDATA, add(CFA_XSP16, literal(-13)))
          CFI (cfiCond35) V10 load(1, XDATA, add(CFA_XSP16, literal(-12)))
          CFI (cfiCond35) V11 load(1, XDATA, add(CFA_XSP16, literal(-11)))
          CFI (cfiCond35) V12 load(1, XDATA, add(CFA_XSP16, literal(-10)))
          CFI (cfiCond35) V13 load(1, XDATA, add(CFA_XSP16, literal(-9)))
          CFI (cfiCond35) V14 load(1, XDATA, add(CFA_XSP16, literal(-8)))
          CFI (cfiCond35) V15 load(1, XDATA, add(CFA_XSP16, literal(-7)))
          CFI (cfiCond35) R7 load(1, XDATA, add(CFA_XSP16, literal(-6)))
          CFI (cfiCond35) ?RET_LOW load(1, XDATA, add(CFA_XSP16, literal(-5)))
          CFI (cfiCond35) ?RET_HIGH load(1, XDATA, add(CFA_XSP16, literal(-4)))
          CFI (cfiCond35) ?BRET_EXT load(1, XDATA, add(CFA_XSP16, literal(-3)))
          CFI (cfiCond35) DPL0 load(1, XDATA, add(CFA_XSP16, literal(-2)))
          CFI (cfiCond35) DPH0 load(1, XDATA, add(CFA_XSP16, literal(-1)))
          CFI (cfiCond35) CFA_SP SP+-2
          CFI (cfiCond35) CFA_XSP16 add(XSP16, 55)
          CFI Block cfiCond36 Using cfiCommon0
          CFI (cfiCond36) Function _ltoa
          CFI (cfiCond36) Conditional ??CrossCallReturnLabel_48
          CFI (cfiCond36) R6 load(1, XDATA, add(CFA_XSP16, literal(-24)))
          CFI (cfiCond36) VB load(1, XDATA, add(CFA_XSP16, literal(-23)))
          CFI (cfiCond36) V0 load(1, XDATA, add(CFA_XSP16, literal(-22)))
          CFI (cfiCond36) V1 load(1, XDATA, add(CFA_XSP16, literal(-21)))
          CFI (cfiCond36) V2 load(1, XDATA, add(CFA_XSP16, literal(-20)))
          CFI (cfiCond36) V3 load(1, XDATA, add(CFA_XSP16, literal(-19)))
          CFI (cfiCond36) V4 load(1, XDATA, add(CFA_XSP16, literal(-18)))
          CFI (cfiCond36) V5 load(1, XDATA, add(CFA_XSP16, literal(-17)))
          CFI (cfiCond36) V6 load(1, XDATA, add(CFA_XSP16, literal(-16)))
          CFI (cfiCond36) V7 load(1, XDATA, add(CFA_XSP16, literal(-15)))
          CFI (cfiCond36) V8 load(1, XDATA, add(CFA_XSP16, literal(-14)))
          CFI (cfiCond36) V9 load(1, XDATA, add(CFA_XSP16, literal(-13)))
          CFI (cfiCond36) V10 load(1, XDATA, add(CFA_XSP16, literal(-12)))
          CFI (cfiCond36) V11 load(1, XDATA, add(CFA_XSP16, literal(-11)))
          CFI (cfiCond36) V12 load(1, XDATA, add(CFA_XSP16, literal(-10)))
          CFI (cfiCond36) V13 load(1, XDATA, add(CFA_XSP16, literal(-9)))
          CFI (cfiCond36) V14 load(1, XDATA, add(CFA_XSP16, literal(-8)))
          CFI (cfiCond36) V15 load(1, XDATA, add(CFA_XSP16, literal(-7)))
          CFI (cfiCond36) R7 load(1, XDATA, add(CFA_XSP16, literal(-6)))
          CFI (cfiCond36) ?RET_LOW load(1, XDATA, add(CFA_XSP16, literal(-5)))
          CFI (cfiCond36) ?RET_HIGH load(1, XDATA, add(CFA_XSP16, literal(-4)))
          CFI (cfiCond36) ?BRET_EXT load(1, XDATA, add(CFA_XSP16, literal(-3)))
          CFI (cfiCond36) DPL0 load(1, XDATA, add(CFA_XSP16, literal(-2)))
          CFI (cfiCond36) DPH0 load(1, XDATA, add(CFA_XSP16, literal(-1)))
          CFI (cfiCond36) CFA_SP SP+-2
          CFI (cfiCond36) CFA_XSP16 add(XSP16, 55)
          CFI Block cfiCond37 Using cfiCommon0
          CFI (cfiCond37) Function _ltoa
          CFI (cfiCond37) Conditional ??CrossCallReturnLabel_49
          CFI (cfiCond37) R6 load(1, XDATA, add(CFA_XSP16, literal(-24)))
          CFI (cfiCond37) VB load(1, XDATA, add(CFA_XSP16, literal(-23)))
          CFI (cfiCond37) V0 load(1, XDATA, add(CFA_XSP16, literal(-22)))
          CFI (cfiCond37) V1 load(1, XDATA, add(CFA_XSP16, literal(-21)))
          CFI (cfiCond37) V2 load(1, XDATA, add(CFA_XSP16, literal(-20)))
          CFI (cfiCond37) V3 load(1, XDATA, add(CFA_XSP16, literal(-19)))
          CFI (cfiCond37) V4 load(1, XDATA, add(CFA_XSP16, literal(-18)))
          CFI (cfiCond37) V5 load(1, XDATA, add(CFA_XSP16, literal(-17)))
          CFI (cfiCond37) V6 load(1, XDATA, add(CFA_XSP16, literal(-16)))
          CFI (cfiCond37) V7 load(1, XDATA, add(CFA_XSP16, literal(-15)))
          CFI (cfiCond37) V8 load(1, XDATA, add(CFA_XSP16, literal(-14)))
          CFI (cfiCond37) V9 load(1, XDATA, add(CFA_XSP16, literal(-13)))
          CFI (cfiCond37) V10 load(1, XDATA, add(CFA_XSP16, literal(-12)))
          CFI (cfiCond37) V11 load(1, XDATA, add(CFA_XSP16, literal(-11)))
          CFI (cfiCond37) V12 load(1, XDATA, add(CFA_XSP16, literal(-10)))
          CFI (cfiCond37) V13 load(1, XDATA, add(CFA_XSP16, literal(-9)))
          CFI (cfiCond37) V14 load(1, XDATA, add(CFA_XSP16, literal(-8)))
          CFI (cfiCond37) V15 load(1, XDATA, add(CFA_XSP16, literal(-7)))
          CFI (cfiCond37) R7 load(1, XDATA, add(CFA_XSP16, literal(-6)))
          CFI (cfiCond37) ?RET_LOW load(1, XDATA, add(CFA_XSP16, literal(-5)))
          CFI (cfiCond37) ?RET_HIGH load(1, XDATA, add(CFA_XSP16, literal(-4)))
          CFI (cfiCond37) ?BRET_EXT load(1, XDATA, add(CFA_XSP16, literal(-3)))
          CFI (cfiCond37) DPL0 load(1, XDATA, add(CFA_XSP16, literal(-2)))
          CFI (cfiCond37) DPH0 load(1, XDATA, add(CFA_XSP16, literal(-1)))
          CFI (cfiCond37) CFA_SP SP+-2
          CFI (cfiCond37) CFA_XSP16 add(XSP16, 55)
          CFI Block cfiCond38 Using cfiCommon0
          CFI (cfiCond38) Function _ltoa
          CFI (cfiCond38) Conditional ??CrossCallReturnLabel_50
          CFI (cfiCond38) R6 load(1, XDATA, add(CFA_XSP16, literal(-24)))
          CFI (cfiCond38) VB load(1, XDATA, add(CFA_XSP16, literal(-23)))
          CFI (cfiCond38) V0 load(1, XDATA, add(CFA_XSP16, literal(-22)))
          CFI (cfiCond38) V1 load(1, XDATA, add(CFA_XSP16, literal(-21)))
          CFI (cfiCond38) V2 load(1, XDATA, add(CFA_XSP16, literal(-20)))
          CFI (cfiCond38) V3 load(1, XDATA, add(CFA_XSP16, literal(-19)))
          CFI (cfiCond38) V4 load(1, XDATA, add(CFA_XSP16, literal(-18)))
          CFI (cfiCond38) V5 load(1, XDATA, add(CFA_XSP16, literal(-17)))
          CFI (cfiCond38) V6 load(1, XDATA, add(CFA_XSP16, literal(-16)))
          CFI (cfiCond38) V7 load(1, XDATA, add(CFA_XSP16, literal(-15)))
          CFI (cfiCond38) V8 load(1, XDATA, add(CFA_XSP16, literal(-14)))
          CFI (cfiCond38) V9 load(1, XDATA, add(CFA_XSP16, literal(-13)))
          CFI (cfiCond38) V10 load(1, XDATA, add(CFA_XSP16, literal(-12)))
          CFI (cfiCond38) V11 load(1, XDATA, add(CFA_XSP16, literal(-11)))
          CFI (cfiCond38) V12 load(1, XDATA, add(CFA_XSP16, literal(-10)))
          CFI (cfiCond38) V13 load(1, XDATA, add(CFA_XSP16, literal(-9)))
          CFI (cfiCond38) V14 load(1, XDATA, add(CFA_XSP16, literal(-8)))
          CFI (cfiCond38) V15 load(1, XDATA, add(CFA_XSP16, literal(-7)))
          CFI (cfiCond38) R7 load(1, XDATA, add(CFA_XSP16, literal(-6)))
          CFI (cfiCond38) ?RET_LOW load(1, XDATA, add(CFA_XSP16, literal(-5)))
          CFI (cfiCond38) ?RET_HIGH load(1, XDATA, add(CFA_XSP16, literal(-4)))
          CFI (cfiCond38) ?BRET_EXT load(1, XDATA, add(CFA_XSP16, literal(-3)))
          CFI (cfiCond38) DPL0 load(1, XDATA, add(CFA_XSP16, literal(-2)))
          CFI (cfiCond38) DPH0 load(1, XDATA, add(CFA_XSP16, literal(-1)))
          CFI (cfiCond38) CFA_SP SP+-2
          CFI (cfiCond38) CFA_XSP16 add(XSP16, 55)
          CFI Block cfiCond39 Using cfiCommon0
          CFI (cfiCond39) Function _ltoa
          CFI (cfiCond39) Conditional ??CrossCallReturnLabel_51
          CFI (cfiCond39) R6 load(1, XDATA, add(CFA_XSP16, literal(-24)))
          CFI (cfiCond39) VB load(1, XDATA, add(CFA_XSP16, literal(-23)))
          CFI (cfiCond39) V0 load(1, XDATA, add(CFA_XSP16, literal(-22)))
          CFI (cfiCond39) V1 load(1, XDATA, add(CFA_XSP16, literal(-21)))
          CFI (cfiCond39) V2 load(1, XDATA, add(CFA_XSP16, literal(-20)))
          CFI (cfiCond39) V3 load(1, XDATA, add(CFA_XSP16, literal(-19)))
          CFI (cfiCond39) V4 load(1, XDATA, add(CFA_XSP16, literal(-18)))
          CFI (cfiCond39) V5 load(1, XDATA, add(CFA_XSP16, literal(-17)))
          CFI (cfiCond39) V6 load(1, XDATA, add(CFA_XSP16, literal(-16)))
          CFI (cfiCond39) V7 load(1, XDATA, add(CFA_XSP16, literal(-15)))
          CFI (cfiCond39) V8 load(1, XDATA, add(CFA_XSP16, literal(-14)))
          CFI (cfiCond39) V9 load(1, XDATA, add(CFA_XSP16, literal(-13)))
          CFI (cfiCond39) V10 load(1, XDATA, add(CFA_XSP16, literal(-12)))
          CFI (cfiCond39) V11 load(1, XDATA, add(CFA_XSP16, literal(-11)))
          CFI (cfiCond39) V12 load(1, XDATA, add(CFA_XSP16, literal(-10)))
          CFI (cfiCond39) V13 load(1, XDATA, add(CFA_XSP16, literal(-9)))
          CFI (cfiCond39) V14 load(1, XDATA, add(CFA_XSP16, literal(-8)))
          CFI (cfiCond39) V15 load(1, XDATA, add(CFA_XSP16, literal(-7)))
          CFI (cfiCond39) R7 load(1, XDATA, add(CFA_XSP16, literal(-6)))
          CFI (cfiCond39) ?RET_LOW load(1, XDATA, add(CFA_XSP16, literal(-5)))
          CFI (cfiCond39) ?RET_HIGH load(1, XDATA, add(CFA_XSP16, literal(-4)))
          CFI (cfiCond39) ?BRET_EXT load(1, XDATA, add(CFA_XSP16, literal(-3)))
          CFI (cfiCond39) DPL0 load(1, XDATA, add(CFA_XSP16, literal(-2)))
          CFI (cfiCond39) DPH0 load(1, XDATA, add(CFA_XSP16, literal(-1)))
          CFI (cfiCond39) CFA_SP SP+-2
          CFI (cfiCond39) CFA_XSP16 add(XSP16, 55)
          CFI Block cfiCond40 Using cfiCommon0
          CFI (cfiCond40) Function _ltoa
          CFI (cfiCond40) Conditional ??CrossCallReturnLabel_52
          CFI (cfiCond40) R6 load(1, XDATA, add(CFA_XSP16, literal(-24)))
          CFI (cfiCond40) VB load(1, XDATA, add(CFA_XSP16, literal(-23)))
          CFI (cfiCond40) V0 load(1, XDATA, add(CFA_XSP16, literal(-22)))
          CFI (cfiCond40) V1 load(1, XDATA, add(CFA_XSP16, literal(-21)))
          CFI (cfiCond40) V2 load(1, XDATA, add(CFA_XSP16, literal(-20)))
          CFI (cfiCond40) V3 load(1, XDATA, add(CFA_XSP16, literal(-19)))
          CFI (cfiCond40) V4 load(1, XDATA, add(CFA_XSP16, literal(-18)))
          CFI (cfiCond40) V5 load(1, XDATA, add(CFA_XSP16, literal(-17)))
          CFI (cfiCond40) V6 load(1, XDATA, add(CFA_XSP16, literal(-16)))
          CFI (cfiCond40) V7 load(1, XDATA, add(CFA_XSP16, literal(-15)))
          CFI (cfiCond40) V8 load(1, XDATA, add(CFA_XSP16, literal(-14)))
          CFI (cfiCond40) V9 load(1, XDATA, add(CFA_XSP16, literal(-13)))
          CFI (cfiCond40) V10 load(1, XDATA, add(CFA_XSP16, literal(-12)))
          CFI (cfiCond40) V11 load(1, XDATA, add(CFA_XSP16, literal(-11)))
          CFI (cfiCond40) V12 load(1, XDATA, add(CFA_XSP16, literal(-10)))
          CFI (cfiCond40) V13 load(1, XDATA, add(CFA_XSP16, literal(-9)))
          CFI (cfiCond40) V14 load(1, XDATA, add(CFA_XSP16, literal(-8)))
          CFI (cfiCond40) V15 load(1, XDATA, add(CFA_XSP16, literal(-7)))
          CFI (cfiCond40) R7 load(1, XDATA, add(CFA_XSP16, literal(-6)))
          CFI (cfiCond40) ?RET_LOW load(1, XDATA, add(CFA_XSP16, literal(-5)))
          CFI (cfiCond40) ?RET_HIGH load(1, XDATA, add(CFA_XSP16, literal(-4)))
          CFI (cfiCond40) ?BRET_EXT load(1, XDATA, add(CFA_XSP16, literal(-3)))
          CFI (cfiCond40) DPL0 load(1, XDATA, add(CFA_XSP16, literal(-2)))
          CFI (cfiCond40) DPH0 load(1, XDATA, add(CFA_XSP16, literal(-1)))
          CFI (cfiCond40) CFA_SP SP+-2
          CFI (cfiCond40) CFA_XSP16 add(XSP16, 55)
          CFI Block cfiCond41 Using cfiCommon0
          CFI (cfiCond41) Function osal_msg_find
          CFI (cfiCond41) Conditional ??CrossCallReturnLabel_53
          CFI (cfiCond41) DPL0 Frame(CFA_SP, 4)
          CFI (cfiCond41) DPH0 Frame(CFA_SP, 5)
          CFI (cfiCond41) CFA_SP SP+-7
          CFI Block cfiCond42 Using cfiCommon0
          CFI (cfiCond42) Function osal_run_system
          CFI (cfiCond42) Conditional ??CrossCallReturnLabel_54
          CFI (cfiCond42) R6 load(1, XDATA, add(CFA_XSP16, literal(-12)))
          CFI (cfiCond42) VB load(1, XDATA, add(CFA_XSP16, literal(-11)))
          CFI (cfiCond42) V0 load(1, XDATA, add(CFA_XSP16, literal(-10)))
          CFI (cfiCond42) V1 load(1, XDATA, add(CFA_XSP16, literal(-9)))
          CFI (cfiCond42) V2 load(1, XDATA, add(CFA_XSP16, literal(-8)))
          CFI (cfiCond42) V3 load(1, XDATA, add(CFA_XSP16, literal(-7)))
          CFI (cfiCond42) R7 load(1, XDATA, add(CFA_XSP16, literal(-6)))
          CFI (cfiCond42) ?RET_LOW load(1, XDATA, add(CFA_XSP16, literal(-5)))
          CFI (cfiCond42) ?RET_HIGH load(1, XDATA, add(CFA_XSP16, literal(-4)))
          CFI (cfiCond42) ?BRET_EXT load(1, XDATA, add(CFA_XSP16, literal(-3)))
          CFI (cfiCond42) DPL0 load(1, XDATA, add(CFA_XSP16, literal(-2)))
          CFI (cfiCond42) DPH0 load(1, XDATA, add(CFA_XSP16, literal(-1)))
          CFI (cfiCond42) CFA_SP SP+-2
          CFI (cfiCond42) CFA_XSP16 add(XSP16, 12)
          CFI Block cfiCond43 Using cfiCommon0
          CFI (cfiCond43) Function osal_run_system
          CFI (cfiCond43) Conditional ??CrossCallReturnLabel_55
          CFI (cfiCond43) R6 load(1, XDATA, add(CFA_XSP16, literal(-12)))
          CFI (cfiCond43) VB load(1, XDATA, add(CFA_XSP16, literal(-11)))
          CFI (cfiCond43) V0 load(1, XDATA, add(CFA_XSP16, literal(-10)))
          CFI (cfiCond43) V1 load(1, XDATA, add(CFA_XSP16, literal(-9)))
          CFI (cfiCond43) V2 load(1, XDATA, add(CFA_XSP16, literal(-8)))
          CFI (cfiCond43) V3 load(1, XDATA, add(CFA_XSP16, literal(-7)))
          CFI (cfiCond43) R7 load(1, XDATA, add(CFA_XSP16, literal(-6)))
          CFI (cfiCond43) ?RET_LOW load(1, XDATA, add(CFA_XSP16, literal(-5)))
          CFI (cfiCond43) ?RET_HIGH load(1, XDATA, add(CFA_XSP16, literal(-4)))
          CFI (cfiCond43) ?BRET_EXT load(1, XDATA, add(CFA_XSP16, literal(-3)))
          CFI (cfiCond43) DPL0 load(1, XDATA, add(CFA_XSP16, literal(-2)))
          CFI (cfiCond43) DPH0 load(1, XDATA, add(CFA_XSP16, literal(-1)))
          CFI (cfiCond43) CFA_SP SP+-2
          CFI (cfiCond43) CFA_XSP16 add(XSP16, 12)
          CFI Block cfiPicker44 Using cfiCommon1
          CFI (cfiPicker44) NoFunction
          CFI (cfiPicker44) Picker
        MOVX    A,@DPTR
        MOV     R2,A
        INC     DPTR
        MOVX    A,@DPTR
        MOV     R3,A
        RET
          CFI (cfiCond29) CFA_SP SP+0
          CFI (cfiCond30) CFA_SP SP+0
          CFI (cfiCond31) CFA_SP SP+0
          CFI (cfiCond32) CFA_SP SP+0
          CFI (cfiCond33) CFA_SP SP+0
          CFI (cfiCond34) CFA_SP SP+0
          CFI (cfiCond35) CFA_SP SP+0
          CFI (cfiCond36) CFA_SP SP+0
          CFI (cfiCond37) CFA_SP SP+0
          CFI (cfiCond38) CFA_SP SP+0
          CFI (cfiCond39) CFA_SP SP+0
          CFI (cfiCond40) CFA_SP SP+0
          CFI (cfiCond41) CFA_SP SP+-5
          CFI (cfiCond42) CFA_SP SP+0
          CFI (cfiCond43) CFA_SP SP+0
          CFI (cfiPicker44) CFA_SP SP+0
          CFI EndBlock cfiCond29
          CFI EndBlock cfiCond30
          CFI EndBlock cfiCond31
          CFI EndBlock cfiCond32
          CFI EndBlock cfiCond33
          CFI EndBlock cfiCond34
          CFI EndBlock cfiCond35
          CFI EndBlock cfiCond36
          CFI EndBlock cfiCond37
          CFI EndBlock cfiCond38
          CFI EndBlock cfiCond39
          CFI EndBlock cfiCond40
          CFI EndBlock cfiCond41
          CFI EndBlock cfiCond42
          CFI EndBlock cfiCond43
          CFI EndBlock cfiPicker44
//  385 #endif // !defined(ZBIT) && !defined(ZBIT2)
//  386 
//  387 /*********************************************************************
//  388  * @fn        osal_rand
//  389  *
//  390  * @brief    Random number generator
//  391  *
//  392  * @param   none
//  393  *
//  394  * @return  uint16 - new random number
//  395  */

        RSEG BANKED_CODE:CODE:NOROOT(0)
//  396 uint16 osal_rand( void )
osal_rand:
          CFI Block cfiBlock45 Using cfiCommon0
          CFI Function osal_rand
        CODE
//  397 {
        FUNCALL osal_rand, Onboard_rand
        LOCFRAME ISTACK, 2, STACK
        LOCFRAME PSTACK, 0, STACK
        LOCFRAME XSTACK, 0, STACK
        LOCFRAME IOVERLAY, 0, STATIC
        LOCFRAME DOVERLAY, 0, STATIC
        ARGFRAME ISTACK, 2, STACK
        ARGFRAME PSTACK, 0, STACK
        ARGFRAME XSTACK, 0, STACK
        ARGFRAME IOVERLAY, 0, STATIC
        ARGFRAME DOVERLAY, 0, STATIC
        PUSH    DPL
          CFI DPL0 Frame(CFA_SP, 4)
          CFI CFA_SP SP+-4
        PUSH    DPH
          CFI DPH0 Frame(CFA_SP, 5)
          CFI CFA_SP SP+-5
        ; Saved register size: 2
        ; Auto size: 0
//  398   return ( Onboard_rand() );
        ; Setup parameters for call to function Onboard_rand
        LCALL   `??Onboard_rand::?relay`; Banked call to: Onboard_rand
        LJMP    ?Subroutine0 & 0xFFFF
//  399 }
          CFI EndBlock cfiBlock45
//  400 
//  401 /*********************************************************************
//  402  * API FUNCTIONS
//  403  *********************************************************************/
//  404 
//  405 /*********************************************************************
//  406  * @fn      osal_msg_allocate
//  407  *
//  408  * @brief
//  409  *
//  410  *    This function is called by a task to allocate a message buffer
//  411  *    into which the task will encode the particular message it wishes
//  412  *    to send.  This common buffer scheme is used to strictly limit the
//  413  *    creation of message buffers within the system due to RAM size
//  414  *    limitations on the microprocessor.   Note that all message buffers
//  415  *    are a fixed size (at least initially).  The parameter len is kept
//  416  *    in case a message pool with varying fixed message sizes is later
//  417  *    created (for example, a pool of message buffers of size LARGE,
//  418  *    MEDIUM and SMALL could be maintained and allocated based on request
//  419  *    from the tasks).
//  420  *
//  421  *
//  422  * @param   uint8 len  - wanted buffer length
//  423  *
//  424  *
//  425  * @return  pointer to allocated buffer or NULL if allocation failed.
//  426  */

        RSEG BANKED_CODE:CODE:NOROOT(0)
//  427 uint8 * osal_msg_allocate( uint16 len )
osal_msg_allocate:
          CFI Block cfiBlock46 Using cfiCommon0
          CFI Function osal_msg_allocate
        CODE
//  428 {
        FUNCALL osal_msg_allocate, osal_mem_alloc
        LOCFRAME ISTACK, 0, STACK
        LOCFRAME PSTACK, 0, STACK
        LOCFRAME XSTACK, 10, STACK
        LOCFRAME IOVERLAY, 0, STATIC
        LOCFRAME DOVERLAY, 0, STATIC
        ARGFRAME ISTACK, 0, STACK
        ARGFRAME PSTACK, 0, STACK
        ARGFRAME XSTACK, 10, STACK
        ARGFRAME IOVERLAY, 0, STATIC
        ARGFRAME DOVERLAY, 0, STATIC
        REQUIRE ?V0
        REQUIRE ?V1
        MOV     A,#-0xa
        LCALL   ?BANKED_ENTER_XDATA
          CFI DPH0 load(1, XDATA, add(CFA_XSP16, literal(-1)))
          CFI DPL0 load(1, XDATA, add(CFA_XSP16, literal(-2)))
          CFI ?BRET_EXT load(1, XDATA, add(CFA_XSP16, literal(-3)))
          CFI ?RET_HIGH load(1, XDATA, add(CFA_XSP16, literal(-4)))
          CFI ?RET_LOW load(1, XDATA, add(CFA_XSP16, literal(-5)))
          CFI R7 load(1, XDATA, add(CFA_XSP16, literal(-6)))
          CFI V1 load(1, XDATA, add(CFA_XSP16, literal(-7)))
          CFI V0 load(1, XDATA, add(CFA_XSP16, literal(-8)))
          CFI VB load(1, XDATA, add(CFA_XSP16, literal(-9)))
          CFI R6 load(1, XDATA, add(CFA_XSP16, literal(-10)))
          CFI CFA_SP SP+0
          CFI CFA_XSP16 add(XSP16, 10)
        ; Saved register size: 10
        ; Auto size: 0
        MOV     A,R2
        MOV     R6,A
        MOV     A,R3
        MOV     R7,A
//  429   osal_msg_hdr_t *hdr;
//  430 
//  431   if ( len == 0 )
        MOV     A,R6
        ORL     A,R7
        JZ      ??osal_msg_allocate_0
//  432     return ( NULL );
//  433 
//  434   hdr = (osal_msg_hdr_t *) osal_mem_alloc( (short)(len + sizeof( osal_msg_hdr_t )) );
        ; Setup parameters for call to function osal_mem_alloc
        MOV     A,R6
        ADD     A,#0x5
        MOV     R2,A
        CLR     A
        ADDC    A,R7
        MOV     R3,A
        LCALL   `??osal_mem_alloc::?relay`; Banked call to: osal_mem_alloc
        MOV     ?V0,R2
        MOV     ?V1,R3
        MOV     R0,?V0
        MOV     R1,?V1
//  435   if ( hdr )
        MOV     A,R0
        ORL     A,R1
        JZ      ??osal_msg_allocate_0
//  436   {
//  437     hdr->next = NULL;
        MOV     DPL,R0
        MOV     DPH,R1
        CLR     A
        MOVX    @DPTR,A
        INC     DPTR
        MOVX    @DPTR,A
//  438     hdr->len = len;
        MOV     DPL,R0
        MOV     DPH,R1
        INC     DPTR
        INC     DPTR
        MOV     A,R6
        MOVX    @DPTR,A
        INC     DPTR
        MOV     A,R7
        MOVX    @DPTR,A
//  439     hdr->dest_id = TASK_NO_TASK;
        MOV     DPL,R0
        MOV     DPH,R1
        INC     DPTR
        INC     DPTR
        INC     DPTR
        INC     DPTR
        MOV     A,#-0x1
        MOVX    @DPTR,A
//  440     return ( (uint8 *) (hdr + 1) );
        MOV     A,R0
        ADD     A,#0x5
        MOV     R2,A
        CLR     A
        ADDC    A,R1
        MOV     R3,A
        SJMP    ??osal_msg_allocate_1
//  441   }
//  442   else
//  443     return ( NULL );
??osal_msg_allocate_0:
        MOV     R2,#0x0
        MOV     R3,#0x0
??osal_msg_allocate_1:
        LJMP    ?Subroutine2 & 0xFFFF
//  444 }
          CFI EndBlock cfiBlock46
//  445 
//  446 /*********************************************************************
//  447  * @fn      osal_msg_deallocate
//  448  *
//  449  * @brief
//  450  *
//  451  *    This function is used to deallocate a message buffer. This function
//  452  *    is called by a task (or processing element) after it has finished
//  453  *    processing a received message.
//  454  *
//  455  *
//  456  * @param   uint8 *msg_ptr - pointer to new message buffer
//  457  *
//  458  * @return  SUCCESS, INVALID_MSG_POINTER
//  459  */

        RSEG BANKED_CODE:CODE:NOROOT(0)
//  460 uint8 osal_msg_deallocate( uint8 *msg_ptr )
osal_msg_deallocate:
          CFI Block cfiBlock47 Using cfiCommon0
          CFI Function osal_msg_deallocate
        CODE
//  461 {
        FUNCALL osal_msg_deallocate, osal_mem_free
        LOCFRAME ISTACK, 2, STACK
        LOCFRAME PSTACK, 0, STACK
        LOCFRAME XSTACK, 0, STACK
        LOCFRAME IOVERLAY, 0, STATIC
        LOCFRAME DOVERLAY, 0, STATIC
        ARGFRAME ISTACK, 2, STACK
        ARGFRAME PSTACK, 0, STACK
        ARGFRAME XSTACK, 0, STACK
        ARGFRAME IOVERLAY, 0, STATIC
        ARGFRAME DOVERLAY, 0, STATIC
        PUSH    DPL
          CFI DPL0 Frame(CFA_SP, 4)
          CFI CFA_SP SP+-4
        PUSH    DPH
          CFI DPH0 Frame(CFA_SP, 5)
          CFI CFA_SP SP+-5
        ; Saved register size: 2
        ; Auto size: 0
//  462   uint8 *x;
//  463 
//  464   if ( msg_ptr == NULL )
        MOV     A,R2
        ORL     A,R3
        JNZ     ??osal_msg_deallocate_0
//  465     return ( INVALID_MSG_POINTER );
        MOV     R1,#0x5
        SJMP    ??osal_msg_deallocate_1
//  466 
//  467   // don't deallocate queued buffer
//  468   if ( OSAL_MSG_ID( msg_ptr ) != TASK_NO_TASK )
??osal_msg_deallocate_0:
        LCALL   ?Subroutine18 & 0xFFFF
??CrossCallReturnLabel_18:
        CPL     A
        JZ      ??osal_msg_deallocate_2
//  469     return ( MSG_BUFFER_NOT_AVAIL );
        MOV     R1,#0x4
        SJMP    ??osal_msg_deallocate_1
//  470 
//  471   x = (uint8 *)((uint8 *)msg_ptr - sizeof( osal_msg_hdr_t ));
//  472 
//  473   osal_mem_free( (void *)x );
??osal_msg_deallocate_2:
        ; Setup parameters for call to function osal_mem_free
        LCALL   ?Subroutine24 & 0xFFFF
??CrossCallReturnLabel_28:
        LCALL   `??osal_mem_free::?relay`; Banked call to: osal_mem_free
//  474 
//  475   return ( SUCCESS );
        MOV     R1,#0x0
??osal_msg_deallocate_1:
        LJMP    ?Subroutine0 & 0xFFFF
//  476 }
          CFI EndBlock cfiBlock47
//  477 
//  478 /*********************************************************************
//  479  * @fn      osal_msg_send
//  480  *
//  481  * @brief
//  482  *
//  483  *    This function is called by a task to send a command message to
//  484  *    another task or processing element.  The sending_task field must
//  485  *    refer to a valid task, since the task ID will be used
//  486  *    for the response message.  This function will also set a message
//  487  *    ready event in the destination tasks event list.
//  488  *
//  489  *
//  490  * @param   uint8 destination_task - Send msg to Task ID
//  491  * @param   uint8 *msg_ptr - pointer to new message buffer
//  492  *
//  493  * @return  SUCCESS, INVALID_TASK, INVALID_MSG_POINTER
//  494  */

        RSEG BANKED_CODE:CODE:NOROOT(0)
//  495 uint8 osal_msg_send( uint8 destination_task, uint8 *msg_ptr )
osal_msg_send:
          CFI Block cfiBlock48 Using cfiCommon0
          CFI Function osal_msg_send
        CODE
//  496 {
        FUNCALL osal_msg_send, osal_msg_enqueue_push
        LOCFRAME ISTACK, 0, STACK
        LOCFRAME PSTACK, 0, STACK
        LOCFRAME XSTACK, 9, STACK
        LOCFRAME IOVERLAY, 0, STATIC
        LOCFRAME DOVERLAY, 0, STATIC
        ARGFRAME ISTACK, 0, STACK
        ARGFRAME PSTACK, 0, STACK
        ARGFRAME XSTACK, 9, STACK
        ARGFRAME IOVERLAY, 0, STATIC
        ARGFRAME DOVERLAY, 0, STATIC
        MOV     A,#-0x9
        LCALL   ?BANKED_ENTER_XDATA
          CFI DPH0 load(1, XDATA, add(CFA_XSP16, literal(-1)))
          CFI DPL0 load(1, XDATA, add(CFA_XSP16, literal(-2)))
          CFI ?BRET_EXT load(1, XDATA, add(CFA_XSP16, literal(-3)))
          CFI ?RET_HIGH load(1, XDATA, add(CFA_XSP16, literal(-4)))
          CFI ?RET_LOW load(1, XDATA, add(CFA_XSP16, literal(-5)))
          CFI R7 load(1, XDATA, add(CFA_XSP16, literal(-6)))
          CFI V0 load(1, XDATA, add(CFA_XSP16, literal(-7)))
          CFI VB load(1, XDATA, add(CFA_XSP16, literal(-8)))
          CFI R6 load(1, XDATA, add(CFA_XSP16, literal(-9)))
          CFI CFA_SP SP+0
          CFI CFA_XSP16 add(XSP16, 9)
        ; Saved register size: 9
        ; Auto size: 0
//  497   return ( osal_msg_enqueue_push( destination_task, msg_ptr, FALSE ) );
        ; Setup parameters for call to function osal_msg_enqueue_push
        MOV     R4,#0x0
        LCALL   `??osal_msg_enqueue_push::?relay`; Banked call to: osal_msg_enqueue_push
        LJMP    ??Subroutine35_0 & 0xFFFF
//  498 }
          CFI EndBlock cfiBlock48
//  499 
//  500 /*********************************************************************
//  501  * @fn      osal_msg_push_front
//  502  *
//  503  * @brief
//  504  *
//  505  *    This function is called by a task to push a command message
//  506  *    to the head of the OSAL queue. The destination_task field
//  507  *    must refer to a valid task, since the task ID will be used to
//  508  *    send the message to. This function will also set a message
//  509  *    ready event in the destination task's event list.
//  510  *
//  511  * @param   uint8 destination_task - Send msg to Task ID
//  512  * @param   uint8 *msg_ptr - pointer to message buffer
//  513  *
//  514  * @return  SUCCESS, INVALID_TASK, INVALID_MSG_POINTER
//  515  */

        RSEG BANKED_CODE:CODE:NOROOT(0)
//  516 uint8 osal_msg_push_front( uint8 destination_task, uint8 *msg_ptr )
osal_msg_push_front:
          CFI Block cfiBlock49 Using cfiCommon0
          CFI Function osal_msg_push_front
        CODE
//  517 {
        FUNCALL osal_msg_push_front, osal_mem_free
        LOCFRAME ISTACK, 0, STACK
        LOCFRAME PSTACK, 0, STACK
        LOCFRAME XSTACK, 10, STACK
        LOCFRAME IOVERLAY, 0, STATIC
        LOCFRAME DOVERLAY, 0, STATIC
        ARGFRAME ISTACK, 0, STACK
        ARGFRAME PSTACK, 0, STACK
        ARGFRAME XSTACK, 10, STACK
        ARGFRAME IOVERLAY, 0, STATIC
        ARGFRAME DOVERLAY, 0, STATIC
        FUNCALL osal_msg_push_front, osal_mem_free
        LOCFRAME ISTACK, 0, STACK
        LOCFRAME PSTACK, 0, STACK
        LOCFRAME XSTACK, 10, STACK
        LOCFRAME IOVERLAY, 0, STATIC
        LOCFRAME DOVERLAY, 0, STATIC
        ARGFRAME ISTACK, 0, STACK
        ARGFRAME PSTACK, 0, STACK
        ARGFRAME XSTACK, 10, STACK
        ARGFRAME IOVERLAY, 0, STATIC
        ARGFRAME DOVERLAY, 0, STATIC
        REQUIRE ?V0
        REQUIRE ?V1
        MOV     A,#-0xa
        LCALL   ?BANKED_ENTER_XDATA
          CFI DPH0 load(1, XDATA, add(CFA_XSP16, literal(-1)))
          CFI DPL0 load(1, XDATA, add(CFA_XSP16, literal(-2)))
          CFI ?BRET_EXT load(1, XDATA, add(CFA_XSP16, literal(-3)))
          CFI ?RET_HIGH load(1, XDATA, add(CFA_XSP16, literal(-4)))
          CFI ?RET_LOW load(1, XDATA, add(CFA_XSP16, literal(-5)))
          CFI R7 load(1, XDATA, add(CFA_XSP16, literal(-6)))
          CFI V1 load(1, XDATA, add(CFA_XSP16, literal(-7)))
          CFI V0 load(1, XDATA, add(CFA_XSP16, literal(-8)))
          CFI VB load(1, XDATA, add(CFA_XSP16, literal(-9)))
          CFI R6 load(1, XDATA, add(CFA_XSP16, literal(-10)))
          CFI CFA_SP SP+0
          CFI CFA_XSP16 add(XSP16, 10)
        ; Saved register size: 10
        ; Auto size: 0
        MOV     ?V1,R1
//  518   return ( osal_msg_enqueue_push( destination_task, msg_ptr, TRUE ) );
        MOV     A,R2
        ORL     A,R3
        JZ      ??osal_msg_push_front_0
        LCALL   ?Subroutine15 & 0xFFFF
??CrossCallReturnLabel_12:
        MOV     ?V0,A
        MOV     DPTR,#tasksCnt
        MOVX    A,@DPTR
        MOV     R0,A
        MOV     A,?V1
        CLR     C
        SUBB    A,R0
        JC      ??osal_msg_push_front_1
        MOV     A,#-0x1
        XRL     A,?V0
        JNZ     ??osal_msg_push_front_2
        ; Setup parameters for call to function osal_mem_free
        LCALL   ?Subroutine24 & 0xFFFF
??CrossCallReturnLabel_29:
        LCALL   `??osal_mem_free::?relay`; Banked call to: osal_mem_free
??osal_msg_push_front_2:
        MOV     R1,#0x3
        SJMP    ??osal_msg_push_front_3
??osal_msg_push_front_1:
        LCALL   ?Subroutine30 & 0xFFFF
??CrossCallReturnLabel_39:
        MOVX    A,@DPTR
        MOV     R6,A
        INC     DPTR
        MOVX    A,@DPTR
        MOV     R7,A
        MOV     A,R6
        ORL     A,R7
        JNZ     ??osal_msg_push_front_4
        MOV     A,#-0x1
        XRL     A,?V0
        JNZ     ??osal_msg_push_front_4
        MOV     DPL,R4
        MOV     DPH,R5
        MOV     A,?V1
        MOVX    @DPTR,A
        MOV     R4,0xa8+0x0
        CLR     0xa8.7
        MOV     DPTR,#osal_qHead
        MOVX    A,@DPTR
        MOV     R6,A
        INC     DPTR
        MOVX    A,@DPTR
        MOV     R7,A
        MOV     DPL,R0
        MOV     DPH,R1
        MOV     A,R6
        MOVX    @DPTR,A
        INC     DPTR
        MOV     A,R7
        LCALL   ?Subroutine16 & 0xFFFF
??CrossCallReturnLabel_14:
        MOV     0xa8.7,C
        MOV     R2,0xa8+0x0
        CLR     0xa8.7
        MOV     R0,?V1
        MOV     A,R0
        ADD     A,R0
        LCALL   ?Subroutine8 & 0xFFFF
??CrossCallReturnLabel_0:
        SJMP    ??osal_msg_push_front_3
??osal_msg_push_front_4:
        MOV     A,#-0x1
        XRL     A,?V0
        JNZ     ??osal_msg_push_front_0
        ; Setup parameters for call to function osal_mem_free
        MOV     A,R0
        MOV     R2,A
        MOV     A,R1
        MOV     R3,A
        LCALL   `??osal_mem_free::?relay`; Banked call to: osal_mem_free
??osal_msg_push_front_0:
        MOV     R1,#0x5
??osal_msg_push_front_3:
          CFI EndBlock cfiBlock49
        REQUIRE ?Subroutine2
        REQUIRE _A_IEN0
        ; // Fall through to label ?Subroutine2
//  519 }

        RSEG BANKED_CODE:CODE:NOROOT(0)
?Subroutine2:
          CFI Block cfiBlock50 Using cfiCommon0
          CFI NoFunction
          CFI CFA_SP SP+0
          CFI CFA_XSP16 add(XSP16, 10)
          CFI VB load(1, XDATA, add(CFA_XSP16, literal(-9)))
          CFI DPL0 load(1, XDATA, add(CFA_XSP16, literal(-2)))
          CFI DPH0 load(1, XDATA, add(CFA_XSP16, literal(-1)))
          CFI R6 load(1, XDATA, add(CFA_XSP16, literal(-10)))
          CFI R7 load(1, XDATA, add(CFA_XSP16, literal(-6)))
          CFI V0 load(1, XDATA, add(CFA_XSP16, literal(-8)))
          CFI V1 load(1, XDATA, add(CFA_XSP16, literal(-7)))
          CFI ?BRET_EXT load(1, XDATA, add(CFA_XSP16, literal(-3)))
          CFI ?RET_HIGH load(1, XDATA, add(CFA_XSP16, literal(-4)))
          CFI ?RET_LOW load(1, XDATA, add(CFA_XSP16, literal(-5)))
        MOV     R7,#0x2
        LJMP    ?BANKED_LEAVE_XDATA
          CFI CFA_SP SP+-3
          CFI CFA_XSP16 XSP16+0
          CFI VB SameValue
          CFI DPL0 SameValue
          CFI DPH0 SameValue
          CFI R6 SameValue
          CFI R7 SameValue
          CFI V0 SameValue
          CFI V1 SameValue
          CFI ?BRET_EXT Frame(CFA_SP, 3)
          CFI ?RET_HIGH Frame(CFA_SP, 2)
          CFI ?RET_LOW Frame(CFA_SP, 1)
          CFI EndBlock cfiBlock50

        RSEG BANKED_CODE:CODE:NOROOT(0)
?Subroutine24:
          CFI Block cfiCond51 Using cfiCommon0
          CFI Function osal_msg_deallocate
          CFI Conditional ??CrossCallReturnLabel_28
          CFI DPL0 Frame(CFA_SP, 4)
          CFI DPH0 Frame(CFA_SP, 5)
          CFI CFA_SP SP+-7
          CFI Block cfiCond52 Using cfiCommon0
          CFI (cfiCond52) Function osal_msg_push_front
          CFI (cfiCond52) Conditional ??CrossCallReturnLabel_29
          CFI (cfiCond52) R6 load(1, XDATA, add(CFA_XSP16, literal(-10)))
          CFI (cfiCond52) VB load(1, XDATA, add(CFA_XSP16, literal(-9)))
          CFI (cfiCond52) V0 load(1, XDATA, add(CFA_XSP16, literal(-8)))
          CFI (cfiCond52) V1 load(1, XDATA, add(CFA_XSP16, literal(-7)))
          CFI (cfiCond52) R7 load(1, XDATA, add(CFA_XSP16, literal(-6)))
          CFI (cfiCond52) ?RET_LOW load(1, XDATA, add(CFA_XSP16, literal(-5)))
          CFI (cfiCond52) ?RET_HIGH load(1, XDATA, add(CFA_XSP16, literal(-4)))
          CFI (cfiCond52) ?BRET_EXT load(1, XDATA, add(CFA_XSP16, literal(-3)))
          CFI (cfiCond52) DPL0 load(1, XDATA, add(CFA_XSP16, literal(-2)))
          CFI (cfiCond52) DPH0 load(1, XDATA, add(CFA_XSP16, literal(-1)))
          CFI (cfiCond52) CFA_SP SP+-2
          CFI (cfiCond52) CFA_XSP16 add(XSP16, 10)
          CFI Block cfiCond53 Using cfiCommon0
          CFI (cfiCond53) Function osal_msg_enqueue_push
          CFI (cfiCond53) Conditional ??CrossCallReturnLabel_30
          CFI (cfiCond53) R6 load(1, XDATA, add(CFA_XSP16, literal(-11)))
          CFI (cfiCond53) VB load(1, XDATA, add(CFA_XSP16, literal(-10)))
          CFI (cfiCond53) V0 load(1, XDATA, add(CFA_XSP16, literal(-9)))
          CFI (cfiCond53) V1 load(1, XDATA, add(CFA_XSP16, literal(-8)))
          CFI (cfiCond53) V2 load(1, XDATA, add(CFA_XSP16, literal(-7)))
          CFI (cfiCond53) R7 load(1, XDATA, add(CFA_XSP16, literal(-6)))
          CFI (cfiCond53) ?RET_LOW load(1, XDATA, add(CFA_XSP16, literal(-5)))
          CFI (cfiCond53) ?RET_HIGH load(1, XDATA, add(CFA_XSP16, literal(-4)))
          CFI (cfiCond53) ?BRET_EXT load(1, XDATA, add(CFA_XSP16, literal(-3)))
          CFI (cfiCond53) DPL0 load(1, XDATA, add(CFA_XSP16, literal(-2)))
          CFI (cfiCond53) DPH0 load(1, XDATA, add(CFA_XSP16, literal(-1)))
          CFI (cfiCond53) CFA_SP SP+-2
          CFI (cfiCond53) CFA_XSP16 add(XSP16, 11)
          CFI Block cfiPicker54 Using cfiCommon1
          CFI (cfiPicker54) NoFunction
          CFI (cfiPicker54) Picker
        MOV     A,R2
        ADD     A,#-0x5
        MOV     R2,A
        MOV     A,R3
        ADDC    A,#-0x1
        MOV     R3,A
        RET
          CFI (cfiCond51) CFA_SP SP+-5
          CFI (cfiCond52) CFA_SP SP+0
          CFI (cfiCond53) CFA_SP SP+0
          CFI (cfiPicker54) CFA_SP SP+0
          CFI EndBlock cfiCond51
          CFI EndBlock cfiCond52
          CFI EndBlock cfiCond53
          CFI EndBlock cfiPicker54
//  520 
//  521 /*********************************************************************
//  522  * @fn      osal_msg_enqueue_push
//  523  *
//  524  * @brief
//  525  *
//  526  *    This function is called by a task to either enqueue (append to
//  527  *    queue) or push (prepend to queue) a command message to the OSAL
//  528  *    queue. The destination_task field must refer to a valid task,
//  529  *    since the task ID will be used to send the message to. This 
//  530  *    function will also set a message ready event in the destination
//  531  *    task's event list.
//  532  *
//  533  * @param   uint8 destination_task - Send msg to Task ID
//  534  * @param   uint8 *msg_ptr - pointer to message buffer
//  535  * @param   uint8 push - TRUE to push, otherwise enqueue
//  536  *
//  537  * @return  SUCCESS, INVALID_TASK, INVALID_MSG_POINTER
//  538  */

        RSEG BANKED_CODE:CODE:NOROOT(0)
//  539 static uint8 osal_msg_enqueue_push( uint8 destination_task, uint8 *msg_ptr, uint8 push )
osal_msg_enqueue_push:
          CFI Block cfiBlock55 Using cfiCommon0
          CFI Function osal_msg_enqueue_push
        CODE
//  540 {
        FUNCALL osal_msg_enqueue_push, osal_mem_free
        LOCFRAME ISTACK, 0, STACK
        LOCFRAME PSTACK, 0, STACK
        LOCFRAME XSTACK, 11, STACK
        LOCFRAME IOVERLAY, 0, STATIC
        LOCFRAME DOVERLAY, 0, STATIC
        ARGFRAME ISTACK, 0, STACK
        ARGFRAME PSTACK, 0, STACK
        ARGFRAME XSTACK, 11, STACK
        ARGFRAME IOVERLAY, 0, STATIC
        ARGFRAME DOVERLAY, 0, STATIC
        FUNCALL osal_msg_enqueue_push, osal_mem_free
        LOCFRAME ISTACK, 0, STACK
        LOCFRAME PSTACK, 0, STACK
        LOCFRAME XSTACK, 11, STACK
        LOCFRAME IOVERLAY, 0, STATIC
        LOCFRAME DOVERLAY, 0, STATIC
        ARGFRAME ISTACK, 0, STACK
        ARGFRAME PSTACK, 0, STACK
        ARGFRAME XSTACK, 11, STACK
        ARGFRAME IOVERLAY, 0, STATIC
        ARGFRAME DOVERLAY, 0, STATIC
        REQUIRE ?V0
        REQUIRE ?V1
        REQUIRE ?V2
        MOV     A,#-0xb
        LCALL   ?BANKED_ENTER_XDATA
          CFI DPH0 load(1, XDATA, add(CFA_XSP16, literal(-1)))
          CFI DPL0 load(1, XDATA, add(CFA_XSP16, literal(-2)))
          CFI ?BRET_EXT load(1, XDATA, add(CFA_XSP16, literal(-3)))
          CFI ?RET_HIGH load(1, XDATA, add(CFA_XSP16, literal(-4)))
          CFI ?RET_LOW load(1, XDATA, add(CFA_XSP16, literal(-5)))
          CFI R7 load(1, XDATA, add(CFA_XSP16, literal(-6)))
          CFI V2 load(1, XDATA, add(CFA_XSP16, literal(-7)))
          CFI V1 load(1, XDATA, add(CFA_XSP16, literal(-8)))
          CFI V0 load(1, XDATA, add(CFA_XSP16, literal(-9)))
          CFI VB load(1, XDATA, add(CFA_XSP16, literal(-10)))
          CFI R6 load(1, XDATA, add(CFA_XSP16, literal(-11)))
          CFI CFA_SP SP+0
          CFI CFA_XSP16 add(XSP16, 11)
        ; Saved register size: 11
        ; Auto size: 0
        MOV     A,R1
        MOV     R7,A
        MOV     A,R4
        MOV     R6,A
//  541   if ( msg_ptr == NULL )
        MOV     A,R2
        ORL     A,R3
        JZ      ??osal_msg_enqueue_push_0
//  542   {
//  543     return ( INVALID_MSG_POINTER );
//  544   }
//  545 
//  546   if ( destination_task >= tasksCnt )
        LCALL   ?Subroutine15 & 0xFFFF
??CrossCallReturnLabel_13:
        MOV     ?V2,A
        MOV     DPTR,#tasksCnt
        MOVX    A,@DPTR
        MOV     R0,A
        MOV     A,R7
        CLR     C
        SUBB    A,R0
        JC      ??osal_msg_enqueue_push_1
        MOV     A,#-0x1
        XRL     A,?V2
        JNZ     ??osal_msg_enqueue_push_2
        ; Setup parameters for call to function osal_mem_free
        LCALL   ?Subroutine24 & 0xFFFF
??CrossCallReturnLabel_30:
        LCALL   `??osal_mem_free::?relay`; Banked call to: osal_mem_free
//  547   {
//  548     osal_msg_deallocate( msg_ptr );
//  549     return ( INVALID_TASK );
??osal_msg_enqueue_push_2:
        MOV     R1,#0x3
        SJMP    ??CrossCallReturnLabel_1
//  550   }
//  551 
//  552   // Check the message header
//  553   if ( OSAL_MSG_NEXT( msg_ptr ) != NULL ||
//  554        OSAL_MSG_ID( msg_ptr ) != TASK_NO_TASK )
??osal_msg_enqueue_push_1:
        LCALL   ?Subroutine9 & 0xFFFF
??CrossCallReturnLabel_77:
        MOV     A,?V0
        ORL     A,?V1
        JNZ     ??osal_msg_enqueue_push_3
        MOV     A,#-0x1
        XRL     A,?V2
        JZ      ??osal_msg_enqueue_push_4
??osal_msg_enqueue_push_3:
        MOV     A,#-0x1
        XRL     A,?V2
        JNZ     ??osal_msg_enqueue_push_0
        ; Setup parameters for call to function osal_mem_free
        MOV     A,R0
        MOV     R2,A
        MOV     A,R1
        MOV     R3,A
        LCALL   `??osal_mem_free::?relay`; Banked call to: osal_mem_free
//  555   {
//  556     osal_msg_deallocate( msg_ptr );
//  557     return ( INVALID_MSG_POINTER );
??osal_msg_enqueue_push_0:
        MOV     R1,#0x5
        SJMP    ??CrossCallReturnLabel_1
//  558   }
//  559 
//  560   OSAL_MSG_ID( msg_ptr ) = destination_task;
??osal_msg_enqueue_push_4:
        MOV     A,R7
        MOV     DPL,R4
        MOV     DPH,R5
        MOVX    @DPTR,A
//  561 
//  562   if ( push == TRUE )
        MOV     A,#0x1
        XRL     A,R6
        JNZ     ??osal_msg_enqueue_push_5
//  563   {
//  564     // prepend the message
//  565     osal_msg_push( &osal_qHead, msg_ptr );
        MOV     R4,0xa8+0x0
        CLR     0xa8.7
        MOV     DPTR,#osal_qHead
        LCALL   ??Subroutine36_0 & 0xFFFF
//  566   }
??CrossCallReturnLabel_75:
        MOV     DPL,R0
        MOV     DPH,R1
        MOV     A,?V0
        MOVX    @DPTR,A
        INC     DPTR
        MOV     A,?V1
        LCALL   ?Subroutine16 & 0xFFFF
??CrossCallReturnLabel_15:
        SJMP    ??osal_msg_enqueue_push_6
//  567   else
//  568   {
//  569     // append the message
//  570     osal_msg_enqueue( &osal_qHead, msg_ptr );
??osal_msg_enqueue_push_5:
        MOV     C,0xa8.7
        CLR     A
        RLC     A
        MOV     R4,A
        CLR     0xa8.7
        MOV     DPL,R0
        MOV     DPH,R1
        CLR     A
        MOVX    @DPTR,A
        INC     DPTR
        MOVX    @DPTR,A
        MOV     DPTR,#osal_qHead
        LCALL   ??Subroutine34_0 & 0xFFFF
??CrossCallReturnLabel_65:
        JNZ     ??osal_msg_enqueue_push_7
        MOV     DPTR,#osal_qHead
        SJMP    ??osal_msg_enqueue_push_8
??osal_msg_enqueue_push_7:
        LCALL   ?Subroutine7 & 0xFFFF
??CrossCallReturnLabel_69:
        JNZ     ??osal_msg_enqueue_push_7
        MOV     DPL,?V0
        MOV     DPH,?V1
??osal_msg_enqueue_push_8:
        MOV     A,R2
        MOVX    @DPTR,A
        INC     DPTR
        MOV     A,R3
        MOVX    @DPTR,A
        MOV     A,R4
        MOV     C,0xE0 /* A   */.0
??osal_msg_enqueue_push_6:
        MOV     0xa8.7,C
//  571   }
        MOV     R2,0xa8+0x0
        CLR     0xa8.7
        MOV     A,R7
        ADD     A,R7
        LCALL   ?Subroutine8 & 0xFFFF
//  572 
//  573   // Signal the task that a message is waiting
//  574   osal_set_event( destination_task, SYS_EVENT_MSG );
//  575 
//  576   return ( SUCCESS );
??CrossCallReturnLabel_1:
          CFI EndBlock cfiBlock55
        REQUIRE ?Subroutine4
        REQUIRE _A_IEN0
        ; // Fall through to label ?Subroutine4
//  577 }

        RSEG BANKED_CODE:CODE:NOROOT(0)
?Subroutine4:
          CFI Block cfiBlock56 Using cfiCommon0
          CFI NoFunction
          CFI CFA_SP SP+0
          CFI CFA_XSP16 add(XSP16, 11)
          CFI VB load(1, XDATA, add(CFA_XSP16, literal(-10)))
          CFI DPL0 load(1, XDATA, add(CFA_XSP16, literal(-2)))
          CFI DPH0 load(1, XDATA, add(CFA_XSP16, literal(-1)))
          CFI R6 load(1, XDATA, add(CFA_XSP16, literal(-11)))
          CFI R7 load(1, XDATA, add(CFA_XSP16, literal(-6)))
          CFI V0 load(1, XDATA, add(CFA_XSP16, literal(-9)))
          CFI V1 load(1, XDATA, add(CFA_XSP16, literal(-8)))
          CFI V2 load(1, XDATA, add(CFA_XSP16, literal(-7)))
          CFI ?BRET_EXT load(1, XDATA, add(CFA_XSP16, literal(-3)))
          CFI ?RET_HIGH load(1, XDATA, add(CFA_XSP16, literal(-4)))
          CFI ?RET_LOW load(1, XDATA, add(CFA_XSP16, literal(-5)))
        MOV     R7,#0x3
        LJMP    ?BANKED_LEAVE_XDATA
          CFI CFA_SP SP+-3
          CFI CFA_XSP16 XSP16+0
          CFI VB SameValue
          CFI DPL0 SameValue
          CFI DPH0 SameValue
          CFI R6 SameValue
          CFI R7 SameValue
          CFI V0 SameValue
          CFI V1 SameValue
          CFI V2 SameValue
          CFI ?BRET_EXT Frame(CFA_SP, 3)
          CFI ?RET_HIGH Frame(CFA_SP, 2)
          CFI ?RET_LOW Frame(CFA_SP, 1)
          CFI EndBlock cfiBlock56

        RSEG BANKED_CODE:CODE:NOROOT(0)
?Subroutine16:
          CFI Block cfiCond57 Using cfiCommon0
          CFI Function osal_msg_push_front
          CFI Conditional ??CrossCallReturnLabel_14
          CFI R6 load(1, XDATA, add(CFA_XSP16, literal(-10)))
          CFI VB load(1, XDATA, add(CFA_XSP16, literal(-9)))
          CFI V0 load(1, XDATA, add(CFA_XSP16, literal(-8)))
          CFI V1 load(1, XDATA, add(CFA_XSP16, literal(-7)))
          CFI R7 load(1, XDATA, add(CFA_XSP16, literal(-6)))
          CFI ?RET_LOW load(1, XDATA, add(CFA_XSP16, literal(-5)))
          CFI ?RET_HIGH load(1, XDATA, add(CFA_XSP16, literal(-4)))
          CFI ?BRET_EXT load(1, XDATA, add(CFA_XSP16, literal(-3)))
          CFI DPL0 load(1, XDATA, add(CFA_XSP16, literal(-2)))
          CFI DPH0 load(1, XDATA, add(CFA_XSP16, literal(-1)))
          CFI CFA_SP SP+-2
          CFI CFA_XSP16 add(XSP16, 10)
          CFI Block cfiCond58 Using cfiCommon0
          CFI (cfiCond58) Function osal_msg_enqueue_push
          CFI (cfiCond58) Conditional ??CrossCallReturnLabel_15
          CFI (cfiCond58) R6 load(1, XDATA, add(CFA_XSP16, literal(-11)))
          CFI (cfiCond58) VB load(1, XDATA, add(CFA_XSP16, literal(-10)))
          CFI (cfiCond58) V0 load(1, XDATA, add(CFA_XSP16, literal(-9)))
          CFI (cfiCond58) V1 load(1, XDATA, add(CFA_XSP16, literal(-8)))
          CFI (cfiCond58) V2 load(1, XDATA, add(CFA_XSP16, literal(-7)))
          CFI (cfiCond58) R7 load(1, XDATA, add(CFA_XSP16, literal(-6)))
          CFI (cfiCond58) ?RET_LOW load(1, XDATA, add(CFA_XSP16, literal(-5)))
          CFI (cfiCond58) ?RET_HIGH load(1, XDATA, add(CFA_XSP16, literal(-4)))
          CFI (cfiCond58) ?BRET_EXT load(1, XDATA, add(CFA_XSP16, literal(-3)))
          CFI (cfiCond58) DPL0 load(1, XDATA, add(CFA_XSP16, literal(-2)))
          CFI (cfiCond58) DPH0 load(1, XDATA, add(CFA_XSP16, literal(-1)))
          CFI (cfiCond58) CFA_SP SP+-2
          CFI (cfiCond58) CFA_XSP16 add(XSP16, 11)
          CFI Block cfiPicker59 Using cfiCommon1
          CFI (cfiPicker59) NoFunction
          CFI (cfiPicker59) Picker
        MOVX    @DPTR,A
        MOV     DPTR,#osal_qHead
        MOV     A,R2
        MOVX    @DPTR,A
        INC     DPTR
        MOV     A,R3
        MOVX    @DPTR,A
        MOV     A,R4
        MOV     C,0xE0 /* A   */.7
        RET
          CFI (cfiCond57) CFA_SP SP+0
          CFI (cfiCond58) CFA_SP SP+0
          CFI (cfiPicker59) CFA_SP SP+0
          CFI EndBlock cfiCond57
          CFI EndBlock cfiCond58
          CFI EndBlock cfiPicker59

        RSEG BANKED_CODE:CODE:NOROOT(0)
?Subroutine15:
          CFI Block cfiCond60 Using cfiCommon0
          CFI Function osal_msg_push_front
          CFI Conditional ??CrossCallReturnLabel_12
          CFI R6 load(1, XDATA, add(CFA_XSP16, literal(-10)))
          CFI VB load(1, XDATA, add(CFA_XSP16, literal(-9)))
          CFI V0 load(1, XDATA, add(CFA_XSP16, literal(-8)))
          CFI V1 load(1, XDATA, add(CFA_XSP16, literal(-7)))
          CFI R7 load(1, XDATA, add(CFA_XSP16, literal(-6)))
          CFI ?RET_LOW load(1, XDATA, add(CFA_XSP16, literal(-5)))
          CFI ?RET_HIGH load(1, XDATA, add(CFA_XSP16, literal(-4)))
          CFI ?BRET_EXT load(1, XDATA, add(CFA_XSP16, literal(-3)))
          CFI DPL0 load(1, XDATA, add(CFA_XSP16, literal(-2)))
          CFI DPH0 load(1, XDATA, add(CFA_XSP16, literal(-1)))
          CFI CFA_SP SP+-2
          CFI CFA_XSP16 add(XSP16, 10)
          CFI Block cfiCond61 Using cfiCommon0
          CFI (cfiCond61) Function osal_msg_enqueue_push
          CFI (cfiCond61) Conditional ??CrossCallReturnLabel_13
          CFI (cfiCond61) R6 load(1, XDATA, add(CFA_XSP16, literal(-11)))
          CFI (cfiCond61) VB load(1, XDATA, add(CFA_XSP16, literal(-10)))
          CFI (cfiCond61) V0 load(1, XDATA, add(CFA_XSP16, literal(-9)))
          CFI (cfiCond61) V1 load(1, XDATA, add(CFA_XSP16, literal(-8)))
          CFI (cfiCond61) V2 load(1, XDATA, add(CFA_XSP16, literal(-7)))
          CFI (cfiCond61) R7 load(1, XDATA, add(CFA_XSP16, literal(-6)))
          CFI (cfiCond61) ?RET_LOW load(1, XDATA, add(CFA_XSP16, literal(-5)))
          CFI (cfiCond61) ?RET_HIGH load(1, XDATA, add(CFA_XSP16, literal(-4)))
          CFI (cfiCond61) ?BRET_EXT load(1, XDATA, add(CFA_XSP16, literal(-3)))
          CFI (cfiCond61) DPL0 load(1, XDATA, add(CFA_XSP16, literal(-2)))
          CFI (cfiCond61) DPH0 load(1, XDATA, add(CFA_XSP16, literal(-1)))
          CFI (cfiCond61) CFA_SP SP+-2
          CFI (cfiCond61) CFA_XSP16 add(XSP16, 11)
          CFI Block cfiPicker62 Using cfiCommon1
          CFI (cfiPicker62) NoFunction
          CFI (cfiPicker62) Picker
        MOV     A,R2
        ADD     A,#-0x1
        MOV     R0,A
        MOV     A,R3
        ADDC    A,#-0x1
        MOV     R1,A
        MOV     A,R0
        MOV     R4,A
        MOV     A,R1
        MOV     R5,A
        MOV     DPL,R4
        MOV     DPH,R5
        MOVX    A,@DPTR
        RET
          CFI (cfiCond60) CFA_SP SP+0
          CFI (cfiCond61) CFA_SP SP+0
          CFI (cfiPicker62) CFA_SP SP+0
          CFI EndBlock cfiCond60
          CFI EndBlock cfiCond61
          CFI EndBlock cfiPicker62

        RSEG BANKED_CODE:CODE:NOROOT(0)
?Subroutine8:
          CFI Block cfiCond63 Using cfiCommon0
          CFI Function osal_msg_push_front
          CFI Conditional ??CrossCallReturnLabel_0
          CFI R6 load(1, XDATA, add(CFA_XSP16, literal(-10)))
          CFI VB load(1, XDATA, add(CFA_XSP16, literal(-9)))
          CFI V0 load(1, XDATA, add(CFA_XSP16, literal(-8)))
          CFI V1 load(1, XDATA, add(CFA_XSP16, literal(-7)))
          CFI R7 load(1, XDATA, add(CFA_XSP16, literal(-6)))
          CFI ?RET_LOW load(1, XDATA, add(CFA_XSP16, literal(-5)))
          CFI ?RET_HIGH load(1, XDATA, add(CFA_XSP16, literal(-4)))
          CFI ?BRET_EXT load(1, XDATA, add(CFA_XSP16, literal(-3)))
          CFI DPL0 load(1, XDATA, add(CFA_XSP16, literal(-2)))
          CFI DPH0 load(1, XDATA, add(CFA_XSP16, literal(-1)))
          CFI CFA_SP SP+-2
          CFI CFA_XSP16 add(XSP16, 10)
          CFI Block cfiCond64 Using cfiCommon0
          CFI (cfiCond64) Function osal_msg_enqueue_push
          CFI (cfiCond64) Conditional ??CrossCallReturnLabel_1
          CFI (cfiCond64) R6 load(1, XDATA, add(CFA_XSP16, literal(-11)))
          CFI (cfiCond64) VB load(1, XDATA, add(CFA_XSP16, literal(-10)))
          CFI (cfiCond64) V0 load(1, XDATA, add(CFA_XSP16, literal(-9)))
          CFI (cfiCond64) V1 load(1, XDATA, add(CFA_XSP16, literal(-8)))
          CFI (cfiCond64) V2 load(1, XDATA, add(CFA_XSP16, literal(-7)))
          CFI (cfiCond64) R7 load(1, XDATA, add(CFA_XSP16, literal(-6)))
          CFI (cfiCond64) ?RET_LOW load(1, XDATA, add(CFA_XSP16, literal(-5)))
          CFI (cfiCond64) ?RET_HIGH load(1, XDATA, add(CFA_XSP16, literal(-4)))
          CFI (cfiCond64) ?BRET_EXT load(1, XDATA, add(CFA_XSP16, literal(-3)))
          CFI (cfiCond64) DPL0 load(1, XDATA, add(CFA_XSP16, literal(-2)))
          CFI (cfiCond64) DPH0 load(1, XDATA, add(CFA_XSP16, literal(-1)))
          CFI (cfiCond64) CFA_SP SP+-2
          CFI (cfiCond64) CFA_XSP16 add(XSP16, 11)
          CFI Block cfiPicker65 Using cfiCommon1
          CFI (cfiPicker65) NoFunction
          CFI (cfiPicker65) Picker
        MOV     R0,A
        CLR     A
        RLC     A
        MOV     R1,A
        MOV     DPTR,#tasksEvents
        MOVX    A,@DPTR
        ADD     A,R0
        MOV     R3,A
        INC     DPTR
        MOVX    A,@DPTR
        ADDC    A,R1
        MOV     DPL,R3
        MOV     DPH,A
        INC     DPTR
        MOVX    A,@DPTR
        ORL     A,#0x80
        MOVX    @DPTR,A
        MOV     A,R2
        MOV     C,0xE0 /* A   */.7
        MOV     0xa8.7,C
        MOV     R1,#0x0
        RET
          CFI (cfiCond63) CFA_SP SP+0
          CFI (cfiCond64) CFA_SP SP+0
          CFI (cfiPicker65) CFA_SP SP+0
          CFI EndBlock cfiCond63
          CFI EndBlock cfiCond64
          CFI EndBlock cfiPicker65
//  578 
//  579 /*********************************************************************
//  580  * @fn      osal_msg_receive
//  581  *
//  582  * @brief
//  583  *
//  584  *    This function is called by a task to retrieve a received command
//  585  *    message. The calling task must deallocate the message buffer after
//  586  *    processing the message using the osal_msg_deallocate() call.
//  587  *
//  588  * @param   uint8 task_id - receiving tasks ID
//  589  *
//  590  * @return  *uint8 - message information or NULL if no message
//  591  */

        RSEG BANKED_CODE:CODE:NOROOT(0)
//  592 uint8 *osal_msg_receive( uint8 task_id )
osal_msg_receive:
          CFI Block cfiBlock66 Using cfiCommon0
          CFI Function osal_msg_receive
        CODE
//  593 {
        REQUIRE ?V0
        REQUIRE ?V1
        REQUIRE ?V2
        REQUIRE ?V3
        REQUIRE ?V4
        MOV     A,#-0xd
        LCALL   ?BANKED_ENTER_XDATA
          CFI DPH0 load(1, XDATA, add(CFA_XSP16, literal(-1)))
          CFI DPL0 load(1, XDATA, add(CFA_XSP16, literal(-2)))
          CFI ?BRET_EXT load(1, XDATA, add(CFA_XSP16, literal(-3)))
          CFI ?RET_HIGH load(1, XDATA, add(CFA_XSP16, literal(-4)))
          CFI ?RET_LOW load(1, XDATA, add(CFA_XSP16, literal(-5)))
          CFI R7 load(1, XDATA, add(CFA_XSP16, literal(-6)))
          CFI V4 load(1, XDATA, add(CFA_XSP16, literal(-7)))
          CFI V3 load(1, XDATA, add(CFA_XSP16, literal(-8)))
          CFI V2 load(1, XDATA, add(CFA_XSP16, literal(-9)))
          CFI V1 load(1, XDATA, add(CFA_XSP16, literal(-10)))
          CFI V0 load(1, XDATA, add(CFA_XSP16, literal(-11)))
          CFI VB load(1, XDATA, add(CFA_XSP16, literal(-12)))
          CFI R6 load(1, XDATA, add(CFA_XSP16, literal(-13)))
          CFI CFA_SP SP+0
          CFI CFA_XSP16 add(XSP16, 13)
        ; Saved register size: 13
        ; Auto size: 0
        MOV     A,R1
        MOV     R4,A
//  594   osal_msg_hdr_t *listHdr;
//  595   osal_msg_hdr_t *prevHdr = NULL;
        MOV     R6,#0x0
        MOV     R7,#0x0
//  596   osal_msg_hdr_t *foundHdr = NULL;
        MOV     R2,#0x0
        MOV     R3,#0x0
//  597   halIntState_t   intState;
//  598 
//  599   // Hold off interrupts
//  600   HAL_ENTER_CRITICAL_SECTION(intState);
        MOV     C,0xa8.7
        CLR     A
        RLC     A
        MOV     R5,A
        CLR     0xa8.7
//  601 
//  602   // Point to the top of the queue
//  603   listHdr = osal_qHead;
        MOV     DPTR,#osal_qHead
        SJMP    ??CrossCallReturnLabel_56
//  604 
//  605   // Look through the queue for a message that belongs to the asking task
//  606   while ( listHdr != NULL )
//  607   {
//  608     if ( (listHdr - 1)->dest_id == task_id )
//  609     {
//  610       if ( foundHdr == NULL )
//  611       {
//  612         // Save the first one
//  613         foundHdr = listHdr;
//  614       }
//  615       else
//  616       {
//  617         // Second msg found, stop looking
//  618         break;
//  619       }
//  620     }
//  621     if ( foundHdr == NULL )
??osal_msg_receive_0:
        MOV     A,R2
        ORL     A,R3
        JNZ     ??osal_msg_receive_1
//  622     {
//  623       prevHdr = listHdr;
        MOV     A,R0
        MOV     R6,A
        MOV     A,R1
        MOV     R7,A
//  624     }
//  625     listHdr = OSAL_MSG_NEXT( listHdr );
??osal_msg_receive_1:
        MOV     A,R0
        ADD     A,#-0x5
        MOV     DPL,A
        MOV     A,R1
        LCALL   ??Subroutine33_0 & 0xFFFF
??CrossCallReturnLabel_56:
        LCALL   ??Subroutine34_0 & 0xFFFF
??CrossCallReturnLabel_64:
        JZ      ??osal_msg_receive_2
        MOV     A,R0
        ADD     A,#-0x1
        MOV     DPL,A
        MOV     A,R1
        LCALL   ??Subroutine33_0 & 0xFFFF
??CrossCallReturnLabel_57:
        MOVX    A,@DPTR
        XRL     A,R4
        JNZ     ??osal_msg_receive_0
        MOV     A,R2
        ORL     A,R3
        JNZ     ??osal_msg_receive_3
        MOV     A,R0
        MOV     R2,A
        MOV     A,R1
        MOV     R3,A
        SJMP    ??osal_msg_receive_1
//  626   }
//  627 
//  628   // Is there more than one?
//  629   if ( listHdr != NULL )
//  630   {
//  631     // Yes, Signal the task that a message is waiting
//  632     osal_set_event( task_id, SYS_EVENT_MSG );
??osal_msg_receive_3:
        MOV     DPTR,#tasksCnt
        MOVX    A,@DPTR
        MOV     R0,A
        MOV     A,R4
        CLR     C
        SUBB    A,R0
        JNC     ??osal_msg_receive_4
        LCALL   ?Subroutine11 & 0xFFFF
//  633   }
??CrossCallReturnLabel_4:
        ORL     A,#0x80
        MOVX    @DPTR,A
        MOV     A,?V0
        MOV     C,0xE0 /* A   */.7
        MOV     0xa8.7,C
        SJMP    ??osal_msg_receive_4
//  634   else
//  635   {
//  636     // No more
//  637     osal_clear_event( task_id, SYS_EVENT_MSG );
??osal_msg_receive_2:
        MOV     DPTR,#tasksCnt
        MOVX    A,@DPTR
        MOV     R0,A
        MOV     A,R4
        CLR     C
        SUBB    A,R0
        JNC     ??osal_msg_receive_5
        LCALL   ?Subroutine11 & 0xFFFF
//  638   }
??CrossCallReturnLabel_5:
        ANL     A,#0x7f
        MOVX    @DPTR,A
        MOV     A,?V0
        MOV     C,0xE0 /* A   */.7
        MOV     0xa8.7,C
//  639 
//  640   // Did we find a message?
//  641   if ( foundHdr != NULL )
??osal_msg_receive_5:
        MOV     A,R2
        ORL     A,R3
        JZ      ??osal_msg_receive_6
//  642   {
//  643     // Take out of the link list
//  644     osal_msg_extract( &osal_qHead, foundHdr, prevHdr );
??osal_msg_receive_4:
        MOV     C,0xa8.7
        CLR     A
        RLC     A
        MOV     ?V4,A
        CLR     0xa8.7
        MOV     A,R2
        ADD     A,#-0x5
        MOV     R0,A
        MOV     A,R3
        LCALL   ?Subroutine28 & 0xFFFF
??CrossCallReturnLabel_35:
        LCALL   ?Subroutine27 & 0xFFFF
??CrossCallReturnLabel_71:
        MOV     DPTR,#osal_qHead
        MOVX    A,@DPTR
        MOV     ?V2,A
        INC     DPTR
        MOVX    A,@DPTR
        MOV     ?V3,A
        MOV     A,R2
        XRL     A,?V2
        JNZ     ??osal_msg_receive_7
        MOV     A,R3
        XRL     A,?V3
??osal_msg_receive_7:
        JNZ     ??osal_msg_receive_8
        MOV     DPTR,#osal_qHead
        SJMP    ??CrossCallReturnLabel_58
??osal_msg_receive_8:
        MOV     A,R6
        ADD     A,#-0x5
        MOV     DPL,A
        MOV     A,R7
        LCALL   ??Subroutine33_0 & 0xFFFF
??CrossCallReturnLabel_58:
        MOV     A,R0
        MOVX    @DPTR,A
        INC     DPTR
        MOV     A,R1
        MOVX    @DPTR,A
        MOV     DPL,?V0
        MOV     DPH,?V1
        LCALL   ?Subroutine14 & 0xFFFF
??CrossCallReturnLabel_10:
        MOV     A,?V4
        MOV     C,0xE0 /* A   */.0
        MOV     0xa8.7,C
//  645   }
//  646 
//  647   // Release interrupts
//  648   HAL_EXIT_CRITICAL_SECTION(intState);
??osal_msg_receive_6:
        MOV     A,R5
        MOV     C,0xE0 /* A   */.0
        MOV     0xa8.7,C
//  649 
//  650   return ( (uint8*) foundHdr );
        MOV     R7,#0x5
        LJMP    ?BANKED_LEAVE_XDATA
          CFI R6 SameValue
          CFI VB SameValue
          CFI V0 SameValue
          CFI V1 SameValue
          CFI V2 SameValue
          CFI V3 SameValue
          CFI V4 SameValue
          CFI R7 SameValue
          CFI ?RET_LOW Frame(CFA_SP, 1)
          CFI ?RET_HIGH Frame(CFA_SP, 2)
          CFI ?BRET_EXT Frame(CFA_SP, 3)
          CFI DPL0 SameValue
          CFI DPH0 SameValue
          CFI CFA_SP SP+-3
          CFI CFA_XSP16 XSP16+0
          CFI EndBlock cfiBlock66
        REQUIRE _A_IEN0
//  651 }

        RSEG BANKED_CODE:CODE:NOROOT(0)
?Subroutine11:
          CFI Block cfiCond67 Using cfiCommon0
          CFI Function osal_msg_receive
          CFI Conditional ??CrossCallReturnLabel_4
          CFI R6 load(1, XDATA, add(CFA_XSP16, literal(-13)))
          CFI VB load(1, XDATA, add(CFA_XSP16, literal(-12)))
          CFI V0 load(1, XDATA, add(CFA_XSP16, literal(-11)))
          CFI V1 load(1, XDATA, add(CFA_XSP16, literal(-10)))
          CFI V2 load(1, XDATA, add(CFA_XSP16, literal(-9)))
          CFI V3 load(1, XDATA, add(CFA_XSP16, literal(-8)))
          CFI V4 load(1, XDATA, add(CFA_XSP16, literal(-7)))
          CFI R7 load(1, XDATA, add(CFA_XSP16, literal(-6)))
          CFI ?RET_LOW load(1, XDATA, add(CFA_XSP16, literal(-5)))
          CFI ?RET_HIGH load(1, XDATA, add(CFA_XSP16, literal(-4)))
          CFI ?BRET_EXT load(1, XDATA, add(CFA_XSP16, literal(-3)))
          CFI DPL0 load(1, XDATA, add(CFA_XSP16, literal(-2)))
          CFI DPH0 load(1, XDATA, add(CFA_XSP16, literal(-1)))
          CFI CFA_SP SP+-2
          CFI CFA_XSP16 add(XSP16, 13)
          CFI Block cfiCond68 Using cfiCommon0
          CFI (cfiCond68) Function osal_msg_receive
          CFI (cfiCond68) Conditional ??CrossCallReturnLabel_5
          CFI (cfiCond68) R6 load(1, XDATA, add(CFA_XSP16, literal(-13)))
          CFI (cfiCond68) VB load(1, XDATA, add(CFA_XSP16, literal(-12)))
          CFI (cfiCond68) V0 load(1, XDATA, add(CFA_XSP16, literal(-11)))
          CFI (cfiCond68) V1 load(1, XDATA, add(CFA_XSP16, literal(-10)))
          CFI (cfiCond68) V2 load(1, XDATA, add(CFA_XSP16, literal(-9)))
          CFI (cfiCond68) V3 load(1, XDATA, add(CFA_XSP16, literal(-8)))
          CFI (cfiCond68) V4 load(1, XDATA, add(CFA_XSP16, literal(-7)))
          CFI (cfiCond68) R7 load(1, XDATA, add(CFA_XSP16, literal(-6)))
          CFI (cfiCond68) ?RET_LOW load(1, XDATA, add(CFA_XSP16, literal(-5)))
          CFI (cfiCond68) ?RET_HIGH load(1, XDATA, add(CFA_XSP16, literal(-4)))
          CFI (cfiCond68) ?BRET_EXT load(1, XDATA, add(CFA_XSP16, literal(-3)))
          CFI (cfiCond68) DPL0 load(1, XDATA, add(CFA_XSP16, literal(-2)))
          CFI (cfiCond68) DPH0 load(1, XDATA, add(CFA_XSP16, literal(-1)))
          CFI (cfiCond68) CFA_SP SP+-2
          CFI (cfiCond68) CFA_XSP16 add(XSP16, 13)
          CFI Block cfiPicker69 Using cfiCommon1
          CFI (cfiPicker69) NoFunction
          CFI (cfiPicker69) Picker
        MOV     ?V0,0xa8+0x0
        CLR     0xa8.7
        MOV     A,R4
        ADD     A,R4
        MOV     R0,A
        CLR     A
        RLC     A
        MOV     R1,A
        MOV     DPTR,#tasksEvents
        MOVX    A,@DPTR
        ADD     A,R0
        MOV     ?V1,A
        INC     DPTR
        MOVX    A,@DPTR
        ADDC    A,R1
        MOV     DPL,?V1
        MOV     DPH,A
        INC     DPTR
        MOVX    A,@DPTR
        RET
          CFI (cfiCond67) CFA_SP SP+0
          CFI (cfiCond68) CFA_SP SP+0
          CFI (cfiPicker69) CFA_SP SP+0
          CFI EndBlock cfiCond67
          CFI EndBlock cfiCond68
          CFI EndBlock cfiPicker69
//  652 
//  653 /**************************************************************************************************
//  654  * @fn          osal_msg_find
//  655  *
//  656  * @brief       This function finds in place an OSAL message matching the task_id and event
//  657  *              parameters.
//  658  *
//  659  * input parameters
//  660  *
//  661  * @param       task_id - The OSAL task id that the enqueued OSAL message must match.
//  662  * @param       event - The OSAL event id that the enqueued OSAL message must match.
//  663  *
//  664  * output parameters
//  665  *
//  666  * None.
//  667  *
//  668  * @return      NULL if no match, otherwise an in place pointer to the matching OSAL message.
//  669  **************************************************************************************************
//  670  */

        RSEG BANKED_CODE:CODE:NOROOT(0)
//  671 osal_event_hdr_t *osal_msg_find(uint8 task_id, uint8 event)
osal_msg_find:
          CFI Block cfiBlock70 Using cfiCommon0
          CFI Function osal_msg_find
        CODE
//  672 {
        PUSH    DPL
          CFI DPL0 Frame(CFA_SP, 4)
          CFI CFA_SP SP+-4
        PUSH    DPH
          CFI DPH0 Frame(CFA_SP, 5)
          CFI CFA_SP SP+-5
        ; Saved register size: 2
        ; Auto size: 0
        MOV     A,R2
        MOV     R4,A
//  673   osal_msg_hdr_t *pHdr;
//  674   halIntState_t intState;
//  675 
//  676   HAL_ENTER_CRITICAL_SECTION(intState);  // Hold off interrupts.
        MOV     C,0xa8.7
        CLR     A
        RLC     A
        MOV     R0,A
        CLR     0xa8.7
//  677 
//  678   pHdr = osal_qHead;  // Point to the top of the queue.
        MOV     DPTR,#osal_qHead
        SJMP    ??CrossCallReturnLabel_59
//  679 
//  680   // Look through the queue for a message that matches the task_id and event parameters.
//  681   while (pHdr != NULL)
//  682   {
//  683     if (((pHdr-1)->dest_id == task_id) && (((osal_event_hdr_t *)pHdr)->event == event))
//  684     {
//  685       break;
//  686     }
//  687 
//  688     pHdr = OSAL_MSG_NEXT(pHdr);
??osal_msg_find_0:
        MOV     A,R2
        ADD     A,#-0x5
        MOV     DPL,A
        MOV     A,R3
        LCALL   ??Subroutine33_0 & 0xFFFF
??CrossCallReturnLabel_59:
        LCALL   ??Subroutine31_0 & 0xFFFF
??CrossCallReturnLabel_53:
        MOV     A,R2
        ORL     A,R3
        JZ      ??osal_msg_find_1
        LCALL   ?Subroutine18 & 0xFFFF
//  689   }
??CrossCallReturnLabel_19:
        XRL     A,R1
        JNZ     ??osal_msg_find_0
        MOV     DPL,R2
        MOV     DPH,R3
        MOVX    A,@DPTR
        XRL     A,R4
        JNZ     ??osal_msg_find_0
//  690 
//  691   HAL_EXIT_CRITICAL_SECTION(intState);  // Release interrupts.
??osal_msg_find_1:
        MOV     A,R0
        MOV     C,0xE0 /* A   */.0
        MOV     0xa8.7,C
//  692 
//  693   return (osal_event_hdr_t *)pHdr;
          CFI EndBlock cfiBlock70
        REQUIRE ?Subroutine0
        REQUIRE _A_IEN0
        ; // Fall through to label ?Subroutine0
//  694 }

        RSEG BANKED_CODE:CODE:NOROOT(0)
?Subroutine0:
          CFI Block cfiBlock71 Using cfiCommon0
          CFI NoFunction
          CFI CFA_SP SP+-5
          CFI DPL0 Frame(CFA_SP, 4)
          CFI DPH0 Frame(CFA_SP, 5)
        POP     DPH
          CFI CFA_SP SP+-4
          CFI DPH0 SameValue
        POP     DPL
          CFI CFA_SP SP+-3
          CFI DPL0 SameValue
        LJMP    ?BRET
          CFI EndBlock cfiBlock71

        RSEG BANKED_CODE:CODE:NOROOT(0)
?Subroutine18:
          CFI Block cfiCond72 Using cfiCommon0
          CFI Function osal_msg_deallocate
          CFI Conditional ??CrossCallReturnLabel_18
          CFI DPL0 Frame(CFA_SP, 4)
          CFI DPH0 Frame(CFA_SP, 5)
          CFI CFA_SP SP+-7
          CFI Block cfiCond73 Using cfiCommon0
          CFI (cfiCond73) Function osal_msg_find
          CFI (cfiCond73) Conditional ??CrossCallReturnLabel_19
          CFI (cfiCond73) DPL0 Frame(CFA_SP, 4)
          CFI (cfiCond73) DPH0 Frame(CFA_SP, 5)
          CFI (cfiCond73) CFA_SP SP+-7
          CFI Block cfiPicker74 Using cfiCommon1
          CFI (cfiPicker74) NoFunction
          CFI (cfiPicker74) Picker
        LCALL   ?Subroutine29 & 0xFFFF
??CrossCallReturnLabel_38:
        MOVX    A,@DPTR
        RET
          CFI (cfiCond72) CFA_SP SP+-5
          CFI (cfiCond73) CFA_SP SP+-5
          CFI (cfiPicker74) CFA_SP SP+0
          CFI EndBlock cfiCond72
          CFI EndBlock cfiCond73
          CFI EndBlock cfiPicker74
//  695 
//  696 /**************************************************************************************************
//  697  * @fn          osal_msg_count
//  698  *
//  699  * @brief       This function counts the number of messages, in the OSAL message queue with a
//  700  *              a given task ID and message event type.
//  701  *
//  702  * input parameters
//  703  *
//  704  * @param       task_id - The OSAL task id that the enqueued OSAL message must match.
//  705  * @param       event - The OSAL event id that the enqueued OSAL message must match. 0xFF for 
//  706  *              all events.
//  707  *
//  708  * output parameters
//  709  *
//  710  * None.
//  711  *
//  712  * @return      The number of OSAL messages that match the task ID and Event.
//  713  **************************************************************************************************
//  714  */

        RSEG BANKED_CODE:CODE:NOROOT(0)
//  715 uint8 osal_msg_count( uint8 task_id, uint8 event )
osal_msg_count:
          CFI Block cfiBlock75 Using cfiCommon0
          CFI Function osal_msg_count
        CODE
//  716 {
        MOV     A,#-0x9
        LCALL   ?BANKED_ENTER_XDATA
          CFI DPH0 load(1, XDATA, add(CFA_XSP16, literal(-1)))
          CFI DPL0 load(1, XDATA, add(CFA_XSP16, literal(-2)))
          CFI ?BRET_EXT load(1, XDATA, add(CFA_XSP16, literal(-3)))
          CFI ?RET_HIGH load(1, XDATA, add(CFA_XSP16, literal(-4)))
          CFI ?RET_LOW load(1, XDATA, add(CFA_XSP16, literal(-5)))
          CFI R7 load(1, XDATA, add(CFA_XSP16, literal(-6)))
          CFI V0 load(1, XDATA, add(CFA_XSP16, literal(-7)))
          CFI VB load(1, XDATA, add(CFA_XSP16, literal(-8)))
          CFI R6 load(1, XDATA, add(CFA_XSP16, literal(-9)))
          CFI CFA_SP SP+0
          CFI CFA_XSP16 add(XSP16, 9)
        ; Saved register size: 9
        ; Auto size: 0
        MOV     A,R1
        MOV     R3,A
//  717   uint8 count = 0;
        MOV     R1,#0x0
//  718   osal_msg_hdr_t *pHdr;
//  719   halIntState_t intState;
//  720 
//  721   HAL_ENTER_CRITICAL_SECTION(intState);  // Hold off interrupts.
        MOV     C,0xa8.7
        CLR     A
        RLC     A
        MOV     R0,A
        CLR     0xa8.7
//  722 
//  723   pHdr = osal_qHead;  // Point to the top of the queue.
        MOV     DPTR,#osal_qHead
        SJMP    ??CrossCallReturnLabel_61
//  724 
//  725   // Look through the queue for a message that matches the task_id and event parameters.
//  726   while (pHdr != NULL)
//  727   {
//  728     if ( ((pHdr-1)->dest_id == task_id) 
//  729         && ((event == 0xFF) || (((osal_event_hdr_t *)pHdr)->event == event)) )
??osal_msg_count_0:
        LCALL   ?Subroutine20 & 0xFFFF
??CrossCallReturnLabel_22:
        MOVX    A,@DPTR
        XRL     A,R3
        JNZ     ??osal_msg_count_1
        MOV     A,#-0x1
        XRL     A,R2
        JZ      ??osal_msg_count_2
        MOV     DPL,R4
        MOV     DPH,R5
        MOVX    A,@DPTR
        XRL     A,R2
        JNZ     ??osal_msg_count_1
//  730     {
//  731       count++;
??osal_msg_count_2:
        INC     R1
//  732     }
//  733 
//  734     pHdr = OSAL_MSG_NEXT(pHdr);
??osal_msg_count_1:
        LCALL   ?Subroutine23 & 0xFFFF
//  735   }
??CrossCallReturnLabel_61:
        MOVX    A,@DPTR
        MOV     R4,A
        INC     DPTR
        MOVX    A,@DPTR
        MOV     R5,A
        MOV     A,R4
        ORL     A,R5
        JNZ     ??osal_msg_count_0
//  736 
//  737   HAL_EXIT_CRITICAL_SECTION(intState);  // Release interrupts.
        MOV     A,R0
          CFI EndBlock cfiBlock75
        REQUIRE ?Subroutine5
        REQUIRE _A_IEN0
        ; // Fall through to label ?Subroutine5
//  738 
//  739   return ( count );
//  740 }

        RSEG BANKED_CODE:CODE:NOROOT(0)
?Subroutine5:
          CFI Block cfiBlock76 Using cfiCommon0
          CFI NoFunction
          CFI CFA_SP SP+0
          CFI CFA_XSP16 add(XSP16, 9)
          CFI VB load(1, XDATA, add(CFA_XSP16, literal(-8)))
          CFI DPL0 load(1, XDATA, add(CFA_XSP16, literal(-2)))
          CFI DPH0 load(1, XDATA, add(CFA_XSP16, literal(-1)))
          CFI R6 load(1, XDATA, add(CFA_XSP16, literal(-9)))
          CFI R7 load(1, XDATA, add(CFA_XSP16, literal(-6)))
          CFI V0 load(1, XDATA, add(CFA_XSP16, literal(-7)))
          CFI ?BRET_EXT load(1, XDATA, add(CFA_XSP16, literal(-3)))
          CFI ?RET_HIGH load(1, XDATA, add(CFA_XSP16, literal(-4)))
          CFI ?RET_LOW load(1, XDATA, add(CFA_XSP16, literal(-5)))
        MOV     C,0xE0 /* A   */.0
          CFI EndBlock cfiBlock76
        REQUIRE ??Subroutine32_0
        ; // Fall through to label ??Subroutine32_0

        RSEG BANKED_CODE:CODE:NOROOT(0)
??Subroutine32_0:
          CFI Block cfiBlock77 Using cfiCommon0
          CFI NoFunction
          CFI CFA_SP SP+0
          CFI CFA_XSP16 add(XSP16, 9)
          CFI VB load(1, XDATA, add(CFA_XSP16, literal(-8)))
          CFI DPL0 load(1, XDATA, add(CFA_XSP16, literal(-2)))
          CFI DPH0 load(1, XDATA, add(CFA_XSP16, literal(-1)))
          CFI R6 load(1, XDATA, add(CFA_XSP16, literal(-9)))
          CFI R7 load(1, XDATA, add(CFA_XSP16, literal(-6)))
          CFI V0 load(1, XDATA, add(CFA_XSP16, literal(-7)))
          CFI ?BRET_EXT load(1, XDATA, add(CFA_XSP16, literal(-3)))
          CFI ?RET_HIGH load(1, XDATA, add(CFA_XSP16, literal(-4)))
          CFI ?RET_LOW load(1, XDATA, add(CFA_XSP16, literal(-5)))
        MOV     0xa8.7,C
        SJMP    ??Subroutine35_0
          CFI EndBlock cfiBlock77

        RSEG BANKED_CODE:CODE:NOROOT(0)
?Subroutine23:
          CFI Block cfiCond78 Using cfiCommon0
          CFI Function osal_msg_count
          CFI Conditional ??CrossCallReturnLabel_61
          CFI R6 load(1, XDATA, add(CFA_XSP16, literal(-9)))
          CFI VB load(1, XDATA, add(CFA_XSP16, literal(-8)))
          CFI V0 load(1, XDATA, add(CFA_XSP16, literal(-7)))
          CFI R7 load(1, XDATA, add(CFA_XSP16, literal(-6)))
          CFI ?RET_LOW load(1, XDATA, add(CFA_XSP16, literal(-5)))
          CFI ?RET_HIGH load(1, XDATA, add(CFA_XSP16, literal(-4)))
          CFI ?BRET_EXT load(1, XDATA, add(CFA_XSP16, literal(-3)))
          CFI DPL0 load(1, XDATA, add(CFA_XSP16, literal(-2)))
          CFI DPH0 load(1, XDATA, add(CFA_XSP16, literal(-1)))
          CFI CFA_SP SP+-2
          CFI CFA_XSP16 add(XSP16, 9)
          CFI Block cfiCond79 Using cfiCommon0
          CFI (cfiCond79) Function osal_msg_enqueue
          CFI (cfiCond79) Conditional ??CrossCallReturnLabel_62
          CFI (cfiCond79) R6 load(1, XDATA, add(CFA_XSP16, literal(-9)))
          CFI (cfiCond79) VB load(1, XDATA, add(CFA_XSP16, literal(-8)))
          CFI (cfiCond79) V0 load(1, XDATA, add(CFA_XSP16, literal(-7)))
          CFI (cfiCond79) R7 load(1, XDATA, add(CFA_XSP16, literal(-6)))
          CFI (cfiCond79) ?RET_LOW load(1, XDATA, add(CFA_XSP16, literal(-5)))
          CFI (cfiCond79) ?RET_HIGH load(1, XDATA, add(CFA_XSP16, literal(-4)))
          CFI (cfiCond79) ?BRET_EXT load(1, XDATA, add(CFA_XSP16, literal(-3)))
          CFI (cfiCond79) DPL0 load(1, XDATA, add(CFA_XSP16, literal(-2)))
          CFI (cfiCond79) DPH0 load(1, XDATA, add(CFA_XSP16, literal(-1)))
          CFI (cfiCond79) CFA_SP SP+-2
          CFI (cfiCond79) CFA_XSP16 add(XSP16, 9)
          CFI Block cfiCond80 Using cfiCommon0
          CFI (cfiCond80) Function osal_msg_push
          CFI (cfiCond80) Conditional ??CrossCallReturnLabel_63
          CFI (cfiCond80) R6 load(1, XDATA, add(CFA_XSP16, literal(-9)))
          CFI (cfiCond80) VB load(1, XDATA, add(CFA_XSP16, literal(-8)))
          CFI (cfiCond80) V0 load(1, XDATA, add(CFA_XSP16, literal(-7)))
          CFI (cfiCond80) R7 load(1, XDATA, add(CFA_XSP16, literal(-6)))
          CFI (cfiCond80) ?RET_LOW load(1, XDATA, add(CFA_XSP16, literal(-5)))
          CFI (cfiCond80) ?RET_HIGH load(1, XDATA, add(CFA_XSP16, literal(-4)))
          CFI (cfiCond80) ?BRET_EXT load(1, XDATA, add(CFA_XSP16, literal(-3)))
          CFI (cfiCond80) DPL0 load(1, XDATA, add(CFA_XSP16, literal(-2)))
          CFI (cfiCond80) DPH0 load(1, XDATA, add(CFA_XSP16, literal(-1)))
          CFI (cfiCond80) CFA_SP SP+-2
          CFI (cfiCond80) CFA_XSP16 add(XSP16, 9)
          CFI Block cfiPicker81 Using cfiCommon1
          CFI (cfiPicker81) NoFunction
          CFI (cfiPicker81) Picker
        MOV     A,R4
        ADD     A,#-0x5
        MOV     DPL,A
        MOV     A,R5
          CFI EndBlock cfiCond78
          CFI EndBlock cfiCond79
          CFI EndBlock cfiCond80
          CFI EndBlock cfiPicker81
        REQUIRE ??Subroutine33_0
        ; // Fall through to label ??Subroutine33_0

        RSEG BANKED_CODE:CODE:NOROOT(0)
??Subroutine33_0:
          CFI Block cfiCond82 Using cfiCommon0
          CFI Function osal_msg_receive
          CFI Conditional ??CrossCallReturnLabel_56
          CFI R6 load(1, XDATA, add(CFA_XSP16, literal(-13)))
          CFI VB load(1, XDATA, add(CFA_XSP16, literal(-12)))
          CFI V0 load(1, XDATA, add(CFA_XSP16, literal(-11)))
          CFI V1 load(1, XDATA, add(CFA_XSP16, literal(-10)))
          CFI V2 load(1, XDATA, add(CFA_XSP16, literal(-9)))
          CFI V3 load(1, XDATA, add(CFA_XSP16, literal(-8)))
          CFI V4 load(1, XDATA, add(CFA_XSP16, literal(-7)))
          CFI R7 load(1, XDATA, add(CFA_XSP16, literal(-6)))
          CFI ?RET_LOW load(1, XDATA, add(CFA_XSP16, literal(-5)))
          CFI ?RET_HIGH load(1, XDATA, add(CFA_XSP16, literal(-4)))
          CFI ?BRET_EXT load(1, XDATA, add(CFA_XSP16, literal(-3)))
          CFI DPL0 load(1, XDATA, add(CFA_XSP16, literal(-2)))
          CFI DPH0 load(1, XDATA, add(CFA_XSP16, literal(-1)))
          CFI CFA_SP SP+-2
          CFI CFA_XSP16 add(XSP16, 13)
          CFI Block cfiCond83 Using cfiCommon0
          CFI (cfiCond83) Function osal_msg_receive
          CFI (cfiCond83) Conditional ??CrossCallReturnLabel_57
          CFI (cfiCond83) R6 load(1, XDATA, add(CFA_XSP16, literal(-13)))
          CFI (cfiCond83) VB load(1, XDATA, add(CFA_XSP16, literal(-12)))
          CFI (cfiCond83) V0 load(1, XDATA, add(CFA_XSP16, literal(-11)))
          CFI (cfiCond83) V1 load(1, XDATA, add(CFA_XSP16, literal(-10)))
          CFI (cfiCond83) V2 load(1, XDATA, add(CFA_XSP16, literal(-9)))
          CFI (cfiCond83) V3 load(1, XDATA, add(CFA_XSP16, literal(-8)))
          CFI (cfiCond83) V4 load(1, XDATA, add(CFA_XSP16, literal(-7)))
          CFI (cfiCond83) R7 load(1, XDATA, add(CFA_XSP16, literal(-6)))
          CFI (cfiCond83) ?RET_LOW load(1, XDATA, add(CFA_XSP16, literal(-5)))
          CFI (cfiCond83) ?RET_HIGH load(1, XDATA, add(CFA_XSP16, literal(-4)))
          CFI (cfiCond83) ?BRET_EXT load(1, XDATA, add(CFA_XSP16, literal(-3)))
          CFI (cfiCond83) DPL0 load(1, XDATA, add(CFA_XSP16, literal(-2)))
          CFI (cfiCond83) DPH0 load(1, XDATA, add(CFA_XSP16, literal(-1)))
          CFI (cfiCond83) CFA_SP SP+-2
          CFI (cfiCond83) CFA_XSP16 add(XSP16, 13)
          CFI Block cfiCond84 Using cfiCommon0
          CFI (cfiCond84) Function osal_msg_receive
          CFI (cfiCond84) Conditional ??CrossCallReturnLabel_58
          CFI (cfiCond84) R6 load(1, XDATA, add(CFA_XSP16, literal(-13)))
          CFI (cfiCond84) VB load(1, XDATA, add(CFA_XSP16, literal(-12)))
          CFI (cfiCond84) V0 load(1, XDATA, add(CFA_XSP16, literal(-11)))
          CFI (cfiCond84) V1 load(1, XDATA, add(CFA_XSP16, literal(-10)))
          CFI (cfiCond84) V2 load(1, XDATA, add(CFA_XSP16, literal(-9)))
          CFI (cfiCond84) V3 load(1, XDATA, add(CFA_XSP16, literal(-8)))
          CFI (cfiCond84) V4 load(1, XDATA, add(CFA_XSP16, literal(-7)))
          CFI (cfiCond84) R7 load(1, XDATA, add(CFA_XSP16, literal(-6)))
          CFI (cfiCond84) ?RET_LOW load(1, XDATA, add(CFA_XSP16, literal(-5)))
          CFI (cfiCond84) ?RET_HIGH load(1, XDATA, add(CFA_XSP16, literal(-4)))
          CFI (cfiCond84) ?BRET_EXT load(1, XDATA, add(CFA_XSP16, literal(-3)))
          CFI (cfiCond84) DPL0 load(1, XDATA, add(CFA_XSP16, literal(-2)))
          CFI (cfiCond84) DPH0 load(1, XDATA, add(CFA_XSP16, literal(-1)))
          CFI (cfiCond84) CFA_SP SP+-2
          CFI (cfiCond84) CFA_XSP16 add(XSP16, 13)
          CFI Block cfiCond85 Using cfiCommon0
          CFI (cfiCond85) Function osal_msg_find
          CFI (cfiCond85) Conditional ??CrossCallReturnLabel_59
          CFI (cfiCond85) DPL0 Frame(CFA_SP, 4)
          CFI (cfiCond85) DPH0 Frame(CFA_SP, 5)
          CFI (cfiCond85) CFA_SP SP+-7
          CFI Block cfiCond86 Using cfiCommon0
          CFI (cfiCond86) Function osal_msg_extract
          CFI (cfiCond86) Conditional ??CrossCallReturnLabel_60
          CFI (cfiCond86) R6 load(1, XDATA, add(CFA_XSP16, literal(-11)))
          CFI (cfiCond86) VB load(1, XDATA, add(CFA_XSP16, literal(-10)))
          CFI (cfiCond86) V0 load(1, XDATA, add(CFA_XSP16, literal(-9)))
          CFI (cfiCond86) V1 load(1, XDATA, add(CFA_XSP16, literal(-8)))
          CFI (cfiCond86) V2 load(1, XDATA, add(CFA_XSP16, literal(-7)))
          CFI (cfiCond86) R7 load(1, XDATA, add(CFA_XSP16, literal(-6)))
          CFI (cfiCond86) ?RET_LOW load(1, XDATA, add(CFA_XSP16, literal(-5)))
          CFI (cfiCond86) ?RET_HIGH load(1, XDATA, add(CFA_XSP16, literal(-4)))
          CFI (cfiCond86) ?BRET_EXT load(1, XDATA, add(CFA_XSP16, literal(-3)))
          CFI (cfiCond86) DPL0 load(1, XDATA, add(CFA_XSP16, literal(-2)))
          CFI (cfiCond86) DPH0 load(1, XDATA, add(CFA_XSP16, literal(-1)))
          CFI (cfiCond86) CFA_SP SP+-2
          CFI (cfiCond86) CFA_XSP16 add(XSP16, 11)
          CFI Block cfiCond87 Using cfiCommon0
          CFI (cfiCond87) Function osal_msg_count
          CFI (cfiCond87) Conditional ??CrossCallReturnLabel_61
          CFI (cfiCond87) R6 load(1, XDATA, add(CFA_XSP16, literal(-9)))
          CFI (cfiCond87) VB load(1, XDATA, add(CFA_XSP16, literal(-8)))
          CFI (cfiCond87) V0 load(1, XDATA, add(CFA_XSP16, literal(-7)))
          CFI (cfiCond87) R7 load(1, XDATA, add(CFA_XSP16, literal(-6)))
          CFI (cfiCond87) ?RET_LOW load(1, XDATA, add(CFA_XSP16, literal(-5)))
          CFI (cfiCond87) ?RET_HIGH load(1, XDATA, add(CFA_XSP16, literal(-4)))
          CFI (cfiCond87) ?BRET_EXT load(1, XDATA, add(CFA_XSP16, literal(-3)))
          CFI (cfiCond87) DPL0 load(1, XDATA, add(CFA_XSP16, literal(-2)))
          CFI (cfiCond87) DPH0 load(1, XDATA, add(CFA_XSP16, literal(-1)))
          CFI (cfiCond87) CFA_SP SP+-2
          CFI (cfiCond87) CFA_XSP16 add(XSP16, 9)
          CFI Block cfiCond88 Using cfiCommon0
          CFI (cfiCond88) Function osal_msg_enqueue
          CFI (cfiCond88) Conditional ??CrossCallReturnLabel_62
          CFI (cfiCond88) R6 load(1, XDATA, add(CFA_XSP16, literal(-9)))
          CFI (cfiCond88) VB load(1, XDATA, add(CFA_XSP16, literal(-8)))
          CFI (cfiCond88) V0 load(1, XDATA, add(CFA_XSP16, literal(-7)))
          CFI (cfiCond88) R7 load(1, XDATA, add(CFA_XSP16, literal(-6)))
          CFI (cfiCond88) ?RET_LOW load(1, XDATA, add(CFA_XSP16, literal(-5)))
          CFI (cfiCond88) ?RET_HIGH load(1, XDATA, add(CFA_XSP16, literal(-4)))
          CFI (cfiCond88) ?BRET_EXT load(1, XDATA, add(CFA_XSP16, literal(-3)))
          CFI (cfiCond88) DPL0 load(1, XDATA, add(CFA_XSP16, literal(-2)))
          CFI (cfiCond88) DPH0 load(1, XDATA, add(CFA_XSP16, literal(-1)))
          CFI (cfiCond88) CFA_SP SP+-2
          CFI (cfiCond88) CFA_XSP16 add(XSP16, 9)
          CFI Block cfiCond89 Using cfiCommon0
          CFI (cfiCond89) Function osal_msg_push
          CFI (cfiCond89) Conditional ??CrossCallReturnLabel_63
          CFI (cfiCond89) R6 load(1, XDATA, add(CFA_XSP16, literal(-9)))
          CFI (cfiCond89) VB load(1, XDATA, add(CFA_XSP16, literal(-8)))
          CFI (cfiCond89) V0 load(1, XDATA, add(CFA_XSP16, literal(-7)))
          CFI (cfiCond89) R7 load(1, XDATA, add(CFA_XSP16, literal(-6)))
          CFI (cfiCond89) ?RET_LOW load(1, XDATA, add(CFA_XSP16, literal(-5)))
          CFI (cfiCond89) ?RET_HIGH load(1, XDATA, add(CFA_XSP16, literal(-4)))
          CFI (cfiCond89) ?BRET_EXT load(1, XDATA, add(CFA_XSP16, literal(-3)))
          CFI (cfiCond89) DPL0 load(1, XDATA, add(CFA_XSP16, literal(-2)))
          CFI (cfiCond89) DPH0 load(1, XDATA, add(CFA_XSP16, literal(-1)))
          CFI (cfiCond89) CFA_SP SP+-2
          CFI (cfiCond89) CFA_XSP16 add(XSP16, 9)
          CFI Block cfiPicker90 Using cfiCommon1
          CFI (cfiPicker90) NoFunction
          CFI (cfiPicker90) Picker
        ADDC    A,#-0x1
        MOV     DPH,A
        RET
          CFI (cfiCond82) CFA_SP SP+0
          CFI (cfiCond83) CFA_SP SP+0
          CFI (cfiCond84) CFA_SP SP+0
          CFI (cfiCond85) CFA_SP SP+-5
          CFI (cfiCond86) CFA_SP SP+0
          CFI (cfiCond87) CFA_SP SP+0
          CFI (cfiCond88) CFA_SP SP+0
          CFI (cfiCond89) CFA_SP SP+0
          CFI (cfiPicker90) CFA_SP SP+0
          CFI EndBlock cfiCond82
          CFI EndBlock cfiCond83
          CFI EndBlock cfiCond84
          CFI EndBlock cfiCond85
          CFI EndBlock cfiCond86
          CFI EndBlock cfiCond87
          CFI EndBlock cfiCond88
          CFI EndBlock cfiCond89
          CFI EndBlock cfiPicker90
//  741 
//  742 /*********************************************************************
//  743  * @fn      osal_msg_enqueue
//  744  *
//  745  * @brief
//  746  *
//  747  *    This function enqueues an OSAL message into an OSAL queue.
//  748  *
//  749  * @param   osal_msg_q_t *q_ptr - OSAL queue
//  750  * @param   void *msg_ptr  - OSAL message
//  751  *
//  752  * @return  none
//  753  */

        RSEG BANKED_CODE:CODE:NOROOT(0)
//  754 void osal_msg_enqueue( osal_msg_q_t *q_ptr, void *msg_ptr )
osal_msg_enqueue:
          CFI Block cfiBlock91 Using cfiCommon0
          CFI Function osal_msg_enqueue
        CODE
//  755 {
        MOV     A,#-0x9
        LCALL   ?BANKED_ENTER_XDATA
          CFI DPH0 load(1, XDATA, add(CFA_XSP16, literal(-1)))
          CFI DPL0 load(1, XDATA, add(CFA_XSP16, literal(-2)))
          CFI ?BRET_EXT load(1, XDATA, add(CFA_XSP16, literal(-3)))
          CFI ?RET_HIGH load(1, XDATA, add(CFA_XSP16, literal(-4)))
          CFI ?RET_LOW load(1, XDATA, add(CFA_XSP16, literal(-5)))
          CFI R7 load(1, XDATA, add(CFA_XSP16, literal(-6)))
          CFI V0 load(1, XDATA, add(CFA_XSP16, literal(-7)))
          CFI VB load(1, XDATA, add(CFA_XSP16, literal(-8)))
          CFI R6 load(1, XDATA, add(CFA_XSP16, literal(-9)))
          CFI CFA_SP SP+0
          CFI CFA_XSP16 add(XSP16, 9)
        ; Saved register size: 9
        ; Auto size: 0
//  756   void *list;
//  757   halIntState_t intState;
//  758 
//  759   // Hold off interrupts
//  760   HAL_ENTER_CRITICAL_SECTION(intState);
        MOV     C,0xa8.7
        CLR     A
        RLC     A
        MOV     R6,A
        CLR     0xa8.7
//  761 
//  762   OSAL_MSG_NEXT( msg_ptr ) = NULL;
        LCALL   ?Subroutine23 & 0xFFFF
??CrossCallReturnLabel_62:
        CLR     A
        MOVX    @DPTR,A
        INC     DPTR
        MOVX    @DPTR,A
//  763   // If first message in queue
//  764   if ( *q_ptr == NULL )
        SJMP    ??osal_msg_enqueue_0
//  765   {
//  766     *q_ptr = msg_ptr;
//  767   }
//  768   else
//  769   {
//  770     // Find end of queue
//  771     for ( list = *q_ptr; OSAL_MSG_NEXT( list ) != NULL; list = OSAL_MSG_NEXT( list ) );
??osal_msg_enqueue_1:
        MOV     A,R0
        ADD     A,#-0x5
        MOV     R0,A
        MOV     A,R1
        ADDC    A,#-0x1
        MOV     R1,A
        MOV     A,R0
        MOV     R2,A
        MOV     A,R1
        MOV     R3,A
??osal_msg_enqueue_0:
        MOV     DPL,R2
        MOV     DPH,R3
        LCALL   ??Subroutine34_0 & 0xFFFF
??CrossCallReturnLabel_66:
        JNZ     ??osal_msg_enqueue_1
//  772 
//  773     // Add message to end of queue
//  774     OSAL_MSG_NEXT( list ) = msg_ptr;
        MOV     DPL,R2
        MOV     DPH,R3
        MOV     A,R4
        MOVX    @DPTR,A
        INC     DPTR
        MOV     A,R5
        MOVX    @DPTR,A
//  775   }
//  776 
//  777   // Re-enable interrupts
//  778   HAL_EXIT_CRITICAL_SECTION(intState);
        MOV     A,R6
        SJMP    ?Subroutine5
          CFI EndBlock cfiBlock91
        REQUIRE _A_IEN0
//  779 }

        RSEG BANKED_CODE:CODE:NOROOT(0)
?Subroutine7:
          CFI Block cfiCond92 Using cfiCommon0
          CFI Function osal_msg_enqueue_push
          CFI Conditional ??CrossCallReturnLabel_69
          CFI R6 load(1, XDATA, add(CFA_XSP16, literal(-11)))
          CFI VB load(1, XDATA, add(CFA_XSP16, literal(-10)))
          CFI V0 load(1, XDATA, add(CFA_XSP16, literal(-9)))
          CFI V1 load(1, XDATA, add(CFA_XSP16, literal(-8)))
          CFI V2 load(1, XDATA, add(CFA_XSP16, literal(-7)))
          CFI R7 load(1, XDATA, add(CFA_XSP16, literal(-6)))
          CFI ?RET_LOW load(1, XDATA, add(CFA_XSP16, literal(-5)))
          CFI ?RET_HIGH load(1, XDATA, add(CFA_XSP16, literal(-4)))
          CFI ?BRET_EXT load(1, XDATA, add(CFA_XSP16, literal(-3)))
          CFI DPL0 load(1, XDATA, add(CFA_XSP16, literal(-2)))
          CFI DPH0 load(1, XDATA, add(CFA_XSP16, literal(-1)))
          CFI CFA_SP SP+-2
          CFI CFA_XSP16 add(XSP16, 11)
          CFI Block cfiCond93 Using cfiCommon0
          CFI (cfiCond93) Function osal_msg_enqueue_max
          CFI (cfiCond93) Conditional ??CrossCallReturnLabel_70
          CFI (cfiCond93) R6 load(1, XDATA, add(CFA_XSP16, literal(-10)))
          CFI (cfiCond93) VB load(1, XDATA, add(CFA_XSP16, literal(-9)))
          CFI (cfiCond93) V0 load(1, XDATA, add(CFA_XSP16, literal(-8)))
          CFI (cfiCond93) V1 load(1, XDATA, add(CFA_XSP16, literal(-7)))
          CFI (cfiCond93) R7 load(1, XDATA, add(CFA_XSP16, literal(-6)))
          CFI (cfiCond93) ?RET_LOW load(1, XDATA, add(CFA_XSP16, literal(-5)))
          CFI (cfiCond93) ?RET_HIGH load(1, XDATA, add(CFA_XSP16, literal(-4)))
          CFI (cfiCond93) ?BRET_EXT load(1, XDATA, add(CFA_XSP16, literal(-3)))
          CFI (cfiCond93) DPL0 load(1, XDATA, add(CFA_XSP16, literal(-2)))
          CFI (cfiCond93) DPH0 load(1, XDATA, add(CFA_XSP16, literal(-1)))
          CFI (cfiCond93) CFA_SP SP+-2
          CFI (cfiCond93) CFA_XSP16 add(XSP16, 10)
          CFI Block cfiPicker94 Using cfiCommon1
          CFI (cfiPicker94) NoFunction
          CFI (cfiPicker94) Picker
        MOV     A,R0
        ADD     A,#-0x5
        MOV     R0,A
        MOV     A,R1
        LCALL   ?Subroutine28 & 0xFFFF
??CrossCallReturnLabel_36:
          CFI EndBlock cfiCond92
          CFI EndBlock cfiCond93
          CFI EndBlock cfiPicker94
        REQUIRE ??Subroutine34_0
        ; // Fall through to label ??Subroutine34_0

        RSEG BANKED_CODE:CODE:NOROOT(0)
??Subroutine34_0:
          CFI Block cfiCond95 Using cfiCommon0
          CFI Function osal_msg_enqueue_push
          CFI Conditional ??CrossCallReturnLabel_65
          CFI R6 load(1, XDATA, add(CFA_XSP16, literal(-11)))
          CFI VB load(1, XDATA, add(CFA_XSP16, literal(-10)))
          CFI V0 load(1, XDATA, add(CFA_XSP16, literal(-9)))
          CFI V1 load(1, XDATA, add(CFA_XSP16, literal(-8)))
          CFI V2 load(1, XDATA, add(CFA_XSP16, literal(-7)))
          CFI R7 load(1, XDATA, add(CFA_XSP16, literal(-6)))
          CFI ?RET_LOW load(1, XDATA, add(CFA_XSP16, literal(-5)))
          CFI ?RET_HIGH load(1, XDATA, add(CFA_XSP16, literal(-4)))
          CFI ?BRET_EXT load(1, XDATA, add(CFA_XSP16, literal(-3)))
          CFI DPL0 load(1, XDATA, add(CFA_XSP16, literal(-2)))
          CFI DPH0 load(1, XDATA, add(CFA_XSP16, literal(-1)))
          CFI CFA_SP SP+-2
          CFI CFA_XSP16 add(XSP16, 11)
          CFI Block cfiCond96 Using cfiCommon0
          CFI (cfiCond96) Function osal_msg_receive
          CFI (cfiCond96) Conditional ??CrossCallReturnLabel_64
          CFI (cfiCond96) R6 load(1, XDATA, add(CFA_XSP16, literal(-13)))
          CFI (cfiCond96) VB load(1, XDATA, add(CFA_XSP16, literal(-12)))
          CFI (cfiCond96) V0 load(1, XDATA, add(CFA_XSP16, literal(-11)))
          CFI (cfiCond96) V1 load(1, XDATA, add(CFA_XSP16, literal(-10)))
          CFI (cfiCond96) V2 load(1, XDATA, add(CFA_XSP16, literal(-9)))
          CFI (cfiCond96) V3 load(1, XDATA, add(CFA_XSP16, literal(-8)))
          CFI (cfiCond96) V4 load(1, XDATA, add(CFA_XSP16, literal(-7)))
          CFI (cfiCond96) R7 load(1, XDATA, add(CFA_XSP16, literal(-6)))
          CFI (cfiCond96) ?RET_LOW load(1, XDATA, add(CFA_XSP16, literal(-5)))
          CFI (cfiCond96) ?RET_HIGH load(1, XDATA, add(CFA_XSP16, literal(-4)))
          CFI (cfiCond96) ?BRET_EXT load(1, XDATA, add(CFA_XSP16, literal(-3)))
          CFI (cfiCond96) DPL0 load(1, XDATA, add(CFA_XSP16, literal(-2)))
          CFI (cfiCond96) DPH0 load(1, XDATA, add(CFA_XSP16, literal(-1)))
          CFI (cfiCond96) CFA_SP SP+-2
          CFI (cfiCond96) CFA_XSP16 add(XSP16, 13)
          CFI Block cfiCond97 Using cfiCommon0
          CFI (cfiCond97) Function osal_msg_enqueue
          CFI (cfiCond97) Conditional ??CrossCallReturnLabel_66
          CFI (cfiCond97) R6 load(1, XDATA, add(CFA_XSP16, literal(-9)))
          CFI (cfiCond97) VB load(1, XDATA, add(CFA_XSP16, literal(-8)))
          CFI (cfiCond97) V0 load(1, XDATA, add(CFA_XSP16, literal(-7)))
          CFI (cfiCond97) R7 load(1, XDATA, add(CFA_XSP16, literal(-6)))
          CFI (cfiCond97) ?RET_LOW load(1, XDATA, add(CFA_XSP16, literal(-5)))
          CFI (cfiCond97) ?RET_HIGH load(1, XDATA, add(CFA_XSP16, literal(-4)))
          CFI (cfiCond97) ?BRET_EXT load(1, XDATA, add(CFA_XSP16, literal(-3)))
          CFI (cfiCond97) DPL0 load(1, XDATA, add(CFA_XSP16, literal(-2)))
          CFI (cfiCond97) DPH0 load(1, XDATA, add(CFA_XSP16, literal(-1)))
          CFI (cfiCond97) CFA_SP SP+-2
          CFI (cfiCond97) CFA_XSP16 add(XSP16, 9)
          CFI Block cfiCond98 Using cfiCommon0
          CFI (cfiCond98) Function osal_msg_dequeue
          CFI (cfiCond98) Conditional ??CrossCallReturnLabel_67
          CFI (cfiCond98) R6 load(1, XDATA, add(CFA_XSP16, literal(-10)))
          CFI (cfiCond98) VB load(1, XDATA, add(CFA_XSP16, literal(-9)))
          CFI (cfiCond98) V0 load(1, XDATA, add(CFA_XSP16, literal(-8)))
          CFI (cfiCond98) V1 load(1, XDATA, add(CFA_XSP16, literal(-7)))
          CFI (cfiCond98) R7 load(1, XDATA, add(CFA_XSP16, literal(-6)))
          CFI (cfiCond98) ?RET_LOW load(1, XDATA, add(CFA_XSP16, literal(-5)))
          CFI (cfiCond98) ?RET_HIGH load(1, XDATA, add(CFA_XSP16, literal(-4)))
          CFI (cfiCond98) ?BRET_EXT load(1, XDATA, add(CFA_XSP16, literal(-3)))
          CFI (cfiCond98) DPL0 load(1, XDATA, add(CFA_XSP16, literal(-2)))
          CFI (cfiCond98) DPH0 load(1, XDATA, add(CFA_XSP16, literal(-1)))
          CFI (cfiCond98) CFA_SP SP+-2
          CFI (cfiCond98) CFA_XSP16 add(XSP16, 10)
          CFI Block cfiCond99 Using cfiCommon0
          CFI (cfiCond99) Function osal_msg_enqueue_max
          CFI (cfiCond99) Conditional ??CrossCallReturnLabel_68
          CFI (cfiCond99) R6 load(1, XDATA, add(CFA_XSP16, literal(-10)))
          CFI (cfiCond99) VB load(1, XDATA, add(CFA_XSP16, literal(-9)))
          CFI (cfiCond99) V0 load(1, XDATA, add(CFA_XSP16, literal(-8)))
          CFI (cfiCond99) V1 load(1, XDATA, add(CFA_XSP16, literal(-7)))
          CFI (cfiCond99) R7 load(1, XDATA, add(CFA_XSP16, literal(-6)))
          CFI (cfiCond99) ?RET_LOW load(1, XDATA, add(CFA_XSP16, literal(-5)))
          CFI (cfiCond99) ?RET_HIGH load(1, XDATA, add(CFA_XSP16, literal(-4)))
          CFI (cfiCond99) ?BRET_EXT load(1, XDATA, add(CFA_XSP16, literal(-3)))
          CFI (cfiCond99) DPL0 load(1, XDATA, add(CFA_XSP16, literal(-2)))
          CFI (cfiCond99) DPH0 load(1, XDATA, add(CFA_XSP16, literal(-1)))
          CFI (cfiCond99) CFA_SP SP+-2
          CFI (cfiCond99) CFA_XSP16 add(XSP16, 10)
          CFI Block cfiCond100 Using cfiCommon0
          CFI (cfiCond100) Function osal_msg_enqueue_push
          CFI (cfiCond100) Conditional ??CrossCallReturnLabel_69
          CFI (cfiCond100) R6 load(1, XDATA, add(CFA_XSP16, literal(-11)))
          CFI (cfiCond100) VB load(1, XDATA, add(CFA_XSP16, literal(-10)))
          CFI (cfiCond100) V0 load(1, XDATA, add(CFA_XSP16, literal(-9)))
          CFI (cfiCond100) V1 load(1, XDATA, add(CFA_XSP16, literal(-8)))
          CFI (cfiCond100) V2 load(1, XDATA, add(CFA_XSP16, literal(-7)))
          CFI (cfiCond100) R7 load(1, XDATA, add(CFA_XSP16, literal(-6)))
          CFI (cfiCond100) ?RET_LOW load(1, XDATA, add(CFA_XSP16, literal(-5)))
          CFI (cfiCond100) ?RET_HIGH load(1, XDATA, add(CFA_XSP16, literal(-4)))
          CFI (cfiCond100) ?BRET_EXT load(1, XDATA, add(CFA_XSP16, literal(-3)))
          CFI (cfiCond100) DPL0 load(1, XDATA, add(CFA_XSP16, literal(-2)))
          CFI (cfiCond100) DPH0 load(1, XDATA, add(CFA_XSP16, literal(-1)))
          CFI (cfiCond100) CFA_SP SP+-2
          CFI (cfiCond100) CFA_XSP16 add(XSP16, 11)
          CFI Block cfiCond101 Using cfiCommon0
          CFI (cfiCond101) Function osal_msg_enqueue_max
          CFI (cfiCond101) Conditional ??CrossCallReturnLabel_70
          CFI (cfiCond101) R6 load(1, XDATA, add(CFA_XSP16, literal(-10)))
          CFI (cfiCond101) VB load(1, XDATA, add(CFA_XSP16, literal(-9)))
          CFI (cfiCond101) V0 load(1, XDATA, add(CFA_XSP16, literal(-8)))
          CFI (cfiCond101) V1 load(1, XDATA, add(CFA_XSP16, literal(-7)))
          CFI (cfiCond101) R7 load(1, XDATA, add(CFA_XSP16, literal(-6)))
          CFI (cfiCond101) ?RET_LOW load(1, XDATA, add(CFA_XSP16, literal(-5)))
          CFI (cfiCond101) ?RET_HIGH load(1, XDATA, add(CFA_XSP16, literal(-4)))
          CFI (cfiCond101) ?BRET_EXT load(1, XDATA, add(CFA_XSP16, literal(-3)))
          CFI (cfiCond101) DPL0 load(1, XDATA, add(CFA_XSP16, literal(-2)))
          CFI (cfiCond101) DPH0 load(1, XDATA, add(CFA_XSP16, literal(-1)))
          CFI (cfiCond101) CFA_SP SP+-2
          CFI (cfiCond101) CFA_XSP16 add(XSP16, 10)
          CFI Block cfiPicker102 Using cfiCommon1
          CFI (cfiPicker102) NoFunction
          CFI (cfiPicker102) Picker
        LCALL   ?Subroutine27 & 0xFFFF
??CrossCallReturnLabel_74:
        MOV     A,R0
        ORL     A,R1
        RET
          CFI (cfiCond95) CFA_SP SP+0
          CFI (cfiCond96) CFA_SP SP+0
          CFI (cfiCond97) CFA_SP SP+0
          CFI (cfiCond98) CFA_SP SP+0
          CFI (cfiCond99) CFA_SP SP+0
          CFI (cfiCond100) CFA_SP SP+0
          CFI (cfiCond101) CFA_SP SP+0
          CFI (cfiPicker102) CFA_SP SP+0
          CFI EndBlock cfiCond95
          CFI EndBlock cfiCond96
          CFI EndBlock cfiCond97
          CFI EndBlock cfiCond98
          CFI EndBlock cfiCond99
          CFI EndBlock cfiCond100
          CFI EndBlock cfiCond101
          CFI EndBlock cfiPicker102

        RSEG BANKED_CODE:CODE:NOROOT(0)
?Subroutine28:
          CFI Block cfiCond103 Using cfiCommon0
          CFI Function osal_msg_receive
          CFI Conditional ??CrossCallReturnLabel_35
          CFI R6 load(1, XDATA, add(CFA_XSP16, literal(-13)))
          CFI VB load(1, XDATA, add(CFA_XSP16, literal(-12)))
          CFI V0 load(1, XDATA, add(CFA_XSP16, literal(-11)))
          CFI V1 load(1, XDATA, add(CFA_XSP16, literal(-10)))
          CFI V2 load(1, XDATA, add(CFA_XSP16, literal(-9)))
          CFI V3 load(1, XDATA, add(CFA_XSP16, literal(-8)))
          CFI V4 load(1, XDATA, add(CFA_XSP16, literal(-7)))
          CFI R7 load(1, XDATA, add(CFA_XSP16, literal(-6)))
          CFI ?RET_LOW load(1, XDATA, add(CFA_XSP16, literal(-5)))
          CFI ?RET_HIGH load(1, XDATA, add(CFA_XSP16, literal(-4)))
          CFI ?BRET_EXT load(1, XDATA, add(CFA_XSP16, literal(-3)))
          CFI DPL0 load(1, XDATA, add(CFA_XSP16, literal(-2)))
          CFI DPH0 load(1, XDATA, add(CFA_XSP16, literal(-1)))
          CFI CFA_SP SP+-2
          CFI CFA_XSP16 add(XSP16, 13)
          CFI Block cfiCond104 Using cfiCommon0
          CFI (cfiCond104) Function osal_msg_enqueue_push
          CFI (cfiCond104) Conditional ??CrossCallReturnLabel_36, ??CrossCallReturnLabel_69
          CFI (cfiCond104) R6 load(1, XDATA, add(CFA_XSP16, literal(-11)))
          CFI (cfiCond104) VB load(1, XDATA, add(CFA_XSP16, literal(-10)))
          CFI (cfiCond104) V0 load(1, XDATA, add(CFA_XSP16, literal(-9)))
          CFI (cfiCond104) V1 load(1, XDATA, add(CFA_XSP16, literal(-8)))
          CFI (cfiCond104) V2 load(1, XDATA, add(CFA_XSP16, literal(-7)))
          CFI (cfiCond104) R7 load(1, XDATA, add(CFA_XSP16, literal(-6)))
          CFI (cfiCond104) ?RET_LOW load(1, XDATA, add(CFA_XSP16, literal(-5)))
          CFI (cfiCond104) ?RET_HIGH load(1, XDATA, add(CFA_XSP16, literal(-4)))
          CFI (cfiCond104) ?BRET_EXT load(1, XDATA, add(CFA_XSP16, literal(-3)))
          CFI (cfiCond104) DPL0 load(1, XDATA, add(CFA_XSP16, literal(-2)))
          CFI (cfiCond104) DPH0 load(1, XDATA, add(CFA_XSP16, literal(-1)))
          CFI (cfiCond104) CFA_SP SP+-4
          CFI (cfiCond104) CFA_XSP16 add(XSP16, 11)
          CFI Block cfiCond105 Using cfiCommon0
          CFI (cfiCond105) Function osal_msg_enqueue_max
          CFI (cfiCond105) Conditional ??CrossCallReturnLabel_36, ??CrossCallReturnLabel_70
          CFI (cfiCond105) R6 load(1, XDATA, add(CFA_XSP16, literal(-10)))
          CFI (cfiCond105) VB load(1, XDATA, add(CFA_XSP16, literal(-9)))
          CFI (cfiCond105) V0 load(1, XDATA, add(CFA_XSP16, literal(-8)))
          CFI (cfiCond105) V1 load(1, XDATA, add(CFA_XSP16, literal(-7)))
          CFI (cfiCond105) R7 load(1, XDATA, add(CFA_XSP16, literal(-6)))
          CFI (cfiCond105) ?RET_LOW load(1, XDATA, add(CFA_XSP16, literal(-5)))
          CFI (cfiCond105) ?RET_HIGH load(1, XDATA, add(CFA_XSP16, literal(-4)))
          CFI (cfiCond105) ?BRET_EXT load(1, XDATA, add(CFA_XSP16, literal(-3)))
          CFI (cfiCond105) DPL0 load(1, XDATA, add(CFA_XSP16, literal(-2)))
          CFI (cfiCond105) DPH0 load(1, XDATA, add(CFA_XSP16, literal(-1)))
          CFI (cfiCond105) CFA_SP SP+-4
          CFI (cfiCond105) CFA_XSP16 add(XSP16, 10)
          CFI Block cfiPicker106 Using cfiCommon1
          CFI (cfiPicker106) NoFunction
          CFI (cfiPicker106) Picker
        ADDC    A,#-0x1
        MOV     R1,A
        MOV     ?V0,R0
        MOV     ?V1,R1
        MOV     DPL,R0
        MOV     DPH,A
        RET
          CFI (cfiCond103) CFA_SP SP+0
          CFI (cfiCond104) CFA_SP SP+-2
          CFI (cfiCond105) CFA_SP SP+-2
          CFI (cfiPicker106) CFA_SP SP+0
          CFI EndBlock cfiCond103
          CFI EndBlock cfiCond104
          CFI EndBlock cfiCond105
          CFI EndBlock cfiPicker106

        RSEG BANKED_CODE:CODE:NOROOT(0)
?Subroutine1:
          CFI Block cfiBlock107 Using cfiCommon0
          CFI NoFunction
          CFI CFA_SP SP+0
          CFI CFA_XSP16 add(XSP16, 9)
          CFI VB load(1, XDATA, add(CFA_XSP16, literal(-8)))
          CFI DPL0 load(1, XDATA, add(CFA_XSP16, literal(-2)))
          CFI DPH0 load(1, XDATA, add(CFA_XSP16, literal(-1)))
          CFI R6 load(1, XDATA, add(CFA_XSP16, literal(-9)))
          CFI R7 load(1, XDATA, add(CFA_XSP16, literal(-6)))
          CFI V0 load(1, XDATA, add(CFA_XSP16, literal(-7)))
          CFI ?BRET_EXT load(1, XDATA, add(CFA_XSP16, literal(-3)))
          CFI ?RET_HIGH load(1, XDATA, add(CFA_XSP16, literal(-4)))
          CFI ?RET_LOW load(1, XDATA, add(CFA_XSP16, literal(-5)))
        MOV     R2,DPL
        MOV     R3,DPH
          CFI EndBlock cfiBlock107
        REQUIRE ??Subroutine35_0
        ; // Fall through to label ??Subroutine35_0

        RSEG BANKED_CODE:CODE:NOROOT(0)
??Subroutine35_0:
          CFI Block cfiBlock108 Using cfiCommon0
          CFI NoFunction
          CFI CFA_SP SP+0
          CFI CFA_XSP16 add(XSP16, 9)
          CFI VB load(1, XDATA, add(CFA_XSP16, literal(-8)))
          CFI DPL0 load(1, XDATA, add(CFA_XSP16, literal(-2)))
          CFI DPH0 load(1, XDATA, add(CFA_XSP16, literal(-1)))
          CFI R6 load(1, XDATA, add(CFA_XSP16, literal(-9)))
          CFI R7 load(1, XDATA, add(CFA_XSP16, literal(-6)))
          CFI V0 load(1, XDATA, add(CFA_XSP16, literal(-7)))
          CFI ?BRET_EXT load(1, XDATA, add(CFA_XSP16, literal(-3)))
          CFI ?RET_HIGH load(1, XDATA, add(CFA_XSP16, literal(-4)))
          CFI ?RET_LOW load(1, XDATA, add(CFA_XSP16, literal(-5)))
        MOV     R7,#0x1
        LJMP    ?BANKED_LEAVE_XDATA
          CFI CFA_SP SP+-3
          CFI CFA_XSP16 XSP16+0
          CFI VB SameValue
          CFI DPL0 SameValue
          CFI DPH0 SameValue
          CFI R6 SameValue
          CFI R7 SameValue
          CFI V0 SameValue
          CFI ?BRET_EXT Frame(CFA_SP, 3)
          CFI ?RET_HIGH Frame(CFA_SP, 2)
          CFI ?RET_LOW Frame(CFA_SP, 1)
          CFI EndBlock cfiBlock108
//  780 
//  781 /*********************************************************************
//  782  * @fn      osal_msg_dequeue
//  783  *
//  784  * @brief
//  785  *
//  786  *    This function dequeues an OSAL message from an OSAL queue.
//  787  *
//  788  * @param   osal_msg_q_t *q_ptr - OSAL queue
//  789  *
//  790  * @return  void * - pointer to OSAL message or NULL of queue is empty.
//  791  */

        RSEG BANKED_CODE:CODE:NOROOT(0)
//  792 void *osal_msg_dequeue( osal_msg_q_t *q_ptr )
osal_msg_dequeue:
          CFI Block cfiBlock109 Using cfiCommon0
          CFI Function osal_msg_dequeue
        CODE
//  793 {
        REQUIRE ?V0
        REQUIRE ?V1
        MOV     A,#-0xa
        LCALL   ?BANKED_ENTER_XDATA
          CFI DPH0 load(1, XDATA, add(CFA_XSP16, literal(-1)))
          CFI DPL0 load(1, XDATA, add(CFA_XSP16, literal(-2)))
          CFI ?BRET_EXT load(1, XDATA, add(CFA_XSP16, literal(-3)))
          CFI ?RET_HIGH load(1, XDATA, add(CFA_XSP16, literal(-4)))
          CFI ?RET_LOW load(1, XDATA, add(CFA_XSP16, literal(-5)))
          CFI R7 load(1, XDATA, add(CFA_XSP16, literal(-6)))
          CFI V1 load(1, XDATA, add(CFA_XSP16, literal(-7)))
          CFI V0 load(1, XDATA, add(CFA_XSP16, literal(-8)))
          CFI VB load(1, XDATA, add(CFA_XSP16, literal(-9)))
          CFI R6 load(1, XDATA, add(CFA_XSP16, literal(-10)))
          CFI CFA_SP SP+0
          CFI CFA_XSP16 add(XSP16, 10)
        ; Saved register size: 10
        ; Auto size: 0
        MOV     A,R2
        MOV     R4,A
        MOV     A,R3
        MOV     R5,A
//  794   void *msg_ptr = NULL;
        MOV     R2,#0x0
        MOV     R3,#0x0
//  795   halIntState_t intState;
//  796 
//  797   // Hold off interrupts
//  798   HAL_ENTER_CRITICAL_SECTION(intState);
        MOV     C,0xa8.7
        CLR     A
        RLC     A
        MOV     R6,A
        CLR     0xa8.7
//  799 
//  800   if ( *q_ptr != NULL )
        MOV     DPL,R4
        MOV     DPH,R5
        LCALL   ??Subroutine34_0 & 0xFFFF
??CrossCallReturnLabel_67:
        JZ      ??CrossCallReturnLabel_11
//  801   {
//  802     // Dequeue message
//  803     msg_ptr = *q_ptr;
        MOV     A,R0
        MOV     R2,A
        MOV     A,R1
        MOV     R3,A
//  804     *q_ptr = OSAL_MSG_NEXT( msg_ptr );
        LCALL   ?Subroutine9 & 0xFFFF
??CrossCallReturnLabel_78:
        MOV     DPL,R4
        MOV     DPH,R5
        MOV     A,?V0
        MOVX    @DPTR,A
        INC     DPTR
        MOV     A,?V1
        MOVX    @DPTR,A
//  805     OSAL_MSG_NEXT( msg_ptr ) = NULL;
        MOV     DPL,R0
        MOV     DPH,R1
        LCALL   ?Subroutine14 & 0xFFFF
//  806     OSAL_MSG_ID( msg_ptr ) = TASK_NO_TASK;
//  807   }
//  808 
//  809   // Re-enable interrupts
//  810   HAL_EXIT_CRITICAL_SECTION(intState);
??CrossCallReturnLabel_11:
        MOV     A,R6
        MOV     C,0xE0 /* A   */.0
        MOV     0xa8.7,C
//  811 
//  812   return msg_ptr;
        LJMP    ?Subroutine2 & 0xFFFF
          CFI EndBlock cfiBlock109
        REQUIRE _A_IEN0
//  813 }

        RSEG BANKED_CODE:CODE:NOROOT(0)
?Subroutine14:
          CFI Block cfiCond110 Using cfiCommon0
          CFI Function osal_msg_receive
          CFI Conditional ??CrossCallReturnLabel_10
          CFI R6 load(1, XDATA, add(CFA_XSP16, literal(-13)))
          CFI VB load(1, XDATA, add(CFA_XSP16, literal(-12)))
          CFI V0 load(1, XDATA, add(CFA_XSP16, literal(-11)))
          CFI V1 load(1, XDATA, add(CFA_XSP16, literal(-10)))
          CFI V2 load(1, XDATA, add(CFA_XSP16, literal(-9)))
          CFI V3 load(1, XDATA, add(CFA_XSP16, literal(-8)))
          CFI V4 load(1, XDATA, add(CFA_XSP16, literal(-7)))
          CFI R7 load(1, XDATA, add(CFA_XSP16, literal(-6)))
          CFI ?RET_LOW load(1, XDATA, add(CFA_XSP16, literal(-5)))
          CFI ?RET_HIGH load(1, XDATA, add(CFA_XSP16, literal(-4)))
          CFI ?BRET_EXT load(1, XDATA, add(CFA_XSP16, literal(-3)))
          CFI DPL0 load(1, XDATA, add(CFA_XSP16, literal(-2)))
          CFI DPH0 load(1, XDATA, add(CFA_XSP16, literal(-1)))
          CFI CFA_SP SP+-2
          CFI CFA_XSP16 add(XSP16, 13)
          CFI Block cfiCond111 Using cfiCommon0
          CFI (cfiCond111) Function osal_msg_dequeue
          CFI (cfiCond111) Conditional ??CrossCallReturnLabel_11
          CFI (cfiCond111) R6 load(1, XDATA, add(CFA_XSP16, literal(-10)))
          CFI (cfiCond111) VB load(1, XDATA, add(CFA_XSP16, literal(-9)))
          CFI (cfiCond111) V0 load(1, XDATA, add(CFA_XSP16, literal(-8)))
          CFI (cfiCond111) V1 load(1, XDATA, add(CFA_XSP16, literal(-7)))
          CFI (cfiCond111) R7 load(1, XDATA, add(CFA_XSP16, literal(-6)))
          CFI (cfiCond111) ?RET_LOW load(1, XDATA, add(CFA_XSP16, literal(-5)))
          CFI (cfiCond111) ?RET_HIGH load(1, XDATA, add(CFA_XSP16, literal(-4)))
          CFI (cfiCond111) ?BRET_EXT load(1, XDATA, add(CFA_XSP16, literal(-3)))
          CFI (cfiCond111) DPL0 load(1, XDATA, add(CFA_XSP16, literal(-2)))
          CFI (cfiCond111) DPH0 load(1, XDATA, add(CFA_XSP16, literal(-1)))
          CFI (cfiCond111) CFA_SP SP+-2
          CFI (cfiCond111) CFA_XSP16 add(XSP16, 10)
          CFI Block cfiPicker112 Using cfiCommon1
          CFI (cfiPicker112) NoFunction
          CFI (cfiPicker112) Picker
        CLR     A
        MOVX    @DPTR,A
        INC     DPTR
        MOVX    @DPTR,A
        LCALL   ?Subroutine29 & 0xFFFF
??CrossCallReturnLabel_37:
        MOV     A,#-0x1
        MOVX    @DPTR,A
        RET
          CFI (cfiCond110) CFA_SP SP+0
          CFI (cfiCond111) CFA_SP SP+0
          CFI (cfiPicker112) CFA_SP SP+0
          CFI EndBlock cfiCond110
          CFI EndBlock cfiCond111
          CFI EndBlock cfiPicker112

        RSEG BANKED_CODE:CODE:NOROOT(0)
?Subroutine29:
          CFI Block cfiCond113 Using cfiCommon0
          CFI Function osal_msg_deallocate
          CFI Conditional ??CrossCallReturnLabel_38, ??CrossCallReturnLabel_18
          CFI DPL0 Frame(CFA_SP, 4)
          CFI DPH0 Frame(CFA_SP, 5)
          CFI CFA_SP SP+-9
          CFI Block cfiCond114 Using cfiCommon0
          CFI (cfiCond114) Function osal_msg_find
          CFI (cfiCond114) Conditional ??CrossCallReturnLabel_38, ??CrossCallReturnLabel_19
          CFI (cfiCond114) DPL0 Frame(CFA_SP, 4)
          CFI (cfiCond114) DPH0 Frame(CFA_SP, 5)
          CFI (cfiCond114) CFA_SP SP+-9
          CFI Block cfiCond115 Using cfiCommon0
          CFI (cfiCond115) Function osal_msg_receive
          CFI (cfiCond115) Conditional ??CrossCallReturnLabel_37, ??CrossCallReturnLabel_10
          CFI (cfiCond115) R6 load(1, XDATA, add(CFA_XSP16, literal(-13)))
          CFI (cfiCond115) VB load(1, XDATA, add(CFA_XSP16, literal(-12)))
          CFI (cfiCond115) V0 load(1, XDATA, add(CFA_XSP16, literal(-11)))
          CFI (cfiCond115) V1 load(1, XDATA, add(CFA_XSP16, literal(-10)))
          CFI (cfiCond115) V2 load(1, XDATA, add(CFA_XSP16, literal(-9)))
          CFI (cfiCond115) V3 load(1, XDATA, add(CFA_XSP16, literal(-8)))
          CFI (cfiCond115) V4 load(1, XDATA, add(CFA_XSP16, literal(-7)))
          CFI (cfiCond115) R7 load(1, XDATA, add(CFA_XSP16, literal(-6)))
          CFI (cfiCond115) ?RET_LOW load(1, XDATA, add(CFA_XSP16, literal(-5)))
          CFI (cfiCond115) ?RET_HIGH load(1, XDATA, add(CFA_XSP16, literal(-4)))
          CFI (cfiCond115) ?BRET_EXT load(1, XDATA, add(CFA_XSP16, literal(-3)))
          CFI (cfiCond115) DPL0 load(1, XDATA, add(CFA_XSP16, literal(-2)))
          CFI (cfiCond115) DPH0 load(1, XDATA, add(CFA_XSP16, literal(-1)))
          CFI (cfiCond115) CFA_SP SP+-4
          CFI (cfiCond115) CFA_XSP16 add(XSP16, 13)
          CFI Block cfiCond116 Using cfiCommon0
          CFI (cfiCond116) Function osal_msg_dequeue
          CFI (cfiCond116) Conditional ??CrossCallReturnLabel_37, ??CrossCallReturnLabel_11
          CFI (cfiCond116) R6 load(1, XDATA, add(CFA_XSP16, literal(-10)))
          CFI (cfiCond116) VB load(1, XDATA, add(CFA_XSP16, literal(-9)))
          CFI (cfiCond116) V0 load(1, XDATA, add(CFA_XSP16, literal(-8)))
          CFI (cfiCond116) V1 load(1, XDATA, add(CFA_XSP16, literal(-7)))
          CFI (cfiCond116) R7 load(1, XDATA, add(CFA_XSP16, literal(-6)))
          CFI (cfiCond116) ?RET_LOW load(1, XDATA, add(CFA_XSP16, literal(-5)))
          CFI (cfiCond116) ?RET_HIGH load(1, XDATA, add(CFA_XSP16, literal(-4)))
          CFI (cfiCond116) ?BRET_EXT load(1, XDATA, add(CFA_XSP16, literal(-3)))
          CFI (cfiCond116) DPL0 load(1, XDATA, add(CFA_XSP16, literal(-2)))
          CFI (cfiCond116) DPH0 load(1, XDATA, add(CFA_XSP16, literal(-1)))
          CFI (cfiCond116) CFA_SP SP+-4
          CFI (cfiCond116) CFA_XSP16 add(XSP16, 10)
          CFI Block cfiPicker117 Using cfiCommon1
          CFI (cfiPicker117) NoFunction
          CFI (cfiPicker117) Picker
        MOV     A,R2
        ADD     A,#-0x1
        MOV     DPL,A
        MOV     A,R3
        ADDC    A,#-0x1
        MOV     DPH,A
        RET
          CFI (cfiCond113) CFA_SP SP+-7
          CFI (cfiCond114) CFA_SP SP+-7
          CFI (cfiCond115) CFA_SP SP+-2
          CFI (cfiCond116) CFA_SP SP+-2
          CFI (cfiPicker117) CFA_SP SP+0
          CFI EndBlock cfiCond113
          CFI EndBlock cfiCond114
          CFI EndBlock cfiCond115
          CFI EndBlock cfiCond116
          CFI EndBlock cfiPicker117
//  814 
//  815 /*********************************************************************
//  816  * @fn      osal_msg_push
//  817  *
//  818  * @brief
//  819  *
//  820  *    This function pushes an OSAL message to the head of an OSAL
//  821  *    queue.
//  822  *
//  823  * @param   osal_msg_q_t *q_ptr - OSAL queue
//  824  * @param   void *msg_ptr  - OSAL message
//  825  *
//  826  * @return  none
//  827  */

        RSEG BANKED_CODE:CODE:NOROOT(0)
//  828 void osal_msg_push( osal_msg_q_t *q_ptr, void *msg_ptr )
osal_msg_push:
          CFI Block cfiBlock118 Using cfiCommon0
          CFI Function osal_msg_push
        CODE
//  829 {
        MOV     A,#-0x9
        LCALL   ?BANKED_ENTER_XDATA
          CFI DPH0 load(1, XDATA, add(CFA_XSP16, literal(-1)))
          CFI DPL0 load(1, XDATA, add(CFA_XSP16, literal(-2)))
          CFI ?BRET_EXT load(1, XDATA, add(CFA_XSP16, literal(-3)))
          CFI ?RET_HIGH load(1, XDATA, add(CFA_XSP16, literal(-4)))
          CFI ?RET_LOW load(1, XDATA, add(CFA_XSP16, literal(-5)))
          CFI R7 load(1, XDATA, add(CFA_XSP16, literal(-6)))
          CFI V0 load(1, XDATA, add(CFA_XSP16, literal(-7)))
          CFI VB load(1, XDATA, add(CFA_XSP16, literal(-8)))
          CFI R6 load(1, XDATA, add(CFA_XSP16, literal(-9)))
          CFI CFA_SP SP+0
          CFI CFA_XSP16 add(XSP16, 9)
        ; Saved register size: 9
        ; Auto size: 0
//  830   halIntState_t intState;
//  831 
//  832   // Hold off interrupts
//  833   HAL_ENTER_CRITICAL_SECTION(intState);
        MOV     R0,0xa8+0x0
        CLR     0xa8.7
//  834 
//  835   // Push message to head of queue
//  836   OSAL_MSG_NEXT( msg_ptr ) = *q_ptr;
        MOV     DPL,R2
        MOV     DPH,R3
        MOVX    A,@DPTR
        MOV     R6,A
        INC     DPTR
        MOVX    A,@DPTR
        MOV     R7,A
        LCALL   ?Subroutine23 & 0xFFFF
??CrossCallReturnLabel_63:
        MOV     A,R6
        MOVX    @DPTR,A
        INC     DPTR
        MOV     A,R7
        MOVX    @DPTR,A
//  837   *q_ptr = msg_ptr;
        MOV     DPL,R2
        MOV     DPH,R3
        MOV     A,R4
        MOVX    @DPTR,A
        INC     DPTR
        MOV     A,R5
        LCALL   ?Subroutine17 & 0xFFFF
//  838 
//  839   // Re-enable interrupts
//  840   HAL_EXIT_CRITICAL_SECTION(intState);
??CrossCallReturnLabel_16:
        LJMP    ??Subroutine32_0 & 0xFFFF
          CFI EndBlock cfiBlock118
        REQUIRE _A_IEN0
//  841 }
//  842 
//  843 /*********************************************************************
//  844  * @fn      osal_msg_extract
//  845  *
//  846  * @brief
//  847  *
//  848  *    This function extracts and removes an OSAL message from the
//  849  *    middle of an OSAL queue.
//  850  *
//  851  * @param   osal_msg_q_t *q_ptr - OSAL queue
//  852  * @param   void *msg_ptr  - OSAL message to be extracted
//  853  * @param   void *prev_ptr  - OSAL message before msg_ptr in queue
//  854  *
//  855  * @return  none
//  856  */

        RSEG BANKED_CODE:CODE:NOROOT(0)
//  857 void osal_msg_extract( osal_msg_q_t *q_ptr, void *msg_ptr, void *prev_ptr )
osal_msg_extract:
          CFI Block cfiBlock119 Using cfiCommon0
          CFI Function osal_msg_extract
        CODE
//  858 {
        REQUIRE ?V0
        REQUIRE ?V1
        REQUIRE ?V2
        MOV     A,#-0xb
        LCALL   ?BANKED_ENTER_XDATA
          CFI DPH0 load(1, XDATA, add(CFA_XSP16, literal(-1)))
          CFI DPL0 load(1, XDATA, add(CFA_XSP16, literal(-2)))
          CFI ?BRET_EXT load(1, XDATA, add(CFA_XSP16, literal(-3)))
          CFI ?RET_HIGH load(1, XDATA, add(CFA_XSP16, literal(-4)))
          CFI ?RET_LOW load(1, XDATA, add(CFA_XSP16, literal(-5)))
          CFI R7 load(1, XDATA, add(CFA_XSP16, literal(-6)))
          CFI V2 load(1, XDATA, add(CFA_XSP16, literal(-7)))
          CFI V1 load(1, XDATA, add(CFA_XSP16, literal(-8)))
          CFI V0 load(1, XDATA, add(CFA_XSP16, literal(-9)))
          CFI VB load(1, XDATA, add(CFA_XSP16, literal(-10)))
          CFI R6 load(1, XDATA, add(CFA_XSP16, literal(-11)))
          CFI CFA_SP SP+0
          CFI CFA_XSP16 add(XSP16, 11)
        ; Saved register size: 11
        ; Auto size: 0
//  859   halIntState_t intState;
//  860 
//  861   // Hold off interrupts
//  862   HAL_ENTER_CRITICAL_SECTION(intState);
        MOV     C,0xa8.7
        CLR     A
        RLC     A
        MOV     ?V2,A
        CLR     0xa8.7
//  863 
//  864   if ( msg_ptr == *q_ptr )
        MOV     A,R4
        ADD     A,#-0x5
        MOV     R0,A
        MOV     A,R5
        ADDC    A,#-0x1
        MOV     R1,A
        MOV     A,R0
        MOV     R6,A
        MOV     A,R1
        MOV     R7,A
        MOV     DPL,R6
        MOV     DPH,R7
        LCALL   ?Subroutine27 & 0xFFFF
??CrossCallReturnLabel_72:
        MOV     DPL,R2
        MOV     DPH,R3
        LCALL   ??Subroutine36_0 & 0xFFFF
??CrossCallReturnLabel_76:
        MOV     A,R4
        XRL     A,?V0
        JNZ     ??osal_msg_extract_0
        MOV     A,R5
        XRL     A,?V1
??osal_msg_extract_0:
        JNZ     ??osal_msg_extract_1
//  865   {
//  866     // remove from first
//  867     *q_ptr = OSAL_MSG_NEXT( msg_ptr );
        MOV     DPL,R2
        MOV     DPH,R3
        SJMP    ??CrossCallReturnLabel_60
//  868   }
//  869   else
//  870   {
//  871     // remove from middle
//  872     OSAL_MSG_NEXT( prev_ptr ) = OSAL_MSG_NEXT( msg_ptr );
??osal_msg_extract_1:
        MOV     A,#0xb
        LCALL   ?XSTACK_DISP0_8
        MOVX    A,@DPTR
        MOV     R2,A
        INC     DPTR
        MOVX    A,@DPTR
        XCH     A,R2
        ADD     A,#-0x5
        MOV     DPL,A
        MOV     A,R2
        LCALL   ??Subroutine33_0 & 0xFFFF
//  873   }
??CrossCallReturnLabel_60:
        MOV     A,R0
        MOVX    @DPTR,A
        INC     DPTR
        MOV     A,R1
        MOVX    @DPTR,A
//  874   OSAL_MSG_NEXT( msg_ptr ) = NULL;
        MOV     DPL,R6
        MOV     DPH,R7
        CLR     A
        MOVX    @DPTR,A
        INC     DPTR
        MOVX    @DPTR,A
//  875   OSAL_MSG_ID( msg_ptr ) = TASK_NO_TASK;
        LCALL   ?Subroutine20 & 0xFFFF
??CrossCallReturnLabel_23:
        MOV     A,#-0x1
        MOVX    @DPTR,A
//  876 
//  877   // Re-enable interrupts
//  878   HAL_EXIT_CRITICAL_SECTION(intState);
        MOV     A,?V2
        MOV     C,0xE0 /* A   */.0
        MOV     0xa8.7,C
//  879 }
        LJMP    ?Subroutine4 & 0xFFFF
          CFI EndBlock cfiBlock119
        REQUIRE _A_IEN0

        RSEG BANKED_CODE:CODE:NOROOT(0)
?Subroutine27:
          CFI Block cfiCond120 Using cfiCommon0
          CFI Function osal_msg_receive
          CFI Conditional ??CrossCallReturnLabel_71
          CFI R6 load(1, XDATA, add(CFA_XSP16, literal(-13)))
          CFI VB load(1, XDATA, add(CFA_XSP16, literal(-12)))
          CFI V0 load(1, XDATA, add(CFA_XSP16, literal(-11)))
          CFI V1 load(1, XDATA, add(CFA_XSP16, literal(-10)))
          CFI V2 load(1, XDATA, add(CFA_XSP16, literal(-9)))
          CFI V3 load(1, XDATA, add(CFA_XSP16, literal(-8)))
          CFI V4 load(1, XDATA, add(CFA_XSP16, literal(-7)))
          CFI R7 load(1, XDATA, add(CFA_XSP16, literal(-6)))
          CFI ?RET_LOW load(1, XDATA, add(CFA_XSP16, literal(-5)))
          CFI ?RET_HIGH load(1, XDATA, add(CFA_XSP16, literal(-4)))
          CFI ?BRET_EXT load(1, XDATA, add(CFA_XSP16, literal(-3)))
          CFI DPL0 load(1, XDATA, add(CFA_XSP16, literal(-2)))
          CFI DPH0 load(1, XDATA, add(CFA_XSP16, literal(-1)))
          CFI CFA_SP SP+-2
          CFI CFA_XSP16 add(XSP16, 13)
          CFI Block cfiCond121 Using cfiCommon0
          CFI (cfiCond121) Function osal_msg_enqueue_push
          CFI (cfiCond121) Conditional ??CrossCallReturnLabel_74, ??CrossCallReturnLabel_69
          CFI (cfiCond121) R6 load(1, XDATA, add(CFA_XSP16, literal(-11)))
          CFI (cfiCond121) VB load(1, XDATA, add(CFA_XSP16, literal(-10)))
          CFI (cfiCond121) V0 load(1, XDATA, add(CFA_XSP16, literal(-9)))
          CFI (cfiCond121) V1 load(1, XDATA, add(CFA_XSP16, literal(-8)))
          CFI (cfiCond121) V2 load(1, XDATA, add(CFA_XSP16, literal(-7)))
          CFI (cfiCond121) R7 load(1, XDATA, add(CFA_XSP16, literal(-6)))
          CFI (cfiCond121) ?RET_LOW load(1, XDATA, add(CFA_XSP16, literal(-5)))
          CFI (cfiCond121) ?RET_HIGH load(1, XDATA, add(CFA_XSP16, literal(-4)))
          CFI (cfiCond121) ?BRET_EXT load(1, XDATA, add(CFA_XSP16, literal(-3)))
          CFI (cfiCond121) DPL0 load(1, XDATA, add(CFA_XSP16, literal(-2)))
          CFI (cfiCond121) DPH0 load(1, XDATA, add(CFA_XSP16, literal(-1)))
          CFI (cfiCond121) CFA_SP SP+-4
          CFI (cfiCond121) CFA_XSP16 add(XSP16, 11)
          CFI Block cfiCond122 Using cfiCommon0
          CFI (cfiCond122) Function osal_msg_enqueue_max
          CFI (cfiCond122) Conditional ??CrossCallReturnLabel_74, ??CrossCallReturnLabel_70
          CFI (cfiCond122) R6 load(1, XDATA, add(CFA_XSP16, literal(-10)))
          CFI (cfiCond122) VB load(1, XDATA, add(CFA_XSP16, literal(-9)))
          CFI (cfiCond122) V0 load(1, XDATA, add(CFA_XSP16, literal(-8)))
          CFI (cfiCond122) V1 load(1, XDATA, add(CFA_XSP16, literal(-7)))
          CFI (cfiCond122) R7 load(1, XDATA, add(CFA_XSP16, literal(-6)))
          CFI (cfiCond122) ?RET_LOW load(1, XDATA, add(CFA_XSP16, literal(-5)))
          CFI (cfiCond122) ?RET_HIGH load(1, XDATA, add(CFA_XSP16, literal(-4)))
          CFI (cfiCond122) ?BRET_EXT load(1, XDATA, add(CFA_XSP16, literal(-3)))
          CFI (cfiCond122) DPL0 load(1, XDATA, add(CFA_XSP16, literal(-2)))
          CFI (cfiCond122) DPH0 load(1, XDATA, add(CFA_XSP16, literal(-1)))
          CFI (cfiCond122) CFA_SP SP+-4
          CFI (cfiCond122) CFA_XSP16 add(XSP16, 10)
          CFI Block cfiCond123 Using cfiCommon0
          CFI (cfiCond123) Function osal_msg_enqueue_push
          CFI (cfiCond123) Conditional ??CrossCallReturnLabel_74, ??CrossCallReturnLabel_65
          CFI (cfiCond123) R6 load(1, XDATA, add(CFA_XSP16, literal(-11)))
          CFI (cfiCond123) VB load(1, XDATA, add(CFA_XSP16, literal(-10)))
          CFI (cfiCond123) V0 load(1, XDATA, add(CFA_XSP16, literal(-9)))
          CFI (cfiCond123) V1 load(1, XDATA, add(CFA_XSP16, literal(-8)))
          CFI (cfiCond123) V2 load(1, XDATA, add(CFA_XSP16, literal(-7)))
          CFI (cfiCond123) R7 load(1, XDATA, add(CFA_XSP16, literal(-6)))
          CFI (cfiCond123) ?RET_LOW load(1, XDATA, add(CFA_XSP16, literal(-5)))
          CFI (cfiCond123) ?RET_HIGH load(1, XDATA, add(CFA_XSP16, literal(-4)))
          CFI (cfiCond123) ?BRET_EXT load(1, XDATA, add(CFA_XSP16, literal(-3)))
          CFI (cfiCond123) DPL0 load(1, XDATA, add(CFA_XSP16, literal(-2)))
          CFI (cfiCond123) DPH0 load(1, XDATA, add(CFA_XSP16, literal(-1)))
          CFI (cfiCond123) CFA_SP SP+-4
          CFI (cfiCond123) CFA_XSP16 add(XSP16, 11)
          CFI Block cfiCond124 Using cfiCommon0
          CFI (cfiCond124) Function osal_msg_receive
          CFI (cfiCond124) Conditional ??CrossCallReturnLabel_74, ??CrossCallReturnLabel_64
          CFI (cfiCond124) R6 load(1, XDATA, add(CFA_XSP16, literal(-13)))
          CFI (cfiCond124) VB load(1, XDATA, add(CFA_XSP16, literal(-12)))
          CFI (cfiCond124) V0 load(1, XDATA, add(CFA_XSP16, literal(-11)))
          CFI (cfiCond124) V1 load(1, XDATA, add(CFA_XSP16, literal(-10)))
          CFI (cfiCond124) V2 load(1, XDATA, add(CFA_XSP16, literal(-9)))
          CFI (cfiCond124) V3 load(1, XDATA, add(CFA_XSP16, literal(-8)))
          CFI (cfiCond124) V4 load(1, XDATA, add(CFA_XSP16, literal(-7)))
          CFI (cfiCond124) R7 load(1, XDATA, add(CFA_XSP16, literal(-6)))
          CFI (cfiCond124) ?RET_LOW load(1, XDATA, add(CFA_XSP16, literal(-5)))
          CFI (cfiCond124) ?RET_HIGH load(1, XDATA, add(CFA_XSP16, literal(-4)))
          CFI (cfiCond124) ?BRET_EXT load(1, XDATA, add(CFA_XSP16, literal(-3)))
          CFI (cfiCond124) DPL0 load(1, XDATA, add(CFA_XSP16, literal(-2)))
          CFI (cfiCond124) DPH0 load(1, XDATA, add(CFA_XSP16, literal(-1)))
          CFI (cfiCond124) CFA_SP SP+-4
          CFI (cfiCond124) CFA_XSP16 add(XSP16, 13)
          CFI Block cfiCond125 Using cfiCommon0
          CFI (cfiCond125) Function osal_msg_enqueue
          CFI (cfiCond125) Conditional ??CrossCallReturnLabel_74, ??CrossCallReturnLabel_66
          CFI (cfiCond125) R6 load(1, XDATA, add(CFA_XSP16, literal(-9)))
          CFI (cfiCond125) VB load(1, XDATA, add(CFA_XSP16, literal(-8)))
          CFI (cfiCond125) V0 load(1, XDATA, add(CFA_XSP16, literal(-7)))
          CFI (cfiCond125) R7 load(1, XDATA, add(CFA_XSP16, literal(-6)))
          CFI (cfiCond125) ?RET_LOW load(1, XDATA, add(CFA_XSP16, literal(-5)))
          CFI (cfiCond125) ?RET_HIGH load(1, XDATA, add(CFA_XSP16, literal(-4)))
          CFI (cfiCond125) ?BRET_EXT load(1, XDATA, add(CFA_XSP16, literal(-3)))
          CFI (cfiCond125) DPL0 load(1, XDATA, add(CFA_XSP16, literal(-2)))
          CFI (cfiCond125) DPH0 load(1, XDATA, add(CFA_XSP16, literal(-1)))
          CFI (cfiCond125) CFA_SP SP+-4
          CFI (cfiCond125) CFA_XSP16 add(XSP16, 9)
          CFI Block cfiCond126 Using cfiCommon0
          CFI (cfiCond126) Function osal_msg_dequeue
          CFI (cfiCond126) Conditional ??CrossCallReturnLabel_74, ??CrossCallReturnLabel_67
          CFI (cfiCond126) R6 load(1, XDATA, add(CFA_XSP16, literal(-10)))
          CFI (cfiCond126) VB load(1, XDATA, add(CFA_XSP16, literal(-9)))
          CFI (cfiCond126) V0 load(1, XDATA, add(CFA_XSP16, literal(-8)))
          CFI (cfiCond126) V1 load(1, XDATA, add(CFA_XSP16, literal(-7)))
          CFI (cfiCond126) R7 load(1, XDATA, add(CFA_XSP16, literal(-6)))
          CFI (cfiCond126) ?RET_LOW load(1, XDATA, add(CFA_XSP16, literal(-5)))
          CFI (cfiCond126) ?RET_HIGH load(1, XDATA, add(CFA_XSP16, literal(-4)))
          CFI (cfiCond126) ?BRET_EXT load(1, XDATA, add(CFA_XSP16, literal(-3)))
          CFI (cfiCond126) DPL0 load(1, XDATA, add(CFA_XSP16, literal(-2)))
          CFI (cfiCond126) DPH0 load(1, XDATA, add(CFA_XSP16, literal(-1)))
          CFI (cfiCond126) CFA_SP SP+-4
          CFI (cfiCond126) CFA_XSP16 add(XSP16, 10)
          CFI Block cfiCond127 Using cfiCommon0
          CFI (cfiCond127) Function osal_msg_enqueue_max
          CFI (cfiCond127) Conditional ??CrossCallReturnLabel_74, ??CrossCallReturnLabel_68
          CFI (cfiCond127) R6 load(1, XDATA, add(CFA_XSP16, literal(-10)))
          CFI (cfiCond127) VB load(1, XDATA, add(CFA_XSP16, literal(-9)))
          CFI (cfiCond127) V0 load(1, XDATA, add(CFA_XSP16, literal(-8)))
          CFI (cfiCond127) V1 load(1, XDATA, add(CFA_XSP16, literal(-7)))
          CFI (cfiCond127) R7 load(1, XDATA, add(CFA_XSP16, literal(-6)))
          CFI (cfiCond127) ?RET_LOW load(1, XDATA, add(CFA_XSP16, literal(-5)))
          CFI (cfiCond127) ?RET_HIGH load(1, XDATA, add(CFA_XSP16, literal(-4)))
          CFI (cfiCond127) ?BRET_EXT load(1, XDATA, add(CFA_XSP16, literal(-3)))
          CFI (cfiCond127) DPL0 load(1, XDATA, add(CFA_XSP16, literal(-2)))
          CFI (cfiCond127) DPH0 load(1, XDATA, add(CFA_XSP16, literal(-1)))
          CFI (cfiCond127) CFA_SP SP+-4
          CFI (cfiCond127) CFA_XSP16 add(XSP16, 10)
          CFI Block cfiCond128 Using cfiCommon0
          CFI (cfiCond128) Function osal_msg_extract
          CFI (cfiCond128) Conditional ??CrossCallReturnLabel_72
          CFI (cfiCond128) R6 load(1, XDATA, add(CFA_XSP16, literal(-11)))
          CFI (cfiCond128) VB load(1, XDATA, add(CFA_XSP16, literal(-10)))
          CFI (cfiCond128) V0 load(1, XDATA, add(CFA_XSP16, literal(-9)))
          CFI (cfiCond128) V1 load(1, XDATA, add(CFA_XSP16, literal(-8)))
          CFI (cfiCond128) V2 load(1, XDATA, add(CFA_XSP16, literal(-7)))
          CFI (cfiCond128) R7 load(1, XDATA, add(CFA_XSP16, literal(-6)))
          CFI (cfiCond128) ?RET_LOW load(1, XDATA, add(CFA_XSP16, literal(-5)))
          CFI (cfiCond128) ?RET_HIGH load(1, XDATA, add(CFA_XSP16, literal(-4)))
          CFI (cfiCond128) ?BRET_EXT load(1, XDATA, add(CFA_XSP16, literal(-3)))
          CFI (cfiCond128) DPL0 load(1, XDATA, add(CFA_XSP16, literal(-2)))
          CFI (cfiCond128) DPH0 load(1, XDATA, add(CFA_XSP16, literal(-1)))
          CFI (cfiCond128) CFA_SP SP+-2
          CFI (cfiCond128) CFA_XSP16 add(XSP16, 11)
          CFI Block cfiCond129 Using cfiCommon0
          CFI (cfiCond129) Function osal_run_system
          CFI (cfiCond129) Conditional ??CrossCallReturnLabel_73
          CFI (cfiCond129) R6 load(1, XDATA, add(CFA_XSP16, literal(-12)))
          CFI (cfiCond129) VB load(1, XDATA, add(CFA_XSP16, literal(-11)))
          CFI (cfiCond129) V0 load(1, XDATA, add(CFA_XSP16, literal(-10)))
          CFI (cfiCond129) V1 load(1, XDATA, add(CFA_XSP16, literal(-9)))
          CFI (cfiCond129) V2 load(1, XDATA, add(CFA_XSP16, literal(-8)))
          CFI (cfiCond129) V3 load(1, XDATA, add(CFA_XSP16, literal(-7)))
          CFI (cfiCond129) R7 load(1, XDATA, add(CFA_XSP16, literal(-6)))
          CFI (cfiCond129) ?RET_LOW load(1, XDATA, add(CFA_XSP16, literal(-5)))
          CFI (cfiCond129) ?RET_HIGH load(1, XDATA, add(CFA_XSP16, literal(-4)))
          CFI (cfiCond129) ?BRET_EXT load(1, XDATA, add(CFA_XSP16, literal(-3)))
          CFI (cfiCond129) DPL0 load(1, XDATA, add(CFA_XSP16, literal(-2)))
          CFI (cfiCond129) DPH0 load(1, XDATA, add(CFA_XSP16, literal(-1)))
          CFI (cfiCond129) CFA_SP SP+-2
          CFI (cfiCond129) CFA_XSP16 add(XSP16, 12)
          CFI Block cfiPicker130 Using cfiCommon1
          CFI (cfiPicker130) NoFunction
          CFI (cfiPicker130) Picker
        MOVX    A,@DPTR
        MOV     R0,A
        INC     DPTR
        MOVX    A,@DPTR
        MOV     R1,A
        RET
          CFI (cfiCond120) CFA_SP SP+0
          CFI (cfiCond121) CFA_SP SP+-2
          CFI (cfiCond122) CFA_SP SP+-2
          CFI (cfiCond123) CFA_SP SP+-2
          CFI (cfiCond124) CFA_SP SP+-2
          CFI (cfiCond125) CFA_SP SP+-2
          CFI (cfiCond126) CFA_SP SP+-2
          CFI (cfiCond127) CFA_SP SP+-2
          CFI (cfiCond128) CFA_SP SP+0
          CFI (cfiCond129) CFA_SP SP+0
          CFI (cfiPicker130) CFA_SP SP+0
          CFI EndBlock cfiCond120
          CFI EndBlock cfiCond121
          CFI EndBlock cfiCond122
          CFI EndBlock cfiCond123
          CFI EndBlock cfiCond124
          CFI EndBlock cfiCond125
          CFI EndBlock cfiCond126
          CFI EndBlock cfiCond127
          CFI EndBlock cfiCond128
          CFI EndBlock cfiCond129
          CFI EndBlock cfiPicker130

        RSEG BANKED_CODE:CODE:NOROOT(0)
?Subroutine20:
          CFI Block cfiCond131 Using cfiCommon0
          CFI Function osal_msg_count
          CFI Conditional ??CrossCallReturnLabel_22
          CFI R6 load(1, XDATA, add(CFA_XSP16, literal(-9)))
          CFI VB load(1, XDATA, add(CFA_XSP16, literal(-8)))
          CFI V0 load(1, XDATA, add(CFA_XSP16, literal(-7)))
          CFI R7 load(1, XDATA, add(CFA_XSP16, literal(-6)))
          CFI ?RET_LOW load(1, XDATA, add(CFA_XSP16, literal(-5)))
          CFI ?RET_HIGH load(1, XDATA, add(CFA_XSP16, literal(-4)))
          CFI ?BRET_EXT load(1, XDATA, add(CFA_XSP16, literal(-3)))
          CFI DPL0 load(1, XDATA, add(CFA_XSP16, literal(-2)))
          CFI DPH0 load(1, XDATA, add(CFA_XSP16, literal(-1)))
          CFI CFA_SP SP+-2
          CFI CFA_XSP16 add(XSP16, 9)
          CFI Block cfiCond132 Using cfiCommon0
          CFI (cfiCond132) Function osal_msg_extract
          CFI (cfiCond132) Conditional ??CrossCallReturnLabel_23
          CFI (cfiCond132) R6 load(1, XDATA, add(CFA_XSP16, literal(-11)))
          CFI (cfiCond132) VB load(1, XDATA, add(CFA_XSP16, literal(-10)))
          CFI (cfiCond132) V0 load(1, XDATA, add(CFA_XSP16, literal(-9)))
          CFI (cfiCond132) V1 load(1, XDATA, add(CFA_XSP16, literal(-8)))
          CFI (cfiCond132) V2 load(1, XDATA, add(CFA_XSP16, literal(-7)))
          CFI (cfiCond132) R7 load(1, XDATA, add(CFA_XSP16, literal(-6)))
          CFI (cfiCond132) ?RET_LOW load(1, XDATA, add(CFA_XSP16, literal(-5)))
          CFI (cfiCond132) ?RET_HIGH load(1, XDATA, add(CFA_XSP16, literal(-4)))
          CFI (cfiCond132) ?BRET_EXT load(1, XDATA, add(CFA_XSP16, literal(-3)))
          CFI (cfiCond132) DPL0 load(1, XDATA, add(CFA_XSP16, literal(-2)))
          CFI (cfiCond132) DPH0 load(1, XDATA, add(CFA_XSP16, literal(-1)))
          CFI (cfiCond132) CFA_SP SP+-2
          CFI (cfiCond132) CFA_XSP16 add(XSP16, 11)
          CFI Block cfiPicker133 Using cfiCommon1
          CFI (cfiPicker133) NoFunction
          CFI (cfiPicker133) Picker
        MOV     A,R4
        ADD     A,#-0x1
        MOV     DPL,A
        MOV     A,R5
        ADDC    A,#-0x1
        MOV     DPH,A
        RET
          CFI (cfiCond131) CFA_SP SP+0
          CFI (cfiCond132) CFA_SP SP+0
          CFI (cfiPicker133) CFA_SP SP+0
          CFI EndBlock cfiCond131
          CFI EndBlock cfiCond132
          CFI EndBlock cfiPicker133

        RSEG BANKED_CODE:CODE:NOROOT(0)
?Subroutine9:
          CFI Block cfiCond134 Using cfiCommon0
          CFI Function osal_msg_enqueue_push
          CFI Conditional ??CrossCallReturnLabel_77
          CFI R6 load(1, XDATA, add(CFA_XSP16, literal(-11)))
          CFI VB load(1, XDATA, add(CFA_XSP16, literal(-10)))
          CFI V0 load(1, XDATA, add(CFA_XSP16, literal(-9)))
          CFI V1 load(1, XDATA, add(CFA_XSP16, literal(-8)))
          CFI V2 load(1, XDATA, add(CFA_XSP16, literal(-7)))
          CFI R7 load(1, XDATA, add(CFA_XSP16, literal(-6)))
          CFI ?RET_LOW load(1, XDATA, add(CFA_XSP16, literal(-5)))
          CFI ?RET_HIGH load(1, XDATA, add(CFA_XSP16, literal(-4)))
          CFI ?BRET_EXT load(1, XDATA, add(CFA_XSP16, literal(-3)))
          CFI DPL0 load(1, XDATA, add(CFA_XSP16, literal(-2)))
          CFI DPH0 load(1, XDATA, add(CFA_XSP16, literal(-1)))
          CFI CFA_SP SP+-2
          CFI CFA_XSP16 add(XSP16, 11)
          CFI Block cfiCond135 Using cfiCommon0
          CFI (cfiCond135) Function osal_msg_dequeue
          CFI (cfiCond135) Conditional ??CrossCallReturnLabel_78
          CFI (cfiCond135) R6 load(1, XDATA, add(CFA_XSP16, literal(-10)))
          CFI (cfiCond135) VB load(1, XDATA, add(CFA_XSP16, literal(-9)))
          CFI (cfiCond135) V0 load(1, XDATA, add(CFA_XSP16, literal(-8)))
          CFI (cfiCond135) V1 load(1, XDATA, add(CFA_XSP16, literal(-7)))
          CFI (cfiCond135) R7 load(1, XDATA, add(CFA_XSP16, literal(-6)))
          CFI (cfiCond135) ?RET_LOW load(1, XDATA, add(CFA_XSP16, literal(-5)))
          CFI (cfiCond135) ?RET_HIGH load(1, XDATA, add(CFA_XSP16, literal(-4)))
          CFI (cfiCond135) ?BRET_EXT load(1, XDATA, add(CFA_XSP16, literal(-3)))
          CFI (cfiCond135) DPL0 load(1, XDATA, add(CFA_XSP16, literal(-2)))
          CFI (cfiCond135) DPH0 load(1, XDATA, add(CFA_XSP16, literal(-1)))
          CFI (cfiCond135) CFA_SP SP+-2
          CFI (cfiCond135) CFA_XSP16 add(XSP16, 10)
          CFI Block cfiPicker136 Using cfiCommon1
          CFI (cfiPicker136) NoFunction
          CFI (cfiPicker136) Picker
        LCALL   ?Subroutine30 & 0xFFFF
??CrossCallReturnLabel_40:
          CFI EndBlock cfiCond134
          CFI EndBlock cfiCond135
          CFI EndBlock cfiPicker136
        REQUIRE ??Subroutine36_0
        ; // Fall through to label ??Subroutine36_0

        RSEG BANKED_CODE:CODE:NOROOT(0)
??Subroutine36_0:
          CFI Block cfiCond137 Using cfiCommon0
          CFI Function osal_msg_enqueue_push
          CFI Conditional ??CrossCallReturnLabel_75
          CFI R6 load(1, XDATA, add(CFA_XSP16, literal(-11)))
          CFI VB load(1, XDATA, add(CFA_XSP16, literal(-10)))
          CFI V0 load(1, XDATA, add(CFA_XSP16, literal(-9)))
          CFI V1 load(1, XDATA, add(CFA_XSP16, literal(-8)))
          CFI V2 load(1, XDATA, add(CFA_XSP16, literal(-7)))
          CFI R7 load(1, XDATA, add(CFA_XSP16, literal(-6)))
          CFI ?RET_LOW load(1, XDATA, add(CFA_XSP16, literal(-5)))
          CFI ?RET_HIGH load(1, XDATA, add(CFA_XSP16, literal(-4)))
          CFI ?BRET_EXT load(1, XDATA, add(CFA_XSP16, literal(-3)))
          CFI DPL0 load(1, XDATA, add(CFA_XSP16, literal(-2)))
          CFI DPH0 load(1, XDATA, add(CFA_XSP16, literal(-1)))
          CFI CFA_SP SP+-2
          CFI CFA_XSP16 add(XSP16, 11)
          CFI Block cfiCond138 Using cfiCommon0
          CFI (cfiCond138) Function osal_msg_extract
          CFI (cfiCond138) Conditional ??CrossCallReturnLabel_76
          CFI (cfiCond138) R6 load(1, XDATA, add(CFA_XSP16, literal(-11)))
          CFI (cfiCond138) VB load(1, XDATA, add(CFA_XSP16, literal(-10)))
          CFI (cfiCond138) V0 load(1, XDATA, add(CFA_XSP16, literal(-9)))
          CFI (cfiCond138) V1 load(1, XDATA, add(CFA_XSP16, literal(-8)))
          CFI (cfiCond138) V2 load(1, XDATA, add(CFA_XSP16, literal(-7)))
          CFI (cfiCond138) R7 load(1, XDATA, add(CFA_XSP16, literal(-6)))
          CFI (cfiCond138) ?RET_LOW load(1, XDATA, add(CFA_XSP16, literal(-5)))
          CFI (cfiCond138) ?RET_HIGH load(1, XDATA, add(CFA_XSP16, literal(-4)))
          CFI (cfiCond138) ?BRET_EXT load(1, XDATA, add(CFA_XSP16, literal(-3)))
          CFI (cfiCond138) DPL0 load(1, XDATA, add(CFA_XSP16, literal(-2)))
          CFI (cfiCond138) DPH0 load(1, XDATA, add(CFA_XSP16, literal(-1)))
          CFI (cfiCond138) CFA_SP SP+-2
          CFI (cfiCond138) CFA_XSP16 add(XSP16, 11)
          CFI Block cfiCond139 Using cfiCommon0
          CFI (cfiCond139) Function osal_msg_enqueue_push
          CFI (cfiCond139) Conditional ??CrossCallReturnLabel_77
          CFI (cfiCond139) R6 load(1, XDATA, add(CFA_XSP16, literal(-11)))
          CFI (cfiCond139) VB load(1, XDATA, add(CFA_XSP16, literal(-10)))
          CFI (cfiCond139) V0 load(1, XDATA, add(CFA_XSP16, literal(-9)))
          CFI (cfiCond139) V1 load(1, XDATA, add(CFA_XSP16, literal(-8)))
          CFI (cfiCond139) V2 load(1, XDATA, add(CFA_XSP16, literal(-7)))
          CFI (cfiCond139) R7 load(1, XDATA, add(CFA_XSP16, literal(-6)))
          CFI (cfiCond139) ?RET_LOW load(1, XDATA, add(CFA_XSP16, literal(-5)))
          CFI (cfiCond139) ?RET_HIGH load(1, XDATA, add(CFA_XSP16, literal(-4)))
          CFI (cfiCond139) ?BRET_EXT load(1, XDATA, add(CFA_XSP16, literal(-3)))
          CFI (cfiCond139) DPL0 load(1, XDATA, add(CFA_XSP16, literal(-2)))
          CFI (cfiCond139) DPH0 load(1, XDATA, add(CFA_XSP16, literal(-1)))
          CFI (cfiCond139) CFA_SP SP+-2
          CFI (cfiCond139) CFA_XSP16 add(XSP16, 11)
          CFI Block cfiCond140 Using cfiCommon0
          CFI (cfiCond140) Function osal_msg_dequeue
          CFI (cfiCond140) Conditional ??CrossCallReturnLabel_78
          CFI (cfiCond140) R6 load(1, XDATA, add(CFA_XSP16, literal(-10)))
          CFI (cfiCond140) VB load(1, XDATA, add(CFA_XSP16, literal(-9)))
          CFI (cfiCond140) V0 load(1, XDATA, add(CFA_XSP16, literal(-8)))
          CFI (cfiCond140) V1 load(1, XDATA, add(CFA_XSP16, literal(-7)))
          CFI (cfiCond140) R7 load(1, XDATA, add(CFA_XSP16, literal(-6)))
          CFI (cfiCond140) ?RET_LOW load(1, XDATA, add(CFA_XSP16, literal(-5)))
          CFI (cfiCond140) ?RET_HIGH load(1, XDATA, add(CFA_XSP16, literal(-4)))
          CFI (cfiCond140) ?BRET_EXT load(1, XDATA, add(CFA_XSP16, literal(-3)))
          CFI (cfiCond140) DPL0 load(1, XDATA, add(CFA_XSP16, literal(-2)))
          CFI (cfiCond140) DPH0 load(1, XDATA, add(CFA_XSP16, literal(-1)))
          CFI (cfiCond140) CFA_SP SP+-2
          CFI (cfiCond140) CFA_XSP16 add(XSP16, 10)
          CFI Block cfiPicker141 Using cfiCommon1
          CFI (cfiPicker141) NoFunction
          CFI (cfiPicker141) Picker
        MOVX    A,@DPTR
        MOV     ?V0,A
        INC     DPTR
        MOVX    A,@DPTR
        MOV     ?V1,A
        RET
          CFI (cfiCond137) CFA_SP SP+0
          CFI (cfiCond138) CFA_SP SP+0
          CFI (cfiCond139) CFA_SP SP+0
          CFI (cfiCond140) CFA_SP SP+0
          CFI (cfiPicker141) CFA_SP SP+0
          CFI EndBlock cfiCond137
          CFI EndBlock cfiCond138
          CFI EndBlock cfiCond139
          CFI EndBlock cfiCond140
          CFI EndBlock cfiPicker141

        RSEG BANKED_CODE:CODE:NOROOT(0)
?Subroutine30:
          CFI Block cfiCond142 Using cfiCommon0
          CFI Function osal_msg_push_front
          CFI Conditional ??CrossCallReturnLabel_39
          CFI R6 load(1, XDATA, add(CFA_XSP16, literal(-10)))
          CFI VB load(1, XDATA, add(CFA_XSP16, literal(-9)))
          CFI V0 load(1, XDATA, add(CFA_XSP16, literal(-8)))
          CFI V1 load(1, XDATA, add(CFA_XSP16, literal(-7)))
          CFI R7 load(1, XDATA, add(CFA_XSP16, literal(-6)))
          CFI ?RET_LOW load(1, XDATA, add(CFA_XSP16, literal(-5)))
          CFI ?RET_HIGH load(1, XDATA, add(CFA_XSP16, literal(-4)))
          CFI ?BRET_EXT load(1, XDATA, add(CFA_XSP16, literal(-3)))
          CFI DPL0 load(1, XDATA, add(CFA_XSP16, literal(-2)))
          CFI DPH0 load(1, XDATA, add(CFA_XSP16, literal(-1)))
          CFI CFA_SP SP+-2
          CFI CFA_XSP16 add(XSP16, 10)
          CFI Block cfiCond143 Using cfiCommon0
          CFI (cfiCond143) Function osal_msg_enqueue_push
          CFI (cfiCond143) Conditional ??CrossCallReturnLabel_40, ??CrossCallReturnLabel_77
          CFI (cfiCond143) R6 load(1, XDATA, add(CFA_XSP16, literal(-11)))
          CFI (cfiCond143) VB load(1, XDATA, add(CFA_XSP16, literal(-10)))
          CFI (cfiCond143) V0 load(1, XDATA, add(CFA_XSP16, literal(-9)))
          CFI (cfiCond143) V1 load(1, XDATA, add(CFA_XSP16, literal(-8)))
          CFI (cfiCond143) V2 load(1, XDATA, add(CFA_XSP16, literal(-7)))
          CFI (cfiCond143) R7 load(1, XDATA, add(CFA_XSP16, literal(-6)))
          CFI (cfiCond143) ?RET_LOW load(1, XDATA, add(CFA_XSP16, literal(-5)))
          CFI (cfiCond143) ?RET_HIGH load(1, XDATA, add(CFA_XSP16, literal(-4)))
          CFI (cfiCond143) ?BRET_EXT load(1, XDATA, add(CFA_XSP16, literal(-3)))
          CFI (cfiCond143) DPL0 load(1, XDATA, add(CFA_XSP16, literal(-2)))
          CFI (cfiCond143) DPH0 load(1, XDATA, add(CFA_XSP16, literal(-1)))
          CFI (cfiCond143) CFA_SP SP+-4
          CFI (cfiCond143) CFA_XSP16 add(XSP16, 11)
          CFI Block cfiCond144 Using cfiCommon0
          CFI (cfiCond144) Function osal_msg_dequeue
          CFI (cfiCond144) Conditional ??CrossCallReturnLabel_40, ??CrossCallReturnLabel_78
          CFI (cfiCond144) R6 load(1, XDATA, add(CFA_XSP16, literal(-10)))
          CFI (cfiCond144) VB load(1, XDATA, add(CFA_XSP16, literal(-9)))
          CFI (cfiCond144) V0 load(1, XDATA, add(CFA_XSP16, literal(-8)))
          CFI (cfiCond144) V1 load(1, XDATA, add(CFA_XSP16, literal(-7)))
          CFI (cfiCond144) R7 load(1, XDATA, add(CFA_XSP16, literal(-6)))
          CFI (cfiCond144) ?RET_LOW load(1, XDATA, add(CFA_XSP16, literal(-5)))
          CFI (cfiCond144) ?RET_HIGH load(1, XDATA, add(CFA_XSP16, literal(-4)))
          CFI (cfiCond144) ?BRET_EXT load(1, XDATA, add(CFA_XSP16, literal(-3)))
          CFI (cfiCond144) DPL0 load(1, XDATA, add(CFA_XSP16, literal(-2)))
          CFI (cfiCond144) DPH0 load(1, XDATA, add(CFA_XSP16, literal(-1)))
          CFI (cfiCond144) CFA_SP SP+-4
          CFI (cfiCond144) CFA_XSP16 add(XSP16, 10)
          CFI Block cfiPicker145 Using cfiCommon1
          CFI (cfiPicker145) NoFunction
          CFI (cfiPicker145) Picker
        MOV     A,R2
        ADD     A,#-0x5
        MOV     R0,A
        MOV     A,R3
        ADDC    A,#-0x1
        MOV     R1,A
        MOV     DPL,R0
        MOV     DPH,R1
        RET
          CFI (cfiCond142) CFA_SP SP+0
          CFI (cfiCond143) CFA_SP SP+-2
          CFI (cfiCond144) CFA_SP SP+-2
          CFI (cfiPicker145) CFA_SP SP+0
          CFI EndBlock cfiCond142
          CFI EndBlock cfiCond143
          CFI EndBlock cfiCond144
          CFI EndBlock cfiPicker145
//  880 
//  881 /*********************************************************************
//  882  * @fn      osal_msg_enqueue_max
//  883  *
//  884  * @brief
//  885  *
//  886  *    This function enqueues an OSAL message into an OSAL queue if
//  887  *    the length of the queue is less than max.
//  888  *
//  889  * @param   osal_msg_q_t *q_ptr - OSAL queue
//  890  * @param   void *msg_ptr  - OSAL message
//  891  * @param   uint8 max - maximum length of queue
//  892  *
//  893  * @return  TRUE if message was enqueued, FALSE otherwise
//  894  */

        RSEG BANKED_CODE:CODE:NOROOT(0)
//  895 uint8 osal_msg_enqueue_max( osal_msg_q_t *q_ptr, void *msg_ptr, uint8 max )
osal_msg_enqueue_max:
          CFI Block cfiBlock146 Using cfiCommon0
          CFI Function osal_msg_enqueue_max
        CODE
//  896 {
        REQUIRE ?V0
        REQUIRE ?V1
        MOV     A,#-0xa
        LCALL   ?BANKED_ENTER_XDATA
          CFI DPH0 load(1, XDATA, add(CFA_XSP16, literal(-1)))
          CFI DPL0 load(1, XDATA, add(CFA_XSP16, literal(-2)))
          CFI ?BRET_EXT load(1, XDATA, add(CFA_XSP16, literal(-3)))
          CFI ?RET_HIGH load(1, XDATA, add(CFA_XSP16, literal(-4)))
          CFI ?RET_LOW load(1, XDATA, add(CFA_XSP16, literal(-5)))
          CFI R7 load(1, XDATA, add(CFA_XSP16, literal(-6)))
          CFI V1 load(1, XDATA, add(CFA_XSP16, literal(-7)))
          CFI V0 load(1, XDATA, add(CFA_XSP16, literal(-8)))
          CFI VB load(1, XDATA, add(CFA_XSP16, literal(-9)))
          CFI R6 load(1, XDATA, add(CFA_XSP16, literal(-10)))
          CFI CFA_SP SP+0
          CFI CFA_XSP16 add(XSP16, 10)
        ; Saved register size: 10
        ; Auto size: 0
        MOV     ?V0,R2
        MOV     ?V1,R3
        MOV     A,R1
        MOV     R6,A
//  897   void *list;
//  898   uint8 ret = FALSE;
        MOV     R2,#0x0
//  899   halIntState_t intState;
//  900 
//  901   // Hold off interrupts
//  902   HAL_ENTER_CRITICAL_SECTION(intState);
        MOV     C,0xa8.7
        CLR     A
        RLC     A
        MOV     R3,A
        CLR     0xa8.7
//  903 
//  904   // If first message in queue
//  905   if ( *q_ptr == NULL )
        MOV     DPL,?V0
        MOV     DPH,?V1
        LCALL   ??Subroutine34_0 & 0xFFFF
??CrossCallReturnLabel_68:
        JNZ     ??osal_msg_enqueue_max_0
//  906   {
//  907     *q_ptr = msg_ptr;
        SJMP    ??osal_msg_enqueue_max_1
//  908     ret = TRUE;
//  909   }
//  910   else
//  911   {
//  912     // Find end of queue or max
//  913     list = *q_ptr;
//  914     max--;
//  915     while ( (OSAL_MSG_NEXT( list ) != NULL) && (max > 0) )
??osal_msg_enqueue_max_2:
        MOV     A,R6
        JZ      ??osal_msg_enqueue_max_3
//  916     {
//  917       list = OSAL_MSG_NEXT( list );
//  918       max--;
??osal_msg_enqueue_max_0:
        DEC     R6
//  919     }
        LCALL   ?Subroutine7 & 0xFFFF
??CrossCallReturnLabel_70:
        JNZ     ??osal_msg_enqueue_max_2
//  920 
//  921     // Add message to end of queue if max not reached
//  922     if ( max != 0 )
        MOV     A,R6
        JZ      ??osal_msg_enqueue_max_3
//  923     {
//  924       OSAL_MSG_NEXT( list ) = msg_ptr;
??osal_msg_enqueue_max_1:
        MOV     DPL,?V0
        MOV     DPH,?V1
        MOV     A,R4
        MOVX    @DPTR,A
        INC     DPTR
        MOV     A,R5
        MOVX    @DPTR,A
//  925       ret = TRUE;
        MOV     R2,#0x1
//  926     }
//  927   }
//  928 
//  929   // Re-enable interrupts
//  930   HAL_EXIT_CRITICAL_SECTION(intState);
??osal_msg_enqueue_max_3:
        MOV     A,R3
        MOV     C,0xE0 /* A   */.0
        MOV     0xa8.7,C
//  931 
//  932   return ret;
        MOV     A,R2
        MOV     R1,A
        LJMP    ?Subroutine2 & 0xFFFF
          CFI EndBlock cfiBlock146
        REQUIRE _A_IEN0
//  933 }
//  934 
//  935 /*********************************************************************
//  936  * @fn      osal_set_event
//  937  *
//  938  * @brief
//  939  *
//  940  *    This function is called to set the event flags for a task. The
//  941  *    event passed in is OR'd into the task's event variable.
//  942  *
//  943  * @param   uint8 task_id - receiving tasks ID
//  944  * @param   uint8 event_flag - what event to set
//  945  *
//  946  * @return  SUCCESS, INVALID_TASK
//  947  */

        RSEG BANKED_CODE:CODE:NOROOT(0)
//  948 uint8 osal_set_event( uint8 task_id, uint16 event_flag )
osal_set_event:
          CFI Block cfiBlock147 Using cfiCommon0
          CFI Function osal_set_event
        CODE
//  949 {
        MOV     A,#-0x9
        LCALL   ?BANKED_ENTER_XDATA
          CFI DPH0 load(1, XDATA, add(CFA_XSP16, literal(-1)))
          CFI DPL0 load(1, XDATA, add(CFA_XSP16, literal(-2)))
          CFI ?BRET_EXT load(1, XDATA, add(CFA_XSP16, literal(-3)))
          CFI ?RET_HIGH load(1, XDATA, add(CFA_XSP16, literal(-4)))
          CFI ?RET_LOW load(1, XDATA, add(CFA_XSP16, literal(-5)))
          CFI R7 load(1, XDATA, add(CFA_XSP16, literal(-6)))
          CFI V0 load(1, XDATA, add(CFA_XSP16, literal(-7)))
          CFI VB load(1, XDATA, add(CFA_XSP16, literal(-8)))
          CFI R6 load(1, XDATA, add(CFA_XSP16, literal(-9)))
          CFI CFA_SP SP+0
          CFI CFA_XSP16 add(XSP16, 9)
        ; Saved register size: 9
        ; Auto size: 0
        MOV     A,R1
        MOV     R6,A
//  950   if ( task_id < tasksCnt )
        MOV     DPTR,#tasksCnt
        MOVX    A,@DPTR
        MOV     R0,A
        MOV     A,R6
        CLR     C
        SUBB    A,R0
        JNC     ??osal_set_event_0
//  951   {
//  952     halIntState_t   intState;
//  953     HAL_ENTER_CRITICAL_SECTION(intState);    // Hold off interrupts
        MOV     R4,0xa8+0x0
        CLR     0xa8.7
//  954     tasksEvents[task_id] |= event_flag;  // Stuff the event bit(s)
        MOV     A,R6
        LCALL   ?Subroutine25 & 0xFFFF
??CrossCallReturnLabel_31:
        MOV     R5,A
        INC     DPTR
        MOVX    A,@DPTR
        ADDC    A,R1
        MOV     DPL,R5
        MOV     DPH,A
        MOVX    A,@DPTR
        ORL     A,R2
        MOVX    @DPTR,A
        INC     DPTR
        MOVX    A,@DPTR
        ORL     A,R3
        MOVX    @DPTR,A
//  955     HAL_EXIT_CRITICAL_SECTION(intState);     // Release interrupts
        MOV     A,R4
        MOV     C,0xE0 /* A   */.7
        CLR     A
        RLC     A
        MOV     R0,A
        MOV     A,R4
        MOV     C,0xE0 /* A   */.7
        MOV     0xa8.7,C
//  956     return ( SUCCESS );
        MOV     R1,#0x0
        SJMP    ??osal_set_event_1
//  957   }
//  958    else
//  959   {
//  960     return ( INVALID_TASK );
??osal_set_event_0:
        MOV     R1,#0x3
//  961   }
??osal_set_event_1:
        LJMP    ??Subroutine35_0 & 0xFFFF
          CFI EndBlock cfiBlock147
        REQUIRE _A_IEN0
//  962 }
//  963 
//  964 /*********************************************************************
//  965  * @fn      osal_clear_event
//  966  *
//  967  * @brief
//  968  *
//  969  *    This function is called to clear the event flags for a task. The
//  970  *    event passed in is masked out of the task's event variable.
//  971  *
//  972  * @param   uint8 task_id - receiving tasks ID
//  973  * @param   uint8 event_flag - what event to clear
//  974  *
//  975  * @return  SUCCESS, INVALID_TASK
//  976  */

        RSEG BANKED_CODE:CODE:NOROOT(0)
//  977 uint8 osal_clear_event( uint8 task_id, uint16 event_flag )
osal_clear_event:
          CFI Block cfiBlock148 Using cfiCommon0
          CFI Function osal_clear_event
        CODE
//  978 {
        MOV     A,#-0x9
        LCALL   ?BANKED_ENTER_XDATA
          CFI DPH0 load(1, XDATA, add(CFA_XSP16, literal(-1)))
          CFI DPL0 load(1, XDATA, add(CFA_XSP16, literal(-2)))
          CFI ?BRET_EXT load(1, XDATA, add(CFA_XSP16, literal(-3)))
          CFI ?RET_HIGH load(1, XDATA, add(CFA_XSP16, literal(-4)))
          CFI ?RET_LOW load(1, XDATA, add(CFA_XSP16, literal(-5)))
          CFI R7 load(1, XDATA, add(CFA_XSP16, literal(-6)))
          CFI V0 load(1, XDATA, add(CFA_XSP16, literal(-7)))
          CFI VB load(1, XDATA, add(CFA_XSP16, literal(-8)))
          CFI R6 load(1, XDATA, add(CFA_XSP16, literal(-9)))
          CFI CFA_SP SP+0
          CFI CFA_XSP16 add(XSP16, 9)
        ; Saved register size: 9
        ; Auto size: 0
        MOV     A,R1
        MOV     R7,A
//  979   if ( task_id < tasksCnt )
        MOV     DPTR,#tasksCnt
        MOVX    A,@DPTR
        MOV     R0,A
        MOV     A,R7
        CLR     C
        SUBB    A,R0
        JNC     ??osal_clear_event_0
//  980   {
//  981     halIntState_t   intState;
//  982     HAL_ENTER_CRITICAL_SECTION(intState);    // Hold off interrupts
        MOV     R6,0xa8+0x0
        CLR     0xa8.7
//  983     tasksEvents[task_id] &= ~(event_flag);   // Clear the event bit(s)
        MOV     A,R2
        CPL     A
        MOV     R4,A
        MOV     A,R3
        CPL     A
        MOV     R5,A
        MOV     A,R7
        LCALL   ?Subroutine25 & 0xFFFF
??CrossCallReturnLabel_32:
        MOV     R2,A
        INC     DPTR
        MOVX    A,@DPTR
        ADDC    A,R1
        MOV     DPL,R2
        MOV     DPH,A
        MOVX    A,@DPTR
        ANL     A,R4
        MOVX    @DPTR,A
        INC     DPTR
        MOVX    A,@DPTR
        ANL     A,R5
        MOVX    @DPTR,A
//  984     HAL_EXIT_CRITICAL_SECTION(intState);     // Release interrupts
        MOV     A,R6
        MOV     C,0xE0 /* A   */.7
        CLR     A
        RLC     A
        MOV     R0,A
        MOV     A,R6
        MOV     C,0xE0 /* A   */.7
        MOV     0xa8.7,C
//  985     return ( SUCCESS );
        MOV     R1,#0x0
        SJMP    ??osal_clear_event_1
//  986   }
//  987    else
//  988   {
//  989     return ( INVALID_TASK );
??osal_clear_event_0:
        MOV     R1,#0x3
//  990   }
??osal_clear_event_1:
        LJMP    ??Subroutine35_0 & 0xFFFF
          CFI EndBlock cfiBlock148
        REQUIRE _A_IEN0
//  991 }

        RSEG BANKED_CODE:CODE:NOROOT(0)
?Subroutine25:
          CFI Block cfiCond149 Using cfiCommon0
          CFI Function osal_set_event
          CFI Conditional ??CrossCallReturnLabel_31
          CFI R6 load(1, XDATA, add(CFA_XSP16, literal(-9)))
          CFI VB load(1, XDATA, add(CFA_XSP16, literal(-8)))
          CFI V0 load(1, XDATA, add(CFA_XSP16, literal(-7)))
          CFI R7 load(1, XDATA, add(CFA_XSP16, literal(-6)))
          CFI ?RET_LOW load(1, XDATA, add(CFA_XSP16, literal(-5)))
          CFI ?RET_HIGH load(1, XDATA, add(CFA_XSP16, literal(-4)))
          CFI ?BRET_EXT load(1, XDATA, add(CFA_XSP16, literal(-3)))
          CFI DPL0 load(1, XDATA, add(CFA_XSP16, literal(-2)))
          CFI DPH0 load(1, XDATA, add(CFA_XSP16, literal(-1)))
          CFI CFA_SP SP+-2
          CFI CFA_XSP16 add(XSP16, 9)
          CFI Block cfiCond150 Using cfiCommon0
          CFI (cfiCond150) Function osal_clear_event
          CFI (cfiCond150) Conditional ??CrossCallReturnLabel_32
          CFI (cfiCond150) R6 load(1, XDATA, add(CFA_XSP16, literal(-9)))
          CFI (cfiCond150) VB load(1, XDATA, add(CFA_XSP16, literal(-8)))
          CFI (cfiCond150) V0 load(1, XDATA, add(CFA_XSP16, literal(-7)))
          CFI (cfiCond150) R7 load(1, XDATA, add(CFA_XSP16, literal(-6)))
          CFI (cfiCond150) ?RET_LOW load(1, XDATA, add(CFA_XSP16, literal(-5)))
          CFI (cfiCond150) ?RET_HIGH load(1, XDATA, add(CFA_XSP16, literal(-4)))
          CFI (cfiCond150) ?BRET_EXT load(1, XDATA, add(CFA_XSP16, literal(-3)))
          CFI (cfiCond150) DPL0 load(1, XDATA, add(CFA_XSP16, literal(-2)))
          CFI (cfiCond150) DPH0 load(1, XDATA, add(CFA_XSP16, literal(-1)))
          CFI (cfiCond150) CFA_SP SP+-2
          CFI (cfiCond150) CFA_XSP16 add(XSP16, 9)
          CFI Block cfiPicker151 Using cfiCommon1
          CFI (cfiPicker151) NoFunction
          CFI (cfiPicker151) Picker
        ADD     A,R1
        MOV     R0,A
        CLR     A
        RLC     A
        MOV     R1,A
        MOV     DPTR,#tasksEvents
        MOVX    A,@DPTR
        ADD     A,R0
        RET
          CFI (cfiCond149) CFA_SP SP+0
          CFI (cfiCond150) CFA_SP SP+0
          CFI (cfiPicker151) CFA_SP SP+0
          CFI EndBlock cfiCond149
          CFI EndBlock cfiCond150
          CFI EndBlock cfiPicker151
//  992 
//  993 /*********************************************************************
//  994  * @fn      osal_isr_register
//  995  *
//  996  * @brief
//  997  *
//  998  *   This function is called to register a service routine with an
//  999  *   interrupt. When the interrupt occurs, this service routine is called.
// 1000  *
// 1001  * @param   uint8 interrupt_id - Interrupt number
// 1002  * @param   void (*isr_ptr)( uint8* ) - function pointer to ISR
// 1003  *
// 1004  * @return  SUCCESS, INVALID_INTERRUPT_ID,
// 1005  */

        RSEG BANKED_CODE:CODE:NOROOT(0)
// 1006 uint8 osal_isr_register( uint8 interrupt_id, void (*isr_ptr)( uint8* ) )
osal_isr_register:
          CFI Block cfiBlock152 Using cfiCommon0
          CFI Function osal_isr_register
        CODE
// 1007 {
        ; Saved register size: 0
        ; Auto size: 0
// 1008   // Remove these statements when functionality is complete
// 1009   (void)interrupt_id;
// 1010   (void)isr_ptr;
// 1011   return ( SUCCESS );
        MOV     R1,#0x0
        LJMP    ?BRET
// 1012 }
          CFI EndBlock cfiBlock152
// 1013 
// 1014 /*********************************************************************
// 1015  * @fn      osal_int_enable
// 1016  *
// 1017  * @brief
// 1018  *
// 1019  *   This function is called to enable an interrupt. Once enabled,
// 1020  *   occurrence of the interrupt causes the service routine associated
// 1021  *   with that interrupt to be called.
// 1022  *
// 1023  *   If INTS_ALL is the interrupt_id, interrupts (in general) are enabled.
// 1024  *   If a single interrupt is passed in, then interrupts still have
// 1025  *   to be enabled with another call to INTS_ALL.
// 1026  *
// 1027  * @param   uint8 interrupt_id - Interrupt number
// 1028  *
// 1029  * @return  SUCCESS or INVALID_INTERRUPT_ID
// 1030  */

        RSEG BANKED_CODE:CODE:NOROOT(0)
// 1031 uint8 osal_int_enable( uint8 interrupt_id )
osal_int_enable:
          CFI Block cfiBlock153 Using cfiCommon0
          CFI Function osal_int_enable
        CODE
// 1032 {
        ; Saved register size: 0
        ; Auto size: 0
        MOV     A,R1
        MOV     R0,A
// 1033 
// 1034   if ( interrupt_id == INTS_ALL )
        MOV     A,#-0x1
        XRL     A,R0
        JNZ     ??osal_int_enable_0
// 1035   {
// 1036     HAL_ENABLE_INTERRUPTS();
        SETB    0xa8.7
// 1037     return ( SUCCESS );
        MOV     R1,#0x0
        SJMP    ??osal_int_enable_1
// 1038   }
// 1039   else
// 1040   {
// 1041     return ( INVALID_INTERRUPT_ID );
??osal_int_enable_0:
        MOV     R1,#0x7
??osal_int_enable_1:
        LJMP    ?BRET
          CFI EndBlock cfiBlock153
        REQUIRE _A_IEN0
// 1042   }
// 1043 }
// 1044 
// 1045 /*********************************************************************
// 1046  * @fn      osal_int_disable
// 1047  *
// 1048  * @brief
// 1049  *
// 1050  *   This function is called to disable an interrupt. When a disabled
// 1051  *   interrupt occurs, the service routine associated with that
// 1052  *   interrupt is not called.
// 1053  *
// 1054  *   If INTS_ALL is the interrupt_id, interrupts (in general) are disabled.
// 1055  *   If a single interrupt is passed in, then just that interrupt is disabled.
// 1056  *
// 1057  * @param   uint8 interrupt_id - Interrupt number
// 1058  *
// 1059  * @return  SUCCESS or INVALID_INTERRUPT_ID
// 1060  */

        RSEG BANKED_CODE:CODE:NOROOT(0)
// 1061 uint8 osal_int_disable( uint8 interrupt_id )
osal_int_disable:
          CFI Block cfiBlock154 Using cfiCommon0
          CFI Function osal_int_disable
        CODE
// 1062 {
        ; Saved register size: 0
        ; Auto size: 0
        MOV     A,R1
        MOV     R0,A
// 1063 
// 1064   if ( interrupt_id == INTS_ALL )
        MOV     A,#-0x1
        XRL     A,R0
        JNZ     ??osal_int_disable_0
// 1065   {
// 1066     HAL_DISABLE_INTERRUPTS();
        CLR     0xa8.7
// 1067     return ( SUCCESS );
        MOV     R1,#0x0
        SJMP    ??osal_int_disable_1
// 1068   }
// 1069   else
// 1070   {
// 1071     return ( INVALID_INTERRUPT_ID );
??osal_int_disable_0:
        MOV     R1,#0x7
??osal_int_disable_1:
        LJMP    ?BRET
          CFI EndBlock cfiBlock154
        REQUIRE _A_IEN0
// 1072   }
// 1073 }
// 1074 
// 1075 /*********************************************************************
// 1076  * @fn      osal_init_system
// 1077  *
// 1078  * @brief
// 1079  *
// 1080  *   This function initializes the "task" system by creating the
// 1081  *   tasks defined in the task table (OSAL_Tasks.h).
// 1082  *
// 1083  * @param   void
// 1084  *
// 1085  * @return  SUCCESS
// 1086  */

        RSEG BANKED_CODE:CODE:NOROOT(0)
// 1087 uint8 osal_init_system( void )
osal_init_system:
          CFI Block cfiBlock155 Using cfiCommon0
          CFI Function osal_init_system
        CODE
// 1088 {
        FUNCALL osal_init_system, osal_mem_init
        LOCFRAME ISTACK, 2, STACK
        LOCFRAME PSTACK, 0, STACK
        LOCFRAME XSTACK, 0, STACK
        LOCFRAME IOVERLAY, 0, STATIC
        LOCFRAME DOVERLAY, 0, STATIC
        ARGFRAME ISTACK, 2, STACK
        ARGFRAME PSTACK, 0, STACK
        ARGFRAME XSTACK, 0, STACK
        ARGFRAME IOVERLAY, 0, STATIC
        ARGFRAME DOVERLAY, 0, STATIC
        FUNCALL osal_init_system, osalTimerInit
        LOCFRAME ISTACK, 2, STACK
        LOCFRAME PSTACK, 0, STACK
        LOCFRAME XSTACK, 0, STACK
        LOCFRAME IOVERLAY, 0, STATIC
        LOCFRAME DOVERLAY, 0, STATIC
        ARGFRAME ISTACK, 2, STACK
        ARGFRAME PSTACK, 0, STACK
        ARGFRAME XSTACK, 0, STACK
        ARGFRAME IOVERLAY, 0, STATIC
        ARGFRAME DOVERLAY, 0, STATIC
        FUNCALL osal_init_system, osal_pwrmgr_init
        LOCFRAME ISTACK, 2, STACK
        LOCFRAME PSTACK, 0, STACK
        LOCFRAME XSTACK, 0, STACK
        LOCFRAME IOVERLAY, 0, STATIC
        LOCFRAME DOVERLAY, 0, STATIC
        ARGFRAME ISTACK, 2, STACK
        ARGFRAME PSTACK, 0, STACK
        ARGFRAME XSTACK, 0, STACK
        ARGFRAME IOVERLAY, 0, STATIC
        ARGFRAME DOVERLAY, 0, STATIC
        FUNCALL osal_init_system, osalInitTasks
        LOCFRAME ISTACK, 2, STACK
        LOCFRAME PSTACK, 0, STACK
        LOCFRAME XSTACK, 0, STACK
        LOCFRAME IOVERLAY, 0, STATIC
        LOCFRAME DOVERLAY, 0, STATIC
        ARGFRAME ISTACK, 2, STACK
        ARGFRAME PSTACK, 0, STACK
        ARGFRAME XSTACK, 0, STACK
        ARGFRAME IOVERLAY, 0, STATIC
        ARGFRAME DOVERLAY, 0, STATIC
        FUNCALL osal_init_system, osal_mem_kick
        LOCFRAME ISTACK, 2, STACK
        LOCFRAME PSTACK, 0, STACK
        LOCFRAME XSTACK, 0, STACK
        LOCFRAME IOVERLAY, 0, STATIC
        LOCFRAME DOVERLAY, 0, STATIC
        ARGFRAME ISTACK, 2, STACK
        ARGFRAME PSTACK, 0, STACK
        ARGFRAME XSTACK, 0, STACK
        ARGFRAME IOVERLAY, 0, STATIC
        ARGFRAME DOVERLAY, 0, STATIC
        PUSH    DPL
          CFI DPL0 Frame(CFA_SP, 4)
          CFI CFA_SP SP+-4
        PUSH    DPH
          CFI DPH0 Frame(CFA_SP, 5)
          CFI CFA_SP SP+-5
        ; Saved register size: 2
        ; Auto size: 0
// 1089   // Initialize the Memory Allocation System
// 1090   osal_mem_init();
        ; Setup parameters for call to function osal_mem_init
        LCALL   `??osal_mem_init::?relay`; Banked call to: osal_mem_init
// 1091 
// 1092   // Initialize the message queue
// 1093   osal_qHead = NULL;
        MOV     DPTR,#osal_qHead
        CLR     A
        MOVX    @DPTR,A
        INC     DPTR
        MOVX    @DPTR,A
// 1094 
// 1095   // Initialize the timers
// 1096   osalTimerInit();
        ; Setup parameters for call to function osalTimerInit
        LCALL   `??osalTimerInit::?relay`; Banked call to: osalTimerInit
// 1097 
// 1098   // Initialize the Power Management System
// 1099   osal_pwrmgr_init();
        ; Setup parameters for call to function osal_pwrmgr_init
        LCALL   `??osal_pwrmgr_init::?relay`; Banked call to: osal_pwrmgr_init
// 1100 
// 1101   // Initialize the system tasks.
// 1102   osalInitTasks();
        ; Setup parameters for call to function osalInitTasks
        LCALL   `??osalInitTasks::?relay`; Banked call to: osalInitTasks
// 1103 
// 1104   // Setup efficient search for the first free block of heap.
// 1105   osal_mem_kick();
        ; Setup parameters for call to function osal_mem_kick
        LCALL   `??osal_mem_kick::?relay`; Banked call to: osal_mem_kick
// 1106 
// 1107   return ( SUCCESS );
        MOV     R1,#0x0
        LJMP    ?Subroutine0 & 0xFFFF
// 1108 }
          CFI EndBlock cfiBlock155
// 1109 
// 1110 /*********************************************************************
// 1111  * @fn      osal_start_system
// 1112  *
// 1113  * @brief
// 1114  *
// 1115  *   This function is the main loop function of the task system (if
// 1116  *   ZBIT and UBIT are not defined). This Function doesn't return.
// 1117  *
// 1118  * @param   void
// 1119  *
// 1120  * @return  none
// 1121  */

        RSEG BANKED_CODE:CODE:NOROOT(0)
// 1122 void osal_start_system( void )
osal_start_system:
          CFI Block cfiBlock156 Using cfiCommon0
          CFI Function osal_start_system
        CODE
// 1123 {
        FUNCALL osal_start_system, osal_run_system
        LOCFRAME ISTACK, 2, STACK
        LOCFRAME PSTACK, 0, STACK
        LOCFRAME XSTACK, 0, STACK
        LOCFRAME IOVERLAY, 0, STATIC
        LOCFRAME DOVERLAY, 0, STATIC
        ARGFRAME ISTACK, 2, STACK
        ARGFRAME PSTACK, 0, STACK
        ARGFRAME XSTACK, 0, STACK
        ARGFRAME IOVERLAY, 0, STATIC
        ARGFRAME DOVERLAY, 0, STATIC
        PUSH    DPL
          CFI DPL0 Frame(CFA_SP, 4)
          CFI CFA_SP SP+-4
        PUSH    DPH
          CFI DPH0 Frame(CFA_SP, 5)
          CFI CFA_SP SP+-5
        ; Saved register size: 2
        ; Auto size: 0
// 1124 #if !defined ( ZBIT ) && !defined ( UBIT )
// 1125   for(;;)  // Forever Loop
// 1126 #endif
// 1127   {
// 1128     osal_run_system();
??osal_start_system_0:
        ; Setup parameters for call to function osal_run_system
        LCALL   `??osal_run_system::?relay`; Banked call to: osal_run_system
        SJMP    ??osal_start_system_0
// 1129   }
// 1130 }
          CFI EndBlock cfiBlock156
// 1131 
// 1132 /*********************************************************************
// 1133  * @fn      osal_run_system
// 1134  *
// 1135  * @brief
// 1136  *
// 1137  *   This function will make one pass through the OSAL taskEvents table
// 1138  *   and call the task_event_processor() function for the first task that
// 1139  *   is found with at least one event pending. If there are no pending
// 1140  *   events (all tasks), this function puts the processor into Sleep.
// 1141  *
// 1142  * @param   void
// 1143  *
// 1144  * @return  none
// 1145  */

        RSEG BANKED_CODE:CODE:NOROOT(0)
// 1146 void osal_run_system( void )
osal_run_system:
          CFI Block cfiBlock157 Using cfiCommon0
          CFI Function osal_run_system
        CODE
// 1147 {
        FUNCALL osal_run_system, osalTimeUpdate
        LOCFRAME ISTACK, 0, STACK
        LOCFRAME PSTACK, 0, STACK
        LOCFRAME XSTACK, 12, STACK
        LOCFRAME IOVERLAY, 0, STATIC
        LOCFRAME DOVERLAY, 0, STATIC
        ARGFRAME ISTACK, 0, STACK
        ARGFRAME PSTACK, 0, STACK
        ARGFRAME XSTACK, 12, STACK
        ARGFRAME IOVERLAY, 0, STATIC
        ARGFRAME DOVERLAY, 0, STATIC
        FUNCALL osal_run_system, Hal_ProcessPoll
        LOCFRAME ISTACK, 0, STACK
        LOCFRAME PSTACK, 0, STACK
        LOCFRAME XSTACK, 12, STACK
        LOCFRAME IOVERLAY, 0, STATIC
        LOCFRAME DOVERLAY, 0, STATIC
        ARGFRAME ISTACK, 0, STACK
        ARGFRAME PSTACK, 0, STACK
        ARGFRAME XSTACK, 12, STACK
        ARGFRAME IOVERLAY, 0, STATIC
        ARGFRAME DOVERLAY, 0, STATIC
        FUNCALL osal_run_system, osal_pwrmgr_powerconserve
        LOCFRAME ISTACK, 0, STACK
        LOCFRAME PSTACK, 0, STACK
        LOCFRAME XSTACK, 12, STACK
        LOCFRAME IOVERLAY, 0, STATIC
        LOCFRAME DOVERLAY, 0, STATIC
        ARGFRAME ISTACK, 0, STACK
        ARGFRAME PSTACK, 0, STACK
        ARGFRAME XSTACK, 12, STACK
        ARGFRAME IOVERLAY, 0, STATIC
        ARGFRAME DOVERLAY, 0, STATIC
        REQUIRE ?V0
        REQUIRE ?V1
        REQUIRE ?V2
        REQUIRE ?V3
        MOV     A,#-0xc
        LCALL   ?BANKED_ENTER_XDATA
          CFI DPH0 load(1, XDATA, add(CFA_XSP16, literal(-1)))
          CFI DPL0 load(1, XDATA, add(CFA_XSP16, literal(-2)))
          CFI ?BRET_EXT load(1, XDATA, add(CFA_XSP16, literal(-3)))
          CFI ?RET_HIGH load(1, XDATA, add(CFA_XSP16, literal(-4)))
          CFI ?RET_LOW load(1, XDATA, add(CFA_XSP16, literal(-5)))
          CFI R7 load(1, XDATA, add(CFA_XSP16, literal(-6)))
          CFI V3 load(1, XDATA, add(CFA_XSP16, literal(-7)))
          CFI V2 load(1, XDATA, add(CFA_XSP16, literal(-8)))
          CFI V1 load(1, XDATA, add(CFA_XSP16, literal(-9)))
          CFI V0 load(1, XDATA, add(CFA_XSP16, literal(-10)))
          CFI VB load(1, XDATA, add(CFA_XSP16, literal(-11)))
          CFI R6 load(1, XDATA, add(CFA_XSP16, literal(-12)))
          CFI CFA_SP SP+0
          CFI CFA_XSP16 add(XSP16, 12)
        ; Saved register size: 12
        ; Auto size: 0
// 1148   uint8 idx = 0;
        MOV     ?V0,#0x0
// 1149 
// 1150 #ifndef HAL_BOARD_CC2538
// 1151   osalTimeUpdate();
        ; Setup parameters for call to function osalTimeUpdate
        LCALL   `??osalTimeUpdate::?relay`; Banked call to: osalTimeUpdate
// 1152 #endif
// 1153   
// 1154   Hal_ProcessPoll();
        ; Setup parameters for call to function Hal_ProcessPoll
        LCALL   `??Hal_ProcessPoll::?relay`; Banked call to: Hal_ProcessPoll
        MOV     DPTR,#tasksEvents
        LCALL   ?Subroutine27 & 0xFFFF
// 1155 
// 1156   do {
// 1157     if (tasksEvents[idx])  // Task is highest priority that is ready.
??CrossCallReturnLabel_73:
        LCALL   ?Subroutine6 & 0xFFFF
// 1158     {
// 1159       break;
// 1160     }
// 1161   } while (++idx < tasksCnt);
??CrossCallReturnLabel_54:
        MOV     A,R2
        ORL     A,R3
        JNZ     ??osal_run_system_0
        INC     ?V0
        MOV     A,R0
        ADD     A,#0x2
        MOV     R0,A
        JNC     ??osal_run_system_1
        INC     R1
??osal_run_system_1:
        MOV     DPTR,#tasksCnt
        MOVX    A,@DPTR
        MOV     R2,A
        MOV     A,?V0
        CLR     C
        SUBB    A,R2
        JC      ??CrossCallReturnLabel_73
// 1162 
// 1163   if (idx < tasksCnt)
??osal_run_system_0:
        MOV     DPTR,#tasksCnt
        MOVX    A,@DPTR
        MOV     R0,A
        MOV     A,?V0
        CLR     C
        SUBB    A,R0
        JNC     ??osal_run_system_2
// 1164   {
// 1165     uint16 events;
// 1166     halIntState_t intState;
// 1167 
// 1168     HAL_ENTER_CRITICAL_SECTION(intState);
        MOV     R4,0xa8+0x0
        CLR     0xa8.7
// 1169     events = tasksEvents[idx];
        MOV     R6,?V0
        MOV     A,R6
        ADD     A,R6
        MOV     R6,A
        CLR     A
        RLC     A
        MOV     R7,A
        MOV     DPTR,#tasksEvents
        MOVX    A,@DPTR
        ADD     A,R6
        MOV     R0,A
        INC     DPTR
        MOVX    A,@DPTR
        ADDC    A,R7
        MOV     R1,A
        LCALL   ?Subroutine6 & 0xFFFF
// 1170     tasksEvents[idx] = 0;  // Clear the Events for this task.
??CrossCallReturnLabel_55:
        MOV     DPL,R0
        MOV     DPH,R1
        CLR     A
        MOVX    @DPTR,A
        INC     DPTR
        MOVX    @DPTR,A
// 1171     HAL_EXIT_CRITICAL_SECTION(intState);
        MOV     A,R4
        MOV     C,0xE0 /* A   */.7
        CLR     A
        RLC     A
        MOV     ?V1,A
        MOV     A,R4
        MOV     C,0xE0 /* A   */.7
        MOV     0xa8.7,C
// 1172 
// 1173     activeTaskID = idx;
        MOV     A,?V0
        MOV     DPTR,#activeTaskID
        MOVX    @DPTR,A
// 1174     events = (tasksArr[idx])( idx, events );
        ; Setup parameters for indirect call
        MOV     R1,A
        MOV     A,#tasksArr & 0xff
        ADD     A,R6
        MOV     DPL,A
        MOV     A,#(tasksArr >> 8) & 0xff
        ADDC    A,R7
        MOV     DPH,A
        LCALL   ?Subroutine12 & 0xFFFF
??CrossCallReturnLabel_7:
        LCALL   ?CALL_IND
// 1175     activeTaskID = TASK_NO_TASK;
        MOV     DPTR,#activeTaskID
        MOV     A,#-0x1
        MOVX    @DPTR,A
// 1176 
// 1177     HAL_ENTER_CRITICAL_SECTION(intState);
        MOV     R0,0xa8+0x0
        CLR     0xa8.7
// 1178     tasksEvents[idx] |= events;  // Add back unprocessed events to the current task.
        MOV     DPTR,#tasksEvents
        MOVX    A,@DPTR
        ADD     A,R6
        MOV     R1,A
        INC     DPTR
        MOVX    A,@DPTR
        ADDC    A,R7
        MOV     DPL,R1
        MOV     DPH,A
        MOVX    A,@DPTR
        ORL     A,R2
        MOVX    @DPTR,A
        INC     DPTR
        MOVX    A,@DPTR
        ORL     A,R3
        LCALL   ?Subroutine17 & 0xFFFF
// 1179     HAL_EXIT_CRITICAL_SECTION(intState);
??CrossCallReturnLabel_17:
        MOV     0xa8.7,C
        SJMP    ??osal_run_system_3
// 1180   }
// 1181 #if defined( POWER_SAVING )
// 1182   else  // Complete pass through all task events with no activity?
// 1183   {
// 1184     osal_pwrmgr_powerconserve();  // Put the processor/system into sleep
??osal_run_system_2:
        ; Setup parameters for call to function osal_pwrmgr_powerconserve
        LCALL   `??osal_pwrmgr_powerconserve::?relay`; Banked call to: osal_pwrmgr_powerconserve
// 1185   }
// 1186 #endif
// 1187 
// 1188   /* Yield in case cooperative scheduling is being used. */
// 1189 #if defined (configUSE_PREEMPTION) && (configUSE_PREEMPTION == 0)
// 1190   {
// 1191     osal_task_yield();
// 1192   }
// 1193 #endif
// 1194 }
??osal_run_system_3:
        MOV     R7,#0x4
        LJMP    ?BANKED_LEAVE_XDATA
          CFI R6 SameValue
          CFI VB SameValue
          CFI V0 SameValue
          CFI V1 SameValue
          CFI V2 SameValue
          CFI V3 SameValue
          CFI R7 SameValue
          CFI ?RET_LOW Frame(CFA_SP, 1)
          CFI ?RET_HIGH Frame(CFA_SP, 2)
          CFI ?BRET_EXT Frame(CFA_SP, 3)
          CFI DPL0 SameValue
          CFI DPH0 SameValue
          CFI CFA_SP SP+-3
          CFI CFA_XSP16 XSP16+0
          CFI EndBlock cfiBlock157
        REQUIRE _A_IEN0

        RSEG BANKED_CODE:CODE:NOROOT(0)
?Subroutine17:
          CFI Block cfiCond158 Using cfiCommon0
          CFI Function osal_msg_push
          CFI Conditional ??CrossCallReturnLabel_16
          CFI R6 load(1, XDATA, add(CFA_XSP16, literal(-9)))
          CFI VB load(1, XDATA, add(CFA_XSP16, literal(-8)))
          CFI V0 load(1, XDATA, add(CFA_XSP16, literal(-7)))
          CFI R7 load(1, XDATA, add(CFA_XSP16, literal(-6)))
          CFI ?RET_LOW load(1, XDATA, add(CFA_XSP16, literal(-5)))
          CFI ?RET_HIGH load(1, XDATA, add(CFA_XSP16, literal(-4)))
          CFI ?BRET_EXT load(1, XDATA, add(CFA_XSP16, literal(-3)))
          CFI DPL0 load(1, XDATA, add(CFA_XSP16, literal(-2)))
          CFI DPH0 load(1, XDATA, add(CFA_XSP16, literal(-1)))
          CFI CFA_SP SP+-2
          CFI CFA_XSP16 add(XSP16, 9)
          CFI Block cfiCond159 Using cfiCommon0
          CFI (cfiCond159) Function osal_run_system
          CFI (cfiCond159) Conditional ??CrossCallReturnLabel_17
          CFI (cfiCond159) R6 load(1, XDATA, add(CFA_XSP16, literal(-12)))
          CFI (cfiCond159) VB load(1, XDATA, add(CFA_XSP16, literal(-11)))
          CFI (cfiCond159) V0 load(1, XDATA, add(CFA_XSP16, literal(-10)))
          CFI (cfiCond159) V1 load(1, XDATA, add(CFA_XSP16, literal(-9)))
          CFI (cfiCond159) V2 load(1, XDATA, add(CFA_XSP16, literal(-8)))
          CFI (cfiCond159) V3 load(1, XDATA, add(CFA_XSP16, literal(-7)))
          CFI (cfiCond159) R7 load(1, XDATA, add(CFA_XSP16, literal(-6)))
          CFI (cfiCond159) ?RET_LOW load(1, XDATA, add(CFA_XSP16, literal(-5)))
          CFI (cfiCond159) ?RET_HIGH load(1, XDATA, add(CFA_XSP16, literal(-4)))
          CFI (cfiCond159) ?BRET_EXT load(1, XDATA, add(CFA_XSP16, literal(-3)))
          CFI (cfiCond159) DPL0 load(1, XDATA, add(CFA_XSP16, literal(-2)))
          CFI (cfiCond159) DPH0 load(1, XDATA, add(CFA_XSP16, literal(-1)))
          CFI (cfiCond159) CFA_SP SP+-2
          CFI (cfiCond159) CFA_XSP16 add(XSP16, 12)
          CFI Block cfiPicker160 Using cfiCommon1
          CFI (cfiPicker160) NoFunction
          CFI (cfiPicker160) Picker
        MOVX    @DPTR,A
        MOV     A,R0
        MOV     C,0xE0 /* A   */.7
        CLR     A
        RLC     A
        MOV     R1,A
        MOV     A,R0
        MOV     C,0xE0 /* A   */.7
        RET
          CFI (cfiCond158) CFA_SP SP+0
          CFI (cfiCond159) CFA_SP SP+0
          CFI (cfiPicker160) CFA_SP SP+0
          CFI EndBlock cfiCond158
          CFI EndBlock cfiCond159
          CFI EndBlock cfiPicker160

        RSEG BANKED_CODE:CODE:NOROOT(0)
?Subroutine12:
          CFI Block cfiCond161 Using cfiCommon0
          CFI Function _ltoa
          CFI Conditional ??CrossCallReturnLabel_6
          CFI R6 load(1, XDATA, add(CFA_XSP16, literal(-24)))
          CFI VB load(1, XDATA, add(CFA_XSP16, literal(-23)))
          CFI V0 load(1, XDATA, add(CFA_XSP16, literal(-22)))
          CFI V1 load(1, XDATA, add(CFA_XSP16, literal(-21)))
          CFI V2 load(1, XDATA, add(CFA_XSP16, literal(-20)))
          CFI V3 load(1, XDATA, add(CFA_XSP16, literal(-19)))
          CFI V4 load(1, XDATA, add(CFA_XSP16, literal(-18)))
          CFI V5 load(1, XDATA, add(CFA_XSP16, literal(-17)))
          CFI V6 load(1, XDATA, add(CFA_XSP16, literal(-16)))
          CFI V7 load(1, XDATA, add(CFA_XSP16, literal(-15)))
          CFI V8 load(1, XDATA, add(CFA_XSP16, literal(-14)))
          CFI V9 load(1, XDATA, add(CFA_XSP16, literal(-13)))
          CFI V10 load(1, XDATA, add(CFA_XSP16, literal(-12)))
          CFI V11 load(1, XDATA, add(CFA_XSP16, literal(-11)))
          CFI V12 load(1, XDATA, add(CFA_XSP16, literal(-10)))
          CFI V13 load(1, XDATA, add(CFA_XSP16, literal(-9)))
          CFI V14 load(1, XDATA, add(CFA_XSP16, literal(-8)))
          CFI V15 load(1, XDATA, add(CFA_XSP16, literal(-7)))
          CFI R7 load(1, XDATA, add(CFA_XSP16, literal(-6)))
          CFI ?RET_LOW load(1, XDATA, add(CFA_XSP16, literal(-5)))
          CFI ?RET_HIGH load(1, XDATA, add(CFA_XSP16, literal(-4)))
          CFI ?BRET_EXT load(1, XDATA, add(CFA_XSP16, literal(-3)))
          CFI DPL0 load(1, XDATA, add(CFA_XSP16, literal(-2)))
          CFI DPH0 load(1, XDATA, add(CFA_XSP16, literal(-1)))
          CFI CFA_SP SP+-2
          CFI CFA_XSP16 add(XSP16, 55)
          CFI Block cfiCond162 Using cfiCommon0
          CFI (cfiCond162) Function osal_run_system
          CFI (cfiCond162) Conditional ??CrossCallReturnLabel_7
          CFI (cfiCond162) R6 load(1, XDATA, add(CFA_XSP16, literal(-12)))
          CFI (cfiCond162) VB load(1, XDATA, add(CFA_XSP16, literal(-11)))
          CFI (cfiCond162) V0 load(1, XDATA, add(CFA_XSP16, literal(-10)))
          CFI (cfiCond162) V1 load(1, XDATA, add(CFA_XSP16, literal(-9)))
          CFI (cfiCond162) V2 load(1, XDATA, add(CFA_XSP16, literal(-8)))
          CFI (cfiCond162) V3 load(1, XDATA, add(CFA_XSP16, literal(-7)))
          CFI (cfiCond162) R7 load(1, XDATA, add(CFA_XSP16, literal(-6)))
          CFI (cfiCond162) ?RET_LOW load(1, XDATA, add(CFA_XSP16, literal(-5)))
          CFI (cfiCond162) ?RET_HIGH load(1, XDATA, add(CFA_XSP16, literal(-4)))
          CFI (cfiCond162) ?BRET_EXT load(1, XDATA, add(CFA_XSP16, literal(-3)))
          CFI (cfiCond162) DPL0 load(1, XDATA, add(CFA_XSP16, literal(-2)))
          CFI (cfiCond162) DPH0 load(1, XDATA, add(CFA_XSP16, literal(-1)))
          CFI (cfiCond162) CFA_SP SP+-2
          CFI (cfiCond162) CFA_XSP16 add(XSP16, 12)
          CFI Block cfiPicker163 Using cfiCommon1
          CFI (cfiPicker163) NoFunction
          CFI (cfiPicker163) Picker
        MOVX    A,@DPTR
        MOV     R0,A
        INC     DPTR
        MOVX    A,@DPTR
        MOV     DPH,A
        MOV     DPL,R0
        RET
          CFI (cfiCond161) CFA_SP SP+0
          CFI (cfiCond162) CFA_SP SP+0
          CFI (cfiPicker163) CFA_SP SP+0
          CFI EndBlock cfiCond161
          CFI EndBlock cfiCond162
          CFI EndBlock cfiPicker163
// 1195 
// 1196 /*********************************************************************
// 1197  * @fn      osal_buffer_uint32
// 1198  *
// 1199  * @brief
// 1200  *
// 1201  *   Buffer an uint32 value - LSB first.
// 1202  *
// 1203  * @param   buf - buffer
// 1204  * @param   val - uint32 value
// 1205  *
// 1206  * @return  pointer to end of destination buffer
// 1207  */

        RSEG BANKED_CODE:CODE:NOROOT(0)
// 1208 uint8* osal_buffer_uint32( uint8 *buf, uint32 val )
osal_buffer_uint32:
          CFI Block cfiBlock164 Using cfiCommon0
          CFI Function osal_buffer_uint32
        CODE
// 1209 {
        REQUIRE ?V0
        REQUIRE ?V1
        REQUIRE ?V2
        REQUIRE ?V3
        REQUIRE ?V4
        REQUIRE ?V5
        REQUIRE ?V6
        REQUIRE ?V7
        MOV     A,#-0x10
        LCALL   ?BANKED_ENTER_XDATA
          CFI DPH0 load(1, XDATA, add(CFA_XSP16, literal(-1)))
          CFI DPL0 load(1, XDATA, add(CFA_XSP16, literal(-2)))
          CFI ?BRET_EXT load(1, XDATA, add(CFA_XSP16, literal(-3)))
          CFI ?RET_HIGH load(1, XDATA, add(CFA_XSP16, literal(-4)))
          CFI ?RET_LOW load(1, XDATA, add(CFA_XSP16, literal(-5)))
          CFI R7 load(1, XDATA, add(CFA_XSP16, literal(-6)))
          CFI V7 load(1, XDATA, add(CFA_XSP16, literal(-7)))
          CFI V6 load(1, XDATA, add(CFA_XSP16, literal(-8)))
          CFI V5 load(1, XDATA, add(CFA_XSP16, literal(-9)))
          CFI V4 load(1, XDATA, add(CFA_XSP16, literal(-10)))
          CFI V3 load(1, XDATA, add(CFA_XSP16, literal(-11)))
          CFI V2 load(1, XDATA, add(CFA_XSP16, literal(-12)))
          CFI V1 load(1, XDATA, add(CFA_XSP16, literal(-13)))
          CFI V0 load(1, XDATA, add(CFA_XSP16, literal(-14)))
          CFI VB load(1, XDATA, add(CFA_XSP16, literal(-15)))
          CFI R6 load(1, XDATA, add(CFA_XSP16, literal(-16)))
          CFI CFA_SP SP+0
          CFI CFA_XSP16 add(XSP16, 16)
        ; Saved register size: 16
        ; Auto size: 0
        MOV     A,#0x10
        LCALL   ?XSTACK_DISP0_8
        MOV     R0,#?V4
        LCALL   ?L_MOV_X
// 1210   *buf++ = BREAK_UINT32( val, 0 );
        MOV     DPL,R2
        MOV     DPH,R3
        MOV     A,?V4
        LCALL   ?Subroutine21 & 0xFFFF
// 1211   *buf++ = BREAK_UINT32( val, 1 );
// 1212   *buf++ = BREAK_UINT32( val, 2 );
??CrossCallReturnLabel_24:
        MOV     ?V0,?V4
        MOV     ?V2,?V6
        MOV     ?V3,?V7
        MOV     A,#0x10
        MOV     R0,#?V0
        LCALL   ?UL_SHR
        MOV     DPL,R2
        MOV     DPH,R3
        INC     DPTR
        INC     DPTR
        MOV     A,?V0
        MOVX    @DPTR,A
// 1213   *buf++ = BREAK_UINT32( val, 3 );
        MOV     A,#0x18
        MOV     R0,#?V4
        LCALL   ?UL_SHR
        MOV     DPL,R2
        MOV     DPH,R3
        INC     DPTR
        INC     DPTR
        INC     DPTR
        MOV     A,?V4
        MOVX    @DPTR,A
// 1214 
// 1215   return buf;
        MOV     A,R2
        ADD     A,#0x4
        MOV     R2,A
        JNC     ??osal_buffer_uint32_0
        INC     R3
??osal_buffer_uint32_0:
        LJMP    ?Subroutine3 & 0xFFFF
// 1216 }
          CFI EndBlock cfiBlock164
// 1217 
// 1218 /*********************************************************************
// 1219  * @fn      osal_buffer_uint24
// 1220  *
// 1221  * @brief
// 1222  *
// 1223  *   Buffer an uint24 value - LSB first. Note that type uint24 is
// 1224  *   typedef to uint32 in comdef.h
// 1225  *
// 1226  * @param   buf - buffer
// 1227  * @param   val - uint24 value
// 1228  *
// 1229  * @return  pointer to end of destination buffer
// 1230  */

        RSEG BANKED_CODE:CODE:NOROOT(0)
// 1231 uint8* osal_buffer_uint24( uint8 *buf, uint24 val )
osal_buffer_uint24:
          CFI Block cfiBlock165 Using cfiCommon0
          CFI Function osal_buffer_uint24
        CODE
// 1232 {
        REQUIRE ?V0
        REQUIRE ?V1
        REQUIRE ?V4
        REQUIRE ?V5
        REQUIRE ?V6
        REQUIRE ?V7
        MOV     A,#-0x10
        LCALL   ?BANKED_ENTER_XDATA
          CFI DPH0 load(1, XDATA, add(CFA_XSP16, literal(-1)))
          CFI DPL0 load(1, XDATA, add(CFA_XSP16, literal(-2)))
          CFI ?BRET_EXT load(1, XDATA, add(CFA_XSP16, literal(-3)))
          CFI ?RET_HIGH load(1, XDATA, add(CFA_XSP16, literal(-4)))
          CFI ?RET_LOW load(1, XDATA, add(CFA_XSP16, literal(-5)))
          CFI R7 load(1, XDATA, add(CFA_XSP16, literal(-6)))
          CFI V7 load(1, XDATA, add(CFA_XSP16, literal(-7)))
          CFI V6 load(1, XDATA, add(CFA_XSP16, literal(-8)))
          CFI V5 load(1, XDATA, add(CFA_XSP16, literal(-9)))
          CFI V4 load(1, XDATA, add(CFA_XSP16, literal(-10)))
          CFI V3 load(1, XDATA, add(CFA_XSP16, literal(-11)))
          CFI V2 load(1, XDATA, add(CFA_XSP16, literal(-12)))
          CFI V1 load(1, XDATA, add(CFA_XSP16, literal(-13)))
          CFI V0 load(1, XDATA, add(CFA_XSP16, literal(-14)))
          CFI VB load(1, XDATA, add(CFA_XSP16, literal(-15)))
          CFI R6 load(1, XDATA, add(CFA_XSP16, literal(-16)))
          CFI CFA_SP SP+0
          CFI CFA_XSP16 add(XSP16, 16)
        ; Saved register size: 16
        ; Auto size: 0
        MOV     A,#0x10
        LCALL   ?XSTACK_DISP0_8
        MOV     R0,#?V4
        LCALL   ?L_MOV_X
// 1233   *buf++ = BREAK_UINT32( val, 0 );
        MOV     ?V0,?V4
        MOV     DPL,R2
        MOV     DPH,R3
        MOV     A,?V0
        LCALL   ?Subroutine21 & 0xFFFF
// 1234   *buf++ = BREAK_UINT32( val, 1 );
// 1235   *buf++ = BREAK_UINT32( val, 2 );
??CrossCallReturnLabel_25:
        MOV     A,#0x10
        MOV     R0,#?V4
        LCALL   ?UL_SHR
        MOV     DPL,R2
        MOV     DPH,R3
        INC     DPTR
        INC     DPTR
        MOV     A,?V4
        MOVX    @DPTR,A
// 1236 
// 1237   return buf;
        MOV     A,R2
        ADD     A,#0x3
        MOV     R2,A
        JNC     ??osal_buffer_uint24_0
        INC     R3
??osal_buffer_uint24_0:
        LJMP    ?Subroutine3 & 0xFFFF
// 1238 }
          CFI EndBlock cfiBlock165

        RSEG BANKED_CODE:CODE:NOROOT(0)
?Subroutine21:
          CFI Block cfiCond166 Using cfiCommon0
          CFI Function osal_buffer_uint32
          CFI Conditional ??CrossCallReturnLabel_24
          CFI R6 load(1, XDATA, add(CFA_XSP16, literal(-16)))
          CFI VB load(1, XDATA, add(CFA_XSP16, literal(-15)))
          CFI V0 load(1, XDATA, add(CFA_XSP16, literal(-14)))
          CFI V1 load(1, XDATA, add(CFA_XSP16, literal(-13)))
          CFI V2 load(1, XDATA, add(CFA_XSP16, literal(-12)))
          CFI V3 load(1, XDATA, add(CFA_XSP16, literal(-11)))
          CFI V4 load(1, XDATA, add(CFA_XSP16, literal(-10)))
          CFI V5 load(1, XDATA, add(CFA_XSP16, literal(-9)))
          CFI V6 load(1, XDATA, add(CFA_XSP16, literal(-8)))
          CFI V7 load(1, XDATA, add(CFA_XSP16, literal(-7)))
          CFI R7 load(1, XDATA, add(CFA_XSP16, literal(-6)))
          CFI ?RET_LOW load(1, XDATA, add(CFA_XSP16, literal(-5)))
          CFI ?RET_HIGH load(1, XDATA, add(CFA_XSP16, literal(-4)))
          CFI ?BRET_EXT load(1, XDATA, add(CFA_XSP16, literal(-3)))
          CFI DPL0 load(1, XDATA, add(CFA_XSP16, literal(-2)))
          CFI DPH0 load(1, XDATA, add(CFA_XSP16, literal(-1)))
          CFI CFA_SP SP+-2
          CFI CFA_XSP16 add(XSP16, 16)
          CFI Block cfiCond167 Using cfiCommon0
          CFI (cfiCond167) Function osal_buffer_uint24
          CFI (cfiCond167) Conditional ??CrossCallReturnLabel_25
          CFI (cfiCond167) R6 load(1, XDATA, add(CFA_XSP16, literal(-16)))
          CFI (cfiCond167) VB load(1, XDATA, add(CFA_XSP16, literal(-15)))
          CFI (cfiCond167) V0 load(1, XDATA, add(CFA_XSP16, literal(-14)))
          CFI (cfiCond167) V1 load(1, XDATA, add(CFA_XSP16, literal(-13)))
          CFI (cfiCond167) V2 load(1, XDATA, add(CFA_XSP16, literal(-12)))
          CFI (cfiCond167) V3 load(1, XDATA, add(CFA_XSP16, literal(-11)))
          CFI (cfiCond167) V4 load(1, XDATA, add(CFA_XSP16, literal(-10)))
          CFI (cfiCond167) V5 load(1, XDATA, add(CFA_XSP16, literal(-9)))
          CFI (cfiCond167) V6 load(1, XDATA, add(CFA_XSP16, literal(-8)))
          CFI (cfiCond167) V7 load(1, XDATA, add(CFA_XSP16, literal(-7)))
          CFI (cfiCond167) R7 load(1, XDATA, add(CFA_XSP16, literal(-6)))
          CFI (cfiCond167) ?RET_LOW load(1, XDATA, add(CFA_XSP16, literal(-5)))
          CFI (cfiCond167) ?RET_HIGH load(1, XDATA, add(CFA_XSP16, literal(-4)))
          CFI (cfiCond167) ?BRET_EXT load(1, XDATA, add(CFA_XSP16, literal(-3)))
          CFI (cfiCond167) DPL0 load(1, XDATA, add(CFA_XSP16, literal(-2)))
          CFI (cfiCond167) DPH0 load(1, XDATA, add(CFA_XSP16, literal(-1)))
          CFI (cfiCond167) CFA_SP SP+-2
          CFI (cfiCond167) CFA_XSP16 add(XSP16, 16)
          CFI Block cfiPicker168 Using cfiCommon1
          CFI (cfiPicker168) NoFunction
          CFI (cfiPicker168) Picker
        MOVX    @DPTR,A
        MOV     ?V1,?V5
        MOV     A,?V1
        INC     DPTR
        MOVX    @DPTR,A
        RET
          CFI (cfiCond166) CFA_SP SP+0
          CFI (cfiCond167) CFA_SP SP+0
          CFI (cfiPicker168) CFA_SP SP+0
          CFI EndBlock cfiCond166
          CFI EndBlock cfiCond167
          CFI EndBlock cfiPicker168
// 1239 
// 1240 /*********************************************************************
// 1241  * @fn      osal_isbufset
// 1242  *
// 1243  * @brief
// 1244  *
// 1245  *   Is all of the array elements set to a value?
// 1246  *
// 1247  * @param   buf - buffer to check
// 1248  * @param   val - value to check each array element for
// 1249  * @param   len - length to check
// 1250  *
// 1251  * @return  TRUE if all "val"
// 1252  *          FALSE otherwise
// 1253  */

        RSEG BANKED_CODE:CODE:NOROOT(0)
// 1254 uint8 osal_isbufset( uint8 *buf, uint8 val, uint8 len )
osal_isbufset:
          CFI Block cfiBlock169 Using cfiCommon0
          CFI Function osal_isbufset
        CODE
// 1255 {
        PUSH    DPL
          CFI DPL0 Frame(CFA_SP, 4)
          CFI CFA_SP SP+-4
        PUSH    DPH
          CFI DPH0 Frame(CFA_SP, 5)
          CFI CFA_SP SP+-5
        ; Saved register size: 2
        ; Auto size: 0
        MOV     A,R1
        MOV     R5,A
// 1256   uint8 x;
// 1257 
// 1258   if ( buf == NULL )
        MOV     A,R2
        ORL     A,R3
        JZ      ??osal_isbufset_0
// 1259   {
// 1260     return ( FALSE );
// 1261   }
// 1262 
// 1263   for ( x = 0; x < len; x++ )
        MOV     R0,#0x0
        SJMP    ??osal_isbufset_1
??osal_isbufset_2:
        INC     R0
        INC     DPTR
        MOV     R2,DPL
        MOV     R3,DPH
??osal_isbufset_1:
        MOV     A,R0
        CLR     C
        SUBB    A,R4
        JNC     ??osal_isbufset_3
// 1264   {
// 1265     // Check for non-initialized value
// 1266     if ( buf[x] != val )
        MOV     DPL,R2
        MOV     DPH,R3
        MOVX    A,@DPTR
        XRL     A,R5
        JZ      ??osal_isbufset_2
// 1267     {
// 1268       return ( FALSE );
??osal_isbufset_0:
        MOV     R1,#0x0
        SJMP    ??osal_isbufset_4
// 1269     }
// 1270   }
// 1271   return ( TRUE );
??osal_isbufset_3:
        MOV     R1,#0x1
??osal_isbufset_4:
        LJMP    ?Subroutine0 & 0xFFFF
// 1272 }
          CFI EndBlock cfiBlock169
// 1273 
// 1274 /*********************************************************************
// 1275  * @fn      osal_self
// 1276  *
// 1277  * @brief
// 1278  *
// 1279  *   This function returns the task ID of the current (active) task.
// 1280  *
// 1281  * @param   void
// 1282  *
// 1283  * @return   active task ID or TASK_NO_TASK if no task is active
// 1284  */

        RSEG BANKED_CODE:CODE:NOROOT(0)
// 1285 uint8 osal_self( void )
osal_self:
          CFI Block cfiBlock170 Using cfiCommon0
          CFI Function osal_self
        CODE
// 1286 {
        PUSH    DPL
          CFI DPL0 Frame(CFA_SP, 4)
          CFI CFA_SP SP+-4
        PUSH    DPH
          CFI DPH0 Frame(CFA_SP, 5)
          CFI CFA_SP SP+-5
        ; Saved register size: 2
        ; Auto size: 0
// 1287   return ( activeTaskID );
        MOV     DPTR,#activeTaskID
        MOVX    A,@DPTR
        MOV     R1,A
        LJMP    ?Subroutine0 & 0xFFFF
// 1288 }
          CFI EndBlock cfiBlock170

        RSEG XDATA_ID:CODE:NOROOT(0)
`?<Initializer for activeTaskID>`:
        DATA8
        DB 255

        RSEG BANK_RELAYS:CODE:REORDER:NOROOT(0)
`??osal_strlen::?relay`:
        CODE
        LCALL   ?BDISPATCH
        DATA24
        DC24    osal_strlen

        RSEG BANK_RELAYS:CODE:REORDER:NOROOT(0)
`??osal_memcpy::?relay`:
        CODE
        LCALL   ?BDISPATCH
        DATA24
        DC24    osal_memcpy

        RSEG BANK_RELAYS:CODE:REORDER:NOROOT(0)
`??osal_revmemcpy::?relay`:
        CODE
        LCALL   ?BDISPATCH
        DATA24
        DC24    osal_revmemcpy

        RSEG BANK_RELAYS:CODE:REORDER:NOROOT(0)
`??osal_memdup::?relay`:
        CODE
        LCALL   ?BDISPATCH
        DATA24
        DC24    osal_memdup

        RSEG BANK_RELAYS:CODE:REORDER:NOROOT(0)
`??osal_memcmp::?relay`:
        CODE
        LCALL   ?BDISPATCH
        DATA24
        DC24    osal_memcmp

        RSEG BANK_RELAYS:CODE:REORDER:NOROOT(0)
`??osal_memset::?relay`:
        CODE
        LCALL   ?BDISPATCH
        DATA24
        DC24    osal_memset

        RSEG BANK_RELAYS:CODE:REORDER:NOROOT(0)
`??osal_build_uint16::?relay`:
        CODE
        LCALL   ?BDISPATCH
        DATA24
        DC24    osal_build_uint16

        RSEG BANK_RELAYS:CODE:REORDER:NOROOT(0)
`??osal_build_uint32::?relay`:
        CODE
        LCALL   ?BDISPATCH
        DATA24
        DC24    osal_build_uint32

        RSEG BANK_RELAYS:CODE:REORDER:NOROOT(0)
`??_ltoa::?relay`:
        CODE
        LCALL   ?BDISPATCH
        DATA24
        DC24    _ltoa

        RSEG BANK_RELAYS:CODE:REORDER:NOROOT(0)
`??osal_rand::?relay`:
        CODE
        LCALL   ?BDISPATCH
        DATA24
        DC24    osal_rand

        RSEG BANK_RELAYS:CODE:REORDER:NOROOT(0)
`??osal_msg_allocate::?relay`:
        CODE
        LCALL   ?BDISPATCH
        DATA24
        DC24    osal_msg_allocate

        RSEG BANK_RELAYS:CODE:REORDER:NOROOT(0)
`??osal_msg_deallocate::?relay`:
        CODE
        LCALL   ?BDISPATCH
        DATA24
        DC24    osal_msg_deallocate

        RSEG BANK_RELAYS:CODE:REORDER:NOROOT(0)
`??osal_msg_send::?relay`:
        CODE
        LCALL   ?BDISPATCH
        DATA24
        DC24    osal_msg_send

        RSEG BANK_RELAYS:CODE:REORDER:NOROOT(0)
`??osal_msg_push_front::?relay`:
        CODE
        LCALL   ?BDISPATCH
        DATA24
        DC24    osal_msg_push_front

        RSEG BANK_RELAYS:CODE:REORDER:NOROOT(0)
`??osal_msg_enqueue_push::?relay`:
        CODE
        LCALL   ?BDISPATCH
        DATA24
        DC24    osal_msg_enqueue_push

        RSEG BANK_RELAYS:CODE:REORDER:NOROOT(0)
`??osal_msg_receive::?relay`:
        CODE
        LCALL   ?BDISPATCH
        DATA24
        DC24    osal_msg_receive

        RSEG BANK_RELAYS:CODE:REORDER:NOROOT(0)
`??osal_msg_find::?relay`:
        CODE
        LCALL   ?BDISPATCH
        DATA24
        DC24    osal_msg_find

        RSEG BANK_RELAYS:CODE:REORDER:NOROOT(0)
`??osal_msg_count::?relay`:
        CODE
        LCALL   ?BDISPATCH
        DATA24
        DC24    osal_msg_count

        RSEG BANK_RELAYS:CODE:REORDER:NOROOT(0)
`??osal_msg_enqueue::?relay`:
        CODE
        LCALL   ?BDISPATCH
        DATA24
        DC24    osal_msg_enqueue

        RSEG BANK_RELAYS:CODE:REORDER:NOROOT(0)
`??osal_msg_dequeue::?relay`:
        CODE
        LCALL   ?BDISPATCH
        DATA24
        DC24    osal_msg_dequeue

        RSEG BANK_RELAYS:CODE:REORDER:NOROOT(0)
`??osal_msg_push::?relay`:
        CODE
        LCALL   ?BDISPATCH
        DATA24
        DC24    osal_msg_push

        RSEG BANK_RELAYS:CODE:REORDER:NOROOT(0)
`??osal_msg_extract::?relay`:
        CODE
        LCALL   ?BDISPATCH
        DATA24
        DC24    osal_msg_extract

        RSEG BANK_RELAYS:CODE:REORDER:NOROOT(0)
`??osal_msg_enqueue_max::?relay`:
        CODE
        LCALL   ?BDISPATCH
        DATA24
        DC24    osal_msg_enqueue_max

        RSEG BANK_RELAYS:CODE:REORDER:NOROOT(0)
`??osal_set_event::?relay`:
        CODE
        LCALL   ?BDISPATCH
        DATA24
        DC24    osal_set_event

        RSEG BANK_RELAYS:CODE:REORDER:NOROOT(0)
`??osal_clear_event::?relay`:
        CODE
        LCALL   ?BDISPATCH
        DATA24
        DC24    osal_clear_event

        RSEG BANK_RELAYS:CODE:REORDER:NOROOT(0)
`??osal_isr_register::?relay`:
        CODE
        LCALL   ?BDISPATCH
        DATA24
        DC24    osal_isr_register

        RSEG BANK_RELAYS:CODE:REORDER:NOROOT(0)
`??osal_int_enable::?relay`:
        CODE
        LCALL   ?BDISPATCH
        DATA24
        DC24    osal_int_enable

        RSEG BANK_RELAYS:CODE:REORDER:NOROOT(0)
`??osal_int_disable::?relay`:
        CODE
        LCALL   ?BDISPATCH
        DATA24
        DC24    osal_int_disable

        RSEG BANK_RELAYS:CODE:REORDER:NOROOT(0)
`??osal_init_system::?relay`:
        CODE
        LCALL   ?BDISPATCH
        DATA24
        DC24    osal_init_system

        RSEG BANK_RELAYS:CODE:REORDER:NOROOT(0)
`??osal_start_system::?relay`:
        CODE
        LCALL   ?BDISPATCH
        DATA24
        DC24    osal_start_system

        RSEG BANK_RELAYS:CODE:REORDER:NOROOT(0)
`??osal_run_system::?relay`:
        CODE
        LCALL   ?BDISPATCH
        DATA24
        DC24    osal_run_system

        RSEG BANK_RELAYS:CODE:REORDER:NOROOT(0)
`??osal_buffer_uint32::?relay`:
        CODE
        LCALL   ?BDISPATCH
        DATA24
        DC24    osal_buffer_uint32

        RSEG BANK_RELAYS:CODE:REORDER:NOROOT(0)
`??osal_buffer_uint24::?relay`:
        CODE
        LCALL   ?BDISPATCH
        DATA24
        DC24    osal_buffer_uint24

        RSEG BANK_RELAYS:CODE:REORDER:NOROOT(0)
`??osal_isbufset::?relay`:
        CODE
        LCALL   ?BDISPATCH
        DATA24
        DC24    osal_isbufset

        RSEG BANK_RELAYS:CODE:REORDER:NOROOT(0)
`??osal_self::?relay`:
        CODE
        LCALL   ?BDISPATCH
        DATA24
        DC24    osal_self

        RSEG XDATA_ROM_C:CONST:REORDER:NOROOT(0)
        DATA8
`?<Constant "">`:
        DB ""
        DB 0, 0, 0, 0, 0, 0, 0, 0
        DB 0

        RSEG XDATA_ROM_C:CONST:REORDER:NOROOT(0)
        DATA8
`?<Constant "">_1`:
        DB ""
        DB 0, 0, 0, 0, 0, 0, 0, 0
        DB 0

        RSEG XDATA_ROM_C:CONST:REORDER:NOROOT(0)
        DATA8
`?<Constant "">_2`:
        DB ""
        DB 0, 0, 0, 0, 0, 0, 0, 0
        DB 0

        RSEG XDATA_ROM_C:CONST:REORDER:NOROOT(0)
        DATA16
`?<Constant "0">`:
        DB "0"

        RSEG XDATA_ROM_C:CONST:REORDER:NOROOT(0)
        DATA32
__Constant_2710:
        DD 10000

        RSEG XDATA_ROM_C:CONST:REORDER:NOROOT(0)
        DATA32
__Constant_5f5e100:
        DD 100000000

        END
// 1289 
// 1290 /*********************************************************************
// 1291  */
// 
// 3 056 bytes in segment BANKED_CODE
//   210 bytes in segment BANK_RELAYS
//     1 byte  in segment SFR_AN
//     1 byte  in segment XDATA_I
//     1 byte  in segment XDATA_ID
//    40 bytes in segment XDATA_ROM_C
//     2 bytes in segment XDATA_Z
// 
// 3 267 bytes of CODE  memory
//    32 bytes of CONST memory (+ 8 bytes shared)
//     0 bytes of DATA  memory (+ 1 byte  shared)
//     3 bytes of XDATA memory
//
//Errors: none
//Warnings: none
