///////////////////////////////////////////////////////////////////////////////
//
// IAR C/C++ Compiler V9.20.1.2476 for 8051               16/Mar/2016  14:37:16
// Copyright 2004-2015 IAR Systems AB.
// Standalone license - IAR Embedded Workbench for 8051
//
//    Core               =  plain
//    Code model         =  banked
//    Data model         =  large
//    Calling convention =  xdata reentrant
//    Constant location  =  data_rom
//    Dptr setup         =  1,16
//                          
//    Source file        =  
//        C:\Users\Bart\Documents\GitHub\WTSN\Components\osal\mcu\cc2530\OSAL_Nv.c
//    Command line       =  
//        -f
//        C:\Users\Bart\Documents\GitHub\WTSN\Projects\zstack\Project\Eindopdracht\CC2530DB\..\..\..\Tools\CC2530DB\f8wEndev.cfg
//        (-DCPU32MHZ -DROOT=__near_func -DMAC_CFG_TX_DATA_MAX=3
//        -DMAC_CFG_TX_MAX=6 -DMAC_CFG_RX_MAX=3) -f
//        C:\Users\Bart\Documents\GitHub\WTSN\Projects\zstack\Project\Eindopdracht\CC2530DB\..\..\..\Tools\CC2530DB\f8wConfig.cfg
//        (-DZIGBEEPRO -DSECURE=1 -DZG_SECURE_DYNAMIC=0 -DREFLECTOR
//        -DDEFAULT_CHANLIST=0x00008000 -DZDAPP_CONFIG_PAN_ID=0x0EEE
//        -DNWK_START_DELAY=100 -DEXTENDED_JOINING_RANDOM_MASK=0x007F
//        -DBEACON_REQUEST_DELAY=100 -DBEACON_REQ_DELAY_MASK=0x00FF
//        -DLINK_STATUS_JITTER_MASK=0x007F -DROUTE_EXPIRY_TIME=30
//        -DAPSC_ACK_WAIT_DURATION_POLLED=3000 -DNWK_INDIRECT_MSG_TIMEOUT=7
//        -DMAX_RREQ_ENTRIES=8 -DAPSC_MAX_FRAME_RETRIES=3
//        -DNWK_MAX_DATA_RETRIES=2 -DMAX_POLL_FAILURE_RETRIES=2 -DMAX_BCAST=9
//        -DAPS_MAX_GROUPS=16 -DMAX_RTG_ENTRIES=40 -DNWK_MAX_BINDING_ENTRIES=4
//        -DMAX_BINDING_CLUSTER_IDS=4 "-DDEFAULT_KEY={0x42, 0x61, 0x72, 0x74,
//        0x20, 0x65, 0x61, 0x20, 0x48, 0x79, 0x6C, 0x63, 0x6F, 0x20, 0x20,
//        0x20}" -DMAC_MAX_FRAME_SIZE=116 -DZDNWKMGR_MIN_TRANSMISSIONS=20
//        "-DCONST=const __code" -DGENERIC=__generic -DRFD_RCVC_ALWAYS_ON=TRUE
//        -DPOLL_RATE=1000 -DQUEUED_POLL_RATE=100 -DRESPONSE_POLL_RATE=100)
//        -DREJOIN_POLL_RATE=440
//        C:\Users\Bart\Documents\GitHub\WTSN\Components\osal\mcu\cc2530\OSAL_Nv.c
//        -D NWK_AUTO_POLL -D HOLD_AUTO_START -D POWER_SAVING -D NV_INIT -D
//        DEVICE_LOGICAL_TYPE=ZG_DEVICETYPE_ENDDEVICE -lC
//        C:\Users\Bart\Documents\GitHub\WTSN\Projects\zstack\Project\Eindopdracht\CC2530DB\SensorEB\List\
//        -lA
//        C:\Users\Bart\Documents\GitHub\WTSN\Projects\zstack\Project\Eindopdracht\CC2530DB\SensorEB\List\
//        --diag_suppress Pe001,Pa010,Pe1665 -o
//        C:\Users\Bart\Documents\GitHub\WTSN\Projects\zstack\Project\Eindopdracht\CC2530DB\SensorEB\Obj\
//        -e --debug --core=plain --dptr=16,1 --data_model=large
//        --code_model=banked --calling_convention=xdata_reentrant
//        --place_constants=data_rom --nr_virtual_regs 16 -I
//        C:\Users\Bart\Documents\GitHub\WTSN\Projects\zstack\Project\Eindopdracht\CC2530DB\
//        -I
//        C:\Users\Bart\Documents\GitHub\WTSN\Projects\zstack\Project\Eindopdracht\CC2530DB\..\Source\
//        -I
//        C:\Users\Bart\Documents\GitHub\WTSN\Projects\zstack\Project\Eindopdracht\CC2530DB\..\..\..\ZMain\TI2530DB\
//        -I
//        C:\Users\Bart\Documents\GitHub\WTSN\Projects\zstack\Project\Eindopdracht\CC2530DB\..\..\..\..\..\Components\hal\include\
//        -I
//        C:\Users\Bart\Documents\GitHub\WTSN\Projects\zstack\Project\Eindopdracht\CC2530DB\..\..\..\..\..\Components\hal\target\CC2530EB\
//        -I
//        C:\Users\Bart\Documents\GitHub\WTSN\Projects\zstack\Project\Eindopdracht\CC2530DB\..\..\..\..\..\Components\mac\include\
//        -I
//        C:\Users\Bart\Documents\GitHub\WTSN\Projects\zstack\Project\Eindopdracht\CC2530DB\..\..\..\..\..\Components\mac\high_level\
//        -I
//        C:\Users\Bart\Documents\GitHub\WTSN\Projects\zstack\Project\Eindopdracht\CC2530DB\..\..\..\..\..\Components\mac\low_level\srf04\
//        -I
//        C:\Users\Bart\Documents\GitHub\WTSN\Projects\zstack\Project\Eindopdracht\CC2530DB\..\..\..\..\..\Components\mac\low_level\srf04\single_chip\
//        -I
//        C:\Users\Bart\Documents\GitHub\WTSN\Projects\zstack\Project\Eindopdracht\CC2530DB\..\..\..\..\..\Components\mt\
//        -I
//        C:\Users\Bart\Documents\GitHub\WTSN\Projects\zstack\Project\Eindopdracht\CC2530DB\..\..\..\..\..\Components\osal\include\
//        -I
//        C:\Users\Bart\Documents\GitHub\WTSN\Projects\zstack\Project\Eindopdracht\CC2530DB\..\..\..\..\..\Components\services\saddr\
//        -I
//        C:\Users\Bart\Documents\GitHub\WTSN\Projects\zstack\Project\Eindopdracht\CC2530DB\..\..\..\..\..\Components\services\sdata\
//        -I
//        C:\Users\Bart\Documents\GitHub\WTSN\Projects\zstack\Project\Eindopdracht\CC2530DB\..\..\..\..\..\Components\stack\af\
//        -I
//        C:\Users\Bart\Documents\GitHub\WTSN\Projects\zstack\Project\Eindopdracht\CC2530DB\..\..\..\..\..\Components\stack\nwk\
//        -I
//        C:\Users\Bart\Documents\GitHub\WTSN\Projects\zstack\Project\Eindopdracht\CC2530DB\..\..\..\..\..\Components\stack\sapi\
//        -I
//        C:\Users\Bart\Documents\GitHub\WTSN\Projects\zstack\Project\Eindopdracht\CC2530DB\..\..\..\..\..\Components\stack\sec\
//        -I
//        C:\Users\Bart\Documents\GitHub\WTSN\Projects\zstack\Project\Eindopdracht\CC2530DB\..\..\..\..\..\Components\stack\sys\
//        -I
//        C:\Users\Bart\Documents\GitHub\WTSN\Projects\zstack\Project\Eindopdracht\CC2530DB\..\..\..\..\..\Components\stack\zdo\
//        -I
//        C:\Users\Bart\Documents\GitHub\WTSN\Projects\zstack\Project\Eindopdracht\CC2530DB\..\..\..\..\..\Components\zmac\
//        -I
//        C:\Users\Bart\Documents\GitHub\WTSN\Projects\zstack\Project\Eindopdracht\CC2530DB\..\..\..\..\..\Components\zmac\f8w\
//        -Oh --require_prototypes
//    List file          =  
//        C:\Users\Bart\Documents\GitHub\WTSN\Projects\zstack\Project\Eindopdracht\CC2530DB\SensorEB\List\OSAL_Nv.s51
//
///////////////////////////////////////////////////////////////////////////////

        NAME OSAL_Nv

        RTMODEL "__SystemLibrary", "CLib"
        RTMODEL "__calling_convention", "xdata_reentrant"
        RTMODEL "__code_model", "banked"
        RTMODEL "__core", "plain"
        RTMODEL "__data_model", "large"
        RTMODEL "__dptr_size", "16"
        RTMODEL "__extended_stack", "disabled"
        RTMODEL "__location_for_constants", "data"
        RTMODEL "__number_of_dptrs", "1"
        RTMODEL "__rt_version", "1"

        RSEG DOVERLAY:DATA:NOROOT(0)
        RSEG IOVERLAY:IDATA:NOROOT(0)
        RSEG ISTACK:IDATA:NOROOT(0)
        RSEG PSTACK:XDATA:NOROOT(0)
        RSEG XSTACK:XDATA:NOROOT(0)

        EXTERN ?V0
        EXTERN ?V2
        EXTERN ?V3
        EXTERN ?V1
        EXTERN ?V4
        EXTERN ?V5
        EXTERN ?V6
        EXTERN ?V7
        EXTERN ?V8
        EXTERN ?V9
        EXTERN ?V10
        EXTERN ?V11
        EXTERN ?V12
        EXTERN ?V13
        EXTERN ?V14
        EXTERN ?V15
        EXTERN ?ALLOC_XSTACK8
        EXTERN ?BANKED_ENTER_XDATA
        EXTERN ?BANKED_LEAVE_XDATA
        EXTERN ?BDISPATCH
        EXTERN ?BRET
        EXTERN ?DEALLOC_XSTACK8
        EXTERN ?PUSH_XSTACK8_X_TWO
        EXTERN ?PUSH_XSTACK_I_ONE
        EXTERN ?PUSH_XSTACK_I_TWO
        EXTERN ?S_SHL
        EXTERN ?US_SHR
        EXTERN ?XSP
        EXTERN ?XSTACK_DISP0_8
        EXTERN ?XSTACK_DISP102_8
        EXTERN __INIT_XDATA_Z

        FUNCTION `??calcChkF::?relay`,0203H
        FUNCTION `??compactPage::?relay`,0203H
        FUNCTION `??erasePage::?relay`,0203H
        FUNCTION `??findItem::?relay`,0203H
        FUNCTION `??hotItem::?relay`,0203H
        FUNCTION `??hotItemUpdate::?relay`,0203H
        FUNCTION `??initItem::?relay`,0203H
        FUNCTION `??initNV::?relay`,0203H
        FUNCTION `??initPage::?relay`,0203H
        PUBLIC `??osal_nv_delete::?relay`
        FUNCTION `??osal_nv_delete::?relay`,0203H
        PUBLIC `??osal_nv_init::?relay`
        FUNCTION `??osal_nv_init::?relay`,0203H
        PUBLIC `??osal_nv_item_init::?relay`
        FUNCTION `??osal_nv_item_init::?relay`,0203H
        PUBLIC `??osal_nv_item_len::?relay`
        FUNCTION `??osal_nv_item_len::?relay`,0203H
        PUBLIC `??osal_nv_read::?relay`
        FUNCTION `??osal_nv_read::?relay`,0203H
        PUBLIC `??osal_nv_write::?relay`
        FUNCTION `??osal_nv_write::?relay`,0203H
        FUNCTION `??setChk::?relay`,0203H
        FUNCTION `??setItem::?relay`,0203H
        FUNCTION `??writeBuf::?relay`,0203H
        FUNCTION `??writeItem::?relay`,0203H
        FUNCTION `??writeWordH::?relay`,0203H
        FUNCTION `??xferBuf::?relay`,0203H
        PUBLIC _nvBuf
        FUNCTION calcChkF,0a1203H
        ARGFRAME XSTACK, 49, STACK
        ARGFRAME IOVERLAY, 0, STATIC
        ARGFRAME DOVERLAY, 0, STATIC
        LOCFRAME XSTACK, 22, STACK
        FUNCTION compactPage,0a1203H
        ARGFRAME XSTACK, 40, STACK
        ARGFRAME IOVERLAY, 0, STATIC
        ARGFRAME DOVERLAY, 0, STATIC
        LOCFRAME ISTACK, 1, STACK
        LOCFRAME XSTACK, 45, STACK
        FUNCTION erasePage,021203H
        ARGFRAME XSTACK, 45, STACK
        ARGFRAME IOVERLAY, 0, STATIC
        ARGFRAME DOVERLAY, 0, STATIC
        LOCFRAME XSTACK, 9, STACK
        FUNCTION findItem,0a1203H
        ARGFRAME XSTACK, 49, STACK
        ARGFRAME IOVERLAY, 0, STATIC
        ARGFRAME DOVERLAY, 0, STATIC
        LOCFRAME XSTACK, 12, STACK
        FUNCTION hotItem,0203H
        ARGFRAME XSTACK, 18, STACK
        ARGFRAME IOVERLAY, 0, STATIC
        ARGFRAME DOVERLAY, 0, STATIC
        LOCFRAME ISTACK, 2, STACK
        FUNCTION hotItemUpdate,080203H
        ARGFRAME XSTACK, 45, STACK
        ARGFRAME IOVERLAY, 0, STATIC
        ARGFRAME DOVERLAY, 0, STATIC
        LOCFRAME ISTACK, 1, STACK
        LOCFRAME XSTACK, 9, STACK
        FUNCTION initItem,0a1203H
        ARGFRAME XSTACK, 47, STACK
        ARGFRAME IOVERLAY, 0, STATIC
        ARGFRAME DOVERLAY, 0, STATIC
        LOCFRAME ISTACK, 1, STACK
        LOCFRAME XSTACK, 43, STACK
        FUNCTION initNV,0a1203H
        ARGFRAME XSTACK, 0, STACK
        ARGFRAME IOVERLAY, 0, STATIC
        ARGFRAME DOVERLAY, 0, STATIC
        LOCFRAME XSTACK, 30, STACK
        FUNCTION initPage,0a1203H
        ARGFRAME XSTACK, 28, STACK
        ARGFRAME IOVERLAY, 0, STATIC
        ARGFRAME DOVERLAY, 0, STATIC
        LOCFRAME ISTACK, 1, STACK
        LOCFRAME XSTACK, 51, STACK
        PUBLIC osal_nv_delete
        FUNCTION osal_nv_delete,0a1203H
        ARGFRAME XSTACK, 0, STACK
        LOCFRAME XSTACK, 14, STACK
        PUBLIC osal_nv_init
        FUNCTION osal_nv_init,021203H
        ARGFRAME XSTACK, 0, STACK
        LOCFRAME ISTACK, 2, STACK
        PUBLIC osal_nv_item_init
        FUNCTION osal_nv_item_init,0a1203H
        ARGFRAME XSTACK, 2, STACK
        LOCFRAME XSTACK, 14, STACK
        PUBLIC osal_nv_item_len
        FUNCTION osal_nv_item_len,0a1203H
        ARGFRAME XSTACK, 14, STACK
        ARGFRAME IOVERLAY, 0, STATIC
        ARGFRAME DOVERLAY, 0, STATIC
        LOCFRAME XSTACK, 20, STACK
        PUBLIC osal_nv_read
        FUNCTION osal_nv_read,0a1203H
        ARGFRAME XSTACK, 4, STACK
        LOCFRAME XSTACK, 18, STACK
        PUBLIC osal_nv_write
        FUNCTION osal_nv_write,0a1203H
        ARGFRAME XSTACK, 4, STACK
        LOCFRAME XSTACK, 49, STACK
        FUNCTION setChk,0a1203H
        ARGFRAME XSTACK, 45, STACK
        ARGFRAME IOVERLAY, 0, STATIC
        ARGFRAME DOVERLAY, 0, STATIC
        LOCFRAME XSTACK, 16, STACK
        FUNCTION setItem,0a1203H
        ARGFRAME XSTACK, 45, STACK
        ARGFRAME IOVERLAY, 0, STATIC
        ARGFRAME DOVERLAY, 0, STATIC
        LOCFRAME XSTACK, 24, STACK
        FUNCTION writeBuf,0a1203H
        ARGFRAME XSTACK, 47, STACK
        ARGFRAME IOVERLAY, 0, STATIC
        ARGFRAME DOVERLAY, 0, STATIC
        LOCFRAME ISTACK, 1, STACK
        LOCFRAME XSTACK, 24, STACK
        FUNCTION writeItem,0a1203H
        ARGFRAME XSTACK, 44, STACK
        ARGFRAME IOVERLAY, 0, STATIC
        ARGFRAME DOVERLAY, 0, STATIC
        LOCFRAME XSTACK, 32, STACK
        FUNCTION writeWordH,0a1203H
        ARGFRAME XSTACK, 41, STACK
        ARGFRAME IOVERLAY, 0, STATIC
        ARGFRAME DOVERLAY, 0, STATIC
        LOCFRAME ISTACK, 1, STACK
        LOCFRAME XSTACK, 18, STACK
        FUNCTION xferBuf,0a1203H
        ARGFRAME XSTACK, 49, STACK
        ARGFRAME IOVERLAY, 0, STATIC
        ARGFRAME DOVERLAY, 0, STATIC
        LOCFRAME XSTACK, 26, STACK
        
          CFI Names cfiNames0
          CFI StackFrame CFA_SP SP IDATA
          CFI StackFrame CFA_PSP16 PSP16 XDATA
          CFI StackFrame CFA_XSP16 XSP16 XDATA
          CFI StaticOverlayFrame CFA_IOVERLAY IOVERLAY
          CFI StaticOverlayFrame CFA_DOVERLAY DOVERLAY
          CFI Resource `PSW.CY`:1, `B.BR0`:1, `B.BR1`:1, `B.BR2`:1, `B.BR3`:1
          CFI Resource `B.BR4`:1, `B.BR5`:1, `B.BR6`:1, `B.BR7`:1, `VB.BR8`:1
          CFI Resource `VB.BR9`:1, `VB.BR10`:1, `VB.BR11`:1, `VB.BR12`:1
          CFI Resource `VB.BR13`:1, `VB.BR14`:1, `VB.BR15`:1, VB:8, B:8, A:8
          CFI Resource PSW:8, DPL0:8, DPH0:8, R0:8, R1:8, R2:8, R3:8, R4:8, R5:8
          CFI Resource R6:8, R7:8, V0:8, V1:8, V2:8, V3:8, V4:8, V5:8, V6:8, V7:8
          CFI Resource V8:8, V9:8, V10:8, V11:8, V12:8, V13:8, V14:8, V15:8, SP:8
          CFI Resource PSPH:8, PSPL:8, PSP16:16, XSPH:8, XSPL:8, XSP16:16
          CFI VirtualResource ?RET:24
          CFI Resource ?BRET_EXT:8
          CFI VirtualResource ?RET_HIGH:8, ?RET_LOW:8
          CFI ResourceParts PSP16 PSPH, PSPL
          CFI ResourceParts XSP16 XSPH, XSPL
          CFI ResourceParts ?RET ?BRET_EXT, ?RET_HIGH, ?RET_LOW
          CFI EndNames cfiNames0
        
          CFI Common cfiCommon0 Using cfiNames0
          CFI CodeAlign 1
          CFI DataAlign -1
          CFI ReturnAddress ?RET CODE
          CFI CFA_DOVERLAY Used
          CFI CFA_IOVERLAY Used
          CFI CFA_SP SP+-3
          CFI CFA_PSP16 PSP16+0
          CFI CFA_XSP16 XSP16+0
          CFI `PSW.CY` SameValue
          CFI `B.BR0` SameValue
          CFI `B.BR1` SameValue
          CFI `B.BR2` SameValue
          CFI `B.BR3` SameValue
          CFI `B.BR4` SameValue
          CFI `B.BR5` SameValue
          CFI `B.BR6` SameValue
          CFI `B.BR7` SameValue
          CFI `VB.BR8` SameValue
          CFI `VB.BR9` SameValue
          CFI `VB.BR10` SameValue
          CFI `VB.BR11` SameValue
          CFI `VB.BR12` SameValue
          CFI `VB.BR13` SameValue
          CFI `VB.BR14` SameValue
          CFI `VB.BR15` SameValue
          CFI VB SameValue
          CFI B Undefined
          CFI A Undefined
          CFI PSW SameValue
          CFI DPL0 SameValue
          CFI DPH0 SameValue
          CFI R0 Undefined
          CFI R1 Undefined
          CFI R2 Undefined
          CFI R3 Undefined
          CFI R4 Undefined
          CFI R5 Undefined
          CFI R6 SameValue
          CFI R7 SameValue
          CFI V0 SameValue
          CFI V1 SameValue
          CFI V2 SameValue
          CFI V3 SameValue
          CFI V4 SameValue
          CFI V5 SameValue
          CFI V6 SameValue
          CFI V7 SameValue
          CFI V8 SameValue
          CFI V9 SameValue
          CFI V10 SameValue
          CFI V11 SameValue
          CFI V12 SameValue
          CFI V13 SameValue
          CFI V14 SameValue
          CFI V15 SameValue
          CFI PSPH Undefined
          CFI PSPL Undefined
          CFI XSPH Undefined
          CFI XSPL Undefined
          CFI ?RET Concat
          CFI ?BRET_EXT Frame(CFA_SP, 3)
          CFI ?RET_HIGH Frame(CFA_SP, 2)
          CFI ?RET_LOW Frame(CFA_SP, 1)
          CFI EndCommon cfiCommon0
        
        
          CFI Common cfiCommon1 Using cfiNames0
          CFI CodeAlign 1
          CFI DataAlign -1
          CFI ReturnAddress ?RET CODE
          CFI CFA_DOVERLAY Used
          CFI CFA_IOVERLAY Used
          CFI CFA_SP SP+-2
          CFI CFA_PSP16 PSP16+0
          CFI CFA_XSP16 XSP16+0
          CFI `PSW.CY` SameValue
          CFI `B.BR0` SameValue
          CFI `B.BR1` SameValue
          CFI `B.BR2` SameValue
          CFI `B.BR3` SameValue
          CFI `B.BR4` SameValue
          CFI `B.BR5` SameValue
          CFI `B.BR6` SameValue
          CFI `B.BR7` SameValue
          CFI `VB.BR8` SameValue
          CFI `VB.BR9` SameValue
          CFI `VB.BR10` SameValue
          CFI `VB.BR11` SameValue
          CFI `VB.BR12` SameValue
          CFI `VB.BR13` SameValue
          CFI `VB.BR14` SameValue
          CFI `VB.BR15` SameValue
          CFI VB SameValue
          CFI B SameValue
          CFI A SameValue
          CFI PSW SameValue
          CFI DPL0 SameValue
          CFI DPH0 SameValue
          CFI R0 SameValue
          CFI R1 SameValue
          CFI R2 SameValue
          CFI R3 SameValue
          CFI R4 SameValue
          CFI R5 SameValue
          CFI R6 SameValue
          CFI R7 SameValue
          CFI V0 SameValue
          CFI V1 SameValue
          CFI V2 SameValue
          CFI V3 SameValue
          CFI V4 SameValue
          CFI V5 SameValue
          CFI V6 SameValue
          CFI V7 SameValue
          CFI V8 SameValue
          CFI V9 SameValue
          CFI V10 SameValue
          CFI V11 SameValue
          CFI V12 SameValue
          CFI V13 SameValue
          CFI V14 SameValue
          CFI V15 SameValue
          CFI PSPH Undefined
          CFI PSPL Undefined
          CFI XSPH Undefined
          CFI XSPL Undefined
          CFI ?RET Concat
          CFI ?BRET_EXT SameValue
          CFI ?RET_HIGH Frame(CFA_SP, 2)
          CFI ?RET_LOW Frame(CFA_SP, 1)
          CFI EndCommon cfiCommon1
        
HalAdcCheckVdd      SYMBOL "HalAdcCheckVdd"
`??HalAdcCheckVdd::?relay` SYMBOL "?relay", HalAdcCheckVdd
HalFlashErase       SYMBOL "HalFlashErase"
`??HalFlashErase::?relay` SYMBOL "?relay", HalFlashErase
HalFlashRead        SYMBOL "HalFlashRead"
`??HalFlashRead::?relay` SYMBOL "?relay", HalFlashRead
HalFlashWrite       SYMBOL "HalFlashWrite"
`??HalFlashWrite::?relay` SYMBOL "?relay", HalFlashWrite
osal_nv_delete      SYMBOL "osal_nv_delete"
`??osal_nv_delete::?relay` SYMBOL "?relay", osal_nv_delete
osal_nv_init        SYMBOL "osal_nv_init"
`??osal_nv_init::?relay` SYMBOL "?relay", osal_nv_init
osal_nv_item_init   SYMBOL "osal_nv_item_init"
`??osal_nv_item_init::?relay` SYMBOL "?relay", osal_nv_item_init
osal_nv_item_len    SYMBOL "osal_nv_item_len"
`??osal_nv_item_len::?relay` SYMBOL "?relay", osal_nv_item_len
osal_nv_read        SYMBOL "osal_nv_read"
`??osal_nv_read::?relay` SYMBOL "?relay", osal_nv_read
osal_nv_write       SYMBOL "osal_nv_write"
`??osal_nv_write::?relay` SYMBOL "?relay", osal_nv_write

        EXTERN `??HalAdcCheckVdd::?relay`
        FUNCTION `??HalAdcCheckVdd::?relay`,00H
        EXTERN `??HalFlashErase::?relay`
        FUNCTION `??HalFlashErase::?relay`,00H
        EXTERN `??HalFlashRead::?relay`
        FUNCTION `??HalFlashRead::?relay`,00H
        EXTERN `??HalFlashWrite::?relay`
        FUNCTION `??HalFlashWrite::?relay`,00H
        EXTERN HalAdcCheckVdd
        FUNCTION HalAdcCheckVdd,0202H
        ARGFRAME ISTACK, 0, STACK
        ARGFRAME PSTACK, 0, STACK
        ARGFRAME XSTACK, 45, STACK
        ARGFRAME IOVERLAY, 0, STATIC
        ARGFRAME DOVERLAY, 0, STATIC
        EXTERN HalFlashErase
        FUNCTION HalFlashErase,0202H
        ARGFRAME ISTACK, 0, STACK
        ARGFRAME PSTACK, 0, STACK
        ARGFRAME XSTACK, 9, STACK
        ARGFRAME IOVERLAY, 0, STATIC
        ARGFRAME DOVERLAY, 0, STATIC
        EXTERN HalFlashRead
        FUNCTION HalFlashRead,0202H
        ARGFRAME ISTACK, 0, STACK
        ARGFRAME PSTACK, 0, STACK
        ARGFRAME XSTACK, 51, STACK
        ARGFRAME IOVERLAY, 0, STATIC
        ARGFRAME DOVERLAY, 0, STATIC
        EXTERN HalFlashWrite
        FUNCTION HalFlashWrite,0202H
        ARGFRAME ISTACK, 0, STACK
        ARGFRAME PSTACK, 0, STACK
        ARGFRAME XSTACK, 51, STACK
        ARGFRAME IOVERLAY, 0, STATIC
        ARGFRAME DOVERLAY, 0, STATIC

// C:\Users\Bart\Documents\GitHub\WTSN\Components\osal\mcu\cc2530\OSAL_Nv.c
//    1 /******************************************************************************
//    2   Filename:       OSAL_Nv.c
//    3   Revised:        $Date: 2013-08-07 10:27:19 -0700 (Wed, 07 Aug 2013) $
//    4   Revision:       $Revision: 34901 $
//    5 
//    6   Description:    This module contains the OSAL non-volatile memory functions.
//    7 
//    8 
//    9   Copyright 2006-2013 Texas Instruments Incorporated. All rights reserved.
//   10 
//   11   IMPORTANT: Your use of this Software is limited to those specific rights
//   12   granted under the terms of a software license agreement between the user
//   13   who downloaded the software, his/her employer (which must be your employer)
//   14   and Texas Instruments Incorporated (the "License"). You may not use this
//   15   Software unless you agree to abide by the terms of the License. The License
//   16   limits your use, and you acknowledge, that the Software may not be modified,
//   17   copied or distributed unless embedded on a Texas Instruments microcontroller
//   18   or used solely and exclusively in conjunction with a Texas Instruments radio
//   19   frequency transceiver, which is integrated into your product. Other than for
//   20   the foregoing purpose, you may not use, reproduce, copy, prepare derivative
//   21   works of, modify, distribute, perform, display or sell this Software and/or
//   22   its documentation for any purpose.
//   23 
//   24   YOU FURTHER ACKNOWLEDGE AND AGREE THAT THE SOFTWARE AND DOCUMENTATION ARE
//   25   PROVIDED “AS IS” WITHOUT WARRANTY OF ANY KIND, EITHER EXPRESS OR IMPLIED,
//   26   INCLUDING WITHOUT LIMITATION, ANY WARRANTY OF MERCHANTABILITY, TITLE,
//   27   NON-INFRINGEMENT AND FITNESS FOR A PARTICULAR PURPOSE. IN NO EVENT SHALL
//   28   TEXAS INSTRUMENTS OR ITS LICENSORS BE LIABLE OR OBLIGATED UNDER CONTRACT,
//   29   NEGLIGENCE, STRICT LIABILITY, CONTRIBUTION, BREACH OF WARRANTY, OR OTHER
//   30   LEGAL EQUITABLE THEORY ANY DIRECT OR INDIRECT DAMAGES OR EXPENSES
//   31   INCLUDING BUT NOT LIMITED TO ANY INCIDENTAL, SPECIAL, INDIRECT, PUNITIVE
//   32   OR CONSEQUENTIAL DAMAGES, LOST PROFITS OR LOST DATA, COST OF PROCUREMENT
//   33   OF SUBSTITUTE GOODS, TECHNOLOGY, SERVICES, OR ANY CLAIMS BY THIRD PARTIES
//   34   (INCLUDING BUT NOT LIMITED TO ANY DEFENSE THEREOF), OR OTHER SIMILAR COSTS.
//   35 
//   36   Should you have any questions regarding your right to use this Software,
//   37   contact Texas Instruments Incorporated at www.TI.com.
//   38 ******************************************************************************/
//   39 
//   40 /******************************************************************************
//   41   Notes:
//   42     - A trick buried deep in initPage() requires that the MSB of the NV Item Id
//   43       is to be reserved for use by this module.
//   44 ******************************************************************************/
//   45 
//   46 /*********************************************************************
//   47  * INCLUDES
//   48  */
//   49 
//   50 #include "hal_adc.h"
//   51 #include "hal_flash.h"
//   52 #include "hal_types.h"
//   53 #include "OSAL_Nv.h"
//   54 #include "ZComDef.h"
//   55 
//   56 /*********************************************************************
//   57  * CONSTANTS
//   58  */
//   59 
//   60 #define OSAL_NV_PAGE_SIZE       HAL_FLASH_PAGE_SIZE
//   61 #define OSAL_NV_PAGES_USED      HAL_NV_PAGE_CNT
//   62 #define OSAL_NV_PAGE_BEG        HAL_NV_PAGE_BEG
//   63 #define OSAL_NV_PAGE_END       (OSAL_NV_PAGE_BEG + OSAL_NV_PAGES_USED - 1)
//   64 
//   65 #define OSAL_NV_ACTIVE          0x00
//   66 #define OSAL_NV_ERASED          0xFF
//   67 #define OSAL_NV_ERASED_ID       0xFFFF
//   68 #define OSAL_NV_ZEROED_ID       0x0000
//   69 // Reserve MSB of Id to signal a search for the "old" source copy (new write interrupted/failed.)
//   70 #define OSAL_NV_SOURCE_ID       0x8000
//   71 
//   72 // In case pages 0-1 are ever used, define a null page value.
//   73 #define OSAL_NV_PAGE_NULL       0
//   74 
//   75 // In case item Id 0 is ever used, define a null item value.
//   76 #define OSAL_NV_ITEM_NULL       0
//   77 
//   78 #define OSAL_NV_WORD_SIZE       HAL_FLASH_WORD_SIZE
//   79 
//   80 #define OSAL_NV_PAGE_HDR_OFFSET 0
//   81 
//   82 #define OSAL_NV_MAX_HOT         3

        RSEG XDATA_ROM_C:CONST:REORDER:NOROOT(0)
        DATA8
//   83 static const uint16 hotIds[OSAL_NV_MAX_HOT] = {
hotIds:
        DATA16
        DW 130
        DW 58
        DW 59
//   84   ZCD_NV_NWKKEY,
//   85   ZCD_NV_NWK_ACTIVE_KEY_INFO,
//   86   ZCD_NV_NWK_ALTERN_KEY_INFO,
//   87 };
//   88 
//   89 /*********************************************************************
//   90  * MACROS
//   91  */
//   92 
//   93 #define OSAL_NV_CHECK_BUS_VOLTAGE  HalAdcCheckVdd(VDD_MIN_NV)
//   94 
//   95 #define OSAL_NV_DATA_SIZE( LEN )                      \ 
//   96   (((LEN) >= ((uint16)(65536UL - OSAL_NV_WORD_SIZE))) ? \ 
//   97              ((uint16)(65536UL - OSAL_NV_WORD_SIZE))  : \ 
//   98              ((((LEN) + OSAL_NV_WORD_SIZE - 1) / OSAL_NV_WORD_SIZE) * OSAL_NV_WORD_SIZE))
//   99 
//  100 #define OSAL_NV_ITEM_SIZE( LEN )                                         \ 
//  101   (((LEN) >= ((uint16)(65536UL - OSAL_NV_WORD_SIZE - OSAL_NV_HDR_SIZE))) ? \ 
//  102              ((uint16)(65536UL - OSAL_NV_WORD_SIZE))                     : \ 
//  103   (((((LEN) + OSAL_NV_WORD_SIZE - 1) / OSAL_NV_WORD_SIZE) * OSAL_NV_WORD_SIZE) + OSAL_NV_HDR_SIZE))
//  104 
//  105 #define COMPACT_PAGE_CLEANUP( COM_PG ) st ( \ 
//  106   /* In order to recover from a page compaction that is interrupted,\ 
//  107    * the logic in osal_nv_init() depends upon the following order:\ 
//  108    * 1. State of the target of compaction is changed to ePgInUse.\ 
//  109    * 2. Compacted page is erased.\ 
//  110    */\ 
//  111   setPageUse( pgRes, TRUE );  /* Mark the reserve page as being in use. */\ 
//  112   erasePage( (COM_PG) ); \ 
//  113   \ 
//  114   pgRes = (COM_PG);           /* Set the reserve page to be the newly erased page. */\ 
//  115 )
//  116 
//  117 /*********************************************************************
//  118  * TYPEDEFS
//  119  */
//  120 
//  121 typedef struct
//  122 {
//  123   uint16 id;
//  124   uint16 len;   // Enforce Flash-WORD size on len.
//  125   uint16 chk;   // Byte-wise checksum of the 'len' data bytes of the item.
//  126   uint16 stat;  // Item status.
//  127 } osalNvHdr_t;
//  128 // Struct member offsets.
//  129 #define OSAL_NV_HDR_ID    0
//  130 #define OSAL_NV_HDR_LEN   2
//  131 #define OSAL_NV_HDR_CHK   4
//  132 #define OSAL_NV_HDR_STAT  6
//  133 
//  134 #define OSAL_NV_HDR_ITEM  2  // Length of any item of a header struct.
//  135 #define OSAL_NV_HDR_SIZE  8
//  136 #define OSAL_NV_HDR_HALF (OSAL_NV_HDR_SIZE / 2)
//  137 
//  138 typedef struct
//  139 {
//  140   uint16 active;
//  141   uint16 inUse;
//  142   uint16 xfer;
//  143   uint16 spare;
//  144 } osalNvPgHdr_t;
//  145 // Struct member offsets.
//  146 #define OSAL_NV_PG_ACTIVE 0
//  147 #define OSAL_NV_PG_INUSE  2
//  148 #define OSAL_NV_PG_XFER   4
//  149 #define OSAL_NV_PG_SPARE  6
//  150 
//  151 #define OSAL_NV_PAGE_HDR_SIZE  8
//  152 #define OSAL_NV_PAGE_HDR_HALF (OSAL_NV_PAGE_HDR_SIZE / 2)
//  153 
//  154 typedef enum
//  155 {
//  156   eNvXfer,
//  157   eNvZero
//  158 } eNvHdrEnum;
//  159 
//  160 typedef enum
//  161 {
//  162   ePgActive,
//  163   ePgInUse,
//  164   ePgXfer,
//  165   ePgSpare
//  166 } ePgHdrEnum;
//  167 
//  168 /*********************************************************************
//  169  * GLOBAL VARIABLES
//  170  */
//  171 
//  172 #ifndef OAD_KEEP_NV_PAGES
//  173 // When NV pages are to remain intact during OAD download,
//  174 // the image itself should not include NV pages.
//  175 #pragma location="ZIGNV_ADDRESS_SPACE"

        RSEG ZIGNV_ADDRESS_SPACE:XDATA:REORDER:NOROOT(0)
        DATA8
//  176 __no_init uint8 _nvBuf[OSAL_NV_PAGES_USED * OSAL_NV_PAGE_SIZE];
_nvBuf:
        DS 12288
//  177 #pragma required=_nvBuf
//  178 #endif // OAD_KEEP_NV_PAGES
//  179 
//  180 /*********************************************************************
//  181  * LOCAL VARIABLES
//  182  */
//  183 
//  184 // Offset into the page of the first available erased space.

        RSEG XDATA_Z:XDATA:NOROOT(0)
        DATA8
//  185 static uint16 pgOff[OSAL_NV_PAGES_USED];
pgOff:
        DS 12
        REQUIRE __INIT_XDATA_Z
        REQUIRE _nvBuf
//  186 
//  187 // Count of the bytes lost for the zeroed-out items.

        RSEG XDATA_Z:XDATA:NOROOT(0)
        DATA8
//  188 static uint16 pgLost[OSAL_NV_PAGES_USED];
pgLost:
        DS 12
        REQUIRE __INIT_XDATA_Z
//  189 

        RSEG XDATA_Z:XDATA:NOROOT(0)
        DATA8
//  190 static uint8 pgRes;  // Page reserved for item compacting transfer.
pgRes:
        DS 1
        REQUIRE __INIT_XDATA_Z
//  191 
//  192 // Saving ~100 code bytes to move a uint8* parameter/return value from findItem() to a global.

        RSEG XDATA_Z:XDATA:NOROOT(0)
        DATA8
//  193 static uint8 findPg;
findPg:
        DS 1
        REQUIRE __INIT_XDATA_Z
//  194 
//  195 // NV page and offsets for hot items.

        RSEG XDATA_Z:XDATA:NOROOT(0)
        DATA8
//  196 static uint8 hotPg[OSAL_NV_MAX_HOT];
hotPg:
        DS 3
        REQUIRE __INIT_XDATA_Z

        RSEG XDATA_Z:XDATA:NOROOT(0)
        DATA8
//  197 static uint16 hotOff[OSAL_NV_MAX_HOT];
hotOff:
        DS 6
        REQUIRE __INIT_XDATA_Z
//  198 
//  199 /*********************************************************************
//  200  * LOCAL FUNCTIONS
//  201  */
//  202 
//  203 static uint8  initNV( void );
//  204 
//  205 static void   setPageUse( uint8 pg, uint8 inUse );
//  206 static uint16 initPage( uint8 pg, uint16 id, uint8 findDups );
//  207 static void   erasePage( uint8 pg );
//  208 static uint8  compactPage( uint8 srcPg, uint16 skipId );
//  209 
//  210 static uint16 findItem( uint16 id );
//  211 static uint8  initItem( uint8 flag, uint16 id, uint16 len, void *buf );
//  212 static void   setItem( uint8 pg, uint16 offset, eNvHdrEnum stat );
//  213 static uint16 setChk( uint8 pg, uint16 offset, uint16 chk );
//  214 
//  215 static uint16 calcChkB( uint16 len, uint8 *buf );
//  216 static uint16 calcChkF( uint8 pg, uint16 offset, uint16 len );
//  217 
//  218 static void   writeWord( uint8 pg, uint16 offset, uint8 *buf );
//  219 static void   writeWordH( uint8 pg, uint16 offset, uint8 *buf );
//  220 static void   writeWordM( uint8 pg, uint16 offset, uint8 *buf, uint16 cnt );
//  221 static void   writeBuf( uint8 pg, uint16 offset, uint16 len, uint8 *buf );
//  222 static void   xferBuf( uint8 srcPg, uint16 srcOff, uint8 dstPg, uint16 dstOff, uint16 len );
//  223 
//  224 static uint8  writeItem( uint8 pg, uint16 id, uint16 len, void *buf, uint8 flag );
//  225 static uint8  hotItem(uint16 id);
//  226 static void   hotItemUpdate(uint8 pg, uint16 off, uint16 id);
//  227 
//  228 /*********************************************************************
//  229  * @fn      initNV
//  230  *
//  231  * @brief   Initialize the NV flash pages.
//  232  *
//  233  * @param   none
//  234  *
//  235  * @return  TRUE
//  236  */

        RSEG BANKED_CODE:CODE:NOROOT(0)
//  237 static uint8 initNV( void )
initNV:
          CFI Block cfiBlock0 Using cfiCommon0
          CFI Function initNV
        CODE
//  238 {
        FUNCALL initNV, HalFlashRead
        LOCFRAME ISTACK, 0, STACK
        LOCFRAME PSTACK, 0, STACK
        LOCFRAME XSTACK, 30, STACK
        LOCFRAME IOVERLAY, 0, STATIC
        LOCFRAME DOVERLAY, 0, STATIC
        ARGFRAME ISTACK, 0, STACK
        ARGFRAME PSTACK, 0, STACK
        ARGFRAME XSTACK, 30, STACK
        ARGFRAME IOVERLAY, 0, STATIC
        ARGFRAME DOVERLAY, 0, STATIC
        FUNCALL initNV, HalFlashWrite
        LOCFRAME ISTACK, 0, STACK
        LOCFRAME PSTACK, 0, STACK
        LOCFRAME XSTACK, 30, STACK
        LOCFRAME IOVERLAY, 0, STATIC
        LOCFRAME DOVERLAY, 0, STATIC
        ARGFRAME ISTACK, 0, STACK
        ARGFRAME PSTACK, 0, STACK
        ARGFRAME XSTACK, 30, STACK
        ARGFRAME IOVERLAY, 0, STATIC
        ARGFRAME DOVERLAY, 0, STATIC
        FUNCALL initNV, erasePage
        LOCFRAME ISTACK, 0, STACK
        LOCFRAME PSTACK, 0, STACK
        LOCFRAME XSTACK, 28, STACK
        LOCFRAME IOVERLAY, 0, STATIC
        LOCFRAME DOVERLAY, 0, STATIC
        ARGFRAME ISTACK, 0, STACK
        ARGFRAME PSTACK, 0, STACK
        ARGFRAME XSTACK, 28, STACK
        ARGFRAME IOVERLAY, 0, STATIC
        ARGFRAME DOVERLAY, 0, STATIC
        FUNCALL initNV, compactPage
        LOCFRAME ISTACK, 0, STACK
        LOCFRAME PSTACK, 0, STACK
        LOCFRAME XSTACK, 28, STACK
        LOCFRAME IOVERLAY, 0, STATIC
        LOCFRAME DOVERLAY, 0, STATIC
        ARGFRAME ISTACK, 0, STACK
        ARGFRAME PSTACK, 0, STACK
        ARGFRAME XSTACK, 28, STACK
        ARGFRAME IOVERLAY, 0, STATIC
        ARGFRAME DOVERLAY, 0, STATIC
        FUNCALL initNV, erasePage
        LOCFRAME ISTACK, 0, STACK
        LOCFRAME PSTACK, 0, STACK
        LOCFRAME XSTACK, 28, STACK
        LOCFRAME IOVERLAY, 0, STATIC
        LOCFRAME DOVERLAY, 0, STATIC
        ARGFRAME ISTACK, 0, STACK
        ARGFRAME PSTACK, 0, STACK
        ARGFRAME XSTACK, 28, STACK
        ARGFRAME IOVERLAY, 0, STATIC
        ARGFRAME DOVERLAY, 0, STATIC
        FUNCALL initNV, erasePage
        LOCFRAME ISTACK, 0, STACK
        LOCFRAME PSTACK, 0, STACK
        LOCFRAME XSTACK, 28, STACK
        LOCFRAME IOVERLAY, 0, STATIC
        LOCFRAME DOVERLAY, 0, STATIC
        ARGFRAME ISTACK, 0, STACK
        ARGFRAME PSTACK, 0, STACK
        ARGFRAME XSTACK, 28, STACK
        ARGFRAME IOVERLAY, 0, STATIC
        ARGFRAME DOVERLAY, 0, STATIC
        FUNCALL initNV, initPage
        LOCFRAME ISTACK, 0, STACK
        LOCFRAME PSTACK, 0, STACK
        LOCFRAME XSTACK, 28, STACK
        LOCFRAME IOVERLAY, 0, STATIC
        LOCFRAME DOVERLAY, 0, STATIC
        ARGFRAME ISTACK, 0, STACK
        ARGFRAME PSTACK, 0, STACK
        ARGFRAME XSTACK, 28, STACK
        ARGFRAME IOVERLAY, 0, STATIC
        ARGFRAME DOVERLAY, 0, STATIC
        FUNCALL initNV, initPage
        LOCFRAME ISTACK, 0, STACK
        LOCFRAME PSTACK, 0, STACK
        LOCFRAME XSTACK, 28, STACK
        LOCFRAME IOVERLAY, 0, STATIC
        LOCFRAME DOVERLAY, 0, STATIC
        ARGFRAME ISTACK, 0, STACK
        ARGFRAME PSTACK, 0, STACK
        ARGFRAME XSTACK, 28, STACK
        ARGFRAME IOVERLAY, 0, STATIC
        ARGFRAME DOVERLAY, 0, STATIC
        FUNCALL initNV, erasePage
        LOCFRAME ISTACK, 0, STACK
        LOCFRAME PSTACK, 0, STACK
        LOCFRAME XSTACK, 28, STACK
        LOCFRAME IOVERLAY, 0, STATIC
        LOCFRAME DOVERLAY, 0, STATIC
        ARGFRAME ISTACK, 0, STACK
        ARGFRAME PSTACK, 0, STACK
        ARGFRAME XSTACK, 28, STACK
        ARGFRAME IOVERLAY, 0, STATIC
        ARGFRAME DOVERLAY, 0, STATIC
        REQUIRE ?V0
        REQUIRE ?V2
        REQUIRE ?V3
        MOV     A,#-0xc
        LCALL   ?BANKED_ENTER_XDATA
          CFI DPH0 load(1, XDATA, add(CFA_XSP16, literal(-1)))
          CFI DPL0 load(1, XDATA, add(CFA_XSP16, literal(-2)))
          CFI ?BRET_EXT load(1, XDATA, add(CFA_XSP16, literal(-3)))
          CFI ?RET_HIGH load(1, XDATA, add(CFA_XSP16, literal(-4)))
          CFI ?RET_LOW load(1, XDATA, add(CFA_XSP16, literal(-5)))
          CFI R7 load(1, XDATA, add(CFA_XSP16, literal(-6)))
          CFI V3 load(1, XDATA, add(CFA_XSP16, literal(-7)))
          CFI V2 load(1, XDATA, add(CFA_XSP16, literal(-8)))
          CFI V1 load(1, XDATA, add(CFA_XSP16, literal(-9)))
          CFI V0 load(1, XDATA, add(CFA_XSP16, literal(-10)))
          CFI VB load(1, XDATA, add(CFA_XSP16, literal(-11)))
          CFI R6 load(1, XDATA, add(CFA_XSP16, literal(-12)))
          CFI CFA_SP SP+0
          CFI CFA_XSP16 add(XSP16, 12)
        ; Saved register size: 12
        ; Auto size: 16
        MOV     A,#-0x10
        LCALL   ?ALLOC_XSTACK8
          CFI CFA_XSP16 add(XSP16, 28)
//  239   osalNvPgHdr_t pgHdr;
//  240   uint8 oldPg = OSAL_NV_PAGE_NULL;
        MOV     ?V0,#0x0
//  241   uint8 findDups = FALSE;
        MOV     R7,#0x0
//  242   uint8 pg;
//  243 
//  244   pgRes = OSAL_NV_PAGE_NULL;
        MOV     DPTR,#pgRes
        CLR     A
        MOVX    @DPTR,A
//  245 
//  246   for ( pg = OSAL_NV_PAGE_BEG; pg <= OSAL_NV_PAGE_END; pg++ )
        MOV     R6,#0x79
//  247   {
//  248     HalFlashRead(pg, OSAL_NV_PAGE_HDR_OFFSET, (uint8 *)(&pgHdr), OSAL_NV_HDR_SIZE);
??initNV_0:
        ; Setup parameters for call to function HalFlashRead
        MOV     ?V2,#0x8
        MOV     ?V3,R7
        MOV     R0,#?V2
        LCALL   ?PUSH_XSTACK_I_TWO
          CFI CFA_XSP16 add(XSP16, 30)
        MOV     A,#0xa
        LCALL   ?XSTACK_DISP102_8
        MOV     R2,#0x0
        MOV     R3,#0x0
        MOV     A,R6
        MOV     R1,A
        LCALL   `??HalFlashRead::?relay`; Banked call to: HalFlashRead
        MOV     A,#0x2
        LCALL   ?DEALLOC_XSTACK8
          CFI CFA_XSP16 add(XSP16, 28)
//  249 
//  250     if ( pgHdr.active == OSAL_NV_ERASED_ID )
        MOV     A,#0x8
        LCALL   ?XSTACK_DISP0_8
        MOVX    A,@DPTR
        CPL     A
        JNZ     ??initNV_1
        INC     DPTR
        MOVX    A,@DPTR
        CPL     A
??initNV_1:
        JNZ     ??initNV_2
//  251     {
//  252       if ( pgRes == OSAL_NV_PAGE_NULL )
        MOV     DPTR,#pgRes
        MOVX    A,@DPTR
        JNZ     ??initNV_3
//  253       {
//  254         pgRes = pg;
        MOV     A,R6
        MOVX    @DPTR,A
        SJMP    ??initNV_4
//  255       }
//  256       else
//  257       {
//  258         setPageUse( pg, TRUE );
??initNV_3:
        MOV     DPL,?XSP + 0
        MOV     DPH,?XSP + 1
        CLR     A
        MOVX    @DPTR,A
        INC     DPTR
        MOVX    @DPTR,A
        MOV     A,#0x2
        LCALL   ?XSTACK_DISP0_8
        CLR     A
        MOVX    @DPTR,A
        INC     DPTR
        MOVX    @DPTR,A
        ; Setup parameters for call to function HalFlashWrite
        MOV     ?V2,#0x1
        MOV     R0,#?V2
        LCALL   ?PUSH_XSTACK_I_TWO
          CFI CFA_XSP16 add(XSP16, 30)
        MOV     A,#0x2
        LCALL   ?XSTACK_DISP102_8
        MOV     ?V2,R6
        MOV     A,#0x9
        MOV     R0,#?V2
        LCALL   ?S_SHL
        MOV     R2,A
        MOV     R3,?V3
        LCALL   `??HalFlashWrite::?relay`; Banked call to: HalFlashWrite
        MOV     A,#0x2
        LCALL   ?DEALLOC_XSTACK8
          CFI CFA_XSP16 add(XSP16, 28)
//  259       }
//  260     }
        SJMP    ??initNV_4
//  261     // An Xfer from this page was in progress.
//  262     else if ( pgHdr.xfer != OSAL_NV_ERASED_ID )
??initNV_2:
        MOV     A,#0xc
        LCALL   ?XSTACK_DISP0_8
        MOVX    A,@DPTR
        CPL     A
        JNZ     ??initNV_5
        INC     DPTR
        MOVX    A,@DPTR
        CPL     A
??initNV_5:
        JZ      ??initNV_4
//  263     {
//  264       oldPg = pg;
        MOV     ?V0,R6
//  265     }
//  266   }
??initNV_4:
        INC     R6
        MOV     A,R6
        CLR     C
        SUBB    A,#0x7f
        JNC     $+5
        LJMP    ??initNV_0 & 0xFFFF
//  267 
//  268   // If a page compaction was interrupted before the old page was erased.
//  269   if ( oldPg != OSAL_NV_PAGE_NULL )
        MOV     A,?V0
        MOV     DPTR,#pgRes
        JZ      ??initNV_6
//  270   {
//  271     /* Interrupted compaction before the target of compaction was put in use;
//  272      * so erase the target of compaction and start again.
//  273      */
//  274     if ( pgRes != OSAL_NV_PAGE_NULL )
        MOVX    A,@DPTR
        JZ      ??initNV_7
//  275     {
//  276       erasePage( pgRes );
        ; Setup parameters for call to function erasePage
        MOV     R1,A
        LCALL   `??erasePage::?relay`; Banked call to: erasePage
//  277       (void)compactPage( oldPg, OSAL_NV_ITEM_NULL );
        ; Setup parameters for call to function compactPage
        MOV     R2,#0x0
        MOV     R3,#0x0
        MOV     R1,?V0
        LCALL   `??compactPage::?relay`; Banked call to: compactPage
        SJMP    ??initNV_8
//  278     }
//  279     /* Interrupted compaction after the target of compaction was put in use,
//  280      * but before the old page was erased; so erase it now and create a new reserve page.
//  281      */
//  282     else
//  283     {
//  284       erasePage( oldPg );
??initNV_7:
        ; Setup parameters for call to function erasePage
        MOV     R1,?V0
        LCALL   `??erasePage::?relay`; Banked call to: erasePage
//  285       pgRes = oldPg;
        MOV     A,?V0
        MOV     DPTR,#pgRes
        MOVX    @DPTR,A
        SJMP    ??initNV_8
//  286     }
//  287   }
//  288   else if ( pgRes != OSAL_NV_PAGE_NULL )
??initNV_6:
        MOVX    A,@DPTR
        JZ      ??initNV_8
//  289   {
//  290     erasePage( pgRes );  // The last page erase could have been interrupted by a power-cycle.
        ; Setup parameters for call to function erasePage
        MOV     R1,A
        LCALL   `??erasePage::?relay`; Banked call to: erasePage
//  291   }
//  292   /* else if there is no reserve page, COMPACT_PAGE_CLEANUP() must have succeeded to put the old
//  293    * reserve page (i.e. the target of the compacted items) into use but got interrupted by a reset
//  294    * while trying to erase the page to be compacted. Such a page should only contain duplicate items
//  295    * (i.e. all items will be marked 'Xfer') and thus should have the lost count equal to the page
//  296    * size less the page header.
//  297    */
//  298 
//  299   for ( pg = OSAL_NV_PAGE_BEG; pg <= OSAL_NV_PAGE_END; pg++ )
??initNV_8:
        MOV     R6,#0x79
//  300   {
//  301     // Calculate page offset and lost bytes - any "old" item triggers an N^2 re-scan from start.
//  302     if ( initPage( pg, OSAL_NV_ITEM_NULL, findDups ) != OSAL_NV_ITEM_NULL )
??initNV_9:
        ; Setup parameters for call to function initPage
        MOV     A,R7
        MOV     R4,A
        MOV     R2,#0x0
        MOV     R3,#0x0
        MOV     A,R6
        MOV     R1,A
        LCALL   `??initPage::?relay` ; Banked call to: initPage
        MOV     ?V3,R3
        MOV     A,R2
        ORL     A,?V3
        JZ      ??initNV_10
//  303     {
//  304       findDups = TRUE;
        MOV     R7,#0x1
//  305       pg = (OSAL_NV_PAGE_BEG - 1);  // Pre-decrement so that loop increment will start over at zero.
        MOV     R6,#0x78
//  306       continue;
//  307     }
//  308   }
??initNV_10:
        INC     R6
        MOV     A,R6
        CLR     C
        SUBB    A,#0x7f
        JC      ??initNV_9
//  309 
//  310   if (findDups)
        MOV     A,R7
        MOV     C,0xE0 /* A   */.0
        JNC     ??initNV_11
//  311   {
//  312     // Final pass to calculate page lost after invalidating duplicate items.
//  313     for ( pg = OSAL_NV_PAGE_BEG; pg <= OSAL_NV_PAGE_END; pg++ )
        MOV     R6,#0x79
//  314     {
//  315       (void)initPage( pg, OSAL_NV_ITEM_NULL, FALSE );
??initNV_12:
        ; Setup parameters for call to function initPage
        MOV     R4,#0x0
        MOV     R2,#0x0
        MOV     R3,#0x0
        MOV     A,R6
        MOV     R1,A
        LCALL   `??initPage::?relay` ; Banked call to: initPage
//  316     }
        INC     R6
        MOV     A,R6
        CLR     C
        SUBB    A,#0x7f
        JC      ??initNV_12
//  317   }
//  318 
//  319   if ( pgRes == OSAL_NV_PAGE_NULL )
??initNV_11:
        MOV     DPTR,#pgRes
        MOVX    A,@DPTR
        JNZ     ??initNV_13
//  320   {
//  321     uint8 idx, mostLost = 0;
        MOV     R7,#0x0
//  322 
//  323     for ( idx = 0; idx < OSAL_NV_PAGES_USED; idx++ )
        MOV     R6,#0x0
        MOV     R2,#pgLost & 0xff
        MOV     R3,#(pgLost >> 8) & 0xff
//  324     {
//  325       // Is this the page that was compacted?
//  326       if (pgLost[idx] == (OSAL_NV_PAGE_SIZE - OSAL_NV_PAGE_HDR_SIZE))
??initNV_14:
        MOV     DPL,R2
        MOV     DPH,R3
        LCALL   ?Subroutine26 & 0xFFFF
??CrossCallReturnLabel_39:
        MOV     A,#-0x8
        XRL     A,R4
        JNZ     ??initNV_15
        MOV     A,#0x7
        XRL     A,R5
??initNV_15:
        JNZ     ??initNV_16
//  327       {
//  328         mostLost = idx;
        MOV     A,R6
        MOV     R7,A
//  329         break;
        SJMP    ??initNV_17
//  330       }
//  331       /* This check is not expected to be necessary because the above test should always succeed
//  332        * with an early loop exit.
//  333        */
//  334       else if (pgLost[idx] > pgLost[mostLost])
??initNV_16:
        MOV     A,R7
        LCALL   ?Subroutine31 & 0xFFFF
??CrossCallReturnLabel_58:
        LCALL   ?Subroutine32 & 0xFFFF
??CrossCallReturnLabel_61:
        CLR     C
        MOVX    A,@DPTR
        SUBB    A,R4
        INC     DPTR
        MOVX    A,@DPTR
        SUBB    A,R5
        JNC     ??initNV_18
//  335       {
//  336         mostLost = idx;
        MOV     A,R6
        MOV     R7,A
//  337       }
//  338     }
??initNV_18:
        INC     R6
        MOV     A,R2
        ADD     A,#0x2
        CLR     A
        ADDC    A,R3
        INC     R2
        INC     R2
        MOV     R3,A
        MOV     A,R6
        CLR     C
        SUBB    A,#0x6
        JC      ??initNV_14
//  339 
//  340     pgRes = mostLost + OSAL_NV_PAGE_BEG;
??initNV_17:
        MOV     A,#0x79
        ADD     A,R7
        MOV     DPTR,#pgRes
        MOVX    @DPTR,A
//  341     erasePage( pgRes );  // The last page erase had been interrupted by a power-cycle.
        ; Setup parameters for call to function erasePage
        MOV     R1,A
        LCALL   `??erasePage::?relay`; Banked call to: erasePage
//  342   }
//  343 
//  344   return TRUE;
??initNV_13:
        MOV     R1,#0x1
        MOV     A,#0x10
        LJMP    ?Subroutine0 & 0xFFFF
//  345 }
          CFI EndBlock cfiBlock0
//  346 
//  347 /*********************************************************************
//  348  * @fn      setPageUse
//  349  *
//  350  * @brief   Set page header active/inUse state according to 'inUse'.
//  351  *
//  352  * @param   pg - Valid NV page to verify and init.
//  353  * @param   inUse - Boolean TRUE if inUse, FALSE if only active.
//  354  *
//  355  * @return  none
//  356  */
//  357 static void setPageUse( uint8 pg, uint8 inUse )
//  358 {
//  359   osalNvPgHdr_t pgHdr;
//  360 
//  361   pgHdr.active = OSAL_NV_ZEROED_ID;
//  362 
//  363   if ( inUse )
//  364   {
//  365     pgHdr.inUse = OSAL_NV_ZEROED_ID;
//  366   }
//  367   else
//  368   {
//  369     pgHdr.inUse = OSAL_NV_ERASED_ID;
//  370   }
//  371 
//  372   writeWord( pg, OSAL_NV_PAGE_HDR_OFFSET, (uint8*)(&pgHdr) );
//  373 }
//  374 
//  375 /*********************************************************************
//  376  * @fn      initPage
//  377  *
//  378  * @brief   Walk the page items; calculate checksums, lost bytes & page offset.
//  379  *
//  380  * @param   pg - Valid NV page to verify and init.
//  381  * @param   id - Valid NV item Id to use function as a "findItem".
//  382  *               If set to NULL then just perform the page initialization.
//  383  * @param   findDups - TRUE on recursive call from initNV() to find and zero-out duplicate items
//  384  *                     left from a write that is interrupted by a reset/power-cycle.
//  385  *                     FALSE otherwise.
//  386  *
//  387  * @return  If 'id' is non-NULL and good checksums are found, return the offset
//  388  *          of the data corresponding to item Id; else OSAL_NV_ITEM_NULL.
//  389  */

        RSEG BANKED_CODE:CODE:NOROOT(0)
//  390 static uint16 initPage( uint8 pg, uint16 id, uint8 findDups )
initPage:
          CFI Block cfiBlock1 Using cfiCommon0
          CFI Function initPage
        CODE
//  391 {
        FUNCALL initPage, HalFlashRead
        LOCFRAME ISTACK, 0, STACK
        LOCFRAME PSTACK, 0, STACK
        LOCFRAME XSTACK, 51, STACK
        LOCFRAME IOVERLAY, 0, STATIC
        LOCFRAME DOVERLAY, 0, STATIC
        ARGFRAME ISTACK, 0, STACK
        ARGFRAME PSTACK, 0, STACK
        ARGFRAME XSTACK, 51, STACK
        ARGFRAME IOVERLAY, 0, STATIC
        ARGFRAME DOVERLAY, 0, STATIC
        FUNCALL initPage, calcChkF
        LOCFRAME ISTACK, 0, STACK
        LOCFRAME PSTACK, 0, STACK
        LOCFRAME XSTACK, 49, STACK
        LOCFRAME IOVERLAY, 0, STATIC
        LOCFRAME DOVERLAY, 0, STATIC
        ARGFRAME ISTACK, 0, STACK
        ARGFRAME PSTACK, 0, STACK
        ARGFRAME XSTACK, 49, STACK
        ARGFRAME IOVERLAY, 0, STATIC
        ARGFRAME DOVERLAY, 0, STATIC
        FUNCALL initPage, findItem
        LOCFRAME ISTACK, 0, STACK
        LOCFRAME PSTACK, 0, STACK
        LOCFRAME XSTACK, 49, STACK
        LOCFRAME IOVERLAY, 0, STATIC
        LOCFRAME DOVERLAY, 0, STATIC
        ARGFRAME ISTACK, 0, STACK
        ARGFRAME PSTACK, 0, STACK
        ARGFRAME XSTACK, 49, STACK
        ARGFRAME IOVERLAY, 0, STATIC
        ARGFRAME DOVERLAY, 0, STATIC
        FUNCALL initPage, HalFlashRead
        LOCFRAME ISTACK, 0, STACK
        LOCFRAME PSTACK, 0, STACK
        LOCFRAME XSTACK, 51, STACK
        LOCFRAME IOVERLAY, 0, STATIC
        LOCFRAME DOVERLAY, 0, STATIC
        ARGFRAME ISTACK, 0, STACK
        ARGFRAME PSTACK, 0, STACK
        ARGFRAME XSTACK, 51, STACK
        ARGFRAME IOVERLAY, 0, STATIC
        ARGFRAME DOVERLAY, 0, STATIC
        FUNCALL initPage, HalFlashWrite
        LOCFRAME ISTACK, 0, STACK
        LOCFRAME PSTACK, 0, STACK
        LOCFRAME XSTACK, 51, STACK
        LOCFRAME IOVERLAY, 0, STATIC
        LOCFRAME DOVERLAY, 0, STATIC
        ARGFRAME ISTACK, 0, STACK
        ARGFRAME PSTACK, 0, STACK
        ARGFRAME XSTACK, 51, STACK
        ARGFRAME IOVERLAY, 0, STATIC
        ARGFRAME DOVERLAY, 0, STATIC
        FUNCALL initPage, HalFlashRead
        LOCFRAME ISTACK, 0, STACK
        LOCFRAME PSTACK, 0, STACK
        LOCFRAME XSTACK, 51, STACK
        LOCFRAME IOVERLAY, 0, STATIC
        LOCFRAME DOVERLAY, 0, STATIC
        ARGFRAME ISTACK, 0, STACK
        ARGFRAME PSTACK, 0, STACK
        ARGFRAME XSTACK, 51, STACK
        ARGFRAME IOVERLAY, 0, STATIC
        ARGFRAME DOVERLAY, 0, STATIC
        FUNCALL initPage, HalFlashWrite
        LOCFRAME ISTACK, 0, STACK
        LOCFRAME PSTACK, 0, STACK
        LOCFRAME XSTACK, 51, STACK
        LOCFRAME IOVERLAY, 0, STATIC
        LOCFRAME DOVERLAY, 0, STATIC
        ARGFRAME ISTACK, 0, STACK
        ARGFRAME PSTACK, 0, STACK
        ARGFRAME XSTACK, 51, STACK
        ARGFRAME IOVERLAY, 0, STATIC
        ARGFRAME DOVERLAY, 0, STATIC
        REQUIRE ?V0
        REQUIRE ?V1
        REQUIRE ?V2
        REQUIRE ?V3
        REQUIRE ?V4
        REQUIRE ?V5
        REQUIRE ?V6
        REQUIRE ?V7
        REQUIRE ?V8
        REQUIRE ?V9
        REQUIRE ?V10
        REQUIRE ?V11
        REQUIRE ?V12
        REQUIRE ?V13
        REQUIRE ?V14
        REQUIRE ?V15
        MOV     A,#-0x18
        LCALL   ?BANKED_ENTER_XDATA
          CFI DPH0 load(1, XDATA, add(CFA_XSP16, literal(-1)))
          CFI DPL0 load(1, XDATA, add(CFA_XSP16, literal(-2)))
          CFI ?BRET_EXT load(1, XDATA, add(CFA_XSP16, literal(-3)))
          CFI ?RET_HIGH load(1, XDATA, add(CFA_XSP16, literal(-4)))
          CFI ?RET_LOW load(1, XDATA, add(CFA_XSP16, literal(-5)))
          CFI R7 load(1, XDATA, add(CFA_XSP16, literal(-6)))
          CFI V15 load(1, XDATA, add(CFA_XSP16, literal(-7)))
          CFI V14 load(1, XDATA, add(CFA_XSP16, literal(-8)))
          CFI V13 load(1, XDATA, add(CFA_XSP16, literal(-9)))
          CFI V12 load(1, XDATA, add(CFA_XSP16, literal(-10)))
          CFI V11 load(1, XDATA, add(CFA_XSP16, literal(-11)))
          CFI V10 load(1, XDATA, add(CFA_XSP16, literal(-12)))
          CFI V9 load(1, XDATA, add(CFA_XSP16, literal(-13)))
          CFI V8 load(1, XDATA, add(CFA_XSP16, literal(-14)))
          CFI V7 load(1, XDATA, add(CFA_XSP16, literal(-15)))
          CFI V6 load(1, XDATA, add(CFA_XSP16, literal(-16)))
          CFI V5 load(1, XDATA, add(CFA_XSP16, literal(-17)))
          CFI V4 load(1, XDATA, add(CFA_XSP16, literal(-18)))
          CFI V3 load(1, XDATA, add(CFA_XSP16, literal(-19)))
          CFI V2 load(1, XDATA, add(CFA_XSP16, literal(-20)))
          CFI V1 load(1, XDATA, add(CFA_XSP16, literal(-21)))
          CFI V0 load(1, XDATA, add(CFA_XSP16, literal(-22)))
          CFI VB load(1, XDATA, add(CFA_XSP16, literal(-23)))
          CFI R6 load(1, XDATA, add(CFA_XSP16, literal(-24)))
          CFI CFA_SP SP+0
          CFI CFA_XSP16 add(XSP16, 24)
        ; Saved register size: 24
        ; Auto size: 25
        MOV     A,#-0x19
        LCALL   ?ALLOC_XSTACK8
          CFI CFA_XSP16 add(XSP16, 49)
        MOV     A,R1
        MOV     DPL,?XSP + 0
        MOV     DPH,?XSP + 1
        MOVX    @DPTR,A
        MOV     A,#0x3
        LCALL   ?XSTACK_DISP0_8
        MOV     A,R2
        MOVX    @DPTR,A
        INC     DPTR
        MOV     A,R3
        MOVX    @DPTR,A
        MOV     A,#0x2
        LCALL   ?XSTACK_DISP0_8
        MOV     A,R4
        MOVX    @DPTR,A
//  392   uint16 offset = OSAL_NV_PAGE_HDR_SIZE;
        MOV     ?V10,#0x8
        MOV     ?V11,#0x0
//  393   uint16 sz, lost = 0;
        MOV     ?V14,#0x0
        MOV     ?V15,#0x0
        MOV     DPL,?XSP + 0
        MOV     DPH,?XSP + 1
        MOVX    A,@DPTR
        ADD     A,0xE0 /* A   */
        MOV     R6,A
        CLR     A
        RLC     A
        MOV     R7,A
        MOV     A,#(pgLost + 14) & 0xff
        ADD     A,R6
        MOV     R0,A
        MOV     A,#((pgLost - 242) >> 8) & 0xff
        ADDC    A,R7
        MOV     R1,A
        MOV     A,#0x17
        LCALL   ?XSTACK_DISP0_8
        MOV     A,R0
        MOVX    @DPTR,A
        INC     DPTR
        MOV     A,R1
        LCALL   ?Subroutine13 & 0xFFFF
??CrossCallReturnLabel_12:
        MOV     ?V0,A
        MOV     ?V1,#0x0
        MOV     A,#0x9
        MOV     R0,#?V0
        LCALL   ?S_SHL
        MOV     A,#0x15
        LCALL   ?XSTACK_DISP0_8
        CLR     A
        MOVX    @DPTR,A
        INC     DPTR
        MOV     A,?V1
        MOVX    @DPTR,A
        MOV     A,#0x3
        LCALL   ?XSTACK_DISP0_8
        INC     DPTR
        MOVX    A,@DPTR
        ANL     A,#0x80
        MOV     ?V9,A
        MOV     A,#0x3
        LCALL   ?XSTACK_DISP0_8
        MOVX    A,@DPTR
        MOV     ?V4,A
        INC     DPTR
        MOVX    A,@DPTR
        ANL     A,#0x7f
        MOV     ?V5,A
//  394   osalNvHdr_t hdr;
//  395 
//  396   do
//  397   {
//  398     HalFlashRead(pg, offset, (uint8 *)(&hdr), OSAL_NV_HDR_SIZE);
??initPage_0:
        ; Setup parameters for call to function HalFlashRead
        MOV     ?V0,#0x8
        MOV     ?V1,#0x0
        MOV     R0,#?V0
        LCALL   ?PUSH_XSTACK_I_TWO
          CFI CFA_XSP16 add(XSP16, 51)
        MOV     A,#0xf
        LCALL   ?XSTACK_DISP102_8
        MOV     R2,?V10
        MOV     R3,?V11
        MOV     A,#0x2
        LCALL   ?XSTACK_DISP0_8
        MOVX    A,@DPTR
        MOV     R1,A
        LCALL   `??HalFlashRead::?relay`; Banked call to: HalFlashRead
        MOV     A,#0x2
        LCALL   ?DEALLOC_XSTACK8
          CFI CFA_XSP16 add(XSP16, 49)
//  399 
//  400     if ( hdr.id == OSAL_NV_ERASED_ID )
        MOV     A,#0xd
        LCALL   ?XSTACK_DISP0_8
        MOVX    A,@DPTR
        CPL     A
        JNZ     ??initPage_1
        INC     DPTR
        MOVX    A,@DPTR
        CPL     A
??initPage_1:
        JNZ     $+5
        LJMP    ??initPage_2 & 0xFFFF
//  401     {
//  402       break;
//  403     }
//  404 
//  405     // Get the actual size in bytes which is the ceiling(hdr.len)
//  406     sz = OSAL_NV_DATA_SIZE( hdr.len );
        MOV     A,#0xf
        LCALL   ?XSTACK_DISP0_8
        LCALL   ?Subroutine17 & 0xFFFF
??CrossCallReturnLabel_23:
        JC      ??initPage_3
        MOV     ?V0,#-0x4
        MOV     ?V1,#-0x1
        SJMP    ??initPage_4
??initPage_3:
        LCALL   ?Subroutine36 & 0xFFFF
??CrossCallReturnLabel_70:
        MOV     ?V0,A
        MOV     A,R1
        MOV     ?V1,A
//  407 
//  408     // A bad 'len' write has blown away the rest of the page.
//  409     if (sz > (OSAL_NV_PAGE_SIZE - OSAL_NV_HDR_SIZE - offset))
??initPage_4:
        MOV     A,#-0x8
        CLR     C
        SUBB    A,?V10
        MOV     R0,A
        MOV     A,#0x7
        SUBB    A,?V11
        MOV     R1,A
        CLR     C
        MOV     A,R0
        SUBB    A,?V0
        MOV     A,R1
        SUBB    A,?V1
        JNC     ??initPage_5
//  410     {
//  411       lost += (OSAL_NV_PAGE_SIZE - offset);
        MOV     A,?V14
        ADD     A,#0x0
        MOV     A,?V15
        ADDC    A,#0x8
        MOV     ?V15,A
        CLR     C
        MOV     A,?V14
        SUBB    A,?V10
        MOV     ?V14,A
        MOV     A,?V15
        SUBB    A,?V11
        MOV     ?V15,A
//  412       offset = OSAL_NV_PAGE_SIZE;
        MOV     ?V10,#0x0
        MOV     ?V11,#0x8
//  413       break;
        LJMP    ??initPage_2 & 0xFFFF
//  414     }
//  415 
//  416     offset += OSAL_NV_HDR_SIZE;
??initPage_5:
        MOV     A,?V10
        ADD     A,#0x8
        MOV     ?V10,A
        CLR     A
        ADDC    A,?V11
        MOV     ?V11,A
//  417 
//  418     if ( hdr.id != OSAL_NV_ZEROED_ID )
        MOV     A,#0xd
        LCALL   ?XSTACK_DISP0_8
        LCALL   ?Subroutine15 & 0xFFFF
??CrossCallReturnLabel_15:
        JNZ     $+5
        LJMP    ??CrossCallReturnLabel_46 & 0xFFFF
//  419     {
//  420       /* This trick allows function to do double duty for findItem() without
//  421        * compromising its essential functionality at powerup initialization.
//  422        */
//  423       if ( id != OSAL_NV_ITEM_NULL )
        MOV     A,#0x3
        LCALL   ?XSTACK_DISP0_8
        LCALL   ?Subroutine15 & 0xFFFF
??CrossCallReturnLabel_16:
        JZ      ??initPage_6
//  424       {
//  425         /* This trick allows asking to find the old/transferred item in case
//  426          * of a successful new item write that gets interrupted before the
//  427          * old item can be zeroed out.
//  428          */
//  429         if ( (id & 0x7fff) == hdr.id )
        MOV     A,#0xd
        LCALL   ?XSTACK_DISP0_8
        MOVX    A,@DPTR
        XRL     A,?V4
        JNZ     ??initPage_7
        INC     DPTR
        MOVX    A,@DPTR
        XRL     A,?V5
??initPage_7:
        JZ      $+5
        LJMP    ??initPage_8 & 0xFFFF
//  430         {
//  431           if ( (((id & OSAL_NV_SOURCE_ID) == 0) && (hdr.stat == OSAL_NV_ERASED_ID)) ||
//  432                (((id & OSAL_NV_SOURCE_ID) != 0) && (hdr.stat != OSAL_NV_ERASED_ID)) )
        MOV     A,#0x13
        LCALL   ?XSTACK_DISP0_8
        LCALL   ?Subroutine29 & 0xFFFF
??CrossCallReturnLabel_49:
        MOV     A,?V9
        JNZ     ??initPage_9
        MOV     A,#-0x1
        XRL     A,R0
        JNZ     ??initPage_10
        MOV     A,#-0x1
        XRL     A,R1
??initPage_10:
        JZ      $+5
        LJMP    ??initPage_8 & 0xFFFF
        SJMP    ??initPage_11
??initPage_9:
        MOV     A,#-0x1
        XRL     A,R0
        JNZ     ??initPage_12
        MOV     A,#-0x1
        XRL     A,R1
??initPage_12:
        JNZ     $+5
        LJMP    ??initPage_8 & 0xFFFF
//  433           {
//  434             return offset;
??initPage_11:
        MOV     R2,?V10
        MOV     R3,?V11
        LJMP    ??initPage_13 & 0xFFFF
//  435           }
//  436         }
//  437       }
//  438       // When invoked from the osal_nv_init(), verify checksums and find & zero any duplicates.
//  439       else
//  440       {
//  441         if ( hdr.chk == calcChkF( pg, offset, hdr.len ) )
??initPage_6:
        ; Setup parameters for call to function calcChkF
        MOV     R2,?V10
        MOV     R3,?V11
        MOV     DPL,?XSP + 0
        MOV     DPH,?XSP + 1
        MOVX    A,@DPTR
        MOV     R1,A
        LCALL   `??calcChkF::?relay` ; Banked call to: calcChkF
        MOV     ?V2,R2
        MOV     ?V3,R3
        MOV     R0,?V2
        MOV     R1,?V3
        MOV     A,#0x11
        LCALL   ?XSTACK_DISP0_8
        MOVX    A,@DPTR
        XRL     A,R0
        JNZ     ??initPage_14
        INC     DPTR
        MOVX    A,@DPTR
        XRL     A,R1
??initPage_14:
        JZ      $+5
        LJMP    ??initPage_15 & 0xFFFF
//  442         {
//  443           if ( findDups )
        MOV     A,#0x13
        LCALL   ?XSTACK_DISP0_8
        LCALL   ?Subroutine29 & 0xFFFF
??CrossCallReturnLabel_50:
        MOV     A,#0x2
        LCALL   ?XSTACK_DISP0_8
        MOVX    A,@DPTR
        JNZ     $+5
        LJMP    ??initPage_16 & 0xFFFF
//  444           {
//  445             if ( hdr.stat == OSAL_NV_ERASED_ID )
        MOV     A,#-0x1
        XRL     A,R0
        JNZ     ??initPage_17
        MOV     A,#-0x1
        XRL     A,R1
??initPage_17:
        JZ      $+5
        LJMP    ??initPage_8 & 0xFFFF
//  446             {
//  447               /* The trick of setting the MSB of the item Id causes the logic
//  448                * immediately above to return a valid page only if the header 'stat'
//  449                * indicates that it was the older item being transferred.
//  450                */
//  451               uint16 off = findItem( (hdr.id | OSAL_NV_SOURCE_ID) );
        ; Setup parameters for call to function findItem
        MOV     A,#0xd
        LCALL   ?XSTACK_DISP0_8
        MOVX    A,@DPTR
        MOV     R2,A
        INC     DPTR
        MOVX    A,@DPTR
        ORL     A,#0x80
        MOV     R3,A
        LCALL   `??findItem::?relay` ; Banked call to: findItem
        MOV     ?V2,R2
        MOV     ?V3,R3
        MOV     R0,?V2
        MOV     R1,?V3
//  452 
//  453               if ( off != OSAL_NV_ITEM_NULL )
        MOV     A,R0
        ORL     A,R1
        JNZ     $+5
        LJMP    ??initPage_8 & 0xFFFF
//  454               {
//  455                 setItem( findPg, off, eNvZero );  // Mark old duplicate as invalid.
        MOV     DPTR,#findPg
        MOVX    A,@DPTR
        PUSH    A
          CFI CFA_SP SP+-1
        MOV     A,#0x1
        LCALL   ?XSTACK_DISP0_8
        POP     A
          CFI CFA_SP SP+0
        MOVX    @DPTR,A
        MOV     A,R0
        ADD     A,#-0x8
        MOV     ?V6,A
        MOV     A,R1
        LCALL   ?Subroutine39 & 0xFFFF
//  456               }
//  457             }
//  458           }
??CrossCallReturnLabel_77:
        LCALL   ?PUSH_XSTACK_I_TWO
          CFI CFA_XSP16 add(XSP16, 51)
        MOV     A,#0x7
        LCALL   ?XSTACK_DISP102_8
        MOV     R2,?V6
        MOV     R3,?V7
        MOV     A,#0x3
        LCALL   ?XSTACK_DISP0_8
        MOVX    A,@DPTR
        MOV     R1,A
        LCALL   `??HalFlashRead::?relay`; Banked call to: HalFlashRead
        MOV     A,#0x2
        LCALL   ?DEALLOC_XSTACK8
          CFI CFA_XSP16 add(XSP16, 49)
        MOV     A,#0x7
        LCALL   ?XSTACK_DISP0_8
        LCALL   ?Subroutine14 & 0xFFFF
??CrossCallReturnLabel_14:
        LCALL   ?XSTACK_DISP0_8
        LCALL   ?Subroutine10 & 0xFFFF
??CrossCallReturnLabel_6:
        LCALL   ?PUSH_XSTACK_I_TWO
          CFI CFA_XSP16 add(XSP16, 51)
        MOV     A,#0x7
        LCALL   ?XSTACK_DISP102_8
        MOV     A,#0x2
        MOV     R0,#?V6
        LCALL   ?US_SHR
        MOV     A,#0x3
        LCALL   ?XSTACK_DISP0_8
        MOVX    A,@DPTR
        MOV     ?V12,A
        MOV     A,#0x9
        MOV     R0,#?V12
        LCALL   ?S_SHL
        MOV     A,?V6
        ADD     A,#0x0
        MOV     R2,A
        MOV     A,?V7
        ADDC    A,?V13
        MOV     R3,A
        LCALL   `??HalFlashWrite::?relay`; Banked call to: HalFlashWrite
        MOV     A,#0x2
        LCALL   ?DEALLOC_XSTACK8
          CFI CFA_XSP16 add(XSP16, 49)
        MOV     A,#0x1
        LCALL   ?XSTACK_DISP0_8
        MOVX    A,@DPTR
        LCALL   ?Subroutine31 & 0xFFFF
??CrossCallReturnLabel_59:
        LCALL   ?Subroutine33 & 0xFFFF
??CrossCallReturnLabel_63:
        LCALL   ?Subroutine27 & 0xFFFF
??CrossCallReturnLabel_45:
        LJMP    ??initPage_8 & 0xFFFF
//  459           // Any "old" item immediately exits and triggers the N^2 exhaustive initialization.
//  460           else if ( hdr.stat != OSAL_NV_ERASED_ID )
??initPage_16:
        MOV     A,#-0x1
        XRL     A,R0
        JNZ     ??initPage_18
        MOV     A,#-0x1
        XRL     A,R1
??initPage_18:
        JNZ     $+5
        LJMP    ??initPage_8 & 0xFFFF
//  461           {
//  462             return OSAL_NV_ERASED_ID;
        MOV     R2,#-0x1
        MOV     R3,#-0x1
        LJMP    ??initPage_13 & 0xFFFF
//  463           }
//  464         }
//  465         else
//  466         {
//  467           setItem( pg, offset, eNvZero );  // Mark bad checksum as invalid.
??initPage_15:
        MOV     A,?V10
        ADD     A,#-0x8
        MOV     ?V6,A
        MOV     A,?V11
        LCALL   ?Subroutine39 & 0xFFFF
??CrossCallReturnLabel_76:
        LCALL   ?PUSH_XSTACK_I_TWO
          CFI CFA_XSP16 add(XSP16, 51)
        MOV     A,#0x7
        LCALL   ?XSTACK_DISP102_8
        MOV     R2,?V6
        MOV     R3,?V7
        MOV     A,#0x2
        LCALL   ?XSTACK_DISP0_8
        MOVX    A,@DPTR
        MOV     R1,A
        LCALL   `??HalFlashRead::?relay`; Banked call to: HalFlashRead
        MOV     A,#0x2
        LCALL   ?DEALLOC_XSTACK8
          CFI CFA_XSP16 add(XSP16, 49)
        MOV     A,#0x7
        LCALL   ?XSTACK_DISP0_8
        LCALL   ?Subroutine14 & 0xFFFF
??CrossCallReturnLabel_13:
        LCALL   ?XSTACK_DISP0_8
        LCALL   ?Subroutine10 & 0xFFFF
??CrossCallReturnLabel_5:
        LCALL   ?PUSH_XSTACK_I_TWO
          CFI CFA_XSP16 add(XSP16, 51)
        MOV     A,#0x7
        LCALL   ?XSTACK_DISP102_8
        MOV     A,#0x2
        MOV     R0,#?V6
        LCALL   ?US_SHR
        MOV     A,#0x17
        LCALL   ?XSTACK_DISP0_8
        MOVX    A,@DPTR
        ADD     A,?V6
        MOV     R2,A
        INC     DPTR
        MOVX    A,@DPTR
        ADDC    A,?V7
        MOV     R3,A
        LCALL   `??HalFlashWrite::?relay`; Banked call to: HalFlashWrite
        MOV     A,#0x2
        LCALL   ?DEALLOC_XSTACK8
          CFI CFA_XSP16 add(XSP16, 49)
        MOV     A,#0x17
        LCALL   ?XSTACK_DISP0_8
        MOVX    A,@DPTR
        MOV     R0,A
        INC     DPTR
        MOVX    A,@DPTR
        MOV     DPH,A
        MOV     DPL,R0
        LCALL   ?Subroutine27 & 0xFFFF
//  468           lost += (OSAL_NV_HDR_SIZE + sz);
//  469         }
//  470       }
//  471     }
//  472     else
//  473     {
//  474       lost += (OSAL_NV_HDR_SIZE + sz);
??CrossCallReturnLabel_46:
        MOV     A,?V0
        ADD     A,#0x8
        MOV     R0,A
        CLR     A
        ADDC    A,?V1
        MOV     R1,A
        MOV     A,?V14
        ADD     A,R0
        MOV     ?V14,A
        MOV     A,?V15
        ADDC    A,R1
        MOV     ?V15,A
//  475     }
//  476     offset += sz;
??initPage_8:
        MOV     A,?V10
        ADD     A,?V0
        MOV     ?V10,A
        MOV     A,?V11
        ADDC    A,?V1
        MOV     ?V11,A
//  477 
//  478   } while (offset < (OSAL_NV_PAGE_SIZE - OSAL_NV_HDR_SIZE));
        CLR     C
        MOV     A,?V10
        SUBB    A,#-0x8
        MOV     A,?V11
        SUBB    A,#0x7
        JNC     $+5
        LJMP    ??initPage_0 & 0xFFFF
//  479 
//  480   pgOff[pg - OSAL_NV_PAGE_BEG] = offset;
??initPage_2:
        MOV     A,#(pgOff + 14) & 0xff
        ADD     A,R6
        MOV     DPL,A
        MOV     A,#((pgOff - 242) >> 8) & 0xff
        ADDC    A,R7
        MOV     DPH,A
        MOV     A,?V10
        MOVX    @DPTR,A
        INC     DPTR
        MOV     A,?V11
        MOVX    @DPTR,A
//  481   pgLost[pg - OSAL_NV_PAGE_BEG] = lost;
        MOV     A,#(pgLost + 14) & 0xff
        ADD     A,R6
        MOV     DPL,A
        MOV     A,#((pgLost - 242) >> 8) & 0xff
        ADDC    A,R7
        MOV     DPH,A
        MOV     A,?V14
        MOVX    @DPTR,A
        INC     DPTR
        MOV     A,?V15
        MOVX    @DPTR,A
//  482 
//  483   return OSAL_NV_ITEM_NULL;
        MOV     R2,#0x0
        MOV     R3,#0x0
??initPage_13:
        MOV     A,#0x19
          CFI EndBlock cfiBlock1
        REQUIRE ?Subroutine1
        ; // Fall through to label ?Subroutine1
//  484 }

        RSEG BANKED_CODE:CODE:NOROOT(0)
?Subroutine1:
          CFI Block cfiBlock2 Using cfiCommon0
          CFI NoFunction
          CFI CFA_SP SP+0
          CFI CFA_XSP16 add(XSP16, 49)
          CFI VB load(1, XDATA, add(CFA_XSP16, literal(-23)))
          CFI DPL0 load(1, XDATA, add(CFA_XSP16, literal(-2)))
          CFI DPH0 load(1, XDATA, add(CFA_XSP16, literal(-1)))
          CFI R6 load(1, XDATA, add(CFA_XSP16, literal(-24)))
          CFI R7 load(1, XDATA, add(CFA_XSP16, literal(-6)))
          CFI V0 load(1, XDATA, add(CFA_XSP16, literal(-22)))
          CFI V1 load(1, XDATA, add(CFA_XSP16, literal(-21)))
          CFI V2 load(1, XDATA, add(CFA_XSP16, literal(-20)))
          CFI V3 load(1, XDATA, add(CFA_XSP16, literal(-19)))
          CFI V4 load(1, XDATA, add(CFA_XSP16, literal(-18)))
          CFI V5 load(1, XDATA, add(CFA_XSP16, literal(-17)))
          CFI V6 load(1, XDATA, add(CFA_XSP16, literal(-16)))
          CFI V7 load(1, XDATA, add(CFA_XSP16, literal(-15)))
          CFI V8 load(1, XDATA, add(CFA_XSP16, literal(-14)))
          CFI V9 load(1, XDATA, add(CFA_XSP16, literal(-13)))
          CFI V10 load(1, XDATA, add(CFA_XSP16, literal(-12)))
          CFI V11 load(1, XDATA, add(CFA_XSP16, literal(-11)))
          CFI V12 load(1, XDATA, add(CFA_XSP16, literal(-10)))
          CFI V13 load(1, XDATA, add(CFA_XSP16, literal(-9)))
          CFI V14 load(1, XDATA, add(CFA_XSP16, literal(-8)))
          CFI V15 load(1, XDATA, add(CFA_XSP16, literal(-7)))
          CFI ?BRET_EXT load(1, XDATA, add(CFA_XSP16, literal(-3)))
          CFI ?RET_HIGH load(1, XDATA, add(CFA_XSP16, literal(-4)))
          CFI ?RET_LOW load(1, XDATA, add(CFA_XSP16, literal(-5)))
          CFI Invalid
        LCALL   ?DEALLOC_XSTACK8
          CFI CFA_XSP16 add(XSP16, 24)
          CFI Valid
        MOV     R7,#0x10
        LJMP    ?BANKED_LEAVE_XDATA
          CFI CFA_SP SP+-3
          CFI CFA_XSP16 XSP16+0
          CFI VB SameValue
          CFI DPL0 SameValue
          CFI DPH0 SameValue
          CFI R6 SameValue
          CFI R7 SameValue
          CFI V0 SameValue
          CFI V1 SameValue
          CFI V2 SameValue
          CFI V3 SameValue
          CFI V4 SameValue
          CFI V5 SameValue
          CFI V6 SameValue
          CFI V7 SameValue
          CFI V8 SameValue
          CFI V9 SameValue
          CFI V10 SameValue
          CFI V11 SameValue
          CFI V12 SameValue
          CFI V13 SameValue
          CFI V14 SameValue
          CFI V15 SameValue
          CFI ?BRET_EXT Frame(CFA_SP, 3)
          CFI ?RET_HIGH Frame(CFA_SP, 2)
          CFI ?RET_LOW Frame(CFA_SP, 1)
          CFI EndBlock cfiBlock2

        RSEG BANKED_CODE:CODE:NOROOT(0)
?Subroutine39:
          CFI Block cfiCond3 Using cfiCommon0
          CFI Function initPage
          CFI Conditional ??CrossCallReturnLabel_77
          CFI R6 load(1, XDATA, add(CFA_XSP16, literal(-24)))
          CFI VB load(1, XDATA, add(CFA_XSP16, literal(-23)))
          CFI V0 load(1, XDATA, add(CFA_XSP16, literal(-22)))
          CFI V1 load(1, XDATA, add(CFA_XSP16, literal(-21)))
          CFI V2 load(1, XDATA, add(CFA_XSP16, literal(-20)))
          CFI V3 load(1, XDATA, add(CFA_XSP16, literal(-19)))
          CFI V4 load(1, XDATA, add(CFA_XSP16, literal(-18)))
          CFI V5 load(1, XDATA, add(CFA_XSP16, literal(-17)))
          CFI V6 load(1, XDATA, add(CFA_XSP16, literal(-16)))
          CFI V7 load(1, XDATA, add(CFA_XSP16, literal(-15)))
          CFI V8 load(1, XDATA, add(CFA_XSP16, literal(-14)))
          CFI V9 load(1, XDATA, add(CFA_XSP16, literal(-13)))
          CFI V10 load(1, XDATA, add(CFA_XSP16, literal(-12)))
          CFI V11 load(1, XDATA, add(CFA_XSP16, literal(-11)))
          CFI V12 load(1, XDATA, add(CFA_XSP16, literal(-10)))
          CFI V13 load(1, XDATA, add(CFA_XSP16, literal(-9)))
          CFI V14 load(1, XDATA, add(CFA_XSP16, literal(-8)))
          CFI V15 load(1, XDATA, add(CFA_XSP16, literal(-7)))
          CFI R7 load(1, XDATA, add(CFA_XSP16, literal(-6)))
          CFI ?RET_LOW load(1, XDATA, add(CFA_XSP16, literal(-5)))
          CFI ?RET_HIGH load(1, XDATA, add(CFA_XSP16, literal(-4)))
          CFI ?BRET_EXT load(1, XDATA, add(CFA_XSP16, literal(-3)))
          CFI DPL0 load(1, XDATA, add(CFA_XSP16, literal(-2)))
          CFI DPH0 load(1, XDATA, add(CFA_XSP16, literal(-1)))
          CFI CFA_SP SP+-2
          CFI CFA_XSP16 add(XSP16, 49)
          CFI Block cfiCond4 Using cfiCommon0
          CFI (cfiCond4) Function initPage
          CFI (cfiCond4) Conditional ??CrossCallReturnLabel_76
          CFI (cfiCond4) R6 load(1, XDATA, add(CFA_XSP16, literal(-24)))
          CFI (cfiCond4) VB load(1, XDATA, add(CFA_XSP16, literal(-23)))
          CFI (cfiCond4) V0 load(1, XDATA, add(CFA_XSP16, literal(-22)))
          CFI (cfiCond4) V1 load(1, XDATA, add(CFA_XSP16, literal(-21)))
          CFI (cfiCond4) V2 load(1, XDATA, add(CFA_XSP16, literal(-20)))
          CFI (cfiCond4) V3 load(1, XDATA, add(CFA_XSP16, literal(-19)))
          CFI (cfiCond4) V4 load(1, XDATA, add(CFA_XSP16, literal(-18)))
          CFI (cfiCond4) V5 load(1, XDATA, add(CFA_XSP16, literal(-17)))
          CFI (cfiCond4) V6 load(1, XDATA, add(CFA_XSP16, literal(-16)))
          CFI (cfiCond4) V7 load(1, XDATA, add(CFA_XSP16, literal(-15)))
          CFI (cfiCond4) V8 load(1, XDATA, add(CFA_XSP16, literal(-14)))
          CFI (cfiCond4) V9 load(1, XDATA, add(CFA_XSP16, literal(-13)))
          CFI (cfiCond4) V10 load(1, XDATA, add(CFA_XSP16, literal(-12)))
          CFI (cfiCond4) V11 load(1, XDATA, add(CFA_XSP16, literal(-11)))
          CFI (cfiCond4) V12 load(1, XDATA, add(CFA_XSP16, literal(-10)))
          CFI (cfiCond4) V13 load(1, XDATA, add(CFA_XSP16, literal(-9)))
          CFI (cfiCond4) V14 load(1, XDATA, add(CFA_XSP16, literal(-8)))
          CFI (cfiCond4) V15 load(1, XDATA, add(CFA_XSP16, literal(-7)))
          CFI (cfiCond4) R7 load(1, XDATA, add(CFA_XSP16, literal(-6)))
          CFI (cfiCond4) ?RET_LOW load(1, XDATA, add(CFA_XSP16, literal(-5)))
          CFI (cfiCond4) ?RET_HIGH load(1, XDATA, add(CFA_XSP16, literal(-4)))
          CFI (cfiCond4) ?BRET_EXT load(1, XDATA, add(CFA_XSP16, literal(-3)))
          CFI (cfiCond4) DPL0 load(1, XDATA, add(CFA_XSP16, literal(-2)))
          CFI (cfiCond4) DPH0 load(1, XDATA, add(CFA_XSP16, literal(-1)))
          CFI (cfiCond4) CFA_SP SP+-2
          CFI (cfiCond4) CFA_XSP16 add(XSP16, 49)
          CFI Block cfiPicker5 Using cfiCommon1
          CFI (cfiPicker5) NoFunction
          CFI (cfiPicker5) Picker
        ADDC    A,#-0x1
        MOV     ?V7,A
        ; Setup parameters for call to function HalFlashRead
        ; Setup parameters for call to function HalFlashRead
        MOV     ?V2,#0x8
        MOV     ?V3,#0x0
        MOV     R0,#?V2
        RET
          CFI (cfiCond3) CFA_SP SP+0
          CFI (cfiCond4) CFA_SP SP+0
          CFI (cfiPicker5) CFA_SP SP+0
          CFI EndBlock cfiCond3
          CFI EndBlock cfiCond4
          CFI EndBlock cfiPicker5

        RSEG BANKED_CODE:CODE:NOROOT(0)
?Subroutine31:
          CFI Block cfiCond6 Using cfiCommon0
          CFI Function initNV
          CFI Conditional ??CrossCallReturnLabel_58
          CFI R6 load(1, XDATA, add(CFA_XSP16, literal(-12)))
          CFI VB load(1, XDATA, add(CFA_XSP16, literal(-11)))
          CFI V0 load(1, XDATA, add(CFA_XSP16, literal(-10)))
          CFI V1 load(1, XDATA, add(CFA_XSP16, literal(-9)))
          CFI V2 load(1, XDATA, add(CFA_XSP16, literal(-8)))
          CFI V3 load(1, XDATA, add(CFA_XSP16, literal(-7)))
          CFI R7 load(1, XDATA, add(CFA_XSP16, literal(-6)))
          CFI ?RET_LOW load(1, XDATA, add(CFA_XSP16, literal(-5)))
          CFI ?RET_HIGH load(1, XDATA, add(CFA_XSP16, literal(-4)))
          CFI ?BRET_EXT load(1, XDATA, add(CFA_XSP16, literal(-3)))
          CFI DPL0 load(1, XDATA, add(CFA_XSP16, literal(-2)))
          CFI DPH0 load(1, XDATA, add(CFA_XSP16, literal(-1)))
          CFI CFA_SP SP+-2
          CFI CFA_XSP16 add(XSP16, 28)
          CFI Block cfiCond7 Using cfiCommon0
          CFI (cfiCond7) Function initPage
          CFI (cfiCond7) Conditional ??CrossCallReturnLabel_59
          CFI (cfiCond7) R6 load(1, XDATA, add(CFA_XSP16, literal(-24)))
          CFI (cfiCond7) VB load(1, XDATA, add(CFA_XSP16, literal(-23)))
          CFI (cfiCond7) V0 load(1, XDATA, add(CFA_XSP16, literal(-22)))
          CFI (cfiCond7) V1 load(1, XDATA, add(CFA_XSP16, literal(-21)))
          CFI (cfiCond7) V2 load(1, XDATA, add(CFA_XSP16, literal(-20)))
          CFI (cfiCond7) V3 load(1, XDATA, add(CFA_XSP16, literal(-19)))
          CFI (cfiCond7) V4 load(1, XDATA, add(CFA_XSP16, literal(-18)))
          CFI (cfiCond7) V5 load(1, XDATA, add(CFA_XSP16, literal(-17)))
          CFI (cfiCond7) V6 load(1, XDATA, add(CFA_XSP16, literal(-16)))
          CFI (cfiCond7) V7 load(1, XDATA, add(CFA_XSP16, literal(-15)))
          CFI (cfiCond7) V8 load(1, XDATA, add(CFA_XSP16, literal(-14)))
          CFI (cfiCond7) V9 load(1, XDATA, add(CFA_XSP16, literal(-13)))
          CFI (cfiCond7) V10 load(1, XDATA, add(CFA_XSP16, literal(-12)))
          CFI (cfiCond7) V11 load(1, XDATA, add(CFA_XSP16, literal(-11)))
          CFI (cfiCond7) V12 load(1, XDATA, add(CFA_XSP16, literal(-10)))
          CFI (cfiCond7) V13 load(1, XDATA, add(CFA_XSP16, literal(-9)))
          CFI (cfiCond7) V14 load(1, XDATA, add(CFA_XSP16, literal(-8)))
          CFI (cfiCond7) V15 load(1, XDATA, add(CFA_XSP16, literal(-7)))
          CFI (cfiCond7) R7 load(1, XDATA, add(CFA_XSP16, literal(-6)))
          CFI (cfiCond7) ?RET_LOW load(1, XDATA, add(CFA_XSP16, literal(-5)))
          CFI (cfiCond7) ?RET_HIGH load(1, XDATA, add(CFA_XSP16, literal(-4)))
          CFI (cfiCond7) ?BRET_EXT load(1, XDATA, add(CFA_XSP16, literal(-3)))
          CFI (cfiCond7) DPL0 load(1, XDATA, add(CFA_XSP16, literal(-2)))
          CFI (cfiCond7) DPH0 load(1, XDATA, add(CFA_XSP16, literal(-1)))
          CFI (cfiCond7) CFA_SP SP+-2
          CFI (cfiCond7) CFA_XSP16 add(XSP16, 49)
          CFI Block cfiCond8 Using cfiCommon0
          CFI (cfiCond8) Function initItem
          CFI (cfiCond8) Conditional ??CrossCallReturnLabel_60
          CFI (cfiCond8) R6 load(1, XDATA, add(CFA_XSP16, literal(-18)))
          CFI (cfiCond8) VB load(1, XDATA, add(CFA_XSP16, literal(-17)))
          CFI (cfiCond8) V0 load(1, XDATA, add(CFA_XSP16, literal(-16)))
          CFI (cfiCond8) V1 load(1, XDATA, add(CFA_XSP16, literal(-15)))
          CFI (cfiCond8) V2 load(1, XDATA, add(CFA_XSP16, literal(-14)))
          CFI (cfiCond8) V3 load(1, XDATA, add(CFA_XSP16, literal(-13)))
          CFI (cfiCond8) V4 load(1, XDATA, add(CFA_XSP16, literal(-12)))
          CFI (cfiCond8) V5 load(1, XDATA, add(CFA_XSP16, literal(-11)))
          CFI (cfiCond8) V6 load(1, XDATA, add(CFA_XSP16, literal(-10)))
          CFI (cfiCond8) V7 load(1, XDATA, add(CFA_XSP16, literal(-9)))
          CFI (cfiCond8) V8 load(1, XDATA, add(CFA_XSP16, literal(-8)))
          CFI (cfiCond8) V9 load(1, XDATA, add(CFA_XSP16, literal(-7)))
          CFI (cfiCond8) R7 load(1, XDATA, add(CFA_XSP16, literal(-6)))
          CFI (cfiCond8) ?RET_LOW load(1, XDATA, add(CFA_XSP16, literal(-5)))
          CFI (cfiCond8) ?RET_HIGH load(1, XDATA, add(CFA_XSP16, literal(-4)))
          CFI (cfiCond8) ?BRET_EXT load(1, XDATA, add(CFA_XSP16, literal(-3)))
          CFI (cfiCond8) DPL0 load(1, XDATA, add(CFA_XSP16, literal(-2)))
          CFI (cfiCond8) DPH0 load(1, XDATA, add(CFA_XSP16, literal(-1)))
          CFI (cfiCond8) CFA_SP SP+-2
          CFI (cfiCond8) CFA_XSP16 add(XSP16, 40)
          CFI Block cfiPicker9 Using cfiCommon1
          CFI (cfiPicker9) NoFunction
          CFI (cfiPicker9) Picker
        ADD     A,0xE0 /* A   */
        MOV     R0,A
        CLR     A
        RLC     A
        MOV     R1,A
        RET
          CFI (cfiCond6) CFA_SP SP+0
          CFI (cfiCond7) CFA_SP SP+0
          CFI (cfiCond8) CFA_SP SP+0
          CFI (cfiPicker9) CFA_SP SP+0
          CFI EndBlock cfiCond6
          CFI EndBlock cfiCond7
          CFI EndBlock cfiCond8
          CFI EndBlock cfiPicker9

        RSEG BANKED_CODE:CODE:NOROOT(0)
?Subroutine27:
          CFI Block cfiCond10 Using cfiCommon0
          CFI Function initPage
          CFI Conditional ??CrossCallReturnLabel_45
          CFI R6 load(1, XDATA, add(CFA_XSP16, literal(-24)))
          CFI VB load(1, XDATA, add(CFA_XSP16, literal(-23)))
          CFI V0 load(1, XDATA, add(CFA_XSP16, literal(-22)))
          CFI V1 load(1, XDATA, add(CFA_XSP16, literal(-21)))
          CFI V2 load(1, XDATA, add(CFA_XSP16, literal(-20)))
          CFI V3 load(1, XDATA, add(CFA_XSP16, literal(-19)))
          CFI V4 load(1, XDATA, add(CFA_XSP16, literal(-18)))
          CFI V5 load(1, XDATA, add(CFA_XSP16, literal(-17)))
          CFI V6 load(1, XDATA, add(CFA_XSP16, literal(-16)))
          CFI V7 load(1, XDATA, add(CFA_XSP16, literal(-15)))
          CFI V8 load(1, XDATA, add(CFA_XSP16, literal(-14)))
          CFI V9 load(1, XDATA, add(CFA_XSP16, literal(-13)))
          CFI V10 load(1, XDATA, add(CFA_XSP16, literal(-12)))
          CFI V11 load(1, XDATA, add(CFA_XSP16, literal(-11)))
          CFI V12 load(1, XDATA, add(CFA_XSP16, literal(-10)))
          CFI V13 load(1, XDATA, add(CFA_XSP16, literal(-9)))
          CFI V14 load(1, XDATA, add(CFA_XSP16, literal(-8)))
          CFI V15 load(1, XDATA, add(CFA_XSP16, literal(-7)))
          CFI R7 load(1, XDATA, add(CFA_XSP16, literal(-6)))
          CFI ?RET_LOW load(1, XDATA, add(CFA_XSP16, literal(-5)))
          CFI ?RET_HIGH load(1, XDATA, add(CFA_XSP16, literal(-4)))
          CFI ?BRET_EXT load(1, XDATA, add(CFA_XSP16, literal(-3)))
          CFI DPL0 load(1, XDATA, add(CFA_XSP16, literal(-2)))
          CFI DPH0 load(1, XDATA, add(CFA_XSP16, literal(-1)))
          CFI CFA_SP SP+-2
          CFI CFA_XSP16 add(XSP16, 49)
          CFI Block cfiCond11 Using cfiCommon0
          CFI (cfiCond11) Function initPage
          CFI (cfiCond11) Conditional ??CrossCallReturnLabel_46
          CFI (cfiCond11) R6 load(1, XDATA, add(CFA_XSP16, literal(-24)))
          CFI (cfiCond11) VB load(1, XDATA, add(CFA_XSP16, literal(-23)))
          CFI (cfiCond11) V0 load(1, XDATA, add(CFA_XSP16, literal(-22)))
          CFI (cfiCond11) V1 load(1, XDATA, add(CFA_XSP16, literal(-21)))
          CFI (cfiCond11) V2 load(1, XDATA, add(CFA_XSP16, literal(-20)))
          CFI (cfiCond11) V3 load(1, XDATA, add(CFA_XSP16, literal(-19)))
          CFI (cfiCond11) V4 load(1, XDATA, add(CFA_XSP16, literal(-18)))
          CFI (cfiCond11) V5 load(1, XDATA, add(CFA_XSP16, literal(-17)))
          CFI (cfiCond11) V6 load(1, XDATA, add(CFA_XSP16, literal(-16)))
          CFI (cfiCond11) V7 load(1, XDATA, add(CFA_XSP16, literal(-15)))
          CFI (cfiCond11) V8 load(1, XDATA, add(CFA_XSP16, literal(-14)))
          CFI (cfiCond11) V9 load(1, XDATA, add(CFA_XSP16, literal(-13)))
          CFI (cfiCond11) V10 load(1, XDATA, add(CFA_XSP16, literal(-12)))
          CFI (cfiCond11) V11 load(1, XDATA, add(CFA_XSP16, literal(-11)))
          CFI (cfiCond11) V12 load(1, XDATA, add(CFA_XSP16, literal(-10)))
          CFI (cfiCond11) V13 load(1, XDATA, add(CFA_XSP16, literal(-9)))
          CFI (cfiCond11) V14 load(1, XDATA, add(CFA_XSP16, literal(-8)))
          CFI (cfiCond11) V15 load(1, XDATA, add(CFA_XSP16, literal(-7)))
          CFI (cfiCond11) R7 load(1, XDATA, add(CFA_XSP16, literal(-6)))
          CFI (cfiCond11) ?RET_LOW load(1, XDATA, add(CFA_XSP16, literal(-5)))
          CFI (cfiCond11) ?RET_HIGH load(1, XDATA, add(CFA_XSP16, literal(-4)))
          CFI (cfiCond11) ?BRET_EXT load(1, XDATA, add(CFA_XSP16, literal(-3)))
          CFI (cfiCond11) DPL0 load(1, XDATA, add(CFA_XSP16, literal(-2)))
          CFI (cfiCond11) DPH0 load(1, XDATA, add(CFA_XSP16, literal(-1)))
          CFI (cfiCond11) CFA_SP SP+-2
          CFI (cfiCond11) CFA_XSP16 add(XSP16, 49)
          CFI Block cfiPicker12 Using cfiCommon1
          CFI (cfiPicker12) NoFunction
          CFI (cfiPicker12) Picker
        MOVX    A,@DPTR
        ADD     A,?V2
        MOVX    @DPTR,A
        INC     DPTR
        MOVX    A,@DPTR
        ADDC    A,?V3
        MOVX    @DPTR,A
        RET
          CFI (cfiCond10) CFA_SP SP+0
          CFI (cfiCond11) CFA_SP SP+0
          CFI (cfiPicker12) CFA_SP SP+0
          CFI EndBlock cfiCond10
          CFI EndBlock cfiCond11
          CFI EndBlock cfiPicker12

        RSEG BANKED_CODE:CODE:NOROOT(0)
?Subroutine14:
          CFI Block cfiCond13 Using cfiCommon0
          CFI Function initPage
          CFI Conditional ??CrossCallReturnLabel_14
          CFI R6 load(1, XDATA, add(CFA_XSP16, literal(-24)))
          CFI VB load(1, XDATA, add(CFA_XSP16, literal(-23)))
          CFI V0 load(1, XDATA, add(CFA_XSP16, literal(-22)))
          CFI V1 load(1, XDATA, add(CFA_XSP16, literal(-21)))
          CFI V2 load(1, XDATA, add(CFA_XSP16, literal(-20)))
          CFI V3 load(1, XDATA, add(CFA_XSP16, literal(-19)))
          CFI V4 load(1, XDATA, add(CFA_XSP16, literal(-18)))
          CFI V5 load(1, XDATA, add(CFA_XSP16, literal(-17)))
          CFI V6 load(1, XDATA, add(CFA_XSP16, literal(-16)))
          CFI V7 load(1, XDATA, add(CFA_XSP16, literal(-15)))
          CFI V8 load(1, XDATA, add(CFA_XSP16, literal(-14)))
          CFI V9 load(1, XDATA, add(CFA_XSP16, literal(-13)))
          CFI V10 load(1, XDATA, add(CFA_XSP16, literal(-12)))
          CFI V11 load(1, XDATA, add(CFA_XSP16, literal(-11)))
          CFI V12 load(1, XDATA, add(CFA_XSP16, literal(-10)))
          CFI V13 load(1, XDATA, add(CFA_XSP16, literal(-9)))
          CFI V14 load(1, XDATA, add(CFA_XSP16, literal(-8)))
          CFI V15 load(1, XDATA, add(CFA_XSP16, literal(-7)))
          CFI R7 load(1, XDATA, add(CFA_XSP16, literal(-6)))
          CFI ?RET_LOW load(1, XDATA, add(CFA_XSP16, literal(-5)))
          CFI ?RET_HIGH load(1, XDATA, add(CFA_XSP16, literal(-4)))
          CFI ?BRET_EXT load(1, XDATA, add(CFA_XSP16, literal(-3)))
          CFI DPL0 load(1, XDATA, add(CFA_XSP16, literal(-2)))
          CFI DPH0 load(1, XDATA, add(CFA_XSP16, literal(-1)))
          CFI CFA_SP SP+-2
          CFI CFA_XSP16 add(XSP16, 49)
          CFI Block cfiCond14 Using cfiCommon0
          CFI (cfiCond14) Function initPage
          CFI (cfiCond14) Conditional ??CrossCallReturnLabel_13
          CFI (cfiCond14) R6 load(1, XDATA, add(CFA_XSP16, literal(-24)))
          CFI (cfiCond14) VB load(1, XDATA, add(CFA_XSP16, literal(-23)))
          CFI (cfiCond14) V0 load(1, XDATA, add(CFA_XSP16, literal(-22)))
          CFI (cfiCond14) V1 load(1, XDATA, add(CFA_XSP16, literal(-21)))
          CFI (cfiCond14) V2 load(1, XDATA, add(CFA_XSP16, literal(-20)))
          CFI (cfiCond14) V3 load(1, XDATA, add(CFA_XSP16, literal(-19)))
          CFI (cfiCond14) V4 load(1, XDATA, add(CFA_XSP16, literal(-18)))
          CFI (cfiCond14) V5 load(1, XDATA, add(CFA_XSP16, literal(-17)))
          CFI (cfiCond14) V6 load(1, XDATA, add(CFA_XSP16, literal(-16)))
          CFI (cfiCond14) V7 load(1, XDATA, add(CFA_XSP16, literal(-15)))
          CFI (cfiCond14) V8 load(1, XDATA, add(CFA_XSP16, literal(-14)))
          CFI (cfiCond14) V9 load(1, XDATA, add(CFA_XSP16, literal(-13)))
          CFI (cfiCond14) V10 load(1, XDATA, add(CFA_XSP16, literal(-12)))
          CFI (cfiCond14) V11 load(1, XDATA, add(CFA_XSP16, literal(-11)))
          CFI (cfiCond14) V12 load(1, XDATA, add(CFA_XSP16, literal(-10)))
          CFI (cfiCond14) V13 load(1, XDATA, add(CFA_XSP16, literal(-9)))
          CFI (cfiCond14) V14 load(1, XDATA, add(CFA_XSP16, literal(-8)))
          CFI (cfiCond14) V15 load(1, XDATA, add(CFA_XSP16, literal(-7)))
          CFI (cfiCond14) R7 load(1, XDATA, add(CFA_XSP16, literal(-6)))
          CFI (cfiCond14) ?RET_LOW load(1, XDATA, add(CFA_XSP16, literal(-5)))
          CFI (cfiCond14) ?RET_HIGH load(1, XDATA, add(CFA_XSP16, literal(-4)))
          CFI (cfiCond14) ?BRET_EXT load(1, XDATA, add(CFA_XSP16, literal(-3)))
          CFI (cfiCond14) DPL0 load(1, XDATA, add(CFA_XSP16, literal(-2)))
          CFI (cfiCond14) DPH0 load(1, XDATA, add(CFA_XSP16, literal(-1)))
          CFI (cfiCond14) CFA_SP SP+-2
          CFI (cfiCond14) CFA_XSP16 add(XSP16, 49)
          CFI Block cfiPicker15 Using cfiCommon1
          CFI (cfiPicker15) NoFunction
          CFI (cfiPicker15) Picker
        LCALL   ?Subroutine43 & 0xFFFF
??CrossCallReturnLabel_85:
        ANL     A,#0xfc
        ADD     A,#0x8
        MOV     ?V2,A
        CLR     A
        ADDC    A,R1
        MOV     ?V3,A
        MOV     A,#0x5
        RET
          CFI (cfiCond13) CFA_SP SP+0
          CFI (cfiCond14) CFA_SP SP+0
          CFI (cfiPicker15) CFA_SP SP+0
          CFI EndBlock cfiCond13
          CFI EndBlock cfiCond14
          CFI EndBlock cfiPicker15

        RSEG BANKED_CODE:CODE:NOROOT(0)
?Subroutine10:
          CFI Block cfiCond16 Using cfiCommon0
          CFI Function initPage
          CFI Conditional ??CrossCallReturnLabel_6
          CFI R6 load(1, XDATA, add(CFA_XSP16, literal(-24)))
          CFI VB load(1, XDATA, add(CFA_XSP16, literal(-23)))
          CFI V0 load(1, XDATA, add(CFA_XSP16, literal(-22)))
          CFI V1 load(1, XDATA, add(CFA_XSP16, literal(-21)))
          CFI V2 load(1, XDATA, add(CFA_XSP16, literal(-20)))
          CFI V3 load(1, XDATA, add(CFA_XSP16, literal(-19)))
          CFI V4 load(1, XDATA, add(CFA_XSP16, literal(-18)))
          CFI V5 load(1, XDATA, add(CFA_XSP16, literal(-17)))
          CFI V6 load(1, XDATA, add(CFA_XSP16, literal(-16)))
          CFI V7 load(1, XDATA, add(CFA_XSP16, literal(-15)))
          CFI V8 load(1, XDATA, add(CFA_XSP16, literal(-14)))
          CFI V9 load(1, XDATA, add(CFA_XSP16, literal(-13)))
          CFI V10 load(1, XDATA, add(CFA_XSP16, literal(-12)))
          CFI V11 load(1, XDATA, add(CFA_XSP16, literal(-11)))
          CFI V12 load(1, XDATA, add(CFA_XSP16, literal(-10)))
          CFI V13 load(1, XDATA, add(CFA_XSP16, literal(-9)))
          CFI V14 load(1, XDATA, add(CFA_XSP16, literal(-8)))
          CFI V15 load(1, XDATA, add(CFA_XSP16, literal(-7)))
          CFI R7 load(1, XDATA, add(CFA_XSP16, literal(-6)))
          CFI ?RET_LOW load(1, XDATA, add(CFA_XSP16, literal(-5)))
          CFI ?RET_HIGH load(1, XDATA, add(CFA_XSP16, literal(-4)))
          CFI ?BRET_EXT load(1, XDATA, add(CFA_XSP16, literal(-3)))
          CFI DPL0 load(1, XDATA, add(CFA_XSP16, literal(-2)))
          CFI DPH0 load(1, XDATA, add(CFA_XSP16, literal(-1)))
          CFI CFA_SP SP+-2
          CFI CFA_XSP16 add(XSP16, 49)
          CFI Block cfiCond17 Using cfiCommon0
          CFI (cfiCond17) Function initPage
          CFI (cfiCond17) Conditional ??CrossCallReturnLabel_5
          CFI (cfiCond17) R6 load(1, XDATA, add(CFA_XSP16, literal(-24)))
          CFI (cfiCond17) VB load(1, XDATA, add(CFA_XSP16, literal(-23)))
          CFI (cfiCond17) V0 load(1, XDATA, add(CFA_XSP16, literal(-22)))
          CFI (cfiCond17) V1 load(1, XDATA, add(CFA_XSP16, literal(-21)))
          CFI (cfiCond17) V2 load(1, XDATA, add(CFA_XSP16, literal(-20)))
          CFI (cfiCond17) V3 load(1, XDATA, add(CFA_XSP16, literal(-19)))
          CFI (cfiCond17) V4 load(1, XDATA, add(CFA_XSP16, literal(-18)))
          CFI (cfiCond17) V5 load(1, XDATA, add(CFA_XSP16, literal(-17)))
          CFI (cfiCond17) V6 load(1, XDATA, add(CFA_XSP16, literal(-16)))
          CFI (cfiCond17) V7 load(1, XDATA, add(CFA_XSP16, literal(-15)))
          CFI (cfiCond17) V8 load(1, XDATA, add(CFA_XSP16, literal(-14)))
          CFI (cfiCond17) V9 load(1, XDATA, add(CFA_XSP16, literal(-13)))
          CFI (cfiCond17) V10 load(1, XDATA, add(CFA_XSP16, literal(-12)))
          CFI (cfiCond17) V11 load(1, XDATA, add(CFA_XSP16, literal(-11)))
          CFI (cfiCond17) V12 load(1, XDATA, add(CFA_XSP16, literal(-10)))
          CFI (cfiCond17) V13 load(1, XDATA, add(CFA_XSP16, literal(-9)))
          CFI (cfiCond17) V14 load(1, XDATA, add(CFA_XSP16, literal(-8)))
          CFI (cfiCond17) V15 load(1, XDATA, add(CFA_XSP16, literal(-7)))
          CFI (cfiCond17) R7 load(1, XDATA, add(CFA_XSP16, literal(-6)))
          CFI (cfiCond17) ?RET_LOW load(1, XDATA, add(CFA_XSP16, literal(-5)))
          CFI (cfiCond17) ?RET_HIGH load(1, XDATA, add(CFA_XSP16, literal(-4)))
          CFI (cfiCond17) ?BRET_EXT load(1, XDATA, add(CFA_XSP16, literal(-3)))
          CFI (cfiCond17) DPL0 load(1, XDATA, add(CFA_XSP16, literal(-2)))
          CFI (cfiCond17) DPH0 load(1, XDATA, add(CFA_XSP16, literal(-1)))
          CFI (cfiCond17) CFA_SP SP+-2
          CFI (cfiCond17) CFA_XSP16 add(XSP16, 49)
          CFI Block cfiPicker18 Using cfiCommon1
          CFI (cfiPicker18) NoFunction
          CFI (cfiPicker18) Picker
        CLR     A
        MOVX    @DPTR,A
        INC     DPTR
        MOVX    @DPTR,A
        ; Setup parameters for call to function HalFlashWrite
        ; Setup parameters for call to function HalFlashWrite
        MOV     ?V12,#0x1
        MOV     ?V13,A
        MOV     R0,#?V12
        RET
          CFI (cfiCond16) CFA_SP SP+0
          CFI (cfiCond17) CFA_SP SP+0
          CFI (cfiPicker18) CFA_SP SP+0
          CFI EndBlock cfiCond16
          CFI EndBlock cfiCond17
          CFI EndBlock cfiPicker18
//  485 
//  486 /*********************************************************************
//  487  * @fn      erasePage
//  488  *
//  489  * @brief   Erases a page in Flash.
//  490  *
//  491  * @param   pg - Valid NV page to erase.
//  492  *
//  493  * @return  none
//  494  */

        RSEG BANKED_CODE:CODE:NOROOT(0)
//  495 static void erasePage( uint8 pg )
erasePage:
          CFI Block cfiBlock19 Using cfiCommon0
          CFI Function erasePage
        CODE
//  496 {
        FUNCALL erasePage, HalFlashErase
        LOCFRAME ISTACK, 0, STACK
        LOCFRAME PSTACK, 0, STACK
        LOCFRAME XSTACK, 9, STACK
        LOCFRAME IOVERLAY, 0, STATIC
        LOCFRAME DOVERLAY, 0, STATIC
        ARGFRAME ISTACK, 0, STACK
        ARGFRAME PSTACK, 0, STACK
        ARGFRAME XSTACK, 9, STACK
        ARGFRAME IOVERLAY, 0, STATIC
        ARGFRAME DOVERLAY, 0, STATIC
        MOV     A,#-0x9
        LCALL   ?BANKED_ENTER_XDATA
          CFI DPH0 load(1, XDATA, add(CFA_XSP16, literal(-1)))
          CFI DPL0 load(1, XDATA, add(CFA_XSP16, literal(-2)))
          CFI ?BRET_EXT load(1, XDATA, add(CFA_XSP16, literal(-3)))
          CFI ?RET_HIGH load(1, XDATA, add(CFA_XSP16, literal(-4)))
          CFI ?RET_LOW load(1, XDATA, add(CFA_XSP16, literal(-5)))
          CFI R7 load(1, XDATA, add(CFA_XSP16, literal(-6)))
          CFI V0 load(1, XDATA, add(CFA_XSP16, literal(-7)))
          CFI VB load(1, XDATA, add(CFA_XSP16, literal(-8)))
          CFI R6 load(1, XDATA, add(CFA_XSP16, literal(-9)))
          CFI CFA_SP SP+0
          CFI CFA_XSP16 add(XSP16, 9)
        ; Saved register size: 9
        ; Auto size: 0
        MOV     A,R1
        MOV     R6,A
//  497   HalFlashErase(pg);
        ; Setup parameters for call to function HalFlashErase
        LCALL   `??HalFlashErase::?relay`; Banked call to: HalFlashErase
//  498 
//  499   pgOff[pg - OSAL_NV_PAGE_BEG] = OSAL_NV_PAGE_HDR_SIZE;
        MOV     A,R6
        ADD     A,R6
        LCALL   ?Subroutine46 & 0xFFFF
??CrossCallReturnLabel_94:
        MOV     A,#0x8
        MOVX    @DPTR,A
        INC     DPTR
        CLR     A
        MOVX    @DPTR,A
//  500   pgLost[pg - OSAL_NV_PAGE_BEG] = 0;
        LCALL   ?Subroutine33 & 0xFFFF
??CrossCallReturnLabel_64:
        CLR     A
        MOVX    @DPTR,A
        INC     DPTR
        MOVX    @DPTR,A
//  501 }
          CFI EndBlock cfiBlock19
        REQUIRE ?Subroutine2
        ; // Fall through to label ?Subroutine2

        RSEG BANKED_CODE:CODE:NOROOT(0)
?Subroutine2:
          CFI Block cfiBlock20 Using cfiCommon0
          CFI NoFunction
          CFI CFA_SP SP+0
          CFI CFA_XSP16 add(XSP16, 9)
          CFI VB load(1, XDATA, add(CFA_XSP16, literal(-8)))
          CFI DPL0 load(1, XDATA, add(CFA_XSP16, literal(-2)))
          CFI DPH0 load(1, XDATA, add(CFA_XSP16, literal(-1)))
          CFI R6 load(1, XDATA, add(CFA_XSP16, literal(-9)))
          CFI R7 load(1, XDATA, add(CFA_XSP16, literal(-6)))
          CFI V0 load(1, XDATA, add(CFA_XSP16, literal(-7)))
          CFI ?BRET_EXT load(1, XDATA, add(CFA_XSP16, literal(-3)))
          CFI ?RET_HIGH load(1, XDATA, add(CFA_XSP16, literal(-4)))
          CFI ?RET_LOW load(1, XDATA, add(CFA_XSP16, literal(-5)))
        MOV     R7,#0x1
        LJMP    ?BANKED_LEAVE_XDATA
          CFI CFA_SP SP+-3
          CFI CFA_XSP16 XSP16+0
          CFI VB SameValue
          CFI DPL0 SameValue
          CFI DPH0 SameValue
          CFI R6 SameValue
          CFI R7 SameValue
          CFI V0 SameValue
          CFI ?BRET_EXT Frame(CFA_SP, 3)
          CFI ?RET_HIGH Frame(CFA_SP, 2)
          CFI ?RET_LOW Frame(CFA_SP, 1)
          CFI EndBlock cfiBlock20

        RSEG BANKED_CODE:CODE:NOROOT(0)
?Subroutine33:
          CFI Block cfiCond21 Using cfiCommon0
          CFI Function initPage
          CFI Conditional ??CrossCallReturnLabel_63
          CFI R6 load(1, XDATA, add(CFA_XSP16, literal(-24)))
          CFI VB load(1, XDATA, add(CFA_XSP16, literal(-23)))
          CFI V0 load(1, XDATA, add(CFA_XSP16, literal(-22)))
          CFI V1 load(1, XDATA, add(CFA_XSP16, literal(-21)))
          CFI V2 load(1, XDATA, add(CFA_XSP16, literal(-20)))
          CFI V3 load(1, XDATA, add(CFA_XSP16, literal(-19)))
          CFI V4 load(1, XDATA, add(CFA_XSP16, literal(-18)))
          CFI V5 load(1, XDATA, add(CFA_XSP16, literal(-17)))
          CFI V6 load(1, XDATA, add(CFA_XSP16, literal(-16)))
          CFI V7 load(1, XDATA, add(CFA_XSP16, literal(-15)))
          CFI V8 load(1, XDATA, add(CFA_XSP16, literal(-14)))
          CFI V9 load(1, XDATA, add(CFA_XSP16, literal(-13)))
          CFI V10 load(1, XDATA, add(CFA_XSP16, literal(-12)))
          CFI V11 load(1, XDATA, add(CFA_XSP16, literal(-11)))
          CFI V12 load(1, XDATA, add(CFA_XSP16, literal(-10)))
          CFI V13 load(1, XDATA, add(CFA_XSP16, literal(-9)))
          CFI V14 load(1, XDATA, add(CFA_XSP16, literal(-8)))
          CFI V15 load(1, XDATA, add(CFA_XSP16, literal(-7)))
          CFI R7 load(1, XDATA, add(CFA_XSP16, literal(-6)))
          CFI ?RET_LOW load(1, XDATA, add(CFA_XSP16, literal(-5)))
          CFI ?RET_HIGH load(1, XDATA, add(CFA_XSP16, literal(-4)))
          CFI ?BRET_EXT load(1, XDATA, add(CFA_XSP16, literal(-3)))
          CFI DPL0 load(1, XDATA, add(CFA_XSP16, literal(-2)))
          CFI DPH0 load(1, XDATA, add(CFA_XSP16, literal(-1)))
          CFI CFA_SP SP+-2
          CFI CFA_XSP16 add(XSP16, 49)
          CFI Block cfiCond22 Using cfiCommon0
          CFI (cfiCond22) Function erasePage
          CFI (cfiCond22) Conditional ??CrossCallReturnLabel_64
          CFI (cfiCond22) R6 load(1, XDATA, add(CFA_XSP16, literal(-9)))
          CFI (cfiCond22) VB load(1, XDATA, add(CFA_XSP16, literal(-8)))
          CFI (cfiCond22) V0 load(1, XDATA, add(CFA_XSP16, literal(-7)))
          CFI (cfiCond22) R7 load(1, XDATA, add(CFA_XSP16, literal(-6)))
          CFI (cfiCond22) ?RET_LOW load(1, XDATA, add(CFA_XSP16, literal(-5)))
          CFI (cfiCond22) ?RET_HIGH load(1, XDATA, add(CFA_XSP16, literal(-4)))
          CFI (cfiCond22) ?BRET_EXT load(1, XDATA, add(CFA_XSP16, literal(-3)))
          CFI (cfiCond22) DPL0 load(1, XDATA, add(CFA_XSP16, literal(-2)))
          CFI (cfiCond22) DPH0 load(1, XDATA, add(CFA_XSP16, literal(-1)))
          CFI (cfiCond22) CFA_SP SP+-2
          CFI (cfiCond22) CFA_XSP16 add(XSP16, 9)
          CFI Block cfiPicker23 Using cfiCommon1
          CFI (cfiPicker23) NoFunction
          CFI (cfiPicker23) Picker
        MOV     A,#(pgLost + 14) & 0xff
        ADD     A,R0
        MOV     DPL,A
        MOV     A,#((pgLost - 242) >> 8) & 0xff
        ADDC    A,R1
        MOV     DPH,A
        RET
          CFI (cfiCond21) CFA_SP SP+0
          CFI (cfiCond22) CFA_SP SP+0
          CFI (cfiPicker23) CFA_SP SP+0
          CFI EndBlock cfiCond21
          CFI EndBlock cfiCond22
          CFI EndBlock cfiPicker23
//  502 
//  503 /*********************************************************************
//  504  * @fn      compactPage
//  505  *
//  506  * @brief   Compacts the page specified.
//  507  *
//  508  * @param   srcPg - Valid NV page to erase.
//  509  * @param   skipId - Item Id to not compact.
//  510  *
//  511  * @return  TRUE if valid items from 'srcPg' are successully compacted onto the 'pgRes';
//  512  *          FALSE otherwise.
//  513  *          Note that on a failure, this could loop, re-erasing the 'pgRes' and re-compacting with
//  514  *          the risk of infinitely looping on HAL flash failure.
//  515  *          Worst case scenario: HAL flash starts failing in general, perhaps low Vdd?
//  516  *          All page compactions will fail which will cause all osal_nv_write() calls to return
//  517  *          NV_OPER_FAILED.
//  518  *          Eventually, all pages in use may also be in the state of "pending compaction" where
//  519  *          the page header member OSAL_NV_PG_XFER is zeroed out.
//  520  *          During this "HAL flash brown-out", the code will run and OTA should work (until low Vdd
//  521  *          causes an actual chip brown-out, of course.) Although no new NV items will be created
//  522  *          or written, the last value written with a return value of SUCCESS can continue to be
//  523  *          read successfully.
//  524  *          If eventually HAL flash starts working again, all of the pages marked as
//  525  *          "pending compaction" may or may not be eventually compacted. But, initNV() will
//  526  *          deterministically clean-up one page pending compaction per power-cycle
//  527  *          (if HAL flash is working.) Nevertheless, one erased reserve page will be maintained
//  528  *          through such a scenario.
//  529  */

        RSEG BANKED_CODE:CODE:NOROOT(0)
//  530 static uint8 compactPage( uint8 srcPg, uint16 skipId )
compactPage:
          CFI Block cfiBlock24 Using cfiCommon0
          CFI Function compactPage
        CODE
//  531 {
        FUNCALL compactPage, HalFlashRead
        LOCFRAME ISTACK, 0, STACK
        LOCFRAME PSTACK, 0, STACK
        LOCFRAME XSTACK, 43, STACK
        LOCFRAME IOVERLAY, 0, STATIC
        LOCFRAME DOVERLAY, 0, STATIC
        ARGFRAME ISTACK, 0, STACK
        ARGFRAME PSTACK, 0, STACK
        ARGFRAME XSTACK, 43, STACK
        ARGFRAME IOVERLAY, 0, STATIC
        ARGFRAME DOVERLAY, 0, STATIC
        FUNCALL compactPage, erasePage
        LOCFRAME ISTACK, 0, STACK
        LOCFRAME PSTACK, 0, STACK
        LOCFRAME XSTACK, 41, STACK
        LOCFRAME IOVERLAY, 0, STATIC
        LOCFRAME DOVERLAY, 0, STATIC
        ARGFRAME ISTACK, 0, STACK
        ARGFRAME PSTACK, 0, STACK
        ARGFRAME XSTACK, 41, STACK
        ARGFRAME IOVERLAY, 0, STATIC
        ARGFRAME DOVERLAY, 0, STATIC
        FUNCALL compactPage, HalFlashRead
        LOCFRAME ISTACK, 0, STACK
        LOCFRAME PSTACK, 0, STACK
        LOCFRAME XSTACK, 43, STACK
        LOCFRAME IOVERLAY, 0, STATIC
        LOCFRAME DOVERLAY, 0, STATIC
        ARGFRAME ISTACK, 0, STACK
        ARGFRAME PSTACK, 0, STACK
        ARGFRAME XSTACK, 43, STACK
        ARGFRAME IOVERLAY, 0, STATIC
        ARGFRAME DOVERLAY, 0, STATIC
        FUNCALL compactPage, calcChkF
        LOCFRAME ISTACK, 0, STACK
        LOCFRAME PSTACK, 0, STACK
        LOCFRAME XSTACK, 41, STACK
        LOCFRAME IOVERLAY, 0, STATIC
        LOCFRAME DOVERLAY, 0, STATIC
        ARGFRAME ISTACK, 0, STACK
        ARGFRAME PSTACK, 0, STACK
        ARGFRAME XSTACK, 41, STACK
        ARGFRAME IOVERLAY, 0, STATIC
        ARGFRAME DOVERLAY, 0, STATIC
        FUNCALL compactPage, HalFlashRead
        LOCFRAME ISTACK, 0, STACK
        LOCFRAME PSTACK, 0, STACK
        LOCFRAME XSTACK, 43, STACK
        LOCFRAME IOVERLAY, 0, STATIC
        LOCFRAME DOVERLAY, 0, STATIC
        ARGFRAME ISTACK, 0, STACK
        ARGFRAME PSTACK, 0, STACK
        ARGFRAME XSTACK, 43, STACK
        ARGFRAME IOVERLAY, 0, STATIC
        ARGFRAME DOVERLAY, 0, STATIC
        FUNCALL compactPage, HalFlashWrite
        LOCFRAME ISTACK, 0, STACK
        LOCFRAME PSTACK, 0, STACK
        LOCFRAME XSTACK, 43, STACK
        LOCFRAME IOVERLAY, 0, STATIC
        LOCFRAME DOVERLAY, 0, STATIC
        ARGFRAME ISTACK, 0, STACK
        ARGFRAME PSTACK, 0, STACK
        ARGFRAME XSTACK, 43, STACK
        ARGFRAME IOVERLAY, 0, STATIC
        ARGFRAME DOVERLAY, 0, STATIC
        FUNCALL compactPage, writeItem
        LOCFRAME ISTACK, 0, STACK
        LOCFRAME PSTACK, 0, STACK
        LOCFRAME XSTACK, 44, STACK
        LOCFRAME IOVERLAY, 0, STATIC
        LOCFRAME DOVERLAY, 0, STATIC
        ARGFRAME ISTACK, 0, STACK
        ARGFRAME PSTACK, 0, STACK
        ARGFRAME XSTACK, 44, STACK
        ARGFRAME IOVERLAY, 0, STATIC
        ARGFRAME DOVERLAY, 0, STATIC
        FUNCALL compactPage, xferBuf
        LOCFRAME ISTACK, 0, STACK
        LOCFRAME PSTACK, 0, STACK
        LOCFRAME XSTACK, 45, STACK
        LOCFRAME IOVERLAY, 0, STATIC
        LOCFRAME DOVERLAY, 0, STATIC
        ARGFRAME ISTACK, 0, STACK
        ARGFRAME PSTACK, 0, STACK
        ARGFRAME XSTACK, 45, STACK
        ARGFRAME IOVERLAY, 0, STATIC
        ARGFRAME DOVERLAY, 0, STATIC
        FUNCALL compactPage, calcChkF
        LOCFRAME ISTACK, 0, STACK
        LOCFRAME PSTACK, 0, STACK
        LOCFRAME XSTACK, 41, STACK
        LOCFRAME IOVERLAY, 0, STATIC
        LOCFRAME DOVERLAY, 0, STATIC
        ARGFRAME ISTACK, 0, STACK
        ARGFRAME PSTACK, 0, STACK
        ARGFRAME XSTACK, 41, STACK
        ARGFRAME IOVERLAY, 0, STATIC
        ARGFRAME DOVERLAY, 0, STATIC
        FUNCALL compactPage, writeWordH
        LOCFRAME ISTACK, 0, STACK
        LOCFRAME PSTACK, 0, STACK
        LOCFRAME XSTACK, 41, STACK
        LOCFRAME IOVERLAY, 0, STATIC
        LOCFRAME DOVERLAY, 0, STATIC
        ARGFRAME ISTACK, 0, STACK
        ARGFRAME PSTACK, 0, STACK
        ARGFRAME XSTACK, 41, STACK
        ARGFRAME IOVERLAY, 0, STATIC
        ARGFRAME DOVERLAY, 0, STATIC
        FUNCALL compactPage, HalFlashRead
        LOCFRAME ISTACK, 0, STACK
        LOCFRAME PSTACK, 0, STACK
        LOCFRAME XSTACK, 43, STACK
        LOCFRAME IOVERLAY, 0, STATIC
        LOCFRAME DOVERLAY, 0, STATIC
        ARGFRAME ISTACK, 0, STACK
        ARGFRAME PSTACK, 0, STACK
        ARGFRAME XSTACK, 43, STACK
        ARGFRAME IOVERLAY, 0, STATIC
        ARGFRAME DOVERLAY, 0, STATIC
        FUNCALL compactPage, erasePage
        LOCFRAME ISTACK, 0, STACK
        LOCFRAME PSTACK, 0, STACK
        LOCFRAME XSTACK, 41, STACK
        LOCFRAME IOVERLAY, 0, STATIC
        LOCFRAME DOVERLAY, 0, STATIC
        ARGFRAME ISTACK, 0, STACK
        ARGFRAME PSTACK, 0, STACK
        ARGFRAME XSTACK, 41, STACK
        ARGFRAME IOVERLAY, 0, STATIC
        ARGFRAME DOVERLAY, 0, STATIC
        FUNCALL compactPage, HalFlashWrite
        LOCFRAME ISTACK, 0, STACK
        LOCFRAME PSTACK, 0, STACK
        LOCFRAME XSTACK, 43, STACK
        LOCFRAME IOVERLAY, 0, STATIC
        LOCFRAME DOVERLAY, 0, STATIC
        ARGFRAME ISTACK, 0, STACK
        ARGFRAME PSTACK, 0, STACK
        ARGFRAME XSTACK, 43, STACK
        ARGFRAME IOVERLAY, 0, STATIC
        ARGFRAME DOVERLAY, 0, STATIC
        FUNCALL compactPage, erasePage
        LOCFRAME ISTACK, 0, STACK
        LOCFRAME PSTACK, 0, STACK
        LOCFRAME XSTACK, 41, STACK
        LOCFRAME IOVERLAY, 0, STATIC
        LOCFRAME DOVERLAY, 0, STATIC
        ARGFRAME ISTACK, 0, STACK
        ARGFRAME PSTACK, 0, STACK
        ARGFRAME XSTACK, 41, STACK
        ARGFRAME IOVERLAY, 0, STATIC
        ARGFRAME DOVERLAY, 0, STATIC
        REQUIRE ?V0
        REQUIRE ?V1
        REQUIRE ?V2
        REQUIRE ?V3
        REQUIRE ?V4
        REQUIRE ?V5
        REQUIRE ?V6
        REQUIRE ?V7
        REQUIRE ?V8
        REQUIRE ?V9
        REQUIRE ?V10
        REQUIRE ?V11
        REQUIRE ?V12
        REQUIRE ?V13
        MOV     A,#-0x16
        LCALL   ?BANKED_ENTER_XDATA
          CFI DPH0 load(1, XDATA, add(CFA_XSP16, literal(-1)))
          CFI DPL0 load(1, XDATA, add(CFA_XSP16, literal(-2)))
          CFI ?BRET_EXT load(1, XDATA, add(CFA_XSP16, literal(-3)))
          CFI ?RET_HIGH load(1, XDATA, add(CFA_XSP16, literal(-4)))
          CFI ?RET_LOW load(1, XDATA, add(CFA_XSP16, literal(-5)))
          CFI R7 load(1, XDATA, add(CFA_XSP16, literal(-6)))
          CFI V13 load(1, XDATA, add(CFA_XSP16, literal(-7)))
          CFI V12 load(1, XDATA, add(CFA_XSP16, literal(-8)))
          CFI V11 load(1, XDATA, add(CFA_XSP16, literal(-9)))
          CFI V10 load(1, XDATA, add(CFA_XSP16, literal(-10)))
          CFI V9 load(1, XDATA, add(CFA_XSP16, literal(-11)))
          CFI V8 load(1, XDATA, add(CFA_XSP16, literal(-12)))
          CFI V7 load(1, XDATA, add(CFA_XSP16, literal(-13)))
          CFI V6 load(1, XDATA, add(CFA_XSP16, literal(-14)))
          CFI V5 load(1, XDATA, add(CFA_XSP16, literal(-15)))
          CFI V4 load(1, XDATA, add(CFA_XSP16, literal(-16)))
          CFI V3 load(1, XDATA, add(CFA_XSP16, literal(-17)))
          CFI V2 load(1, XDATA, add(CFA_XSP16, literal(-18)))
          CFI V1 load(1, XDATA, add(CFA_XSP16, literal(-19)))
          CFI V0 load(1, XDATA, add(CFA_XSP16, literal(-20)))
          CFI VB load(1, XDATA, add(CFA_XSP16, literal(-21)))
          CFI R6 load(1, XDATA, add(CFA_XSP16, literal(-22)))
          CFI CFA_SP SP+0
          CFI CFA_XSP16 add(XSP16, 22)
        ; Saved register size: 22
        ; Auto size: 19
        MOV     A,#-0x13
        LCALL   ?ALLOC_XSTACK8
          CFI CFA_XSP16 add(XSP16, 41)
        MOV     ?V7,R1
        MOV     ?V8,R2
        MOV     ?V9,R3
//  532   uint16 srcOff;
//  533   uint8 rtrn;
//  534 
//  535   // To minimize code size, only check for a clean page here where it's absolutely required.
//  536   for (srcOff = 0; srcOff < OSAL_NV_PAGE_SIZE; srcOff++)
        MOV     ?V0,#0x0
        MOV     ?V1,#0x0
//  537   {
//  538     HalFlashRead(pgRes, srcOff, &rtrn, 1);
??compactPage_0:
        ; Setup parameters for call to function HalFlashRead
        MOV     ?V2,#0x1
        MOV     ?V3,#0x0
        MOV     R0,#?V2
        LCALL   ?PUSH_XSTACK_I_TWO
          CFI CFA_XSP16 add(XSP16, 43)
        MOV     A,#0x2
        LCALL   ?XSTACK_DISP102_8
        MOV     R2,?V0
        MOV     R3,?V1
        MOV     DPTR,#pgRes
        MOVX    A,@DPTR
        MOV     R1,A
        LCALL   `??HalFlashRead::?relay`; Banked call to: HalFlashRead
        MOV     A,#0x2
        LCALL   ?DEALLOC_XSTACK8
          CFI CFA_XSP16 add(XSP16, 41)
//  539     if (rtrn != OSAL_NV_ERASED)
        MOV     DPL,?XSP + 0
        MOV     DPH,?XSP + 1
        MOVX    A,@DPTR
        CPL     A
        JZ      ??compactPage_1
//  540     {
//  541       erasePage(pgRes);
        ; Setup parameters for call to function erasePage
        MOV     DPTR,#pgRes
        MOVX    A,@DPTR
        MOV     R1,A
        LCALL   `??erasePage::?relay`; Banked call to: erasePage
//  542       return FALSE;
        MOV     R1,#0x0
        LJMP    ??compactPage_2 & 0xFFFF
//  543     }
//  544   }
??compactPage_1:
        INC     ?V0
        MOV     A,?V0
        JNZ     ??compactPage_3
        INC     ?V1
??compactPage_3:
        CLR     C
        MOV     A,?V1
        SUBB    A,#0x8
        JC      ??compactPage_0
//  545 
//  546   srcOff = OSAL_NV_PAGE_HDR_SIZE;
        MOV     ?V0,#0x8
        MOV     ?V1,#0x0
//  547   rtrn = TRUE;
        MOV     A,#0x1
        MOVX    @DPTR,A
        MOV     ?V2,?V7
        MOV     A,#0x9
        MOV     R0,#?V2
        LCALL   ?S_SHL
        MOV     ?V13,?V3
//  548 
//  549   while ( srcOff < (OSAL_NV_PAGE_SIZE - OSAL_NV_HDR_SIZE ) )
//  550   {
//  551     osalNvHdr_t hdr;
//  552     uint16 sz, dstOff = pgOff[pgRes-OSAL_NV_PAGE_BEG];
??compactPage_4:
        MOV     DPTR,#pgRes
        MOVX    A,@DPTR
        LCALL   ?Subroutine30 & 0xFFFF
??CrossCallReturnLabel_56:
        MOVX    A,@DPTR
        MOV     ?V2,A
        INC     DPTR
        MOVX    A,@DPTR
        MOV     ?V3,A
//  553 
//  554     HalFlashRead(srcPg, srcOff, (uint8 *)(&hdr), OSAL_NV_HDR_SIZE);
        ; Setup parameters for call to function HalFlashRead
        MOV     ?V4,#0x8
        MOV     ?V5,#0x0
        MOV     R0,#?V4
        LCALL   ?PUSH_XSTACK_I_TWO
          CFI CFA_XSP16 add(XSP16, 43)
        MOV     A,#0x3
        LCALL   ?XSTACK_DISP102_8
        MOV     R2,?V0
        MOV     R3,?V1
        MOV     R1,?V7
        LCALL   `??HalFlashRead::?relay`; Banked call to: HalFlashRead
        MOV     A,#0x2
        LCALL   ?DEALLOC_XSTACK8
          CFI CFA_XSP16 add(XSP16, 41)
//  555 
//  556     if ( hdr.id == OSAL_NV_ERASED_ID )
        MOV     A,#0x1
        LCALL   ?XSTACK_DISP0_8
        MOVX    A,@DPTR
        CPL     A
        JNZ     ??compactPage_5
        INC     DPTR
        MOVX    A,@DPTR
        CPL     A
??compactPage_5:
        JNZ     $+5
        LJMP    ??compactPage_6 & 0xFFFF
//  557     {
//  558       break;
//  559     }
//  560 
//  561     // Get the actual size in bytes which is the ceiling(hdr.len)
//  562     sz = OSAL_NV_DATA_SIZE( hdr.len );
        MOV     A,#0x3
        LCALL   ?XSTACK_DISP0_8
        LCALL   ?Subroutine17 & 0xFFFF
??CrossCallReturnLabel_24:
        JC      ??compactPage_7
        MOV     R6,#-0x4
        MOV     R7,#-0x1
        SJMP    ??compactPage_8
??compactPage_7:
        LCALL   ?Subroutine36 & 0xFFFF
??CrossCallReturnLabel_71:
        MOV     R6,A
        MOV     A,R1
        MOV     R7,A
//  563 
//  564     if ( sz > (OSAL_NV_PAGE_SIZE - OSAL_NV_HDR_SIZE - srcOff) )
??compactPage_8:
        MOV     A,#-0x8
        CLR     C
        SUBB    A,?V0
        MOV     R0,A
        MOV     A,#0x7
        SUBB    A,?V1
        MOV     R1,A
        CLR     C
        MOV     A,R0
        SUBB    A,R6
        MOV     A,R1
        SUBB    A,R7
        JNC     $+5
        LJMP    ??compactPage_6 & 0xFFFF
//  565     {
//  566       break;
//  567     }
//  568 
//  569     if ( sz > (OSAL_NV_PAGE_SIZE - OSAL_NV_HDR_SIZE - dstOff) )
        MOV     A,#-0x8
        CLR     C
        SUBB    A,?V2
        MOV     R0,A
        MOV     A,#0x7
        SUBB    A,?V3
        MOV     R1,A
        CLR     C
        MOV     A,R0
        SUBB    A,R6
        MOV     A,R1
        SUBB    A,R7
        JNC     $+5
        LJMP    ??compactPage_9 & 0xFFFF
//  570     {
//  571       rtrn = FALSE;
//  572       break;
//  573     }
//  574 
//  575     srcOff += OSAL_NV_HDR_SIZE;
        MOV     A,?V0
        ADD     A,#0x8
        MOV     ?V0,A
        CLR     A
        ADDC    A,?V1
        MOV     ?V1,A
//  576 
//  577     if ( (hdr.id != OSAL_NV_ZEROED_ID) && (hdr.id != skipId) )
        MOV     A,#0x1
        LCALL   ?XSTACK_DISP0_8
        LCALL   ?Subroutine15 & 0xFFFF
??CrossCallReturnLabel_17:
        JNZ     $+5
        LJMP    ??compactPage_10 & 0xFFFF
        MOV     A,#0x1
        LCALL   ?XSTACK_DISP0_8
        MOVX    A,@DPTR
        XRL     A,?V8
        JNZ     ??compactPage_11
        INC     DPTR
        MOVX    A,@DPTR
        XRL     A,?V9
??compactPage_11:
        JNZ     $+5
        LJMP    ??compactPage_10 & 0xFFFF
//  578     {
//  579       if ( hdr.chk == calcChkF( srcPg, srcOff, hdr.len ) )
        ; Setup parameters for call to function calcChkF
        MOV     R2,?V0
        MOV     R3,?V1
        MOV     R1,?V7
        LCALL   `??calcChkF::?relay` ; Banked call to: calcChkF
        MOV     ?V4,R2
        MOV     ?V5,R3
        MOV     R0,?V4
        MOV     R1,?V5
        MOV     A,#0x5
        LCALL   ?XSTACK_DISP0_8
        MOVX    A,@DPTR
        XRL     A,R0
        JNZ     ??compactPage_12
        INC     DPTR
        MOVX    A,@DPTR
        XRL     A,R1
??compactPage_12:
        JZ      $+5
        LJMP    ??compactPage_10 & 0xFFFF
//  580       {
//  581         /* Prevent excessive re-writes to item header caused by numerous, rapid, & successive
//  582          * OSAL_Nv interruptions caused by resets.
//  583          */
//  584         if ( hdr.stat == OSAL_NV_ERASED_ID )
        MOV     A,#0x7
        LCALL   ?XSTACK_DISP0_8
        MOVX    A,@DPTR
        CPL     A
        JNZ     ??compactPage_13
        INC     DPTR
        MOVX    A,@DPTR
        CPL     A
??compactPage_13:
        JNZ     ??compactPage_14
//  585         {
//  586           setItem( srcPg, srcOff, eNvXfer );
        MOV     A,?V0
        ADD     A,#-0x8
        MOV     ?V4,A
        MOV     A,?V1
        ADDC    A,#-0x1
        MOV     ?V5,A
        ; Setup parameters for call to function HalFlashRead
        MOV     ?V10,#0x8
        MOV     ?V11,#0x0
        MOV     R0,#?V10
        LCALL   ?PUSH_XSTACK_I_TWO
          CFI CFA_XSP16 add(XSP16, 43)
        MOV     A,#0xd
        LCALL   ?XSTACK_DISP102_8
        MOV     R2,?V4
        MOV     R3,?V5
        MOV     R1,?V7
        LCALL   `??HalFlashRead::?relay`; Banked call to: HalFlashRead
        MOV     A,#0x2
        LCALL   ?DEALLOC_XSTACK8
          CFI CFA_XSP16 add(XSP16, 41)
        MOV     A,#0x11
        LCALL   ?XSTACK_DISP0_8
        CLR     A
        MOVX    @DPTR,A
        INC     DPTR
        MOVX    @DPTR,A
        ; Setup parameters for call to function HalFlashWrite
        MOV     ?V10,#0x1
        MOV     R0,#?V10
        LCALL   ?PUSH_XSTACK_I_TWO
          CFI CFA_XSP16 add(XSP16, 43)
        MOV     A,#0x11
        LCALL   ?XSTACK_DISP0_8
        MOV     R4,DPL
        MOV     R5,DPH
        MOV     A,?V4
        ADD     A,#0x4
        MOV     ?V4,A
        JNC     ??compactPage_15
        INC     ?V5
??compactPage_15:
        MOV     A,#0x2
        MOV     R0,#?V4
        LCALL   ?US_SHR
        MOV     A,?V4
        ADD     A,#0x0
        MOV     R2,A
        MOV     A,?V5
        ADDC    A,?V13
        MOV     R3,A
        LCALL   `??HalFlashWrite::?relay`; Banked call to: HalFlashWrite
        MOV     A,#0x2
        LCALL   ?DEALLOC_XSTACK8
          CFI CFA_XSP16 add(XSP16, 41)
//  587         }
//  588 
//  589         if ( writeItem( pgRes, hdr.id, hdr.len, NULL, FALSE ) )
??compactPage_14:
        ; Setup parameters for call to function writeItem
        MOV     ?V4,#0x0
        MOV     R0,#?V4
        LCALL   ?PUSH_XSTACK_I_ONE
          CFI CFA_XSP16 add(XSP16, 42)
        CLR     A
        MOV     ?V5,A
        MOV     R0,#?V4
        LCALL   ?PUSH_XSTACK_I_TWO
          CFI CFA_XSP16 add(XSP16, 44)
        MOV     A,#0x6
        LCALL   ?XSTACK_DISP0_8
        LCALL   ?Subroutine26 & 0xFFFF
??CrossCallReturnLabel_40:
        MOV     A,#0x4
        LCALL   ?XSTACK_DISP0_8
        LCALL   ??Subroutine49_0 & 0xFFFF
??CrossCallReturnLabel_99:
        MOV     DPTR,#pgRes
        MOVX    A,@DPTR
        MOV     R1,A
        LCALL   `??writeItem::?relay`; Banked call to: writeItem
        MOV     A,#0x3
        LCALL   ?DEALLOC_XSTACK8
          CFI CFA_XSP16 add(XSP16, 41)
        MOV     A,R1
        JNZ     $+5
        LJMP    ??compactPage_9 & 0xFFFF
//  590         {
//  591           dstOff += OSAL_NV_HDR_SIZE;
        LCALL   ?Subroutine37 & 0xFFFF
//  592           xferBuf( srcPg, srcOff, pgRes, dstOff, sz );
??CrossCallReturnLabel_72:
        ; Setup parameters for call to function xferBuf
        MOV     ?V4,R6
        MOV     ?V5,R7
        MOV     R0,#?V4
        LCALL   ?PUSH_XSTACK_I_TWO
          CFI CFA_XSP16 add(XSP16, 43)
        MOV     R0,#?V2
        LCALL   ?PUSH_XSTACK_I_TWO
          CFI CFA_XSP16 add(XSP16, 45)
        MOV     DPTR,#pgRes
        MOVX    A,@DPTR
        MOV     R4,A
        MOV     R2,?V0
        MOV     R3,?V1
        MOV     R1,?V7
        LCALL   `??xferBuf::?relay`  ; Banked call to: xferBuf
        MOV     A,#0x4
        LCALL   ?DEALLOC_XSTACK8
          CFI CFA_XSP16 add(XSP16, 41)
//  593           // Calculate and write the new checksum.
//  594           if (hdr.chk == calcChkF(pgRes, dstOff, hdr.len))
        ; Setup parameters for call to function calcChkF
        MOV     A,#0x3
        LCALL   ?XSTACK_DISP0_8
        LCALL   ?Subroutine25 & 0xFFFF
??CrossCallReturnLabel_37:
        MOV     DPTR,#pgRes
        MOVX    A,@DPTR
        MOV     R1,A
        LCALL   `??calcChkF::?relay` ; Banked call to: calcChkF
        MOV     A,#0x5
        LCALL   ?XSTACK_DISP0_8
        LCALL   ?Subroutine29 & 0xFFFF
??CrossCallReturnLabel_51:
        MOV     A,R2
        XRL     A,R0
        JNZ     ??compactPage_16
        MOV     A,R3
        XRL     A,R1
??compactPage_16:
        JZ      $+5
        LJMP    ??compactPage_9 & 0xFFFF
//  595           {
//  596             if ( hdr.chk != setChk( pgRes, dstOff, hdr.chk ) )
        MOV     A,#0x9
        LCALL   ?XSTACK_DISP0_8
        MOV     A,R0
        MOVX    @DPTR,A
        INC     DPTR
        MOV     A,R1
        MOVX    @DPTR,A
        MOV     DPTR,#pgRes
        MOVX    A,@DPTR
        MOV     ?V6,A
        MOV     A,?V2
        ADD     A,#-0x4
        MOV     ?V4,A
        MOV     A,?V3
        ADDC    A,#-0x1
        MOV     ?V5,A
        ; Setup parameters for call to function writeWordH
        MOV     A,#0x9
        LCALL   ?XSTACK_DISP102_8
        MOV     R2,?V4
        MOV     R3,?V5
        MOV     R1,?V6
        LCALL   `??writeWordH::?relay`; Banked call to: writeWordH
        ; Setup parameters for call to function HalFlashRead
        MOV     ?V10,#0x2
        MOV     ?V11,#0x0
        MOV     R0,#?V10
        LCALL   ?PUSH_XSTACK_I_TWO
          CFI CFA_XSP16 add(XSP16, 43)
        MOV     A,#0xb
        LCALL   ?XSTACK_DISP102_8
        MOV     R2,?V4
        MOV     R3,?V5
        MOV     R1,?V6
        LCALL   `??HalFlashRead::?relay`; Banked call to: HalFlashRead
        MOV     A,#0x2
        LCALL   ?DEALLOC_XSTACK8
          CFI CFA_XSP16 add(XSP16, 41)
        MOV     A,#0x5
        LCALL   ?XSTACK_DISP0_8
        LCALL   ?Subroutine29 & 0xFFFF
??CrossCallReturnLabel_52:
        MOV     A,#0x9
        LCALL   ?XSTACK_DISP0_8
        MOVX    A,@DPTR
        XRL     A,R0
        JNZ     ??compactPage_17
        INC     DPTR
        MOVX    A,@DPTR
        XRL     A,R1
??compactPage_17:
        JNZ     ??compactPage_9
//  597             {
//  598               rtrn = FALSE;
//  599               break;
//  600             }
//  601             else
//  602             {
//  603               hotItemUpdate(pgRes, dstOff, hdr.id);
        MOV     A,#0x1
        LCALL   ?XSTACK_DISP0_8
        LCALL   ?Subroutine26 & 0xFFFF
//  604             }
//  605           }
//  606           else
//  607           {
//  608             rtrn = FALSE;
//  609             break;
//  610           }
//  611         }
??CrossCallReturnLabel_41:
        MOV     DPTR,#pgRes
        MOVX    A,@DPTR
        MOV     R3,A
        MOV     R2,#0x0
        MOV     R0,#hotIds & 0xff
        MOV     R1,#(hotIds >> 8) & 0xff
??compactPage_18:
        MOV     DPL,R0
        MOV     DPH,R1
        MOVX    A,@DPTR
        XRL     A,R4
        JNZ     ??compactPage_19
        INC     DPTR
        MOVX    A,@DPTR
        XRL     A,R5
??compactPage_19:
        JZ      ??compactPage_20
        INC     R2
        MOV     A,R0
        ADD     A,#0x2
        MOV     R0,A
        JNC     ??compactPage_21
        INC     R1
??compactPage_21:
        MOV     A,R2
        CLR     C
        SUBB    A,#0x3
        JC      ??compactPage_18
??compactPage_20:
        MOV     A,R2
        CLR     C
        SUBB    A,#0x3
        JNC     ??compactPage_10
        MOV     A,R2
        LCALL   ?Subroutine34 & 0xFFFF
??CrossCallReturnLabel_65:
        MOV     A,R3
        LCALL   ?Subroutine9 & 0xFFFF
??CrossCallReturnLabel_4:
        MOV     A,?V2
        MOVX    @DPTR,A
        INC     DPTR
        MOV     A,?V3
        MOVX    @DPTR,A
//  612         else
//  613         {
//  614           rtrn = FALSE;
//  615           break;
//  616         }
//  617       }
//  618     }
//  619 
//  620     srcOff += sz;
??compactPage_10:
        MOV     A,?V0
        ADD     A,R6
        MOV     ?V0,A
        MOV     A,?V1
        ADDC    A,R7
        MOV     ?V1,A
        CLR     C
        MOV     A,?V0
        SUBB    A,#-0x8
        MOV     A,?V1
        SUBB    A,#0x7
        JNC     $+5
        LJMP    ??compactPage_4 & 0xFFFF
//  621   }
//  622 
//  623   if (rtrn == FALSE)
??compactPage_6:
        MOV     DPL,?XSP + 0
        MOV     DPH,?XSP + 1
        MOVX    A,@DPTR
        JNZ     ??compactPage_22
//  624   {
//  625     erasePage(pgRes);
??compactPage_23:
        ; Setup parameters for call to function erasePage
        MOV     DPTR,#pgRes
        MOVX    A,@DPTR
        MOV     R1,A
        LCALL   `??erasePage::?relay`; Banked call to: erasePage
        SJMP    ??compactPage_24
//  626   }
??compactPage_9:
        MOV     DPL,?XSP + 0
        MOV     DPH,?XSP + 1
        CLR     A
        MOVX    @DPTR,A
        SJMP    ??compactPage_23
//  627   else if (skipId == OSAL_NV_ITEM_NULL)
??compactPage_22:
        MOV     A,?V8
        ORL     A,?V9
        JNZ     ??compactPage_24
//  628   {
//  629     COMPACT_PAGE_CLEANUP(srcPg);
        MOV     A,#0x1
        LCALL   ?XSTACK_DISP0_8
        CLR     A
        MOVX    @DPTR,A
        INC     DPTR
        MOVX    @DPTR,A
        MOV     A,#0x3
        LCALL   ?XSTACK_DISP0_8
        LCALL   ?Subroutine8 & 0xFFFF
??CrossCallReturnLabel_0:
        LCALL   ?PUSH_XSTACK_I_TWO
          CFI CFA_XSP16 add(XSP16, 43)
        MOV     A,#0x3
        LCALL   ?XSTACK_DISP102_8
        LCALL   ?Subroutine21 & 0xFFFF
??CrossCallReturnLabel_30:
        LCALL   ?S_SHL
        MOV     R2,A
        MOV     R3,?V1
        LCALL   `??HalFlashWrite::?relay`; Banked call to: HalFlashWrite
        MOV     A,#0x2
        LCALL   ?DEALLOC_XSTACK8
          CFI CFA_XSP16 add(XSP16, 41)
        ; Setup parameters for call to function erasePage
        MOV     R1,?V7
        LCALL   `??erasePage::?relay`; Banked call to: erasePage
        MOV     A,?V7
        MOV     DPTR,#pgRes
        MOVX    @DPTR,A
//  630   }
//  631   // else invoking function must cleanup.
//  632 
//  633   return rtrn;
??compactPage_24:
        MOV     DPL,?XSP + 0
        MOV     DPH,?XSP + 1
        MOVX    A,@DPTR
        MOV     R1,A
??compactPage_2:
        MOV     A,#0x13
          CFI EndBlock cfiBlock24
        REQUIRE ?Subroutine3
        ; // Fall through to label ?Subroutine3
//  634 }

        RSEG BANKED_CODE:CODE:NOROOT(0)
?Subroutine3:
          CFI Block cfiBlock25 Using cfiCommon0
          CFI NoFunction
          CFI CFA_SP SP+0
          CFI CFA_XSP16 add(XSP16, 41)
          CFI VB load(1, XDATA, add(CFA_XSP16, literal(-21)))
          CFI DPL0 load(1, XDATA, add(CFA_XSP16, literal(-2)))
          CFI DPH0 load(1, XDATA, add(CFA_XSP16, literal(-1)))
          CFI R6 load(1, XDATA, add(CFA_XSP16, literal(-22)))
          CFI R7 load(1, XDATA, add(CFA_XSP16, literal(-6)))
          CFI V0 load(1, XDATA, add(CFA_XSP16, literal(-20)))
          CFI V1 load(1, XDATA, add(CFA_XSP16, literal(-19)))
          CFI V2 load(1, XDATA, add(CFA_XSP16, literal(-18)))
          CFI V3 load(1, XDATA, add(CFA_XSP16, literal(-17)))
          CFI V4 load(1, XDATA, add(CFA_XSP16, literal(-16)))
          CFI V5 load(1, XDATA, add(CFA_XSP16, literal(-15)))
          CFI V6 load(1, XDATA, add(CFA_XSP16, literal(-14)))
          CFI V7 load(1, XDATA, add(CFA_XSP16, literal(-13)))
          CFI V8 load(1, XDATA, add(CFA_XSP16, literal(-12)))
          CFI V9 load(1, XDATA, add(CFA_XSP16, literal(-11)))
          CFI V10 load(1, XDATA, add(CFA_XSP16, literal(-10)))
          CFI V11 load(1, XDATA, add(CFA_XSP16, literal(-9)))
          CFI V12 load(1, XDATA, add(CFA_XSP16, literal(-8)))
          CFI V13 load(1, XDATA, add(CFA_XSP16, literal(-7)))
          CFI ?BRET_EXT load(1, XDATA, add(CFA_XSP16, literal(-3)))
          CFI ?RET_HIGH load(1, XDATA, add(CFA_XSP16, literal(-4)))
          CFI ?RET_LOW load(1, XDATA, add(CFA_XSP16, literal(-5)))
          CFI Invalid
        LCALL   ?DEALLOC_XSTACK8
          CFI CFA_XSP16 add(XSP16, 22)
          CFI Valid
        MOV     R7,#0xe
        LJMP    ?BANKED_LEAVE_XDATA
          CFI CFA_SP SP+-3
          CFI CFA_XSP16 XSP16+0
          CFI VB SameValue
          CFI DPL0 SameValue
          CFI DPH0 SameValue
          CFI R6 SameValue
          CFI R7 SameValue
          CFI V0 SameValue
          CFI V1 SameValue
          CFI V2 SameValue
          CFI V3 SameValue
          CFI V4 SameValue
          CFI V5 SameValue
          CFI V6 SameValue
          CFI V7 SameValue
          CFI V8 SameValue
          CFI V9 SameValue
          CFI V10 SameValue
          CFI V11 SameValue
          CFI V12 SameValue
          CFI V13 SameValue
          CFI ?BRET_EXT Frame(CFA_SP, 3)
          CFI ?RET_HIGH Frame(CFA_SP, 2)
          CFI ?RET_LOW Frame(CFA_SP, 1)
          CFI EndBlock cfiBlock25

        RSEG BANKED_CODE:CODE:NOROOT(0)
?Subroutine36:
          CFI Block cfiCond26 Using cfiCommon0
          CFI Function initPage
          CFI Conditional ??CrossCallReturnLabel_70
          CFI R6 load(1, XDATA, add(CFA_XSP16, literal(-24)))
          CFI VB load(1, XDATA, add(CFA_XSP16, literal(-23)))
          CFI V0 load(1, XDATA, add(CFA_XSP16, literal(-22)))
          CFI V1 load(1, XDATA, add(CFA_XSP16, literal(-21)))
          CFI V2 load(1, XDATA, add(CFA_XSP16, literal(-20)))
          CFI V3 load(1, XDATA, add(CFA_XSP16, literal(-19)))
          CFI V4 load(1, XDATA, add(CFA_XSP16, literal(-18)))
          CFI V5 load(1, XDATA, add(CFA_XSP16, literal(-17)))
          CFI V6 load(1, XDATA, add(CFA_XSP16, literal(-16)))
          CFI V7 load(1, XDATA, add(CFA_XSP16, literal(-15)))
          CFI V8 load(1, XDATA, add(CFA_XSP16, literal(-14)))
          CFI V9 load(1, XDATA, add(CFA_XSP16, literal(-13)))
          CFI V10 load(1, XDATA, add(CFA_XSP16, literal(-12)))
          CFI V11 load(1, XDATA, add(CFA_XSP16, literal(-11)))
          CFI V12 load(1, XDATA, add(CFA_XSP16, literal(-10)))
          CFI V13 load(1, XDATA, add(CFA_XSP16, literal(-9)))
          CFI V14 load(1, XDATA, add(CFA_XSP16, literal(-8)))
          CFI V15 load(1, XDATA, add(CFA_XSP16, literal(-7)))
          CFI R7 load(1, XDATA, add(CFA_XSP16, literal(-6)))
          CFI ?RET_LOW load(1, XDATA, add(CFA_XSP16, literal(-5)))
          CFI ?RET_HIGH load(1, XDATA, add(CFA_XSP16, literal(-4)))
          CFI ?BRET_EXT load(1, XDATA, add(CFA_XSP16, literal(-3)))
          CFI DPL0 load(1, XDATA, add(CFA_XSP16, literal(-2)))
          CFI DPH0 load(1, XDATA, add(CFA_XSP16, literal(-1)))
          CFI CFA_SP SP+-2
          CFI CFA_XSP16 add(XSP16, 49)
          CFI Block cfiCond27 Using cfiCommon0
          CFI (cfiCond27) Function compactPage
          CFI (cfiCond27) Conditional ??CrossCallReturnLabel_71
          CFI (cfiCond27) R6 load(1, XDATA, add(CFA_XSP16, literal(-22)))
          CFI (cfiCond27) VB load(1, XDATA, add(CFA_XSP16, literal(-21)))
          CFI (cfiCond27) V0 load(1, XDATA, add(CFA_XSP16, literal(-20)))
          CFI (cfiCond27) V1 load(1, XDATA, add(CFA_XSP16, literal(-19)))
          CFI (cfiCond27) V2 load(1, XDATA, add(CFA_XSP16, literal(-18)))
          CFI (cfiCond27) V3 load(1, XDATA, add(CFA_XSP16, literal(-17)))
          CFI (cfiCond27) V4 load(1, XDATA, add(CFA_XSP16, literal(-16)))
          CFI (cfiCond27) V5 load(1, XDATA, add(CFA_XSP16, literal(-15)))
          CFI (cfiCond27) V6 load(1, XDATA, add(CFA_XSP16, literal(-14)))
          CFI (cfiCond27) V7 load(1, XDATA, add(CFA_XSP16, literal(-13)))
          CFI (cfiCond27) V8 load(1, XDATA, add(CFA_XSP16, literal(-12)))
          CFI (cfiCond27) V9 load(1, XDATA, add(CFA_XSP16, literal(-11)))
          CFI (cfiCond27) V10 load(1, XDATA, add(CFA_XSP16, literal(-10)))
          CFI (cfiCond27) V11 load(1, XDATA, add(CFA_XSP16, literal(-9)))
          CFI (cfiCond27) V12 load(1, XDATA, add(CFA_XSP16, literal(-8)))
          CFI (cfiCond27) V13 load(1, XDATA, add(CFA_XSP16, literal(-7)))
          CFI (cfiCond27) R7 load(1, XDATA, add(CFA_XSP16, literal(-6)))
          CFI (cfiCond27) ?RET_LOW load(1, XDATA, add(CFA_XSP16, literal(-5)))
          CFI (cfiCond27) ?RET_HIGH load(1, XDATA, add(CFA_XSP16, literal(-4)))
          CFI (cfiCond27) ?BRET_EXT load(1, XDATA, add(CFA_XSP16, literal(-3)))
          CFI (cfiCond27) DPL0 load(1, XDATA, add(CFA_XSP16, literal(-2)))
          CFI (cfiCond27) DPH0 load(1, XDATA, add(CFA_XSP16, literal(-1)))
          CFI (cfiCond27) CFA_SP SP+-2
          CFI (cfiCond27) CFA_XSP16 add(XSP16, 41)
          CFI Block cfiPicker28 Using cfiCommon1
          CFI (cfiPicker28) NoFunction
          CFI (cfiPicker28) Picker
        MOV     A,R4
        ADD     A,#0x3
        MOV     R0,A
        CLR     A
        ADDC    A,R5
        MOV     R1,A
        MOV     A,R0
        ANL     A,#0xfc
        RET
          CFI (cfiCond26) CFA_SP SP+0
          CFI (cfiCond27) CFA_SP SP+0
          CFI (cfiPicker28) CFA_SP SP+0
          CFI EndBlock cfiCond26
          CFI EndBlock cfiCond27
          CFI EndBlock cfiPicker28

        RSEG BANKED_CODE:CODE:NOROOT(0)
?Subroutine17:
          CFI Block cfiCond29 Using cfiCommon0
          CFI Function initPage
          CFI Conditional ??CrossCallReturnLabel_23
          CFI R6 load(1, XDATA, add(CFA_XSP16, literal(-24)))
          CFI VB load(1, XDATA, add(CFA_XSP16, literal(-23)))
          CFI V0 load(1, XDATA, add(CFA_XSP16, literal(-22)))
          CFI V1 load(1, XDATA, add(CFA_XSP16, literal(-21)))
          CFI V2 load(1, XDATA, add(CFA_XSP16, literal(-20)))
          CFI V3 load(1, XDATA, add(CFA_XSP16, literal(-19)))
          CFI V4 load(1, XDATA, add(CFA_XSP16, literal(-18)))
          CFI V5 load(1, XDATA, add(CFA_XSP16, literal(-17)))
          CFI V6 load(1, XDATA, add(CFA_XSP16, literal(-16)))
          CFI V7 load(1, XDATA, add(CFA_XSP16, literal(-15)))
          CFI V8 load(1, XDATA, add(CFA_XSP16, literal(-14)))
          CFI V9 load(1, XDATA, add(CFA_XSP16, literal(-13)))
          CFI V10 load(1, XDATA, add(CFA_XSP16, literal(-12)))
          CFI V11 load(1, XDATA, add(CFA_XSP16, literal(-11)))
          CFI V12 load(1, XDATA, add(CFA_XSP16, literal(-10)))
          CFI V13 load(1, XDATA, add(CFA_XSP16, literal(-9)))
          CFI V14 load(1, XDATA, add(CFA_XSP16, literal(-8)))
          CFI V15 load(1, XDATA, add(CFA_XSP16, literal(-7)))
          CFI R7 load(1, XDATA, add(CFA_XSP16, literal(-6)))
          CFI ?RET_LOW load(1, XDATA, add(CFA_XSP16, literal(-5)))
          CFI ?RET_HIGH load(1, XDATA, add(CFA_XSP16, literal(-4)))
          CFI ?BRET_EXT load(1, XDATA, add(CFA_XSP16, literal(-3)))
          CFI DPL0 load(1, XDATA, add(CFA_XSP16, literal(-2)))
          CFI DPH0 load(1, XDATA, add(CFA_XSP16, literal(-1)))
          CFI CFA_SP SP+-2
          CFI CFA_XSP16 add(XSP16, 49)
          CFI Block cfiCond30 Using cfiCommon0
          CFI (cfiCond30) Function compactPage
          CFI (cfiCond30) Conditional ??CrossCallReturnLabel_24
          CFI (cfiCond30) R6 load(1, XDATA, add(CFA_XSP16, literal(-22)))
          CFI (cfiCond30) VB load(1, XDATA, add(CFA_XSP16, literal(-21)))
          CFI (cfiCond30) V0 load(1, XDATA, add(CFA_XSP16, literal(-20)))
          CFI (cfiCond30) V1 load(1, XDATA, add(CFA_XSP16, literal(-19)))
          CFI (cfiCond30) V2 load(1, XDATA, add(CFA_XSP16, literal(-18)))
          CFI (cfiCond30) V3 load(1, XDATA, add(CFA_XSP16, literal(-17)))
          CFI (cfiCond30) V4 load(1, XDATA, add(CFA_XSP16, literal(-16)))
          CFI (cfiCond30) V5 load(1, XDATA, add(CFA_XSP16, literal(-15)))
          CFI (cfiCond30) V6 load(1, XDATA, add(CFA_XSP16, literal(-14)))
          CFI (cfiCond30) V7 load(1, XDATA, add(CFA_XSP16, literal(-13)))
          CFI (cfiCond30) V8 load(1, XDATA, add(CFA_XSP16, literal(-12)))
          CFI (cfiCond30) V9 load(1, XDATA, add(CFA_XSP16, literal(-11)))
          CFI (cfiCond30) V10 load(1, XDATA, add(CFA_XSP16, literal(-10)))
          CFI (cfiCond30) V11 load(1, XDATA, add(CFA_XSP16, literal(-9)))
          CFI (cfiCond30) V12 load(1, XDATA, add(CFA_XSP16, literal(-8)))
          CFI (cfiCond30) V13 load(1, XDATA, add(CFA_XSP16, literal(-7)))
          CFI (cfiCond30) R7 load(1, XDATA, add(CFA_XSP16, literal(-6)))
          CFI (cfiCond30) ?RET_LOW load(1, XDATA, add(CFA_XSP16, literal(-5)))
          CFI (cfiCond30) ?RET_HIGH load(1, XDATA, add(CFA_XSP16, literal(-4)))
          CFI (cfiCond30) ?BRET_EXT load(1, XDATA, add(CFA_XSP16, literal(-3)))
          CFI (cfiCond30) DPL0 load(1, XDATA, add(CFA_XSP16, literal(-2)))
          CFI (cfiCond30) DPH0 load(1, XDATA, add(CFA_XSP16, literal(-1)))
          CFI (cfiCond30) CFA_SP SP+-2
          CFI (cfiCond30) CFA_XSP16 add(XSP16, 41)
          CFI Block cfiPicker31 Using cfiCommon1
          CFI (cfiPicker31) NoFunction
          CFI (cfiPicker31) Picker
        LCALL   ?Subroutine45 & 0xFFFF
??CrossCallReturnLabel_90:
        CLR     C
        MOV     A,R4
        SUBB    A,#-0x4
        MOV     A,R5
        SUBB    A,#-0x1
        RET
          CFI (cfiCond29) CFA_SP SP+0
          CFI (cfiCond30) CFA_SP SP+0
          CFI (cfiPicker31) CFA_SP SP+0
          CFI EndBlock cfiCond29
          CFI EndBlock cfiCond30
          CFI EndBlock cfiPicker31

        RSEG BANKED_CODE:CODE:NOROOT(0)
?Subroutine15:
          CFI Block cfiCond32 Using cfiCommon0
          CFI Function initPage
          CFI Conditional ??CrossCallReturnLabel_15
          CFI R6 load(1, XDATA, add(CFA_XSP16, literal(-24)))
          CFI VB load(1, XDATA, add(CFA_XSP16, literal(-23)))
          CFI V0 load(1, XDATA, add(CFA_XSP16, literal(-22)))
          CFI V1 load(1, XDATA, add(CFA_XSP16, literal(-21)))
          CFI V2 load(1, XDATA, add(CFA_XSP16, literal(-20)))
          CFI V3 load(1, XDATA, add(CFA_XSP16, literal(-19)))
          CFI V4 load(1, XDATA, add(CFA_XSP16, literal(-18)))
          CFI V5 load(1, XDATA, add(CFA_XSP16, literal(-17)))
          CFI V6 load(1, XDATA, add(CFA_XSP16, literal(-16)))
          CFI V7 load(1, XDATA, add(CFA_XSP16, literal(-15)))
          CFI V8 load(1, XDATA, add(CFA_XSP16, literal(-14)))
          CFI V9 load(1, XDATA, add(CFA_XSP16, literal(-13)))
          CFI V10 load(1, XDATA, add(CFA_XSP16, literal(-12)))
          CFI V11 load(1, XDATA, add(CFA_XSP16, literal(-11)))
          CFI V12 load(1, XDATA, add(CFA_XSP16, literal(-10)))
          CFI V13 load(1, XDATA, add(CFA_XSP16, literal(-9)))
          CFI V14 load(1, XDATA, add(CFA_XSP16, literal(-8)))
          CFI V15 load(1, XDATA, add(CFA_XSP16, literal(-7)))
          CFI R7 load(1, XDATA, add(CFA_XSP16, literal(-6)))
          CFI ?RET_LOW load(1, XDATA, add(CFA_XSP16, literal(-5)))
          CFI ?RET_HIGH load(1, XDATA, add(CFA_XSP16, literal(-4)))
          CFI ?BRET_EXT load(1, XDATA, add(CFA_XSP16, literal(-3)))
          CFI DPL0 load(1, XDATA, add(CFA_XSP16, literal(-2)))
          CFI DPH0 load(1, XDATA, add(CFA_XSP16, literal(-1)))
          CFI CFA_SP SP+-2
          CFI CFA_XSP16 add(XSP16, 49)
          CFI Block cfiCond33 Using cfiCommon0
          CFI (cfiCond33) Function initPage
          CFI (cfiCond33) Conditional ??CrossCallReturnLabel_16
          CFI (cfiCond33) R6 load(1, XDATA, add(CFA_XSP16, literal(-24)))
          CFI (cfiCond33) VB load(1, XDATA, add(CFA_XSP16, literal(-23)))
          CFI (cfiCond33) V0 load(1, XDATA, add(CFA_XSP16, literal(-22)))
          CFI (cfiCond33) V1 load(1, XDATA, add(CFA_XSP16, literal(-21)))
          CFI (cfiCond33) V2 load(1, XDATA, add(CFA_XSP16, literal(-20)))
          CFI (cfiCond33) V3 load(1, XDATA, add(CFA_XSP16, literal(-19)))
          CFI (cfiCond33) V4 load(1, XDATA, add(CFA_XSP16, literal(-18)))
          CFI (cfiCond33) V5 load(1, XDATA, add(CFA_XSP16, literal(-17)))
          CFI (cfiCond33) V6 load(1, XDATA, add(CFA_XSP16, literal(-16)))
          CFI (cfiCond33) V7 load(1, XDATA, add(CFA_XSP16, literal(-15)))
          CFI (cfiCond33) V8 load(1, XDATA, add(CFA_XSP16, literal(-14)))
          CFI (cfiCond33) V9 load(1, XDATA, add(CFA_XSP16, literal(-13)))
          CFI (cfiCond33) V10 load(1, XDATA, add(CFA_XSP16, literal(-12)))
          CFI (cfiCond33) V11 load(1, XDATA, add(CFA_XSP16, literal(-11)))
          CFI (cfiCond33) V12 load(1, XDATA, add(CFA_XSP16, literal(-10)))
          CFI (cfiCond33) V13 load(1, XDATA, add(CFA_XSP16, literal(-9)))
          CFI (cfiCond33) V14 load(1, XDATA, add(CFA_XSP16, literal(-8)))
          CFI (cfiCond33) V15 load(1, XDATA, add(CFA_XSP16, literal(-7)))
          CFI (cfiCond33) R7 load(1, XDATA, add(CFA_XSP16, literal(-6)))
          CFI (cfiCond33) ?RET_LOW load(1, XDATA, add(CFA_XSP16, literal(-5)))
          CFI (cfiCond33) ?RET_HIGH load(1, XDATA, add(CFA_XSP16, literal(-4)))
          CFI (cfiCond33) ?BRET_EXT load(1, XDATA, add(CFA_XSP16, literal(-3)))
          CFI (cfiCond33) DPL0 load(1, XDATA, add(CFA_XSP16, literal(-2)))
          CFI (cfiCond33) DPH0 load(1, XDATA, add(CFA_XSP16, literal(-1)))
          CFI (cfiCond33) CFA_SP SP+-2
          CFI (cfiCond33) CFA_XSP16 add(XSP16, 49)
          CFI Block cfiCond34 Using cfiCommon0
          CFI (cfiCond34) Function compactPage
          CFI (cfiCond34) Conditional ??CrossCallReturnLabel_17
          CFI (cfiCond34) R6 load(1, XDATA, add(CFA_XSP16, literal(-22)))
          CFI (cfiCond34) VB load(1, XDATA, add(CFA_XSP16, literal(-21)))
          CFI (cfiCond34) V0 load(1, XDATA, add(CFA_XSP16, literal(-20)))
          CFI (cfiCond34) V1 load(1, XDATA, add(CFA_XSP16, literal(-19)))
          CFI (cfiCond34) V2 load(1, XDATA, add(CFA_XSP16, literal(-18)))
          CFI (cfiCond34) V3 load(1, XDATA, add(CFA_XSP16, literal(-17)))
          CFI (cfiCond34) V4 load(1, XDATA, add(CFA_XSP16, literal(-16)))
          CFI (cfiCond34) V5 load(1, XDATA, add(CFA_XSP16, literal(-15)))
          CFI (cfiCond34) V6 load(1, XDATA, add(CFA_XSP16, literal(-14)))
          CFI (cfiCond34) V7 load(1, XDATA, add(CFA_XSP16, literal(-13)))
          CFI (cfiCond34) V8 load(1, XDATA, add(CFA_XSP16, literal(-12)))
          CFI (cfiCond34) V9 load(1, XDATA, add(CFA_XSP16, literal(-11)))
          CFI (cfiCond34) V10 load(1, XDATA, add(CFA_XSP16, literal(-10)))
          CFI (cfiCond34) V11 load(1, XDATA, add(CFA_XSP16, literal(-9)))
          CFI (cfiCond34) V12 load(1, XDATA, add(CFA_XSP16, literal(-8)))
          CFI (cfiCond34) V13 load(1, XDATA, add(CFA_XSP16, literal(-7)))
          CFI (cfiCond34) R7 load(1, XDATA, add(CFA_XSP16, literal(-6)))
          CFI (cfiCond34) ?RET_LOW load(1, XDATA, add(CFA_XSP16, literal(-5)))
          CFI (cfiCond34) ?RET_HIGH load(1, XDATA, add(CFA_XSP16, literal(-4)))
          CFI (cfiCond34) ?BRET_EXT load(1, XDATA, add(CFA_XSP16, literal(-3)))
          CFI (cfiCond34) DPL0 load(1, XDATA, add(CFA_XSP16, literal(-2)))
          CFI (cfiCond34) DPH0 load(1, XDATA, add(CFA_XSP16, literal(-1)))
          CFI (cfiCond34) CFA_SP SP+-2
          CFI (cfiCond34) CFA_XSP16 add(XSP16, 41)
          CFI Block cfiCond35 Using cfiCommon0
          CFI (cfiCond35) Function osal_nv_write
          CFI (cfiCond35) Conditional ??CrossCallReturnLabel_18
          CFI (cfiCond35) R6 load(1, XDATA, add(CFA_XSP16, literal(-24)))
          CFI (cfiCond35) VB load(1, XDATA, add(CFA_XSP16, literal(-23)))
          CFI (cfiCond35) V0 load(1, XDATA, add(CFA_XSP16, literal(-22)))
          CFI (cfiCond35) V1 load(1, XDATA, add(CFA_XSP16, literal(-21)))
          CFI (cfiCond35) V2 load(1, XDATA, add(CFA_XSP16, literal(-20)))
          CFI (cfiCond35) V3 load(1, XDATA, add(CFA_XSP16, literal(-19)))
          CFI (cfiCond35) V4 load(1, XDATA, add(CFA_XSP16, literal(-18)))
          CFI (cfiCond35) V5 load(1, XDATA, add(CFA_XSP16, literal(-17)))
          CFI (cfiCond35) V6 load(1, XDATA, add(CFA_XSP16, literal(-16)))
          CFI (cfiCond35) V7 load(1, XDATA, add(CFA_XSP16, literal(-15)))
          CFI (cfiCond35) V8 load(1, XDATA, add(CFA_XSP16, literal(-14)))
          CFI (cfiCond35) V9 load(1, XDATA, add(CFA_XSP16, literal(-13)))
          CFI (cfiCond35) V10 load(1, XDATA, add(CFA_XSP16, literal(-12)))
          CFI (cfiCond35) V11 load(1, XDATA, add(CFA_XSP16, literal(-11)))
          CFI (cfiCond35) V12 load(1, XDATA, add(CFA_XSP16, literal(-10)))
          CFI (cfiCond35) V13 load(1, XDATA, add(CFA_XSP16, literal(-9)))
          CFI (cfiCond35) V14 load(1, XDATA, add(CFA_XSP16, literal(-8)))
          CFI (cfiCond35) V15 load(1, XDATA, add(CFA_XSP16, literal(-7)))
          CFI (cfiCond35) R7 load(1, XDATA, add(CFA_XSP16, literal(-6)))
          CFI (cfiCond35) ?RET_LOW load(1, XDATA, add(CFA_XSP16, literal(-5)))
          CFI (cfiCond35) ?RET_HIGH load(1, XDATA, add(CFA_XSP16, literal(-4)))
          CFI (cfiCond35) ?BRET_EXT load(1, XDATA, add(CFA_XSP16, literal(-3)))
          CFI (cfiCond35) DPL0 load(1, XDATA, add(CFA_XSP16, literal(-2)))
          CFI (cfiCond35) DPH0 load(1, XDATA, add(CFA_XSP16, literal(-1)))
          CFI (cfiCond35) CFA_SP SP+-2
          CFI (cfiCond35) CFA_XSP16 add(XSP16, 45)
          CFI Block cfiPicker36 Using cfiCommon1
          CFI (cfiPicker36) NoFunction
          CFI (cfiPicker36) Picker
        LCALL   ?Subroutine44 & 0xFFFF
??CrossCallReturnLabel_86:
        MOV     A,R0
        ORL     A,R1
        RET
          CFI (cfiCond32) CFA_SP SP+0
          CFI (cfiCond33) CFA_SP SP+0
          CFI (cfiCond34) CFA_SP SP+0
          CFI (cfiCond35) CFA_SP SP+0
          CFI (cfiPicker36) CFA_SP SP+0
          CFI EndBlock cfiCond32
          CFI EndBlock cfiCond33
          CFI EndBlock cfiCond34
          CFI EndBlock cfiCond35
          CFI EndBlock cfiPicker36
//  635 
//  636 /*********************************************************************
//  637  * @fn      findItem
//  638  *
//  639  * @brief   Find an item Id in NV and return the page and offset to its data.
//  640  *
//  641  * @param   id - Valid NV item Id.
//  642  *
//  643  * @return  Offset of data corresponding to item Id, if found;
//  644  *          otherwise OSAL_NV_ITEM_NULL.
//  645  *
//  646  *          The page containing the item, if found;
//  647  *          otherwise no valid assignment made - left equal to item Id.
//  648  *
//  649  */

        RSEG BANKED_CODE:CODE:NOROOT(0)
//  650 static uint16 findItem( uint16 id )
findItem:
          CFI Block cfiBlock37 Using cfiCommon0
          CFI Function findItem
        CODE
//  651 {
        FUNCALL findItem, initPage
        LOCFRAME ISTACK, 0, STACK
        LOCFRAME PSTACK, 0, STACK
        LOCFRAME XSTACK, 12, STACK
        LOCFRAME IOVERLAY, 0, STATIC
        LOCFRAME DOVERLAY, 0, STATIC
        ARGFRAME ISTACK, 0, STACK
        ARGFRAME PSTACK, 0, STACK
        ARGFRAME XSTACK, 12, STACK
        ARGFRAME IOVERLAY, 0, STATIC
        ARGFRAME DOVERLAY, 0, STATIC
        REQUIRE ?V0
        REQUIRE ?V2
        REQUIRE ?V3
        MOV     A,#-0xc
        LCALL   ?BANKED_ENTER_XDATA
          CFI DPH0 load(1, XDATA, add(CFA_XSP16, literal(-1)))
          CFI DPL0 load(1, XDATA, add(CFA_XSP16, literal(-2)))
          CFI ?BRET_EXT load(1, XDATA, add(CFA_XSP16, literal(-3)))
          CFI ?RET_HIGH load(1, XDATA, add(CFA_XSP16, literal(-4)))
          CFI ?RET_LOW load(1, XDATA, add(CFA_XSP16, literal(-5)))
          CFI R7 load(1, XDATA, add(CFA_XSP16, literal(-6)))
          CFI V3 load(1, XDATA, add(CFA_XSP16, literal(-7)))
          CFI V2 load(1, XDATA, add(CFA_XSP16, literal(-8)))
          CFI V1 load(1, XDATA, add(CFA_XSP16, literal(-9)))
          CFI V0 load(1, XDATA, add(CFA_XSP16, literal(-10)))
          CFI VB load(1, XDATA, add(CFA_XSP16, literal(-11)))
          CFI R6 load(1, XDATA, add(CFA_XSP16, literal(-12)))
          CFI CFA_SP SP+0
          CFI CFA_XSP16 add(XSP16, 12)
        ; Saved register size: 12
        ; Auto size: 0
        MOV     A,R2
        MOV     R6,A
        MOV     A,R3
        SJMP    ??findItem_0
//  652   uint16 off;
//  653   uint8 pg;
//  654 
//  655   for ( pg = OSAL_NV_PAGE_BEG; pg <= OSAL_NV_PAGE_END; pg++ )
//  656   {
//  657     if ( (off = initPage( pg, id, FALSE )) != OSAL_NV_ITEM_NULL )
//  658     {
//  659       findPg = pg;
//  660       return off;
//  661     }
//  662   }
//  663 
//  664   // Now attempt to find the item as the "old" item of a failed/interrupted NV write.
//  665   if ( (id & OSAL_NV_SOURCE_ID) == 0 )
//  666   {
//  667     return findItem( id | OSAL_NV_SOURCE_ID );
??findItem_1:
        MOV     A,#-0x80
        ORL     A,R7
??findItem_0:
        MOV     R7,A
//  668   }
        MOV     ?V0,#0x79
??findItem_2:
        ; Setup parameters for call to function initPage
        MOV     R4,#0x0
        MOV     A,R6
        MOV     R2,A
        MOV     A,R7
        MOV     R3,A
        MOV     R1,?V0
        LCALL   `??initPage::?relay` ; Banked call to: initPage
        MOV     A,R2
        ORL     A,R3
        JZ      ??findItem_3
        MOV     A,?V0
        MOV     DPTR,#findPg
        MOVX    @DPTR,A
        SJMP    ??findItem_4
??findItem_3:
        INC     ?V0
        MOV     A,?V0
        CLR     C
        SUBB    A,#0x7f
        JC      ??findItem_2
        MOV     A,R7
        ANL     A,#0x80
        JZ      ??findItem_1
//  669   else
//  670   {
//  671     findPg = OSAL_NV_PAGE_NULL;
        MOV     DPTR,#findPg
        CLR     A
        MOVX    @DPTR,A
//  672     return OSAL_NV_ITEM_NULL;
        MOV     R2,A
        MOV     R3,A
//  673   }
??findItem_4:
        LJMP    ??Subroutine48_0 & 0xFFFF
//  674 }
          CFI EndBlock cfiBlock37
//  675 
//  676 /*********************************************************************
//  677  * @fn      initItem
//  678  *
//  679  * @brief   An NV item is created and initialized with the data passed to the function, if any.
//  680  *
//  681  * @param   flag - TRUE if the 'buf' parameter contains data for the call to writeItem().
//  682  *                 (i.e. if invoked from osal_nv_item_init() ).
//  683  *                 FALSE if writeItem() should just write the header and the 'buf' parameter
//  684  *                 is ok to use as a return value of the page number to be cleaned with
//  685  *                 COMPACT_PAGE_CLEANUP().
//  686  *                 (i.e. if invoked from osal_nv_write() ).
//  687  * @param   id  - Valid NV item Id.
//  688  * @param   len - Item data length.
//  689  * @param  *buf - Pointer to item initalization data. Set to NULL if none.
//  690  *
//  691  * @return  The OSAL Nv page number if item write and read back checksums ok;
//  692  *          OSAL_NV_PAGE_NULL otherwise.
//  693  */

        RSEG BANKED_CODE:CODE:NOROOT(0)
//  694 static uint8 initItem( uint8 flag, uint16 id, uint16 len, void *buf )
initItem:
          CFI Block cfiBlock38 Using cfiCommon0
          CFI Function initItem
        CODE
//  695 {
        FUNCALL initItem, HalFlashRead
        LOCFRAME ISTACK, 0, STACK
        LOCFRAME PSTACK, 0, STACK
        LOCFRAME XSTACK, 42, STACK
        LOCFRAME IOVERLAY, 0, STATIC
        LOCFRAME DOVERLAY, 0, STATIC
        ARGFRAME ISTACK, 0, STACK
        ARGFRAME PSTACK, 0, STACK
        ARGFRAME XSTACK, 42, STACK
        ARGFRAME IOVERLAY, 0, STATIC
        ARGFRAME DOVERLAY, 0, STATIC
        FUNCALL initItem, HalFlashWrite
        LOCFRAME ISTACK, 0, STACK
        LOCFRAME PSTACK, 0, STACK
        LOCFRAME XSTACK, 42, STACK
        LOCFRAME IOVERLAY, 0, STATIC
        LOCFRAME DOVERLAY, 0, STATIC
        ARGFRAME ISTACK, 0, STACK
        ARGFRAME PSTACK, 0, STACK
        ARGFRAME XSTACK, 42, STACK
        ARGFRAME IOVERLAY, 0, STATIC
        ARGFRAME DOVERLAY, 0, STATIC
        FUNCALL initItem, compactPage
        LOCFRAME ISTACK, 0, STACK
        LOCFRAME PSTACK, 0, STACK
        LOCFRAME XSTACK, 40, STACK
        LOCFRAME IOVERLAY, 0, STATIC
        LOCFRAME DOVERLAY, 0, STATIC
        ARGFRAME ISTACK, 0, STACK
        ARGFRAME PSTACK, 0, STACK
        ARGFRAME XSTACK, 40, STACK
        ARGFRAME IOVERLAY, 0, STATIC
        ARGFRAME DOVERLAY, 0, STATIC
        FUNCALL initItem, writeItem
        LOCFRAME ISTACK, 0, STACK
        LOCFRAME PSTACK, 0, STACK
        LOCFRAME XSTACK, 43, STACK
        LOCFRAME IOVERLAY, 0, STATIC
        LOCFRAME DOVERLAY, 0, STATIC
        ARGFRAME ISTACK, 0, STACK
        ARGFRAME PSTACK, 0, STACK
        ARGFRAME XSTACK, 43, STACK
        ARGFRAME IOVERLAY, 0, STATIC
        ARGFRAME DOVERLAY, 0, STATIC
        FUNCALL initItem, HalFlashWrite
        LOCFRAME ISTACK, 0, STACK
        LOCFRAME PSTACK, 0, STACK
        LOCFRAME XSTACK, 42, STACK
        LOCFRAME IOVERLAY, 0, STATIC
        LOCFRAME DOVERLAY, 0, STATIC
        ARGFRAME ISTACK, 0, STACK
        ARGFRAME PSTACK, 0, STACK
        ARGFRAME XSTACK, 42, STACK
        ARGFRAME IOVERLAY, 0, STATIC
        ARGFRAME DOVERLAY, 0, STATIC
        FUNCALL initItem, erasePage
        LOCFRAME ISTACK, 0, STACK
        LOCFRAME PSTACK, 0, STACK
        LOCFRAME XSTACK, 40, STACK
        LOCFRAME IOVERLAY, 0, STATIC
        LOCFRAME DOVERLAY, 0, STATIC
        ARGFRAME ISTACK, 0, STACK
        ARGFRAME PSTACK, 0, STACK
        ARGFRAME XSTACK, 40, STACK
        ARGFRAME IOVERLAY, 0, STATIC
        ARGFRAME DOVERLAY, 0, STATIC
        FUNCALL initItem, writeItem
        LOCFRAME ISTACK, 0, STACK
        LOCFRAME PSTACK, 0, STACK
        LOCFRAME XSTACK, 43, STACK
        LOCFRAME IOVERLAY, 0, STATIC
        LOCFRAME DOVERLAY, 0, STATIC
        ARGFRAME ISTACK, 0, STACK
        ARGFRAME PSTACK, 0, STACK
        ARGFRAME XSTACK, 43, STACK
        ARGFRAME IOVERLAY, 0, STATIC
        ARGFRAME DOVERLAY, 0, STATIC
        REQUIRE ?V0
        REQUIRE ?V1
        REQUIRE ?V2
        REQUIRE ?V3
        REQUIRE ?V4
        REQUIRE ?V5
        REQUIRE ?V6
        REQUIRE ?V7
        REQUIRE ?V8
        REQUIRE ?V9
        MOV     A,#-0x12
        LCALL   ?BANKED_ENTER_XDATA
          CFI DPH0 load(1, XDATA, add(CFA_XSP16, literal(-1)))
          CFI DPL0 load(1, XDATA, add(CFA_XSP16, literal(-2)))
          CFI ?BRET_EXT load(1, XDATA, add(CFA_XSP16, literal(-3)))
          CFI ?RET_HIGH load(1, XDATA, add(CFA_XSP16, literal(-4)))
          CFI ?RET_LOW load(1, XDATA, add(CFA_XSP16, literal(-5)))
          CFI R7 load(1, XDATA, add(CFA_XSP16, literal(-6)))
          CFI V9 load(1, XDATA, add(CFA_XSP16, literal(-7)))
          CFI V8 load(1, XDATA, add(CFA_XSP16, literal(-8)))
          CFI V7 load(1, XDATA, add(CFA_XSP16, literal(-9)))
          CFI V6 load(1, XDATA, add(CFA_XSP16, literal(-10)))
          CFI V5 load(1, XDATA, add(CFA_XSP16, literal(-11)))
          CFI V4 load(1, XDATA, add(CFA_XSP16, literal(-12)))
          CFI V3 load(1, XDATA, add(CFA_XSP16, literal(-13)))
          CFI V2 load(1, XDATA, add(CFA_XSP16, literal(-14)))
          CFI V1 load(1, XDATA, add(CFA_XSP16, literal(-15)))
          CFI V0 load(1, XDATA, add(CFA_XSP16, literal(-16)))
          CFI VB load(1, XDATA, add(CFA_XSP16, literal(-17)))
          CFI R6 load(1, XDATA, add(CFA_XSP16, literal(-18)))
          CFI CFA_SP SP+0
          CFI CFA_XSP16 add(XSP16, 18)
        ; Saved register size: 18
        ; Auto size: 22
        MOV     A,#-0x16
        LCALL   ?ALLOC_XSTACK8
          CFI CFA_XSP16 add(XSP16, 40)
        MOV     ?V4,R1
        MOV     ?V2,R2
        MOV     ?V3,R3
        MOV     ?V0,R4
        MOV     ?V1,R5
//  696   uint16 sz = OSAL_NV_ITEM_SIZE( len );
        CLR     C
        MOV     A,R4
        SUBB    A,#-0xc
        MOV     A,R5
        SUBB    A,#-0x1
        JC      ??initItem_0
        MOV     DPL,?XSP + 0
        MOV     DPH,?XSP + 1
        MOV     A,#-0x4
        MOVX    @DPTR,A
        INC     DPTR
        MOV     A,#-0x1
        SJMP    ??initItem_1
??initItem_0:
        MOV     A,R4
        ADD     A,#0x3
        MOV     R0,A
        CLR     A
        ADDC    A,?V1
        MOV     R1,A
        MOV     A,R0
        ANL     A,#0xfc
        ADD     A,#0x8
        JNC     ??initItem_2
        INC     R1
??initItem_2:
        MOV     DPL,?XSP + 0
        MOV     DPH,?XSP + 1
        MOVX    @DPTR,A
        INC     DPTR
        MOV     A,R1
??initItem_1:
        MOVX    @DPTR,A
//  697   uint8 rtrn = OSAL_NV_PAGE_NULL;
        MOV     R7,#0x0
//  698   uint8 cnt = OSAL_NV_PAGES_USED;
        MOV     R4,#0x6
//  699   uint8 pg = pgRes+1;  // Set to 1 after the reserve page to even wear across all available pages.
        MOV     DPTR,#pgRes
        MOVX    A,@DPTR
        INC     A
        MOV     R6,A
//  700 
//  701   do {
//  702     if (pg >= OSAL_NV_PAGE_BEG+OSAL_NV_PAGES_USED)
??initItem_3:
        MOV     A,R6
        CLR     C
        SUBB    A,#0x7f
        JC      ??initItem_4
//  703     {
//  704       pg = OSAL_NV_PAGE_BEG;
        MOV     R6,#0x79
//  705     }
//  706     if ( pg != pgRes )
??initItem_4:
        MOV     DPTR,#pgRes
        MOVX    A,@DPTR
        XRL     A,R6
        JZ      ??initItem_5
//  707     {
//  708       uint8 idx = pg - OSAL_NV_PAGE_BEG;
        MOV     A,#-0x79
        ADD     A,R6
        MOV     R0,A
//  709       if ( sz <= (OSAL_NV_PAGE_SIZE - pgOff[idx] + pgLost[idx]) )
        LCALL   ?Subroutine31 & 0xFFFF
//  710       {
//  711         break;
//  712       }
//  713     }
??CrossCallReturnLabel_60:
        MOV     A,#pgOff & 0xff
        ADD     A,R0
        MOV     DPL,A
        MOV     A,#(pgOff >> 8) & 0xff
        LCALL   ?Subroutine20 & 0xFFFF
??CrossCallReturnLabel_104:
        CLR     A
        CLR     C
        SUBB    A,R2
        MOV     R2,A
        MOV     A,#0x8
        SUBB    A,R3
        MOV     R3,A
        LCALL   ?Subroutine32 & 0xFFFF
??CrossCallReturnLabel_62:
        MOVX    A,@DPTR
        ADD     A,R2
        MOV     R2,A
        INC     DPTR
        MOVX    A,@DPTR
        ADDC    A,R3
        LCALL   ?Subroutine23 & 0xFFFF
??CrossCallReturnLabel_33:
        JNC     ??initItem_6
//  714     pg++;
??initItem_5:
        INC     R6
//  715   } while (--cnt);
        DEC     R4
        MOV     A,R4
        JNZ     ??initItem_3
        LJMP    ??initItem_7 & 0xFFFF
//  716 
//  717   if (cnt)
??initItem_6:
        MOV     A,R4
        JNZ     $+5
        LJMP    ??initItem_7 & 0xFFFF
        MOV     A,#0x28
        LCALL   ?XSTACK_DISP0_8
        MOVX    A,@DPTR
        MOV     ?V6,A
        INC     DPTR
        MOVX    A,@DPTR
        MOV     ?V7,A
//  718   {
//  719     // Item fits if an old page is compacted.
//  720     if ( sz > (OSAL_NV_PAGE_SIZE - pgOff[pg - OSAL_NV_PAGE_BEG]) )
        MOV     A,R6
        LCALL   ?Subroutine30 & 0xFFFF
??CrossCallReturnLabel_57:
        LCALL   ?Subroutine28 & 0xFFFF
??CrossCallReturnLabel_47:
        MOV     R2,A
        MOV     A,#0x8
        SUBB    A,R1
        LCALL   ?Subroutine23 & 0xFFFF
??CrossCallReturnLabel_34:
        JC      $+5
        LJMP    ??initItem_8 & 0xFFFF
//  721     {
//  722       osalNvPgHdr_t pgHdr;
//  723 
//  724       /* Prevent excessive re-writes to page header caused by numerous, rapid, & successive
//  725        * OSAL_Nv interruptions caused by resets.
//  726        */
//  727       HalFlashRead(pg, OSAL_NV_PAGE_HDR_OFFSET, (uint8 *)(&pgHdr), OSAL_NV_PAGE_HDR_SIZE);
        ; Setup parameters for call to function HalFlashRead
        MOV     ?V8,#0x8
        MOV     ?V9,R7
        MOV     R0,#?V8
        LCALL   ?PUSH_XSTACK_I_TWO
          CFI CFA_XSP16 add(XSP16, 42)
        MOV     A,#0x10
        LCALL   ?XSTACK_DISP102_8
        MOV     R2,#0x0
        MOV     R3,#0x0
        MOV     A,R6
        MOV     R1,A
        LCALL   `??HalFlashRead::?relay`; Banked call to: HalFlashRead
        MOV     A,#0x2
        LCALL   ?DEALLOC_XSTACK8
          CFI CFA_XSP16 add(XSP16, 40)
//  728       if ( pgHdr.xfer == OSAL_NV_ERASED_ID )
        MOV     A,#0x12
        LCALL   ?XSTACK_DISP0_8
        MOVX    A,@DPTR
        CPL     A
        JNZ     ??initItem_9
        INC     DPTR
        MOVX    A,@DPTR
        CPL     A
??initItem_9:
        JNZ     ??initItem_10
//  729       {
//  730         // Mark the old page as being in process of compaction.
//  731         sz = OSAL_NV_ZEROED_ID;
        MOV     DPL,?XSP + 0
        MOV     DPH,?XSP + 1
        CLR     A
        MOVX    @DPTR,A
        INC     DPTR
        LCALL   ?Subroutine13 & 0xFFFF
??CrossCallReturnLabel_11:
        PUSH    A
          CFI CFA_SP SP+-1
        MOV     A,#0x2
        LCALL   ?XSTACK_DISP0_8
        POP     A
          CFI CFA_SP SP+0
        MOVX    @DPTR,A
        MOV     A,#0x1
        LCALL   ?XSTACK_DISP0_8
        MOVX    A,@DPTR
        PUSH    A
          CFI CFA_SP SP+-1
        MOV     A,#0x3
        LCALL   ?XSTACK_DISP0_8
        POP     A
          CFI CFA_SP SP+0
        MOVX    @DPTR,A
        MOV     A,#0x4
        LCALL   ?XSTACK_DISP0_8
        MOV     A,#-0x1
        MOVX    @DPTR,A
        MOV     A,#0x5
        LCALL   ?XSTACK_DISP0_8
        MOV     A,#-0x1
        MOVX    @DPTR,A
        ; Setup parameters for call to function HalFlashWrite
        MOV     ?V8,#0x1
        MOV     R0,#?V8
        LCALL   ?PUSH_XSTACK_I_TWO
          CFI CFA_XSP16 add(XSP16, 42)
        MOV     A,#0x4
        LCALL   ?XSTACK_DISP102_8
        MOV     ?V8,R6
        MOV     A,#0x9
        MOV     R0,#?V8
        LCALL   ?S_SHL
        ADD     A,#0x1
        MOV     R2,A
        CLR     A
        ADDC    A,?V9
        MOV     R3,A
        LCALL   `??HalFlashWrite::?relay`; Banked call to: HalFlashWrite
        MOV     A,#0x2
        LCALL   ?DEALLOC_XSTACK8
          CFI CFA_XSP16 add(XSP16, 40)
//  732         writeWordH( pg, OSAL_NV_PG_XFER, (uint8*)(&sz) );
//  733       }
//  734 
//  735       /* First the old page is compacted, then the new item will be the last one written to what
//  736        * had been the reserved page.
//  737        */
//  738       if (compactPage( pg, id ))
??initItem_10:
        ; Setup parameters for call to function compactPage
        MOV     R2,?V2
        MOV     R3,?V3
        MOV     A,R6
        MOV     R1,A
        LCALL   `??compactPage::?relay`; Banked call to: compactPage
        MOV     A,R1
        JNZ     $+5
        LJMP    ??initItem_7 & 0xFFFF
//  739       {
//  740         if ( writeItem( pgRes, id, len, buf, flag ) )
        ; Setup parameters for call to function writeItem
        MOV     A,?V4
        MOV     ?V5,A
        MOV     R0,#?V5
        LCALL   ?PUSH_XSTACK_I_ONE
          CFI CFA_XSP16 add(XSP16, 41)
        MOV     R0,#?V6
        LCALL   ?PUSH_XSTACK_I_TWO
          CFI CFA_XSP16 add(XSP16, 43)
        MOV     R4,?V0
        MOV     R5,?V1
        MOV     R2,?V2
        MOV     R3,?V3
        MOV     DPTR,#pgRes
        MOVX    A,@DPTR
        MOV     R1,A
        LCALL   `??writeItem::?relay`; Banked call to: writeItem
        MOV     A,#0x3
        LCALL   ?DEALLOC_XSTACK8
          CFI CFA_XSP16 add(XSP16, 40)
        MOV     A,R1
        JZ      ??initItem_11
//  741         {
//  742           rtrn = pgRes;
        MOV     DPTR,#pgRes
        MOVX    A,@DPTR
        MOV     R7,A
//  743         }
//  744 
//  745         if ( flag == FALSE )
??initItem_11:
        MOV     A,?V4
        JNZ     ??initItem_12
//  746         {
//  747           /* Overload 'buf' as an OUT parameter to pass back to the calling function
//  748            * the old page to be cleaned up.
//  749            */
//  750           *(uint8 *)buf = pg;
        MOV     A,R6
        MOV     DPL,?V6
        MOV     DPH,?V7
        SJMP    ??initItem_13
//  751         }
//  752         else
//  753         {
//  754           /* Safe to do the compacted page cleanup even if writeItem() above failed because the
//  755            * item does not yet exist since this call with flag==TRUE is from osal_nv_item_init().
//  756            */
//  757           COMPACT_PAGE_CLEANUP( pg );
??initItem_12:
        MOV     A,#0x6
        LCALL   ?XSTACK_DISP0_8
        CLR     A
        MOVX    @DPTR,A
        INC     DPTR
        MOVX    @DPTR,A
        MOV     A,#0x8
        LCALL   ?XSTACK_DISP0_8
        LCALL   ?Subroutine8 & 0xFFFF
??CrossCallReturnLabel_1:
        LCALL   ?PUSH_XSTACK_I_TWO
          CFI CFA_XSP16 add(XSP16, 42)
        MOV     A,#0x8
        LCALL   ?XSTACK_DISP102_8
        LCALL   ?Subroutine21 & 0xFFFF
??CrossCallReturnLabel_31:
        LCALL   ?S_SHL
        MOV     R2,A
        MOV     R3,?V1
        LCALL   `??HalFlashWrite::?relay`; Banked call to: HalFlashWrite
        MOV     A,#0x2
        LCALL   ?DEALLOC_XSTACK8
          CFI CFA_XSP16 add(XSP16, 40)
        ; Setup parameters for call to function erasePage
        MOV     A,R6
        MOV     R1,A
        LCALL   `??erasePage::?relay`; Banked call to: erasePage
        MOV     A,R6
        MOV     DPTR,#pgRes
??initItem_13:
        MOVX    @DPTR,A
        SJMP    ??initItem_7
//  758         }
//  759       }
//  760     }
//  761     else
//  762     {
//  763       if ( writeItem( pg, id, len, buf, flag ) )
??initItem_8:
        ; Setup parameters for call to function writeItem
        MOV     A,?V4
        MOV     ?V5,A
        MOV     R0,#?V5
        LCALL   ?PUSH_XSTACK_I_ONE
          CFI CFA_XSP16 add(XSP16, 41)
        MOV     R0,#?V6
        LCALL   ?PUSH_XSTACK_I_TWO
          CFI CFA_XSP16 add(XSP16, 43)
        MOV     R4,?V0
        MOV     R2,?V2
        MOV     R3,?V3
        MOV     A,R6
        MOV     R1,A
        LCALL   `??writeItem::?relay`; Banked call to: writeItem
        MOV     A,#0x3
        LCALL   ?DEALLOC_XSTACK8
          CFI CFA_XSP16 add(XSP16, 40)
        MOV     A,R1
        JZ      ??initItem_7
//  764       {
//  765         rtrn = pg;
        MOV     A,R6
        MOV     R7,A
//  766       }
//  767     }
//  768   }
//  769 
//  770   return rtrn;
??initItem_7:
        MOV     A,R7
        MOV     R1,A
        MOV     A,#0x16
          CFI EndBlock cfiBlock38
        REQUIRE ?Subroutine4
        ; // Fall through to label ?Subroutine4
//  771 }

        RSEG BANKED_CODE:CODE:NOROOT(0)
?Subroutine4:
          CFI Block cfiBlock39 Using cfiCommon0
          CFI NoFunction
          CFI CFA_SP SP+0
          CFI CFA_XSP16 add(XSP16, 40)
          CFI VB load(1, XDATA, add(CFA_XSP16, literal(-17)))
          CFI DPL0 load(1, XDATA, add(CFA_XSP16, literal(-2)))
          CFI DPH0 load(1, XDATA, add(CFA_XSP16, literal(-1)))
          CFI R6 load(1, XDATA, add(CFA_XSP16, literal(-18)))
          CFI R7 load(1, XDATA, add(CFA_XSP16, literal(-6)))
          CFI V0 load(1, XDATA, add(CFA_XSP16, literal(-16)))
          CFI V1 load(1, XDATA, add(CFA_XSP16, literal(-15)))
          CFI V2 load(1, XDATA, add(CFA_XSP16, literal(-14)))
          CFI V3 load(1, XDATA, add(CFA_XSP16, literal(-13)))
          CFI V4 load(1, XDATA, add(CFA_XSP16, literal(-12)))
          CFI V5 load(1, XDATA, add(CFA_XSP16, literal(-11)))
          CFI V6 load(1, XDATA, add(CFA_XSP16, literal(-10)))
          CFI V7 load(1, XDATA, add(CFA_XSP16, literal(-9)))
          CFI V8 load(1, XDATA, add(CFA_XSP16, literal(-8)))
          CFI V9 load(1, XDATA, add(CFA_XSP16, literal(-7)))
          CFI ?BRET_EXT load(1, XDATA, add(CFA_XSP16, literal(-3)))
          CFI ?RET_HIGH load(1, XDATA, add(CFA_XSP16, literal(-4)))
          CFI ?RET_LOW load(1, XDATA, add(CFA_XSP16, literal(-5)))
          CFI Invalid
        LCALL   ?DEALLOC_XSTACK8
          CFI CFA_XSP16 add(XSP16, 18)
          CFI Valid
        MOV     R7,#0xa
        LJMP    ?BANKED_LEAVE_XDATA
          CFI CFA_SP SP+-3
          CFI CFA_XSP16 XSP16+0
          CFI VB SameValue
          CFI DPL0 SameValue
          CFI DPH0 SameValue
          CFI R6 SameValue
          CFI R7 SameValue
          CFI V0 SameValue
          CFI V1 SameValue
          CFI V2 SameValue
          CFI V3 SameValue
          CFI V4 SameValue
          CFI V5 SameValue
          CFI V6 SameValue
          CFI V7 SameValue
          CFI V8 SameValue
          CFI V9 SameValue
          CFI ?BRET_EXT Frame(CFA_SP, 3)
          CFI ?RET_HIGH Frame(CFA_SP, 2)
          CFI ?RET_LOW Frame(CFA_SP, 1)
          CFI EndBlock cfiBlock39

        RSEG BANKED_CODE:CODE:NOROOT(0)
?Subroutine32:
          CFI Block cfiCond40 Using cfiCommon0
          CFI Function initNV
          CFI Conditional ??CrossCallReturnLabel_61
          CFI R6 load(1, XDATA, add(CFA_XSP16, literal(-12)))
          CFI VB load(1, XDATA, add(CFA_XSP16, literal(-11)))
          CFI V0 load(1, XDATA, add(CFA_XSP16, literal(-10)))
          CFI V1 load(1, XDATA, add(CFA_XSP16, literal(-9)))
          CFI V2 load(1, XDATA, add(CFA_XSP16, literal(-8)))
          CFI V3 load(1, XDATA, add(CFA_XSP16, literal(-7)))
          CFI R7 load(1, XDATA, add(CFA_XSP16, literal(-6)))
          CFI ?RET_LOW load(1, XDATA, add(CFA_XSP16, literal(-5)))
          CFI ?RET_HIGH load(1, XDATA, add(CFA_XSP16, literal(-4)))
          CFI ?BRET_EXT load(1, XDATA, add(CFA_XSP16, literal(-3)))
          CFI DPL0 load(1, XDATA, add(CFA_XSP16, literal(-2)))
          CFI DPH0 load(1, XDATA, add(CFA_XSP16, literal(-1)))
          CFI CFA_SP SP+-2
          CFI CFA_XSP16 add(XSP16, 28)
          CFI Block cfiCond41 Using cfiCommon0
          CFI (cfiCond41) Function initItem
          CFI (cfiCond41) Conditional ??CrossCallReturnLabel_62
          CFI (cfiCond41) R6 load(1, XDATA, add(CFA_XSP16, literal(-18)))
          CFI (cfiCond41) VB load(1, XDATA, add(CFA_XSP16, literal(-17)))
          CFI (cfiCond41) V0 load(1, XDATA, add(CFA_XSP16, literal(-16)))
          CFI (cfiCond41) V1 load(1, XDATA, add(CFA_XSP16, literal(-15)))
          CFI (cfiCond41) V2 load(1, XDATA, add(CFA_XSP16, literal(-14)))
          CFI (cfiCond41) V3 load(1, XDATA, add(CFA_XSP16, literal(-13)))
          CFI (cfiCond41) V4 load(1, XDATA, add(CFA_XSP16, literal(-12)))
          CFI (cfiCond41) V5 load(1, XDATA, add(CFA_XSP16, literal(-11)))
          CFI (cfiCond41) V6 load(1, XDATA, add(CFA_XSP16, literal(-10)))
          CFI (cfiCond41) V7 load(1, XDATA, add(CFA_XSP16, literal(-9)))
          CFI (cfiCond41) V8 load(1, XDATA, add(CFA_XSP16, literal(-8)))
          CFI (cfiCond41) V9 load(1, XDATA, add(CFA_XSP16, literal(-7)))
          CFI (cfiCond41) R7 load(1, XDATA, add(CFA_XSP16, literal(-6)))
          CFI (cfiCond41) ?RET_LOW load(1, XDATA, add(CFA_XSP16, literal(-5)))
          CFI (cfiCond41) ?RET_HIGH load(1, XDATA, add(CFA_XSP16, literal(-4)))
          CFI (cfiCond41) ?BRET_EXT load(1, XDATA, add(CFA_XSP16, literal(-3)))
          CFI (cfiCond41) DPL0 load(1, XDATA, add(CFA_XSP16, literal(-2)))
          CFI (cfiCond41) DPH0 load(1, XDATA, add(CFA_XSP16, literal(-1)))
          CFI (cfiCond41) CFA_SP SP+-2
          CFI (cfiCond41) CFA_XSP16 add(XSP16, 40)
          CFI Block cfiPicker42 Using cfiCommon1
          CFI (cfiPicker42) NoFunction
          CFI (cfiPicker42) Picker
        MOV     A,#pgLost & 0xff
        ADD     A,R0
        MOV     DPL,A
        MOV     A,#(pgLost >> 8) & 0xff
        ADDC    A,R1
        MOV     DPH,A
        RET
          CFI (cfiCond40) CFA_SP SP+0
          CFI (cfiCond41) CFA_SP SP+0
          CFI (cfiPicker42) CFA_SP SP+0
          CFI EndBlock cfiCond40
          CFI EndBlock cfiCond41
          CFI EndBlock cfiPicker42

        RSEG BANKED_CODE:CODE:NOROOT(0)
?Subroutine30:
          CFI Block cfiCond43 Using cfiCommon0
          CFI Function compactPage
          CFI Conditional ??CrossCallReturnLabel_56
          CFI R6 load(1, XDATA, add(CFA_XSP16, literal(-22)))
          CFI VB load(1, XDATA, add(CFA_XSP16, literal(-21)))
          CFI V0 load(1, XDATA, add(CFA_XSP16, literal(-20)))
          CFI V1 load(1, XDATA, add(CFA_XSP16, literal(-19)))
          CFI V2 load(1, XDATA, add(CFA_XSP16, literal(-18)))
          CFI V3 load(1, XDATA, add(CFA_XSP16, literal(-17)))
          CFI V4 load(1, XDATA, add(CFA_XSP16, literal(-16)))
          CFI V5 load(1, XDATA, add(CFA_XSP16, literal(-15)))
          CFI V6 load(1, XDATA, add(CFA_XSP16, literal(-14)))
          CFI V7 load(1, XDATA, add(CFA_XSP16, literal(-13)))
          CFI V8 load(1, XDATA, add(CFA_XSP16, literal(-12)))
          CFI V9 load(1, XDATA, add(CFA_XSP16, literal(-11)))
          CFI V10 load(1, XDATA, add(CFA_XSP16, literal(-10)))
          CFI V11 load(1, XDATA, add(CFA_XSP16, literal(-9)))
          CFI V12 load(1, XDATA, add(CFA_XSP16, literal(-8)))
          CFI V13 load(1, XDATA, add(CFA_XSP16, literal(-7)))
          CFI R7 load(1, XDATA, add(CFA_XSP16, literal(-6)))
          CFI ?RET_LOW load(1, XDATA, add(CFA_XSP16, literal(-5)))
          CFI ?RET_HIGH load(1, XDATA, add(CFA_XSP16, literal(-4)))
          CFI ?BRET_EXT load(1, XDATA, add(CFA_XSP16, literal(-3)))
          CFI DPL0 load(1, XDATA, add(CFA_XSP16, literal(-2)))
          CFI DPH0 load(1, XDATA, add(CFA_XSP16, literal(-1)))
          CFI CFA_SP SP+-2
          CFI CFA_XSP16 add(XSP16, 41)
          CFI Block cfiCond44 Using cfiCommon0
          CFI (cfiCond44) Function initItem
          CFI (cfiCond44) Conditional ??CrossCallReturnLabel_57
          CFI (cfiCond44) R6 load(1, XDATA, add(CFA_XSP16, literal(-18)))
          CFI (cfiCond44) VB load(1, XDATA, add(CFA_XSP16, literal(-17)))
          CFI (cfiCond44) V0 load(1, XDATA, add(CFA_XSP16, literal(-16)))
          CFI (cfiCond44) V1 load(1, XDATA, add(CFA_XSP16, literal(-15)))
          CFI (cfiCond44) V2 load(1, XDATA, add(CFA_XSP16, literal(-14)))
          CFI (cfiCond44) V3 load(1, XDATA, add(CFA_XSP16, literal(-13)))
          CFI (cfiCond44) V4 load(1, XDATA, add(CFA_XSP16, literal(-12)))
          CFI (cfiCond44) V5 load(1, XDATA, add(CFA_XSP16, literal(-11)))
          CFI (cfiCond44) V6 load(1, XDATA, add(CFA_XSP16, literal(-10)))
          CFI (cfiCond44) V7 load(1, XDATA, add(CFA_XSP16, literal(-9)))
          CFI (cfiCond44) V8 load(1, XDATA, add(CFA_XSP16, literal(-8)))
          CFI (cfiCond44) V9 load(1, XDATA, add(CFA_XSP16, literal(-7)))
          CFI (cfiCond44) R7 load(1, XDATA, add(CFA_XSP16, literal(-6)))
          CFI (cfiCond44) ?RET_LOW load(1, XDATA, add(CFA_XSP16, literal(-5)))
          CFI (cfiCond44) ?RET_HIGH load(1, XDATA, add(CFA_XSP16, literal(-4)))
          CFI (cfiCond44) ?BRET_EXT load(1, XDATA, add(CFA_XSP16, literal(-3)))
          CFI (cfiCond44) DPL0 load(1, XDATA, add(CFA_XSP16, literal(-2)))
          CFI (cfiCond44) DPH0 load(1, XDATA, add(CFA_XSP16, literal(-1)))
          CFI (cfiCond44) CFA_SP SP+-2
          CFI (cfiCond44) CFA_XSP16 add(XSP16, 40)
          CFI Block cfiPicker45 Using cfiCommon1
          CFI (cfiPicker45) NoFunction
          CFI (cfiPicker45) Picker
        ADD     A,0xE0 /* A   */
        LCALL   ?Subroutine46 & 0xFFFF
??CrossCallReturnLabel_95:
        RET
          CFI (cfiCond43) CFA_SP SP+0
          CFI (cfiCond44) CFA_SP SP+0
          CFI (cfiPicker45) CFA_SP SP+0
          CFI EndBlock cfiCond43
          CFI EndBlock cfiCond44
          CFI EndBlock cfiPicker45

        RSEG BANKED_CODE:CODE:NOROOT(0)
?Subroutine46:
          CFI Block cfiCond46 Using cfiCommon0
          CFI Function erasePage
          CFI Conditional ??CrossCallReturnLabel_94
          CFI R6 load(1, XDATA, add(CFA_XSP16, literal(-9)))
          CFI VB load(1, XDATA, add(CFA_XSP16, literal(-8)))
          CFI V0 load(1, XDATA, add(CFA_XSP16, literal(-7)))
          CFI R7 load(1, XDATA, add(CFA_XSP16, literal(-6)))
          CFI ?RET_LOW load(1, XDATA, add(CFA_XSP16, literal(-5)))
          CFI ?RET_HIGH load(1, XDATA, add(CFA_XSP16, literal(-4)))
          CFI ?BRET_EXT load(1, XDATA, add(CFA_XSP16, literal(-3)))
          CFI DPL0 load(1, XDATA, add(CFA_XSP16, literal(-2)))
          CFI DPH0 load(1, XDATA, add(CFA_XSP16, literal(-1)))
          CFI CFA_SP SP+-2
          CFI CFA_XSP16 add(XSP16, 9)
          CFI Block cfiCond47 Using cfiCommon0
          CFI (cfiCond47) Function compactPage
          CFI (cfiCond47) Conditional ??CrossCallReturnLabel_95, ??CrossCallReturnLabel_56
          CFI (cfiCond47) R6 load(1, XDATA, add(CFA_XSP16, literal(-22)))
          CFI (cfiCond47) VB load(1, XDATA, add(CFA_XSP16, literal(-21)))
          CFI (cfiCond47) V0 load(1, XDATA, add(CFA_XSP16, literal(-20)))
          CFI (cfiCond47) V1 load(1, XDATA, add(CFA_XSP16, literal(-19)))
          CFI (cfiCond47) V2 load(1, XDATA, add(CFA_XSP16, literal(-18)))
          CFI (cfiCond47) V3 load(1, XDATA, add(CFA_XSP16, literal(-17)))
          CFI (cfiCond47) V4 load(1, XDATA, add(CFA_XSP16, literal(-16)))
          CFI (cfiCond47) V5 load(1, XDATA, add(CFA_XSP16, literal(-15)))
          CFI (cfiCond47) V6 load(1, XDATA, add(CFA_XSP16, literal(-14)))
          CFI (cfiCond47) V7 load(1, XDATA, add(CFA_XSP16, literal(-13)))
          CFI (cfiCond47) V8 load(1, XDATA, add(CFA_XSP16, literal(-12)))
          CFI (cfiCond47) V9 load(1, XDATA, add(CFA_XSP16, literal(-11)))
          CFI (cfiCond47) V10 load(1, XDATA, add(CFA_XSP16, literal(-10)))
          CFI (cfiCond47) V11 load(1, XDATA, add(CFA_XSP16, literal(-9)))
          CFI (cfiCond47) V12 load(1, XDATA, add(CFA_XSP16, literal(-8)))
          CFI (cfiCond47) V13 load(1, XDATA, add(CFA_XSP16, literal(-7)))
          CFI (cfiCond47) R7 load(1, XDATA, add(CFA_XSP16, literal(-6)))
          CFI (cfiCond47) ?RET_LOW load(1, XDATA, add(CFA_XSP16, literal(-5)))
          CFI (cfiCond47) ?RET_HIGH load(1, XDATA, add(CFA_XSP16, literal(-4)))
          CFI (cfiCond47) ?BRET_EXT load(1, XDATA, add(CFA_XSP16, literal(-3)))
          CFI (cfiCond47) DPL0 load(1, XDATA, add(CFA_XSP16, literal(-2)))
          CFI (cfiCond47) DPH0 load(1, XDATA, add(CFA_XSP16, literal(-1)))
          CFI (cfiCond47) CFA_SP SP+-4
          CFI (cfiCond47) CFA_XSP16 add(XSP16, 41)
          CFI Block cfiCond48 Using cfiCommon0
          CFI (cfiCond48) Function initItem
          CFI (cfiCond48) Conditional ??CrossCallReturnLabel_95, ??CrossCallReturnLabel_57
          CFI (cfiCond48) R6 load(1, XDATA, add(CFA_XSP16, literal(-18)))
          CFI (cfiCond48) VB load(1, XDATA, add(CFA_XSP16, literal(-17)))
          CFI (cfiCond48) V0 load(1, XDATA, add(CFA_XSP16, literal(-16)))
          CFI (cfiCond48) V1 load(1, XDATA, add(CFA_XSP16, literal(-15)))
          CFI (cfiCond48) V2 load(1, XDATA, add(CFA_XSP16, literal(-14)))
          CFI (cfiCond48) V3 load(1, XDATA, add(CFA_XSP16, literal(-13)))
          CFI (cfiCond48) V4 load(1, XDATA, add(CFA_XSP16, literal(-12)))
          CFI (cfiCond48) V5 load(1, XDATA, add(CFA_XSP16, literal(-11)))
          CFI (cfiCond48) V6 load(1, XDATA, add(CFA_XSP16, literal(-10)))
          CFI (cfiCond48) V7 load(1, XDATA, add(CFA_XSP16, literal(-9)))
          CFI (cfiCond48) V8 load(1, XDATA, add(CFA_XSP16, literal(-8)))
          CFI (cfiCond48) V9 load(1, XDATA, add(CFA_XSP16, literal(-7)))
          CFI (cfiCond48) R7 load(1, XDATA, add(CFA_XSP16, literal(-6)))
          CFI (cfiCond48) ?RET_LOW load(1, XDATA, add(CFA_XSP16, literal(-5)))
          CFI (cfiCond48) ?RET_HIGH load(1, XDATA, add(CFA_XSP16, literal(-4)))
          CFI (cfiCond48) ?BRET_EXT load(1, XDATA, add(CFA_XSP16, literal(-3)))
          CFI (cfiCond48) DPL0 load(1, XDATA, add(CFA_XSP16, literal(-2)))
          CFI (cfiCond48) DPH0 load(1, XDATA, add(CFA_XSP16, literal(-1)))
          CFI (cfiCond48) CFA_SP SP+-4
          CFI (cfiCond48) CFA_XSP16 add(XSP16, 40)
          CFI Block cfiPicker49 Using cfiCommon1
          CFI (cfiPicker49) NoFunction
          CFI (cfiPicker49) Picker
        MOV     R0,A
        CLR     A
        RLC     A
        MOV     R1,A
        MOV     A,#(pgOff + 14) & 0xff
        ADD     A,R0
        MOV     DPL,A
        MOV     A,#((pgOff - 242) >> 8) & 0xff
        ADDC    A,R1
        MOV     DPH,A
        RET
          CFI (cfiCond46) CFA_SP SP+0
          CFI (cfiCond47) CFA_SP SP+-2
          CFI (cfiCond48) CFA_SP SP+-2
          CFI (cfiPicker49) CFA_SP SP+0
          CFI EndBlock cfiCond46
          CFI EndBlock cfiCond47
          CFI EndBlock cfiCond48
          CFI EndBlock cfiPicker49

        RSEG BANKED_CODE:CODE:NOROOT(0)
?Subroutine23:
          CFI Block cfiCond50 Using cfiCommon0
          CFI Function initItem
          CFI Conditional ??CrossCallReturnLabel_33
          CFI R6 load(1, XDATA, add(CFA_XSP16, literal(-18)))
          CFI VB load(1, XDATA, add(CFA_XSP16, literal(-17)))
          CFI V0 load(1, XDATA, add(CFA_XSP16, literal(-16)))
          CFI V1 load(1, XDATA, add(CFA_XSP16, literal(-15)))
          CFI V2 load(1, XDATA, add(CFA_XSP16, literal(-14)))
          CFI V3 load(1, XDATA, add(CFA_XSP16, literal(-13)))
          CFI V4 load(1, XDATA, add(CFA_XSP16, literal(-12)))
          CFI V5 load(1, XDATA, add(CFA_XSP16, literal(-11)))
          CFI V6 load(1, XDATA, add(CFA_XSP16, literal(-10)))
          CFI V7 load(1, XDATA, add(CFA_XSP16, literal(-9)))
          CFI V8 load(1, XDATA, add(CFA_XSP16, literal(-8)))
          CFI V9 load(1, XDATA, add(CFA_XSP16, literal(-7)))
          CFI R7 load(1, XDATA, add(CFA_XSP16, literal(-6)))
          CFI ?RET_LOW load(1, XDATA, add(CFA_XSP16, literal(-5)))
          CFI ?RET_HIGH load(1, XDATA, add(CFA_XSP16, literal(-4)))
          CFI ?BRET_EXT load(1, XDATA, add(CFA_XSP16, literal(-3)))
          CFI DPL0 load(1, XDATA, add(CFA_XSP16, literal(-2)))
          CFI DPH0 load(1, XDATA, add(CFA_XSP16, literal(-1)))
          CFI CFA_SP SP+-2
          CFI CFA_XSP16 add(XSP16, 40)
          CFI Block cfiCond51 Using cfiCommon0
          CFI (cfiCond51) Function initItem
          CFI (cfiCond51) Conditional ??CrossCallReturnLabel_34
          CFI (cfiCond51) R6 load(1, XDATA, add(CFA_XSP16, literal(-18)))
          CFI (cfiCond51) VB load(1, XDATA, add(CFA_XSP16, literal(-17)))
          CFI (cfiCond51) V0 load(1, XDATA, add(CFA_XSP16, literal(-16)))
          CFI (cfiCond51) V1 load(1, XDATA, add(CFA_XSP16, literal(-15)))
          CFI (cfiCond51) V2 load(1, XDATA, add(CFA_XSP16, literal(-14)))
          CFI (cfiCond51) V3 load(1, XDATA, add(CFA_XSP16, literal(-13)))
          CFI (cfiCond51) V4 load(1, XDATA, add(CFA_XSP16, literal(-12)))
          CFI (cfiCond51) V5 load(1, XDATA, add(CFA_XSP16, literal(-11)))
          CFI (cfiCond51) V6 load(1, XDATA, add(CFA_XSP16, literal(-10)))
          CFI (cfiCond51) V7 load(1, XDATA, add(CFA_XSP16, literal(-9)))
          CFI (cfiCond51) V8 load(1, XDATA, add(CFA_XSP16, literal(-8)))
          CFI (cfiCond51) V9 load(1, XDATA, add(CFA_XSP16, literal(-7)))
          CFI (cfiCond51) R7 load(1, XDATA, add(CFA_XSP16, literal(-6)))
          CFI (cfiCond51) ?RET_LOW load(1, XDATA, add(CFA_XSP16, literal(-5)))
          CFI (cfiCond51) ?RET_HIGH load(1, XDATA, add(CFA_XSP16, literal(-4)))
          CFI (cfiCond51) ?BRET_EXT load(1, XDATA, add(CFA_XSP16, literal(-3)))
          CFI (cfiCond51) DPL0 load(1, XDATA, add(CFA_XSP16, literal(-2)))
          CFI (cfiCond51) DPH0 load(1, XDATA, add(CFA_XSP16, literal(-1)))
          CFI (cfiCond51) CFA_SP SP+-2
          CFI (cfiCond51) CFA_XSP16 add(XSP16, 40)
          CFI Block cfiPicker52 Using cfiCommon1
          CFI (cfiPicker52) NoFunction
          CFI (cfiPicker52) Picker
        MOV     R3,A
        MOV     DPL,?XSP + 0
        MOV     DPH,?XSP + 1
        LCALL   ?Subroutine44 & 0xFFFF
??CrossCallReturnLabel_87:
        CLR     C
        MOV     A,R2
        SUBB    A,R0
        MOV     A,R3
        SUBB    A,R1
        RET
          CFI (cfiCond50) CFA_SP SP+0
          CFI (cfiCond51) CFA_SP SP+0
          CFI (cfiPicker52) CFA_SP SP+0
          CFI EndBlock cfiCond50
          CFI EndBlock cfiCond51
          CFI EndBlock cfiPicker52

        RSEG BANKED_CODE:CODE:NOROOT(0)
?Subroutine21:
          CFI Block cfiCond53 Using cfiCommon0
          CFI Function compactPage
          CFI Conditional ??CrossCallReturnLabel_30
          CFI R6 load(1, XDATA, add(CFA_XSP16, literal(-22)))
          CFI VB load(1, XDATA, add(CFA_XSP16, literal(-21)))
          CFI V0 load(1, XDATA, add(CFA_XSP16, literal(-20)))
          CFI V1 load(1, XDATA, add(CFA_XSP16, literal(-19)))
          CFI V2 load(1, XDATA, add(CFA_XSP16, literal(-18)))
          CFI V3 load(1, XDATA, add(CFA_XSP16, literal(-17)))
          CFI V4 load(1, XDATA, add(CFA_XSP16, literal(-16)))
          CFI V5 load(1, XDATA, add(CFA_XSP16, literal(-15)))
          CFI V6 load(1, XDATA, add(CFA_XSP16, literal(-14)))
          CFI V7 load(1, XDATA, add(CFA_XSP16, literal(-13)))
          CFI V8 load(1, XDATA, add(CFA_XSP16, literal(-12)))
          CFI V9 load(1, XDATA, add(CFA_XSP16, literal(-11)))
          CFI V10 load(1, XDATA, add(CFA_XSP16, literal(-10)))
          CFI V11 load(1, XDATA, add(CFA_XSP16, literal(-9)))
          CFI V12 load(1, XDATA, add(CFA_XSP16, literal(-8)))
          CFI V13 load(1, XDATA, add(CFA_XSP16, literal(-7)))
          CFI R7 load(1, XDATA, add(CFA_XSP16, literal(-6)))
          CFI ?RET_LOW load(1, XDATA, add(CFA_XSP16, literal(-5)))
          CFI ?RET_HIGH load(1, XDATA, add(CFA_XSP16, literal(-4)))
          CFI ?BRET_EXT load(1, XDATA, add(CFA_XSP16, literal(-3)))
          CFI DPL0 load(1, XDATA, add(CFA_XSP16, literal(-2)))
          CFI DPH0 load(1, XDATA, add(CFA_XSP16, literal(-1)))
          CFI CFA_SP SP+-2
          CFI CFA_XSP16 add(XSP16, 43)
          CFI Block cfiCond54 Using cfiCommon0
          CFI (cfiCond54) Function initItem
          CFI (cfiCond54) Conditional ??CrossCallReturnLabel_31
          CFI (cfiCond54) R6 load(1, XDATA, add(CFA_XSP16, literal(-18)))
          CFI (cfiCond54) VB load(1, XDATA, add(CFA_XSP16, literal(-17)))
          CFI (cfiCond54) V0 load(1, XDATA, add(CFA_XSP16, literal(-16)))
          CFI (cfiCond54) V1 load(1, XDATA, add(CFA_XSP16, literal(-15)))
          CFI (cfiCond54) V2 load(1, XDATA, add(CFA_XSP16, literal(-14)))
          CFI (cfiCond54) V3 load(1, XDATA, add(CFA_XSP16, literal(-13)))
          CFI (cfiCond54) V4 load(1, XDATA, add(CFA_XSP16, literal(-12)))
          CFI (cfiCond54) V5 load(1, XDATA, add(CFA_XSP16, literal(-11)))
          CFI (cfiCond54) V6 load(1, XDATA, add(CFA_XSP16, literal(-10)))
          CFI (cfiCond54) V7 load(1, XDATA, add(CFA_XSP16, literal(-9)))
          CFI (cfiCond54) V8 load(1, XDATA, add(CFA_XSP16, literal(-8)))
          CFI (cfiCond54) V9 load(1, XDATA, add(CFA_XSP16, literal(-7)))
          CFI (cfiCond54) R7 load(1, XDATA, add(CFA_XSP16, literal(-6)))
          CFI (cfiCond54) ?RET_LOW load(1, XDATA, add(CFA_XSP16, literal(-5)))
          CFI (cfiCond54) ?RET_HIGH load(1, XDATA, add(CFA_XSP16, literal(-4)))
          CFI (cfiCond54) ?BRET_EXT load(1, XDATA, add(CFA_XSP16, literal(-3)))
          CFI (cfiCond54) DPL0 load(1, XDATA, add(CFA_XSP16, literal(-2)))
          CFI (cfiCond54) DPH0 load(1, XDATA, add(CFA_XSP16, literal(-1)))
          CFI (cfiCond54) CFA_SP SP+-2
          CFI (cfiCond54) CFA_XSP16 add(XSP16, 42)
          CFI Block cfiCond55 Using cfiCommon0
          CFI (cfiCond55) Function osal_nv_write
          CFI (cfiCond55) Conditional ??CrossCallReturnLabel_32
          CFI (cfiCond55) R6 load(1, XDATA, add(CFA_XSP16, literal(-24)))
          CFI (cfiCond55) VB load(1, XDATA, add(CFA_XSP16, literal(-23)))
          CFI (cfiCond55) V0 load(1, XDATA, add(CFA_XSP16, literal(-22)))
          CFI (cfiCond55) V1 load(1, XDATA, add(CFA_XSP16, literal(-21)))
          CFI (cfiCond55) V2 load(1, XDATA, add(CFA_XSP16, literal(-20)))
          CFI (cfiCond55) V3 load(1, XDATA, add(CFA_XSP16, literal(-19)))
          CFI (cfiCond55) V4 load(1, XDATA, add(CFA_XSP16, literal(-18)))
          CFI (cfiCond55) V5 load(1, XDATA, add(CFA_XSP16, literal(-17)))
          CFI (cfiCond55) V6 load(1, XDATA, add(CFA_XSP16, literal(-16)))
          CFI (cfiCond55) V7 load(1, XDATA, add(CFA_XSP16, literal(-15)))
          CFI (cfiCond55) V8 load(1, XDATA, add(CFA_XSP16, literal(-14)))
          CFI (cfiCond55) V9 load(1, XDATA, add(CFA_XSP16, literal(-13)))
          CFI (cfiCond55) V10 load(1, XDATA, add(CFA_XSP16, literal(-12)))
          CFI (cfiCond55) V11 load(1, XDATA, add(CFA_XSP16, literal(-11)))
          CFI (cfiCond55) V12 load(1, XDATA, add(CFA_XSP16, literal(-10)))
          CFI (cfiCond55) V13 load(1, XDATA, add(CFA_XSP16, literal(-9)))
          CFI (cfiCond55) V14 load(1, XDATA, add(CFA_XSP16, literal(-8)))
          CFI (cfiCond55) V15 load(1, XDATA, add(CFA_XSP16, literal(-7)))
          CFI (cfiCond55) R7 load(1, XDATA, add(CFA_XSP16, literal(-6)))
          CFI (cfiCond55) ?RET_LOW load(1, XDATA, add(CFA_XSP16, literal(-5)))
          CFI (cfiCond55) ?RET_HIGH load(1, XDATA, add(CFA_XSP16, literal(-4)))
          CFI (cfiCond55) ?BRET_EXT load(1, XDATA, add(CFA_XSP16, literal(-3)))
          CFI (cfiCond55) DPL0 load(1, XDATA, add(CFA_XSP16, literal(-2)))
          CFI (cfiCond55) DPH0 load(1, XDATA, add(CFA_XSP16, literal(-1)))
          CFI (cfiCond55) CFA_SP SP+-2
          CFI (cfiCond55) CFA_XSP16 add(XSP16, 47)
          CFI Block cfiPicker56 Using cfiCommon1
          CFI (cfiPicker56) NoFunction
          CFI (cfiPicker56) Picker
        MOV     DPTR,#pgRes
        MOVX    A,@DPTR
        MOV     ?V0,A
        MOV     A,#0x9
        MOV     R0,#?V0
        RET
          CFI (cfiCond53) CFA_SP SP+0
          CFI (cfiCond54) CFA_SP SP+0
          CFI (cfiCond55) CFA_SP SP+0
          CFI (cfiPicker56) CFA_SP SP+0
          CFI EndBlock cfiCond53
          CFI EndBlock cfiCond54
          CFI EndBlock cfiCond55
          CFI EndBlock cfiPicker56

        RSEG BANKED_CODE:CODE:NOROOT(0)
?Subroutine13:
          CFI Block cfiCond57 Using cfiCommon0
          CFI Function initPage
          CFI Conditional ??CrossCallReturnLabel_12
          CFI R6 load(1, XDATA, add(CFA_XSP16, literal(-24)))
          CFI VB load(1, XDATA, add(CFA_XSP16, literal(-23)))
          CFI V0 load(1, XDATA, add(CFA_XSP16, literal(-22)))
          CFI V1 load(1, XDATA, add(CFA_XSP16, literal(-21)))
          CFI V2 load(1, XDATA, add(CFA_XSP16, literal(-20)))
          CFI V3 load(1, XDATA, add(CFA_XSP16, literal(-19)))
          CFI V4 load(1, XDATA, add(CFA_XSP16, literal(-18)))
          CFI V5 load(1, XDATA, add(CFA_XSP16, literal(-17)))
          CFI V6 load(1, XDATA, add(CFA_XSP16, literal(-16)))
          CFI V7 load(1, XDATA, add(CFA_XSP16, literal(-15)))
          CFI V8 load(1, XDATA, add(CFA_XSP16, literal(-14)))
          CFI V9 load(1, XDATA, add(CFA_XSP16, literal(-13)))
          CFI V10 load(1, XDATA, add(CFA_XSP16, literal(-12)))
          CFI V11 load(1, XDATA, add(CFA_XSP16, literal(-11)))
          CFI V12 load(1, XDATA, add(CFA_XSP16, literal(-10)))
          CFI V13 load(1, XDATA, add(CFA_XSP16, literal(-9)))
          CFI V14 load(1, XDATA, add(CFA_XSP16, literal(-8)))
          CFI V15 load(1, XDATA, add(CFA_XSP16, literal(-7)))
          CFI R7 load(1, XDATA, add(CFA_XSP16, literal(-6)))
          CFI ?RET_LOW load(1, XDATA, add(CFA_XSP16, literal(-5)))
          CFI ?RET_HIGH load(1, XDATA, add(CFA_XSP16, literal(-4)))
          CFI ?BRET_EXT load(1, XDATA, add(CFA_XSP16, literal(-3)))
          CFI DPL0 load(1, XDATA, add(CFA_XSP16, literal(-2)))
          CFI DPH0 load(1, XDATA, add(CFA_XSP16, literal(-1)))
          CFI CFA_SP SP+-2
          CFI CFA_XSP16 add(XSP16, 49)
          CFI Block cfiCond58 Using cfiCommon0
          CFI (cfiCond58) Function initItem
          CFI (cfiCond58) Conditional ??CrossCallReturnLabel_11
          CFI (cfiCond58) R6 load(1, XDATA, add(CFA_XSP16, literal(-18)))
          CFI (cfiCond58) VB load(1, XDATA, add(CFA_XSP16, literal(-17)))
          CFI (cfiCond58) V0 load(1, XDATA, add(CFA_XSP16, literal(-16)))
          CFI (cfiCond58) V1 load(1, XDATA, add(CFA_XSP16, literal(-15)))
          CFI (cfiCond58) V2 load(1, XDATA, add(CFA_XSP16, literal(-14)))
          CFI (cfiCond58) V3 load(1, XDATA, add(CFA_XSP16, literal(-13)))
          CFI (cfiCond58) V4 load(1, XDATA, add(CFA_XSP16, literal(-12)))
          CFI (cfiCond58) V5 load(1, XDATA, add(CFA_XSP16, literal(-11)))
          CFI (cfiCond58) V6 load(1, XDATA, add(CFA_XSP16, literal(-10)))
          CFI (cfiCond58) V7 load(1, XDATA, add(CFA_XSP16, literal(-9)))
          CFI (cfiCond58) V8 load(1, XDATA, add(CFA_XSP16, literal(-8)))
          CFI (cfiCond58) V9 load(1, XDATA, add(CFA_XSP16, literal(-7)))
          CFI (cfiCond58) R7 load(1, XDATA, add(CFA_XSP16, literal(-6)))
          CFI (cfiCond58) ?RET_LOW load(1, XDATA, add(CFA_XSP16, literal(-5)))
          CFI (cfiCond58) ?RET_HIGH load(1, XDATA, add(CFA_XSP16, literal(-4)))
          CFI (cfiCond58) ?BRET_EXT load(1, XDATA, add(CFA_XSP16, literal(-3)))
          CFI (cfiCond58) DPL0 load(1, XDATA, add(CFA_XSP16, literal(-2)))
          CFI (cfiCond58) DPH0 load(1, XDATA, add(CFA_XSP16, literal(-1)))
          CFI (cfiCond58) CFA_SP SP+-2
          CFI (cfiCond58) CFA_XSP16 add(XSP16, 40)
          CFI Block cfiPicker59 Using cfiCommon1
          CFI (cfiPicker59) NoFunction
          CFI (cfiPicker59) Picker
        MOVX    @DPTR,A
        MOV     DPL,?XSP + 0
        MOV     DPH,?XSP + 1
        MOVX    A,@DPTR
        RET
          CFI (cfiCond57) CFA_SP SP+0
          CFI (cfiCond58) CFA_SP SP+0
          CFI (cfiPicker59) CFA_SP SP+0
          CFI EndBlock cfiCond57
          CFI EndBlock cfiCond58
          CFI EndBlock cfiPicker59

        RSEG BANKED_CODE:CODE:NOROOT(0)
?Subroutine8:
          CFI Block cfiCond60 Using cfiCommon0
          CFI Function compactPage
          CFI Conditional ??CrossCallReturnLabel_0
          CFI R6 load(1, XDATA, add(CFA_XSP16, literal(-22)))
          CFI VB load(1, XDATA, add(CFA_XSP16, literal(-21)))
          CFI V0 load(1, XDATA, add(CFA_XSP16, literal(-20)))
          CFI V1 load(1, XDATA, add(CFA_XSP16, literal(-19)))
          CFI V2 load(1, XDATA, add(CFA_XSP16, literal(-18)))
          CFI V3 load(1, XDATA, add(CFA_XSP16, literal(-17)))
          CFI V4 load(1, XDATA, add(CFA_XSP16, literal(-16)))
          CFI V5 load(1, XDATA, add(CFA_XSP16, literal(-15)))
          CFI V6 load(1, XDATA, add(CFA_XSP16, literal(-14)))
          CFI V7 load(1, XDATA, add(CFA_XSP16, literal(-13)))
          CFI V8 load(1, XDATA, add(CFA_XSP16, literal(-12)))
          CFI V9 load(1, XDATA, add(CFA_XSP16, literal(-11)))
          CFI V10 load(1, XDATA, add(CFA_XSP16, literal(-10)))
          CFI V11 load(1, XDATA, add(CFA_XSP16, literal(-9)))
          CFI V12 load(1, XDATA, add(CFA_XSP16, literal(-8)))
          CFI V13 load(1, XDATA, add(CFA_XSP16, literal(-7)))
          CFI R7 load(1, XDATA, add(CFA_XSP16, literal(-6)))
          CFI ?RET_LOW load(1, XDATA, add(CFA_XSP16, literal(-5)))
          CFI ?RET_HIGH load(1, XDATA, add(CFA_XSP16, literal(-4)))
          CFI ?BRET_EXT load(1, XDATA, add(CFA_XSP16, literal(-3)))
          CFI DPL0 load(1, XDATA, add(CFA_XSP16, literal(-2)))
          CFI DPH0 load(1, XDATA, add(CFA_XSP16, literal(-1)))
          CFI CFA_SP SP+-2
          CFI CFA_XSP16 add(XSP16, 41)
          CFI Block cfiCond61 Using cfiCommon0
          CFI (cfiCond61) Function initItem
          CFI (cfiCond61) Conditional ??CrossCallReturnLabel_1
          CFI (cfiCond61) R6 load(1, XDATA, add(CFA_XSP16, literal(-18)))
          CFI (cfiCond61) VB load(1, XDATA, add(CFA_XSP16, literal(-17)))
          CFI (cfiCond61) V0 load(1, XDATA, add(CFA_XSP16, literal(-16)))
          CFI (cfiCond61) V1 load(1, XDATA, add(CFA_XSP16, literal(-15)))
          CFI (cfiCond61) V2 load(1, XDATA, add(CFA_XSP16, literal(-14)))
          CFI (cfiCond61) V3 load(1, XDATA, add(CFA_XSP16, literal(-13)))
          CFI (cfiCond61) V4 load(1, XDATA, add(CFA_XSP16, literal(-12)))
          CFI (cfiCond61) V5 load(1, XDATA, add(CFA_XSP16, literal(-11)))
          CFI (cfiCond61) V6 load(1, XDATA, add(CFA_XSP16, literal(-10)))
          CFI (cfiCond61) V7 load(1, XDATA, add(CFA_XSP16, literal(-9)))
          CFI (cfiCond61) V8 load(1, XDATA, add(CFA_XSP16, literal(-8)))
          CFI (cfiCond61) V9 load(1, XDATA, add(CFA_XSP16, literal(-7)))
          CFI (cfiCond61) R7 load(1, XDATA, add(CFA_XSP16, literal(-6)))
          CFI (cfiCond61) ?RET_LOW load(1, XDATA, add(CFA_XSP16, literal(-5)))
          CFI (cfiCond61) ?RET_HIGH load(1, XDATA, add(CFA_XSP16, literal(-4)))
          CFI (cfiCond61) ?BRET_EXT load(1, XDATA, add(CFA_XSP16, literal(-3)))
          CFI (cfiCond61) DPL0 load(1, XDATA, add(CFA_XSP16, literal(-2)))
          CFI (cfiCond61) DPH0 load(1, XDATA, add(CFA_XSP16, literal(-1)))
          CFI (cfiCond61) CFA_SP SP+-2
          CFI (cfiCond61) CFA_XSP16 add(XSP16, 40)
          CFI Block cfiCond62 Using cfiCommon0
          CFI (cfiCond62) Function osal_nv_write
          CFI (cfiCond62) Conditional ??CrossCallReturnLabel_2
          CFI (cfiCond62) R6 load(1, XDATA, add(CFA_XSP16, literal(-24)))
          CFI (cfiCond62) VB load(1, XDATA, add(CFA_XSP16, literal(-23)))
          CFI (cfiCond62) V0 load(1, XDATA, add(CFA_XSP16, literal(-22)))
          CFI (cfiCond62) V1 load(1, XDATA, add(CFA_XSP16, literal(-21)))
          CFI (cfiCond62) V2 load(1, XDATA, add(CFA_XSP16, literal(-20)))
          CFI (cfiCond62) V3 load(1, XDATA, add(CFA_XSP16, literal(-19)))
          CFI (cfiCond62) V4 load(1, XDATA, add(CFA_XSP16, literal(-18)))
          CFI (cfiCond62) V5 load(1, XDATA, add(CFA_XSP16, literal(-17)))
          CFI (cfiCond62) V6 load(1, XDATA, add(CFA_XSP16, literal(-16)))
          CFI (cfiCond62) V7 load(1, XDATA, add(CFA_XSP16, literal(-15)))
          CFI (cfiCond62) V8 load(1, XDATA, add(CFA_XSP16, literal(-14)))
          CFI (cfiCond62) V9 load(1, XDATA, add(CFA_XSP16, literal(-13)))
          CFI (cfiCond62) V10 load(1, XDATA, add(CFA_XSP16, literal(-12)))
          CFI (cfiCond62) V11 load(1, XDATA, add(CFA_XSP16, literal(-11)))
          CFI (cfiCond62) V12 load(1, XDATA, add(CFA_XSP16, literal(-10)))
          CFI (cfiCond62) V13 load(1, XDATA, add(CFA_XSP16, literal(-9)))
          CFI (cfiCond62) V14 load(1, XDATA, add(CFA_XSP16, literal(-8)))
          CFI (cfiCond62) V15 load(1, XDATA, add(CFA_XSP16, literal(-7)))
          CFI (cfiCond62) R7 load(1, XDATA, add(CFA_XSP16, literal(-6)))
          CFI (cfiCond62) ?RET_LOW load(1, XDATA, add(CFA_XSP16, literal(-5)))
          CFI (cfiCond62) ?RET_HIGH load(1, XDATA, add(CFA_XSP16, literal(-4)))
          CFI (cfiCond62) ?BRET_EXT load(1, XDATA, add(CFA_XSP16, literal(-3)))
          CFI (cfiCond62) DPL0 load(1, XDATA, add(CFA_XSP16, literal(-2)))
          CFI (cfiCond62) DPH0 load(1, XDATA, add(CFA_XSP16, literal(-1)))
          CFI (cfiCond62) CFA_SP SP+-2
          CFI (cfiCond62) CFA_XSP16 add(XSP16, 45)
          CFI Block cfiPicker63 Using cfiCommon1
          CFI (cfiPicker63) NoFunction
          CFI (cfiPicker63) Picker
        CLR     A
        MOVX    @DPTR,A
        INC     DPTR
        MOVX    @DPTR,A
        ; Setup parameters for call to function HalFlashWrite
        ; Setup parameters for call to function HalFlashWrite
        ; Setup parameters for call to function HalFlashWrite
        MOV     ?V0,#0x1
        MOV     ?V1,A
        MOV     R0,#?V0
        RET
          CFI (cfiCond60) CFA_SP SP+0
          CFI (cfiCond61) CFA_SP SP+0
          CFI (cfiCond62) CFA_SP SP+0
          CFI (cfiPicker63) CFA_SP SP+0
          CFI EndBlock cfiCond60
          CFI EndBlock cfiCond61
          CFI EndBlock cfiCond62
          CFI EndBlock cfiPicker63
//  772 
//  773 /*********************************************************************
//  774  * @fn      setItem
//  775  *
//  776  * @brief   Set an item Id or status to mark its state.
//  777  *
//  778  * @param   pg - Valid NV page.
//  779  * @param   offset - Valid offset into the page of the item data - the header
//  780  *                   offset is calculated from this.
//  781  * @param   stat - Valid enum value for the item status.
//  782  *
//  783  * @return  none
//  784  */

        RSEG BANKED_CODE:CODE:NOROOT(0)
//  785 static void setItem( uint8 pg, uint16 offset, eNvHdrEnum stat )
setItem:
          CFI Block cfiBlock64 Using cfiCommon0
          CFI Function setItem
        CODE
//  786 {
        FUNCALL setItem, HalFlashRead
        LOCFRAME ISTACK, 0, STACK
        LOCFRAME PSTACK, 0, STACK
        LOCFRAME XSTACK, 24, STACK
        LOCFRAME IOVERLAY, 0, STATIC
        LOCFRAME DOVERLAY, 0, STATIC
        ARGFRAME ISTACK, 0, STACK
        ARGFRAME PSTACK, 0, STACK
        ARGFRAME XSTACK, 24, STACK
        ARGFRAME IOVERLAY, 0, STATIC
        ARGFRAME DOVERLAY, 0, STATIC
        FUNCALL setItem, HalFlashWrite
        LOCFRAME ISTACK, 0, STACK
        LOCFRAME PSTACK, 0, STACK
        LOCFRAME XSTACK, 24, STACK
        LOCFRAME IOVERLAY, 0, STATIC
        LOCFRAME DOVERLAY, 0, STATIC
        ARGFRAME ISTACK, 0, STACK
        ARGFRAME PSTACK, 0, STACK
        ARGFRAME XSTACK, 24, STACK
        ARGFRAME IOVERLAY, 0, STATIC
        ARGFRAME DOVERLAY, 0, STATIC
        FUNCALL setItem, HalFlashWrite
        LOCFRAME ISTACK, 0, STACK
        LOCFRAME PSTACK, 0, STACK
        LOCFRAME XSTACK, 24, STACK
        LOCFRAME IOVERLAY, 0, STATIC
        LOCFRAME DOVERLAY, 0, STATIC
        ARGFRAME ISTACK, 0, STACK
        ARGFRAME PSTACK, 0, STACK
        ARGFRAME XSTACK, 24, STACK
        ARGFRAME IOVERLAY, 0, STATIC
        ARGFRAME DOVERLAY, 0, STATIC
        REQUIRE ?V0
        REQUIRE ?V1
        REQUIRE ?V2
        REQUIRE ?V3
        REQUIRE ?V4
        REQUIRE ?V5
        MOV     A,#-0xe
        LCALL   ?BANKED_ENTER_XDATA
          CFI DPH0 load(1, XDATA, add(CFA_XSP16, literal(-1)))
          CFI DPL0 load(1, XDATA, add(CFA_XSP16, literal(-2)))
          CFI ?BRET_EXT load(1, XDATA, add(CFA_XSP16, literal(-3)))
          CFI ?RET_HIGH load(1, XDATA, add(CFA_XSP16, literal(-4)))
          CFI ?RET_LOW load(1, XDATA, add(CFA_XSP16, literal(-5)))
          CFI R7 load(1, XDATA, add(CFA_XSP16, literal(-6)))
          CFI V5 load(1, XDATA, add(CFA_XSP16, literal(-7)))
          CFI V4 load(1, XDATA, add(CFA_XSP16, literal(-8)))
          CFI V3 load(1, XDATA, add(CFA_XSP16, literal(-9)))
          CFI V2 load(1, XDATA, add(CFA_XSP16, literal(-10)))
          CFI V1 load(1, XDATA, add(CFA_XSP16, literal(-11)))
          CFI V0 load(1, XDATA, add(CFA_XSP16, literal(-12)))
          CFI VB load(1, XDATA, add(CFA_XSP16, literal(-13)))
          CFI R6 load(1, XDATA, add(CFA_XSP16, literal(-14)))
          CFI CFA_SP SP+0
          CFI CFA_XSP16 add(XSP16, 14)
        ; Saved register size: 14
        ; Auto size: 8
        MOV     A,#-0x8
        LCALL   ?ALLOC_XSTACK8
          CFI CFA_XSP16 add(XSP16, 22)
        MOV     ?V1,R1
        MOV     ?V0,R4
//  787   osalNvHdr_t hdr;
//  788 
//  789   offset -= OSAL_NV_HDR_SIZE;
        MOV     A,R2
        ADD     A,#-0x8
        MOV     ?V2,A
        MOV     A,R3
        ADDC    A,#-0x1
        MOV     ?V3,A
//  790   HalFlashRead(pg, offset, (uint8 *)(&hdr), OSAL_NV_HDR_SIZE);
        ; Setup parameters for call to function HalFlashRead
        MOV     ?V4,#0x8
        MOV     ?V5,#0x0
        MOV     R0,#?V4
        LCALL   ?PUSH_XSTACK_I_TWO
          CFI CFA_XSP16 add(XSP16, 24)
        MOV     A,#0x2
        LCALL   ?XSTACK_DISP102_8
        MOV     R2,?V2
        MOV     R3,?V3
        LCALL   `??HalFlashRead::?relay`; Banked call to: HalFlashRead
        MOV     A,#0x2
        LCALL   ?DEALLOC_XSTACK8
          CFI CFA_XSP16 add(XSP16, 22)
//  791 
//  792   if ( stat == eNvXfer )
        MOV     ?V4,?V1
        MOV     A,#0x9
        MOV     R0,#?V4
        LCALL   ?S_SHL
        MOV     R3,?V5
        MOV     A,?V0
        JNZ     ??setItem_0
//  793   {
//  794     hdr.stat = OSAL_NV_ACTIVE;
        MOV     A,#0x6
        LCALL   ?XSTACK_DISP0_8
        LCALL   ?Subroutine11 & 0xFFFF
??CrossCallReturnLabel_7:
        LCALL   ?PUSH_XSTACK_I_TWO
          CFI CFA_XSP16 add(XSP16, 24)
        MOV     A,#0x6
        LCALL   ?XSTACK_DISP0_8
        MOV     R4,DPL
        MOV     R5,DPH
        MOV     A,?V2
        ADD     A,#0x4
        MOV     ?V2,A
        JNC     ??setItem_1
        INC     ?V3
??setItem_1:
        MOV     A,#0x2
        MOV     R0,#?V2
        LCALL   ?US_SHR
        MOV     A,?V2
        ADD     A,#0x0
        MOV     R2,A
        MOV     A,?V3
        ADDC    A,R3
        MOV     R3,A
        LCALL   `??HalFlashWrite::?relay`; Banked call to: HalFlashWrite
        MOV     A,#0x2
        LCALL   ?DEALLOC_XSTACK8
          CFI CFA_XSP16 add(XSP16, 22)
//  795     /* Write status to flash. Total of 4 bytes written to Flash 
//  796      * ( 2 bytes of checksum and 2 bytes of status) 
//  797      */
//  798     writeWord( pg, offset+OSAL_NV_HDR_CHK, (uint8*)(&(hdr.chk)) );
//  799   }
        SJMP    ??CrossCallReturnLabel_97
//  800   else // if ( stat == eNvZero )
//  801   {
//  802     uint16 sz = ((hdr.len + (OSAL_NV_WORD_SIZE-1)) / OSAL_NV_WORD_SIZE) * OSAL_NV_WORD_SIZE +
//  803                                                                           OSAL_NV_HDR_SIZE;
??setItem_0:
        MOV     A,#0x2
        LCALL   ?XSTACK_DISP0_8
        LCALL   ?Subroutine43 & 0xFFFF
??CrossCallReturnLabel_84:
        LCALL   ?Subroutine35 & 0xFFFF
//  804     hdr.id = 0;
??CrossCallReturnLabel_67:
        MOV     DPL,?XSP + 0
        MOV     DPH,?XSP + 1
        LCALL   ?Subroutine11 & 0xFFFF
??CrossCallReturnLabel_8:
        LCALL   ?PUSH_XSTACK_I_TWO
          CFI CFA_XSP16 add(XSP16, 24)
        MOV     A,#0x2
        LCALL   ?XSTACK_DISP102_8
        MOV     A,#0x2
        MOV     R0,#?V2
        LCALL   ?US_SHR
        MOV     A,?V2
        ADD     A,#0x0
        MOV     R2,A
        MOV     A,?V3
        ADDC    A,R3
        MOV     R3,A
        LCALL   `??HalFlashWrite::?relay`; Banked call to: HalFlashWrite
        MOV     A,#0x2
        LCALL   ?DEALLOC_XSTACK8
          CFI CFA_XSP16 add(XSP16, 22)
//  805     writeWord( pg, offset, (uint8 *)(&hdr) );
//  806     pgLost[pg-OSAL_NV_PAGE_BEG] += sz;
        MOV     R0,?V1
        MOV     A,R0
        ADD     A,R0
        MOV     R0,A
        CLR     A
        RLC     A
        MOV     R1,A
        MOV     A,#(pgLost + 14) & 0xff
        ADD     A,R0
        MOV     DPL,A
        MOV     A,#((pgLost - 242) >> 8) & 0xff
        ADDC    A,R1
        LCALL   ?Subroutine22 & 0xFFFF
//  807   }
//  808 }
??CrossCallReturnLabel_97:
        MOV     A,#0x8
        LCALL   ?DEALLOC_XSTACK8
          CFI CFA_XSP16 add(XSP16, 14)
          CFI EndBlock cfiBlock64
        REQUIRE ?Subroutine5
        ; // Fall through to label ?Subroutine5

        RSEG BANKED_CODE:CODE:NOROOT(0)
?Subroutine5:
          CFI Block cfiBlock65 Using cfiCommon0
          CFI NoFunction
          CFI CFA_SP SP+0
          CFI CFA_XSP16 add(XSP16, 14)
          CFI VB load(1, XDATA, add(CFA_XSP16, literal(-13)))
          CFI DPL0 load(1, XDATA, add(CFA_XSP16, literal(-2)))
          CFI DPH0 load(1, XDATA, add(CFA_XSP16, literal(-1)))
          CFI R6 load(1, XDATA, add(CFA_XSP16, literal(-14)))
          CFI R7 load(1, XDATA, add(CFA_XSP16, literal(-6)))
          CFI V0 load(1, XDATA, add(CFA_XSP16, literal(-12)))
          CFI V1 load(1, XDATA, add(CFA_XSP16, literal(-11)))
          CFI V2 load(1, XDATA, add(CFA_XSP16, literal(-10)))
          CFI V3 load(1, XDATA, add(CFA_XSP16, literal(-9)))
          CFI V4 load(1, XDATA, add(CFA_XSP16, literal(-8)))
          CFI V5 load(1, XDATA, add(CFA_XSP16, literal(-7)))
          CFI ?BRET_EXT load(1, XDATA, add(CFA_XSP16, literal(-3)))
          CFI ?RET_HIGH load(1, XDATA, add(CFA_XSP16, literal(-4)))
          CFI ?RET_LOW load(1, XDATA, add(CFA_XSP16, literal(-5)))
        MOV     R7,#0x6
        LJMP    ?BANKED_LEAVE_XDATA
          CFI CFA_SP SP+-3
          CFI CFA_XSP16 XSP16+0
          CFI VB SameValue
          CFI DPL0 SameValue
          CFI DPH0 SameValue
          CFI R6 SameValue
          CFI R7 SameValue
          CFI V0 SameValue
          CFI V1 SameValue
          CFI V2 SameValue
          CFI V3 SameValue
          CFI V4 SameValue
          CFI V5 SameValue
          CFI ?BRET_EXT Frame(CFA_SP, 3)
          CFI ?RET_HIGH Frame(CFA_SP, 2)
          CFI ?RET_LOW Frame(CFA_SP, 1)
          CFI EndBlock cfiBlock65

        RSEG BANKED_CODE:CODE:NOROOT(0)
?Subroutine43:
          CFI Block cfiCond66 Using cfiCommon0
          CFI Function initPage
          CFI Conditional ??CrossCallReturnLabel_85, ??CrossCallReturnLabel_14
          CFI R6 load(1, XDATA, add(CFA_XSP16, literal(-24)))
          CFI VB load(1, XDATA, add(CFA_XSP16, literal(-23)))
          CFI V0 load(1, XDATA, add(CFA_XSP16, literal(-22)))
          CFI V1 load(1, XDATA, add(CFA_XSP16, literal(-21)))
          CFI V2 load(1, XDATA, add(CFA_XSP16, literal(-20)))
          CFI V3 load(1, XDATA, add(CFA_XSP16, literal(-19)))
          CFI V4 load(1, XDATA, add(CFA_XSP16, literal(-18)))
          CFI V5 load(1, XDATA, add(CFA_XSP16, literal(-17)))
          CFI V6 load(1, XDATA, add(CFA_XSP16, literal(-16)))
          CFI V7 load(1, XDATA, add(CFA_XSP16, literal(-15)))
          CFI V8 load(1, XDATA, add(CFA_XSP16, literal(-14)))
          CFI V9 load(1, XDATA, add(CFA_XSP16, literal(-13)))
          CFI V10 load(1, XDATA, add(CFA_XSP16, literal(-12)))
          CFI V11 load(1, XDATA, add(CFA_XSP16, literal(-11)))
          CFI V12 load(1, XDATA, add(CFA_XSP16, literal(-10)))
          CFI V13 load(1, XDATA, add(CFA_XSP16, literal(-9)))
          CFI V14 load(1, XDATA, add(CFA_XSP16, literal(-8)))
          CFI V15 load(1, XDATA, add(CFA_XSP16, literal(-7)))
          CFI R7 load(1, XDATA, add(CFA_XSP16, literal(-6)))
          CFI ?RET_LOW load(1, XDATA, add(CFA_XSP16, literal(-5)))
          CFI ?RET_HIGH load(1, XDATA, add(CFA_XSP16, literal(-4)))
          CFI ?BRET_EXT load(1, XDATA, add(CFA_XSP16, literal(-3)))
          CFI DPL0 load(1, XDATA, add(CFA_XSP16, literal(-2)))
          CFI DPH0 load(1, XDATA, add(CFA_XSP16, literal(-1)))
          CFI CFA_SP SP+-4
          CFI CFA_XSP16 add(XSP16, 49)
          CFI Block cfiCond67 Using cfiCommon0
          CFI (cfiCond67) Function initPage
          CFI (cfiCond67) Conditional ??CrossCallReturnLabel_85, ??CrossCallReturnLabel_13
          CFI (cfiCond67) R6 load(1, XDATA, add(CFA_XSP16, literal(-24)))
          CFI (cfiCond67) VB load(1, XDATA, add(CFA_XSP16, literal(-23)))
          CFI (cfiCond67) V0 load(1, XDATA, add(CFA_XSP16, literal(-22)))
          CFI (cfiCond67) V1 load(1, XDATA, add(CFA_XSP16, literal(-21)))
          CFI (cfiCond67) V2 load(1, XDATA, add(CFA_XSP16, literal(-20)))
          CFI (cfiCond67) V3 load(1, XDATA, add(CFA_XSP16, literal(-19)))
          CFI (cfiCond67) V4 load(1, XDATA, add(CFA_XSP16, literal(-18)))
          CFI (cfiCond67) V5 load(1, XDATA, add(CFA_XSP16, literal(-17)))
          CFI (cfiCond67) V6 load(1, XDATA, add(CFA_XSP16, literal(-16)))
          CFI (cfiCond67) V7 load(1, XDATA, add(CFA_XSP16, literal(-15)))
          CFI (cfiCond67) V8 load(1, XDATA, add(CFA_XSP16, literal(-14)))
          CFI (cfiCond67) V9 load(1, XDATA, add(CFA_XSP16, literal(-13)))
          CFI (cfiCond67) V10 load(1, XDATA, add(CFA_XSP16, literal(-12)))
          CFI (cfiCond67) V11 load(1, XDATA, add(CFA_XSP16, literal(-11)))
          CFI (cfiCond67) V12 load(1, XDATA, add(CFA_XSP16, literal(-10)))
          CFI (cfiCond67) V13 load(1, XDATA, add(CFA_XSP16, literal(-9)))
          CFI (cfiCond67) V14 load(1, XDATA, add(CFA_XSP16, literal(-8)))
          CFI (cfiCond67) V15 load(1, XDATA, add(CFA_XSP16, literal(-7)))
          CFI (cfiCond67) R7 load(1, XDATA, add(CFA_XSP16, literal(-6)))
          CFI (cfiCond67) ?RET_LOW load(1, XDATA, add(CFA_XSP16, literal(-5)))
          CFI (cfiCond67) ?RET_HIGH load(1, XDATA, add(CFA_XSP16, literal(-4)))
          CFI (cfiCond67) ?BRET_EXT load(1, XDATA, add(CFA_XSP16, literal(-3)))
          CFI (cfiCond67) DPL0 load(1, XDATA, add(CFA_XSP16, literal(-2)))
          CFI (cfiCond67) DPH0 load(1, XDATA, add(CFA_XSP16, literal(-1)))
          CFI (cfiCond67) CFA_SP SP+-4
          CFI (cfiCond67) CFA_XSP16 add(XSP16, 49)
          CFI Block cfiCond68 Using cfiCommon0
          CFI (cfiCond68) Function setItem
          CFI (cfiCond68) Conditional ??CrossCallReturnLabel_84
          CFI (cfiCond68) R6 load(1, XDATA, add(CFA_XSP16, literal(-14)))
          CFI (cfiCond68) VB load(1, XDATA, add(CFA_XSP16, literal(-13)))
          CFI (cfiCond68) V0 load(1, XDATA, add(CFA_XSP16, literal(-12)))
          CFI (cfiCond68) V1 load(1, XDATA, add(CFA_XSP16, literal(-11)))
          CFI (cfiCond68) V2 load(1, XDATA, add(CFA_XSP16, literal(-10)))
          CFI (cfiCond68) V3 load(1, XDATA, add(CFA_XSP16, literal(-9)))
          CFI (cfiCond68) V4 load(1, XDATA, add(CFA_XSP16, literal(-8)))
          CFI (cfiCond68) V5 load(1, XDATA, add(CFA_XSP16, literal(-7)))
          CFI (cfiCond68) R7 load(1, XDATA, add(CFA_XSP16, literal(-6)))
          CFI (cfiCond68) ?RET_LOW load(1, XDATA, add(CFA_XSP16, literal(-5)))
          CFI (cfiCond68) ?RET_HIGH load(1, XDATA, add(CFA_XSP16, literal(-4)))
          CFI (cfiCond68) ?BRET_EXT load(1, XDATA, add(CFA_XSP16, literal(-3)))
          CFI (cfiCond68) DPL0 load(1, XDATA, add(CFA_XSP16, literal(-2)))
          CFI (cfiCond68) DPH0 load(1, XDATA, add(CFA_XSP16, literal(-1)))
          CFI (cfiCond68) CFA_SP SP+-2
          CFI (cfiCond68) CFA_XSP16 add(XSP16, 22)
          CFI Block cfiPicker69 Using cfiCommon1
          CFI (cfiPicker69) NoFunction
          CFI (cfiPicker69) Picker
        MOVX    A,@DPTR
        ADD     A,#0x3
        MOV     R0,A
        INC     DPTR
        MOVX    A,@DPTR
        ADDC    A,#0x0
        MOV     R1,A
        MOV     A,R0
        RET
          CFI (cfiCond66) CFA_SP SP+-2
          CFI (cfiCond67) CFA_SP SP+-2
          CFI (cfiCond68) CFA_SP SP+0
          CFI (cfiPicker69) CFA_SP SP+0
          CFI EndBlock cfiCond66
          CFI EndBlock cfiCond67
          CFI EndBlock cfiCond68
          CFI EndBlock cfiPicker69

        RSEG BANKED_CODE:CODE:NOROOT(0)
?Subroutine22:
          CFI Block cfiCond70 Using cfiCommon0
          CFI Function setItem
          CFI Conditional ??CrossCallReturnLabel_97
          CFI R6 load(1, XDATA, add(CFA_XSP16, literal(-14)))
          CFI VB load(1, XDATA, add(CFA_XSP16, literal(-13)))
          CFI V0 load(1, XDATA, add(CFA_XSP16, literal(-12)))
          CFI V1 load(1, XDATA, add(CFA_XSP16, literal(-11)))
          CFI V2 load(1, XDATA, add(CFA_XSP16, literal(-10)))
          CFI V3 load(1, XDATA, add(CFA_XSP16, literal(-9)))
          CFI V4 load(1, XDATA, add(CFA_XSP16, literal(-8)))
          CFI V5 load(1, XDATA, add(CFA_XSP16, literal(-7)))
          CFI R7 load(1, XDATA, add(CFA_XSP16, literal(-6)))
          CFI ?RET_LOW load(1, XDATA, add(CFA_XSP16, literal(-5)))
          CFI ?RET_HIGH load(1, XDATA, add(CFA_XSP16, literal(-4)))
          CFI ?BRET_EXT load(1, XDATA, add(CFA_XSP16, literal(-3)))
          CFI DPL0 load(1, XDATA, add(CFA_XSP16, literal(-2)))
          CFI DPH0 load(1, XDATA, add(CFA_XSP16, literal(-1)))
          CFI CFA_SP SP+-2
          CFI CFA_XSP16 add(XSP16, 22)
          CFI Block cfiCond71 Using cfiCommon0
          CFI (cfiCond71) Function writeItem
          CFI (cfiCond71) Conditional ??CrossCallReturnLabel_98
          CFI (cfiCond71) R6 load(1, XDATA, add(CFA_XSP16, literal(-22)))
          CFI (cfiCond71) VB load(1, XDATA, add(CFA_XSP16, literal(-21)))
          CFI (cfiCond71) V0 load(1, XDATA, add(CFA_XSP16, literal(-20)))
          CFI (cfiCond71) V1 load(1, XDATA, add(CFA_XSP16, literal(-19)))
          CFI (cfiCond71) V2 load(1, XDATA, add(CFA_XSP16, literal(-18)))
          CFI (cfiCond71) V3 load(1, XDATA, add(CFA_XSP16, literal(-17)))
          CFI (cfiCond71) V4 load(1, XDATA, add(CFA_XSP16, literal(-16)))
          CFI (cfiCond71) V5 load(1, XDATA, add(CFA_XSP16, literal(-15)))
          CFI (cfiCond71) V6 load(1, XDATA, add(CFA_XSP16, literal(-14)))
          CFI (cfiCond71) V7 load(1, XDATA, add(CFA_XSP16, literal(-13)))
          CFI (cfiCond71) V8 load(1, XDATA, add(CFA_XSP16, literal(-12)))
          CFI (cfiCond71) V9 load(1, XDATA, add(CFA_XSP16, literal(-11)))
          CFI (cfiCond71) V10 load(1, XDATA, add(CFA_XSP16, literal(-10)))
          CFI (cfiCond71) V11 load(1, XDATA, add(CFA_XSP16, literal(-9)))
          CFI (cfiCond71) V12 load(1, XDATA, add(CFA_XSP16, literal(-8)))
          CFI (cfiCond71) V13 load(1, XDATA, add(CFA_XSP16, literal(-7)))
          CFI (cfiCond71) R7 load(1, XDATA, add(CFA_XSP16, literal(-6)))
          CFI (cfiCond71) ?RET_LOW load(1, XDATA, add(CFA_XSP16, literal(-5)))
          CFI (cfiCond71) ?RET_HIGH load(1, XDATA, add(CFA_XSP16, literal(-4)))
          CFI (cfiCond71) ?BRET_EXT load(1, XDATA, add(CFA_XSP16, literal(-3)))
          CFI (cfiCond71) DPL0 load(1, XDATA, add(CFA_XSP16, literal(-2)))
          CFI (cfiCond71) DPH0 load(1, XDATA, add(CFA_XSP16, literal(-1)))
          CFI (cfiCond71) CFA_SP SP+-2
          CFI (cfiCond71) CFA_XSP16 add(XSP16, 30)
          CFI Block cfiPicker72 Using cfiCommon1
          CFI (cfiPicker72) NoFunction
          CFI (cfiPicker72) Picker
        MOV     DPH,A
          CFI EndBlock cfiCond70
          CFI EndBlock cfiCond71
          CFI EndBlock cfiPicker72
        REQUIRE ??Subroutine47_0
        ; // Fall through to label ??Subroutine47_0

        RSEG BANKED_CODE:CODE:NOROOT(0)
??Subroutine47_0:
          CFI Block cfiCond73 Using cfiCommon0
          CFI Function writeItem
          CFI Conditional ??CrossCallReturnLabel_96
          CFI R6 load(1, XDATA, add(CFA_XSP16, literal(-22)))
          CFI VB load(1, XDATA, add(CFA_XSP16, literal(-21)))
          CFI V0 load(1, XDATA, add(CFA_XSP16, literal(-20)))
          CFI V1 load(1, XDATA, add(CFA_XSP16, literal(-19)))
          CFI V2 load(1, XDATA, add(CFA_XSP16, literal(-18)))
          CFI V3 load(1, XDATA, add(CFA_XSP16, literal(-17)))
          CFI V4 load(1, XDATA, add(CFA_XSP16, literal(-16)))
          CFI V5 load(1, XDATA, add(CFA_XSP16, literal(-15)))
          CFI V6 load(1, XDATA, add(CFA_XSP16, literal(-14)))
          CFI V7 load(1, XDATA, add(CFA_XSP16, literal(-13)))
          CFI V8 load(1, XDATA, add(CFA_XSP16, literal(-12)))
          CFI V9 load(1, XDATA, add(CFA_XSP16, literal(-11)))
          CFI V10 load(1, XDATA, add(CFA_XSP16, literal(-10)))
          CFI V11 load(1, XDATA, add(CFA_XSP16, literal(-9)))
          CFI V12 load(1, XDATA, add(CFA_XSP16, literal(-8)))
          CFI V13 load(1, XDATA, add(CFA_XSP16, literal(-7)))
          CFI R7 load(1, XDATA, add(CFA_XSP16, literal(-6)))
          CFI ?RET_LOW load(1, XDATA, add(CFA_XSP16, literal(-5)))
          CFI ?RET_HIGH load(1, XDATA, add(CFA_XSP16, literal(-4)))
          CFI ?BRET_EXT load(1, XDATA, add(CFA_XSP16, literal(-3)))
          CFI DPL0 load(1, XDATA, add(CFA_XSP16, literal(-2)))
          CFI DPH0 load(1, XDATA, add(CFA_XSP16, literal(-1)))
          CFI CFA_SP SP+-2
          CFI CFA_XSP16 add(XSP16, 30)
          CFI Block cfiCond74 Using cfiCommon0
          CFI (cfiCond74) Function setItem
          CFI (cfiCond74) Conditional ??CrossCallReturnLabel_97
          CFI (cfiCond74) R6 load(1, XDATA, add(CFA_XSP16, literal(-14)))
          CFI (cfiCond74) VB load(1, XDATA, add(CFA_XSP16, literal(-13)))
          CFI (cfiCond74) V0 load(1, XDATA, add(CFA_XSP16, literal(-12)))
          CFI (cfiCond74) V1 load(1, XDATA, add(CFA_XSP16, literal(-11)))
          CFI (cfiCond74) V2 load(1, XDATA, add(CFA_XSP16, literal(-10)))
          CFI (cfiCond74) V3 load(1, XDATA, add(CFA_XSP16, literal(-9)))
          CFI (cfiCond74) V4 load(1, XDATA, add(CFA_XSP16, literal(-8)))
          CFI (cfiCond74) V5 load(1, XDATA, add(CFA_XSP16, literal(-7)))
          CFI (cfiCond74) R7 load(1, XDATA, add(CFA_XSP16, literal(-6)))
          CFI (cfiCond74) ?RET_LOW load(1, XDATA, add(CFA_XSP16, literal(-5)))
          CFI (cfiCond74) ?RET_HIGH load(1, XDATA, add(CFA_XSP16, literal(-4)))
          CFI (cfiCond74) ?BRET_EXT load(1, XDATA, add(CFA_XSP16, literal(-3)))
          CFI (cfiCond74) DPL0 load(1, XDATA, add(CFA_XSP16, literal(-2)))
          CFI (cfiCond74) DPH0 load(1, XDATA, add(CFA_XSP16, literal(-1)))
          CFI (cfiCond74) CFA_SP SP+-2
          CFI (cfiCond74) CFA_XSP16 add(XSP16, 22)
          CFI Block cfiCond75 Using cfiCommon0
          CFI (cfiCond75) Function writeItem
          CFI (cfiCond75) Conditional ??CrossCallReturnLabel_98
          CFI (cfiCond75) R6 load(1, XDATA, add(CFA_XSP16, literal(-22)))
          CFI (cfiCond75) VB load(1, XDATA, add(CFA_XSP16, literal(-21)))
          CFI (cfiCond75) V0 load(1, XDATA, add(CFA_XSP16, literal(-20)))
          CFI (cfiCond75) V1 load(1, XDATA, add(CFA_XSP16, literal(-19)))
          CFI (cfiCond75) V2 load(1, XDATA, add(CFA_XSP16, literal(-18)))
          CFI (cfiCond75) V3 load(1, XDATA, add(CFA_XSP16, literal(-17)))
          CFI (cfiCond75) V4 load(1, XDATA, add(CFA_XSP16, literal(-16)))
          CFI (cfiCond75) V5 load(1, XDATA, add(CFA_XSP16, literal(-15)))
          CFI (cfiCond75) V6 load(1, XDATA, add(CFA_XSP16, literal(-14)))
          CFI (cfiCond75) V7 load(1, XDATA, add(CFA_XSP16, literal(-13)))
          CFI (cfiCond75) V8 load(1, XDATA, add(CFA_XSP16, literal(-12)))
          CFI (cfiCond75) V9 load(1, XDATA, add(CFA_XSP16, literal(-11)))
          CFI (cfiCond75) V10 load(1, XDATA, add(CFA_XSP16, literal(-10)))
          CFI (cfiCond75) V11 load(1, XDATA, add(CFA_XSP16, literal(-9)))
          CFI (cfiCond75) V12 load(1, XDATA, add(CFA_XSP16, literal(-8)))
          CFI (cfiCond75) V13 load(1, XDATA, add(CFA_XSP16, literal(-7)))
          CFI (cfiCond75) R7 load(1, XDATA, add(CFA_XSP16, literal(-6)))
          CFI (cfiCond75) ?RET_LOW load(1, XDATA, add(CFA_XSP16, literal(-5)))
          CFI (cfiCond75) ?RET_HIGH load(1, XDATA, add(CFA_XSP16, literal(-4)))
          CFI (cfiCond75) ?BRET_EXT load(1, XDATA, add(CFA_XSP16, literal(-3)))
          CFI (cfiCond75) DPL0 load(1, XDATA, add(CFA_XSP16, literal(-2)))
          CFI (cfiCond75) DPH0 load(1, XDATA, add(CFA_XSP16, literal(-1)))
          CFI (cfiCond75) CFA_SP SP+-2
          CFI (cfiCond75) CFA_XSP16 add(XSP16, 30)
          CFI Block cfiPicker76 Using cfiCommon1
          CFI (cfiPicker76) NoFunction
          CFI (cfiPicker76) Picker
        MOVX    A,@DPTR
        ADD     A,R6
        MOVX    @DPTR,A
        INC     DPTR
        MOVX    A,@DPTR
        ADDC    A,R7
        MOVX    @DPTR,A
        RET
          CFI (cfiCond73) CFA_SP SP+0
          CFI (cfiCond74) CFA_SP SP+0
          CFI (cfiCond75) CFA_SP SP+0
          CFI (cfiPicker76) CFA_SP SP+0
          CFI EndBlock cfiCond73
          CFI EndBlock cfiCond74
          CFI EndBlock cfiCond75
          CFI EndBlock cfiPicker76

        RSEG BANKED_CODE:CODE:NOROOT(0)
?Subroutine11:
          CFI Block cfiCond77 Using cfiCommon0
          CFI Function setItem
          CFI Conditional ??CrossCallReturnLabel_7
          CFI R6 load(1, XDATA, add(CFA_XSP16, literal(-14)))
          CFI VB load(1, XDATA, add(CFA_XSP16, literal(-13)))
          CFI V0 load(1, XDATA, add(CFA_XSP16, literal(-12)))
          CFI V1 load(1, XDATA, add(CFA_XSP16, literal(-11)))
          CFI V2 load(1, XDATA, add(CFA_XSP16, literal(-10)))
          CFI V3 load(1, XDATA, add(CFA_XSP16, literal(-9)))
          CFI V4 load(1, XDATA, add(CFA_XSP16, literal(-8)))
          CFI V5 load(1, XDATA, add(CFA_XSP16, literal(-7)))
          CFI R7 load(1, XDATA, add(CFA_XSP16, literal(-6)))
          CFI ?RET_LOW load(1, XDATA, add(CFA_XSP16, literal(-5)))
          CFI ?RET_HIGH load(1, XDATA, add(CFA_XSP16, literal(-4)))
          CFI ?BRET_EXT load(1, XDATA, add(CFA_XSP16, literal(-3)))
          CFI DPL0 load(1, XDATA, add(CFA_XSP16, literal(-2)))
          CFI DPH0 load(1, XDATA, add(CFA_XSP16, literal(-1)))
          CFI CFA_SP SP+-2
          CFI CFA_XSP16 add(XSP16, 22)
          CFI Block cfiCond78 Using cfiCommon0
          CFI (cfiCond78) Function setItem
          CFI (cfiCond78) Conditional ??CrossCallReturnLabel_8
          CFI (cfiCond78) R6 load(1, XDATA, add(CFA_XSP16, literal(-14)))
          CFI (cfiCond78) VB load(1, XDATA, add(CFA_XSP16, literal(-13)))
          CFI (cfiCond78) V0 load(1, XDATA, add(CFA_XSP16, literal(-12)))
          CFI (cfiCond78) V1 load(1, XDATA, add(CFA_XSP16, literal(-11)))
          CFI (cfiCond78) V2 load(1, XDATA, add(CFA_XSP16, literal(-10)))
          CFI (cfiCond78) V3 load(1, XDATA, add(CFA_XSP16, literal(-9)))
          CFI (cfiCond78) V4 load(1, XDATA, add(CFA_XSP16, literal(-8)))
          CFI (cfiCond78) V5 load(1, XDATA, add(CFA_XSP16, literal(-7)))
          CFI (cfiCond78) R7 load(1, XDATA, add(CFA_XSP16, literal(-6)))
          CFI (cfiCond78) ?RET_LOW load(1, XDATA, add(CFA_XSP16, literal(-5)))
          CFI (cfiCond78) ?RET_HIGH load(1, XDATA, add(CFA_XSP16, literal(-4)))
          CFI (cfiCond78) ?BRET_EXT load(1, XDATA, add(CFA_XSP16, literal(-3)))
          CFI (cfiCond78) DPL0 load(1, XDATA, add(CFA_XSP16, literal(-2)))
          CFI (cfiCond78) DPH0 load(1, XDATA, add(CFA_XSP16, literal(-1)))
          CFI (cfiCond78) CFA_SP SP+-2
          CFI (cfiCond78) CFA_XSP16 add(XSP16, 22)
          CFI Block cfiPicker79 Using cfiCommon1
          CFI (cfiPicker79) NoFunction
          CFI (cfiPicker79) Picker
        CLR     A
        MOVX    @DPTR,A
        INC     DPTR
        MOVX    @DPTR,A
        ; Setup parameters for call to function HalFlashWrite
        ; Setup parameters for call to function HalFlashWrite
        MOV     ?V4,#0x1
        MOV     ?V5,A
        MOV     R0,#?V4
        RET
          CFI (cfiCond77) CFA_SP SP+0
          CFI (cfiCond78) CFA_SP SP+0
          CFI (cfiPicker79) CFA_SP SP+0
          CFI EndBlock cfiCond77
          CFI EndBlock cfiCond78
          CFI EndBlock cfiPicker79
//  809 
//  810 /*********************************************************************
//  811  * @fn      setChk
//  812  *
//  813  * @brief   Set the item header checksum given the data buffer offset.
//  814  *
//  815  * @param   pg - Valid NV page.
//  816  * @param   offset - Valid offset into the page of the item data - the header
//  817  *                   offset is calculated from this.
//  818  * @param   chk - The checksum to set.
//  819  *
//  820  * @return  The checksum read back.
//  821  */

        RSEG BANKED_CODE:CODE:NOROOT(0)
//  822 static uint16 setChk( uint8 pg, uint16 offset, uint16 chk )
setChk:
          CFI Block cfiBlock80 Using cfiCommon0
          CFI Function setChk
        CODE
//  823 {
        FUNCALL setChk, writeWordH
        LOCFRAME ISTACK, 0, STACK
        LOCFRAME PSTACK, 0, STACK
        LOCFRAME XSTACK, 14, STACK
        LOCFRAME IOVERLAY, 0, STATIC
        LOCFRAME DOVERLAY, 0, STATIC
        ARGFRAME ISTACK, 0, STACK
        ARGFRAME PSTACK, 0, STACK
        ARGFRAME XSTACK, 14, STACK
        ARGFRAME IOVERLAY, 0, STATIC
        ARGFRAME DOVERLAY, 0, STATIC
        FUNCALL setChk, HalFlashRead
        LOCFRAME ISTACK, 0, STACK
        LOCFRAME PSTACK, 0, STACK
        LOCFRAME XSTACK, 16, STACK
        LOCFRAME IOVERLAY, 0, STATIC
        LOCFRAME DOVERLAY, 0, STATIC
        ARGFRAME ISTACK, 0, STACK
        ARGFRAME PSTACK, 0, STACK
        ARGFRAME XSTACK, 16, STACK
        ARGFRAME IOVERLAY, 0, STATIC
        ARGFRAME DOVERLAY, 0, STATIC
        REQUIRE ?V0
        REQUIRE ?V2
        REQUIRE ?V3
        MOV     A,#-0xc
        LCALL   ?BANKED_ENTER_XDATA
          CFI DPH0 load(1, XDATA, add(CFA_XSP16, literal(-1)))
          CFI DPL0 load(1, XDATA, add(CFA_XSP16, literal(-2)))
          CFI ?BRET_EXT load(1, XDATA, add(CFA_XSP16, literal(-3)))
          CFI ?RET_HIGH load(1, XDATA, add(CFA_XSP16, literal(-4)))
          CFI ?RET_LOW load(1, XDATA, add(CFA_XSP16, literal(-5)))
          CFI R7 load(1, XDATA, add(CFA_XSP16, literal(-6)))
          CFI V3 load(1, XDATA, add(CFA_XSP16, literal(-7)))
          CFI V2 load(1, XDATA, add(CFA_XSP16, literal(-8)))
          CFI V1 load(1, XDATA, add(CFA_XSP16, literal(-9)))
          CFI V0 load(1, XDATA, add(CFA_XSP16, literal(-10)))
          CFI VB load(1, XDATA, add(CFA_XSP16, literal(-11)))
          CFI R6 load(1, XDATA, add(CFA_XSP16, literal(-12)))
          CFI CFA_SP SP+0
          CFI CFA_XSP16 add(XSP16, 12)
        ; Saved register size: 12
        ; Auto size: 2
        MOV     A,#-0x2
        LCALL   ?ALLOC_XSTACK8
          CFI CFA_XSP16 add(XSP16, 14)
        MOV     DPL,?XSP + 0
        MOV     DPH,?XSP + 1
        MOV     A,R4
        MOVX    @DPTR,A
        INC     DPTR
        MOV     A,R5
        MOVX    @DPTR,A
        MOV     ?V0,R1
        MOV     A,R2
        MOV     R6,A
        MOV     A,R3
        MOV     R7,A
//  824   offset -= OSAL_NV_WORD_SIZE;
        MOV     A,R6
        ADD     A,#-0x4
        MOV     R6,A
        MOV     A,R7
        ADDC    A,#-0x1
        MOV     R7,A
//  825   writeWordH( pg, offset, (uint8 *)&chk );
        ; Setup parameters for call to function writeWordH
        MOV     R4,?XSP + 0
        MOV     R5,?XSP + 1
        MOV     A,R6
        MOV     R2,A
        MOV     A,R7
        MOV     R3,A
        LCALL   `??writeWordH::?relay`; Banked call to: writeWordH
//  826   HalFlashRead( pg, offset, (uint8 *)(&chk), sizeof( chk ) );
        ; Setup parameters for call to function HalFlashRead
        MOV     ?V2,#0x2
        MOV     ?V3,#0x0
        MOV     R0,#?V2
        LCALL   ?PUSH_XSTACK_I_TWO
          CFI CFA_XSP16 add(XSP16, 16)
        MOV     A,#0x2
        LCALL   ?XSTACK_DISP102_8
        MOV     A,R6
        MOV     R2,A
        MOV     A,R7
        MOV     R3,A
        MOV     R1,?V0
        LCALL   `??HalFlashRead::?relay`; Banked call to: HalFlashRead
        MOV     A,#0x2
        LCALL   ?DEALLOC_XSTACK8
          CFI CFA_XSP16 add(XSP16, 14)
//  827 
//  828   return chk;
        MOV     DPL,?XSP + 0
        MOV     DPH,?XSP + 1
        LCALL   ??Subroutine49_0 & 0xFFFF
??CrossCallReturnLabel_100:
        MOV     A,#0x2
        LJMP    ?Subroutine0 & 0xFFFF
//  829 }
          CFI EndBlock cfiBlock80
//  830 
//  831 /*********************************************************************
//  832  * @fn      calcChkB
//  833  *
//  834  * @brief   Calculates the data checksum over the 'buf' parameter.
//  835  *
//  836  * @param   len - Byte count of the data to be checksummed.
//  837  * @param   buf - Data buffer to be checksummed.
//  838  *
//  839  * @return  Calculated checksum of the data bytes.
//  840  */
//  841 static uint16 calcChkB( uint16 len, uint8 *buf )
//  842 {
//  843   uint8 fill = len % OSAL_NV_WORD_SIZE;
//  844   uint16 chk;
//  845 
//  846   if ( !buf )
//  847   {
//  848     chk = len * OSAL_NV_ERASED;
//  849   }
//  850   else
//  851   {
//  852     chk = 0;
//  853     while ( len-- )
//  854     {
//  855       chk += *buf++;
//  856     }
//  857   }
//  858 
//  859   // calcChkF() will calculate over OSAL_NV_WORD_SIZE alignment.
//  860   if ( fill )
//  861   {
//  862     chk += (OSAL_NV_WORD_SIZE - fill) * OSAL_NV_ERASED;
//  863   }
//  864 
//  865   return chk;
//  866 }
//  867 
//  868 /*********************************************************************
//  869  * @fn      calcChkF
//  870  *
//  871  * @brief   Calculates the data checksum by reading the data bytes from NV.
//  872  *
//  873  * @param   pg - A valid NV Flash page.
//  874  * @param   offset - A valid offset into the page.
//  875  * @param   len - Byte count of the data to be checksummed.
//  876  *
//  877  * @return  Calculated checksum of the data bytes.
//  878  */

        RSEG BANKED_CODE:CODE:NOROOT(0)
//  879 static uint16 calcChkF( uint8 pg, uint16 offset, uint16 len )
calcChkF:
          CFI Block cfiBlock81 Using cfiCommon0
          CFI Function calcChkF
        CODE
//  880 {
        FUNCALL calcChkF, HalFlashRead
        LOCFRAME ISTACK, 0, STACK
        LOCFRAME PSTACK, 0, STACK
        LOCFRAME XSTACK, 22, STACK
        LOCFRAME IOVERLAY, 0, STATIC
        LOCFRAME DOVERLAY, 0, STATIC
        ARGFRAME ISTACK, 0, STACK
        ARGFRAME PSTACK, 0, STACK
        ARGFRAME XSTACK, 22, STACK
        ARGFRAME IOVERLAY, 0, STATIC
        ARGFRAME DOVERLAY, 0, STATIC
        REQUIRE ?V0
        REQUIRE ?V1
        REQUIRE ?V2
        REQUIRE ?V3
        REQUIRE ?V4
        REQUIRE ?V6
        REQUIRE ?V7
        MOV     A,#-0x10
        LCALL   ?BANKED_ENTER_XDATA
          CFI DPH0 load(1, XDATA, add(CFA_XSP16, literal(-1)))
          CFI DPL0 load(1, XDATA, add(CFA_XSP16, literal(-2)))
          CFI ?BRET_EXT load(1, XDATA, add(CFA_XSP16, literal(-3)))
          CFI ?RET_HIGH load(1, XDATA, add(CFA_XSP16, literal(-4)))
          CFI ?RET_LOW load(1, XDATA, add(CFA_XSP16, literal(-5)))
          CFI R7 load(1, XDATA, add(CFA_XSP16, literal(-6)))
          CFI V7 load(1, XDATA, add(CFA_XSP16, literal(-7)))
          CFI V6 load(1, XDATA, add(CFA_XSP16, literal(-8)))
          CFI V5 load(1, XDATA, add(CFA_XSP16, literal(-9)))
          CFI V4 load(1, XDATA, add(CFA_XSP16, literal(-10)))
          CFI V3 load(1, XDATA, add(CFA_XSP16, literal(-11)))
          CFI V2 load(1, XDATA, add(CFA_XSP16, literal(-12)))
          CFI V1 load(1, XDATA, add(CFA_XSP16, literal(-13)))
          CFI V0 load(1, XDATA, add(CFA_XSP16, literal(-14)))
          CFI VB load(1, XDATA, add(CFA_XSP16, literal(-15)))
          CFI R6 load(1, XDATA, add(CFA_XSP16, literal(-16)))
          CFI CFA_SP SP+0
          CFI CFA_XSP16 add(XSP16, 16)
        ; Saved register size: 16
        ; Auto size: 4
        MOV     A,#-0x4
        LCALL   ?ALLOC_XSTACK8
          CFI CFA_XSP16 add(XSP16, 20)
        MOV     ?V4,R1
        MOV     ?V2,R2
        MOV     ?V3,R3
        MOV     A,R4
        MOV     R6,A
        MOV     A,R5
        MOV     R7,A
//  881   uint16 chk = 0;
        MOV     ?V0,#0x0
        MOV     ?V1,#0x0
//  882 
//  883   len = (len + (OSAL_NV_WORD_SIZE-1)) / OSAL_NV_WORD_SIZE;
        MOV     A,R6
        ADD     A,#0x3
        MOV     ?V6,A
        CLR     A
        ADDC    A,R7
        MOV     ?V7,A
        MOV     A,#0x2
        MOV     R0,#?V6
        LCALL   ?US_SHR
        MOV     R6,?V6
        MOV     R7,?V7
//  884 
//  885   while ( len-- )
??calcChkF_0:
        MOV     A,R6
        ORL     A,R7
        JZ      ??calcChkF_1
        MOV     A,R6
        ADD     A,#-0x1
        DEC     R6
        MOV     A,R7
        ADDC    A,#-0x1
        MOV     R7,A
//  886   {
//  887     uint8 cnt, tmp[OSAL_NV_WORD_SIZE];
//  888 
//  889     HalFlashRead(pg, offset, tmp, OSAL_NV_WORD_SIZE);
        ; Setup parameters for call to function HalFlashRead
        MOV     ?V6,#0x4
        MOV     ?V7,#0x0
        MOV     R0,#?V6
        LCALL   ?PUSH_XSTACK_I_TWO
          CFI CFA_XSP16 add(XSP16, 22)
        MOV     A,#0x2
        LCALL   ?XSTACK_DISP102_8
        MOV     R2,?V2
        MOV     R3,?V3
        MOV     R1,?V4
        LCALL   `??HalFlashRead::?relay`; Banked call to: HalFlashRead
        MOV     A,#0x2
        LCALL   ?DEALLOC_XSTACK8
          CFI CFA_XSP16 add(XSP16, 20)
//  890     offset += OSAL_NV_WORD_SIZE;
        LCALL   ?Subroutine42 & 0xFFFF
//  891 
//  892     for ( cnt = 0; cnt < OSAL_NV_WORD_SIZE; cnt++ )
??CrossCallReturnLabel_82:
        MOV     R0,?XSP + 0
        MOV     R1,?XSP + 1
//  893     {
//  894       chk += tmp[cnt];
??calcChkF_2:
        MOV     DPL,R0
        MOV     DPH,R1
        MOVX    A,@DPTR
        MOV     R2,A
        MOV     A,?V0
        ADD     A,R2
        MOV     ?V0,A
        CLR     A
        ADDC    A,?V1
        MOV     ?V1,A
//  895     }
        INC     DPTR
        MOV     R0,DPL
        MOV     R1,DPH
        MOV     A,#0x4
        LCALL   ?XSTACK_DISP0_8
        MOV     A,DPL
        XRL     A,R0
        JNZ     ??calcChkF_3
        MOV     A,DPH
        XRL     A,R1
??calcChkF_3:
        JZ      ??calcChkF_0
        SJMP    ??calcChkF_2
//  896   }
//  897 
//  898   return chk;
??calcChkF_1:
        MOV     R2,?V0
        MOV     R3,?V1
        MOV     A,#0x4
        LCALL   ?DEALLOC_XSTACK8
          CFI CFA_XSP16 add(XSP16, 16)
          CFI EndBlock cfiBlock81
        REQUIRE ?Subroutine6
        ; // Fall through to label ?Subroutine6
//  899 }

        RSEG BANKED_CODE:CODE:NOROOT(0)
?Subroutine6:
          CFI Block cfiBlock82 Using cfiCommon0
          CFI NoFunction
          CFI CFA_SP SP+0
          CFI CFA_XSP16 add(XSP16, 16)
          CFI VB load(1, XDATA, add(CFA_XSP16, literal(-15)))
          CFI DPL0 load(1, XDATA, add(CFA_XSP16, literal(-2)))
          CFI DPH0 load(1, XDATA, add(CFA_XSP16, literal(-1)))
          CFI R6 load(1, XDATA, add(CFA_XSP16, literal(-16)))
          CFI R7 load(1, XDATA, add(CFA_XSP16, literal(-6)))
          CFI V0 load(1, XDATA, add(CFA_XSP16, literal(-14)))
          CFI V1 load(1, XDATA, add(CFA_XSP16, literal(-13)))
          CFI V2 load(1, XDATA, add(CFA_XSP16, literal(-12)))
          CFI V3 load(1, XDATA, add(CFA_XSP16, literal(-11)))
          CFI V4 load(1, XDATA, add(CFA_XSP16, literal(-10)))
          CFI V5 load(1, XDATA, add(CFA_XSP16, literal(-9)))
          CFI V6 load(1, XDATA, add(CFA_XSP16, literal(-8)))
          CFI V7 load(1, XDATA, add(CFA_XSP16, literal(-7)))
          CFI ?BRET_EXT load(1, XDATA, add(CFA_XSP16, literal(-3)))
          CFI ?RET_HIGH load(1, XDATA, add(CFA_XSP16, literal(-4)))
          CFI ?RET_LOW load(1, XDATA, add(CFA_XSP16, literal(-5)))
        MOV     R7,#0x8
        LJMP    ?BANKED_LEAVE_XDATA
          CFI CFA_SP SP+-3
          CFI CFA_XSP16 XSP16+0
          CFI VB SameValue
          CFI DPL0 SameValue
          CFI DPH0 SameValue
          CFI R6 SameValue
          CFI R7 SameValue
          CFI V0 SameValue
          CFI V1 SameValue
          CFI V2 SameValue
          CFI V3 SameValue
          CFI V4 SameValue
          CFI V5 SameValue
          CFI V6 SameValue
          CFI V7 SameValue
          CFI ?BRET_EXT Frame(CFA_SP, 3)
          CFI ?RET_HIGH Frame(CFA_SP, 2)
          CFI ?RET_LOW Frame(CFA_SP, 1)
          CFI EndBlock cfiBlock82
//  900 
//  901 /*********************************************************************
//  902  * @fn      writeWord
//  903  *
//  904  * @brief   Writes a Flash-WORD to NV.
//  905  *
//  906  * @param   pg - A valid NV Flash page.
//  907  * @param   offset - A valid offset into the page.
//  908  * @param   buf - Pointer to source buffer.
//  909  *
//  910  * @return  none
//  911  */
//  912 static void writeWord( uint8 pg, uint16 offset, uint8 *buf )
//  913 {
//  914   offset = (offset / HAL_FLASH_WORD_SIZE) +
//  915           ((uint16)pg * (HAL_FLASH_PAGE_SIZE / HAL_FLASH_WORD_SIZE));
//  916 
//  917   HalFlashWrite(offset, buf, 1);
//  918 }
//  919 
//  920 /*********************************************************************
//  921  * @fn      writeWordM
//  922  *
//  923  * @brief   Writes multiple Flash-WORDs to NV.
//  924  *
//  925  * @param   pg - A valid NV Flash page.
//  926  * @param   offset - A valid offset into the page.
//  927  * @param   buf - Pointer to source buffer.
//  928  * @param   cnt - Number of 4-byte blocks to write.
//  929  *
//  930  * @return  none
//  931  */
//  932 static void writeWordM( uint8 pg, uint16 offset, uint8 *buf, uint16 cnt )
//  933 {
//  934   offset = (offset / HAL_FLASH_WORD_SIZE) +
//  935           ((uint16)pg * (HAL_FLASH_PAGE_SIZE / HAL_FLASH_WORD_SIZE));
//  936   HalFlashWrite(offset, buf, cnt);
//  937 }
//  938 
//  939 /*********************************************************************
//  940  * @fn      writeWordH
//  941  *
//  942  * @brief   Writes the 1st half of a Flash-WORD to NV (filling 2nd half with 0xffff).
//  943  *
//  944  * @param   pg - A valid NV Flash page.
//  945  * @param   offset - A valid offset into the page.
//  946  * @param   buf - Pointer to source buffer.
//  947  *
//  948  * @return  none
//  949  */

        RSEG BANKED_CODE:CODE:NOROOT(0)
//  950 static void writeWordH( uint8 pg, uint16 offset, uint8 *buf )
writeWordH:
          CFI Block cfiBlock83 Using cfiCommon0
          CFI Function writeWordH
        CODE
//  951 {
        FUNCALL writeWordH, HalFlashWrite
        LOCFRAME ISTACK, 0, STACK
        LOCFRAME PSTACK, 0, STACK
        LOCFRAME XSTACK, 18, STACK
        LOCFRAME IOVERLAY, 0, STATIC
        LOCFRAME DOVERLAY, 0, STATIC
        ARGFRAME ISTACK, 0, STACK
        ARGFRAME PSTACK, 0, STACK
        ARGFRAME XSTACK, 18, STACK
        ARGFRAME IOVERLAY, 0, STATIC
        ARGFRAME DOVERLAY, 0, STATIC
        REQUIRE ?V0
        REQUIRE ?V1
        REQUIRE ?V2
        REQUIRE ?V3
        MOV     A,#-0xc
        LCALL   ?BANKED_ENTER_XDATA
          CFI DPH0 load(1, XDATA, add(CFA_XSP16, literal(-1)))
          CFI DPL0 load(1, XDATA, add(CFA_XSP16, literal(-2)))
          CFI ?BRET_EXT load(1, XDATA, add(CFA_XSP16, literal(-3)))
          CFI ?RET_HIGH load(1, XDATA, add(CFA_XSP16, literal(-4)))
          CFI ?RET_LOW load(1, XDATA, add(CFA_XSP16, literal(-5)))
          CFI R7 load(1, XDATA, add(CFA_XSP16, literal(-6)))
          CFI V3 load(1, XDATA, add(CFA_XSP16, literal(-7)))
          CFI V2 load(1, XDATA, add(CFA_XSP16, literal(-8)))
          CFI V1 load(1, XDATA, add(CFA_XSP16, literal(-9)))
          CFI V0 load(1, XDATA, add(CFA_XSP16, literal(-10)))
          CFI VB load(1, XDATA, add(CFA_XSP16, literal(-11)))
          CFI R6 load(1, XDATA, add(CFA_XSP16, literal(-12)))
          CFI CFA_SP SP+0
          CFI CFA_XSP16 add(XSP16, 12)
        ; Saved register size: 12
        ; Auto size: 4
        MOV     A,#-0x4
        LCALL   ?ALLOC_XSTACK8
          CFI CFA_XSP16 add(XSP16, 16)
        MOV     A,R1
        MOV     R6,A
//  952   uint8 tmp[4];
//  953 
//  954   tmp[0] = buf[0];
        MOV     DPL,R4
        MOV     DPH,R5
        MOVX    A,@DPTR
        MOV     DPL,?XSP + 0
        MOV     DPH,?XSP + 1
        MOVX    @DPTR,A
//  955   tmp[1] = buf[1];
        MOV     DPL,R4
        MOV     DPH,R5
        INC     DPTR
        MOVX    A,@DPTR
        PUSH    A
          CFI CFA_SP SP+-1
        MOV     A,#0x1
        LCALL   ?XSTACK_DISP0_8
        POP     A
          CFI CFA_SP SP+0
        MOVX    @DPTR,A
//  956   tmp[2] = OSAL_NV_ERASED;
        MOV     A,#0x2
        LCALL   ?XSTACK_DISP0_8
        MOV     A,#-0x1
        MOVX    @DPTR,A
//  957   tmp[3] = OSAL_NV_ERASED;
        MOV     A,#0x3
        LCALL   ?XSTACK_DISP0_8
        MOV     A,#-0x1
        MOVX    @DPTR,A
//  958 
//  959   writeWord( pg, offset, tmp );
        ; Setup parameters for call to function HalFlashWrite
        MOV     ?V0,#0x1
        MOV     ?V1,#0x0
        MOV     R0,#?V0
        LCALL   ?PUSH_XSTACK_I_TWO
          CFI CFA_XSP16 add(XSP16, 18)
        MOV     A,#0x2
        LCALL   ?XSTACK_DISP102_8
        MOV     ?V0,R2
        MOV     ?V1,R3
        MOV     A,#0x2
        MOV     R0,#?V0
        LCALL   ?US_SHR
        MOV     ?V2,R6
        MOV     ?V3,A
        MOV     A,#0x9
        MOV     R0,#?V2
        LCALL   ?S_SHL
        MOV     A,?V0
        ADD     A,#0x0
        MOV     R2,A
        MOV     A,?V1
        ADDC    A,?V3
        MOV     R3,A
        LCALL   `??HalFlashWrite::?relay`; Banked call to: HalFlashWrite
        MOV     A,#0x2
        LCALL   ?DEALLOC_XSTACK8
          CFI CFA_XSP16 add(XSP16, 16)
//  960 }
        MOV     A,#0x4
          CFI EndBlock cfiBlock83
        REQUIRE ?Subroutine0
        ; // Fall through to label ?Subroutine0

        RSEG BANKED_CODE:CODE:NOROOT(0)
?Subroutine0:
          CFI Block cfiBlock84 Using cfiCommon0
          CFI NoFunction
          CFI CFA_SP SP+0
          CFI CFA_XSP16 add(XSP16, 28)
          CFI VB load(1, XDATA, add(CFA_XSP16, literal(-11)))
          CFI DPL0 load(1, XDATA, add(CFA_XSP16, literal(-2)))
          CFI DPH0 load(1, XDATA, add(CFA_XSP16, literal(-1)))
          CFI R6 load(1, XDATA, add(CFA_XSP16, literal(-12)))
          CFI R7 load(1, XDATA, add(CFA_XSP16, literal(-6)))
          CFI V0 load(1, XDATA, add(CFA_XSP16, literal(-10)))
          CFI V1 load(1, XDATA, add(CFA_XSP16, literal(-9)))
          CFI V2 load(1, XDATA, add(CFA_XSP16, literal(-8)))
          CFI V3 load(1, XDATA, add(CFA_XSP16, literal(-7)))
          CFI ?BRET_EXT load(1, XDATA, add(CFA_XSP16, literal(-3)))
          CFI ?RET_HIGH load(1, XDATA, add(CFA_XSP16, literal(-4)))
          CFI ?RET_LOW load(1, XDATA, add(CFA_XSP16, literal(-5)))
          CFI Invalid
        LCALL   ?DEALLOC_XSTACK8
          CFI CFA_XSP16 add(XSP16, 12)
          CFI Valid
          CFI EndBlock cfiBlock84
        REQUIRE ??Subroutine48_0
        ; // Fall through to label ??Subroutine48_0

        RSEG BANKED_CODE:CODE:NOROOT(0)
??Subroutine48_0:
          CFI Block cfiBlock85 Using cfiCommon0
          CFI NoFunction
          CFI CFA_SP SP+0
          CFI CFA_XSP16 add(XSP16, 12)
          CFI VB load(1, XDATA, add(CFA_XSP16, literal(-11)))
          CFI DPL0 load(1, XDATA, add(CFA_XSP16, literal(-2)))
          CFI DPH0 load(1, XDATA, add(CFA_XSP16, literal(-1)))
          CFI R6 load(1, XDATA, add(CFA_XSP16, literal(-12)))
          CFI R7 load(1, XDATA, add(CFA_XSP16, literal(-6)))
          CFI V0 load(1, XDATA, add(CFA_XSP16, literal(-10)))
          CFI V1 load(1, XDATA, add(CFA_XSP16, literal(-9)))
          CFI V2 load(1, XDATA, add(CFA_XSP16, literal(-8)))
          CFI V3 load(1, XDATA, add(CFA_XSP16, literal(-7)))
          CFI ?BRET_EXT load(1, XDATA, add(CFA_XSP16, literal(-3)))
          CFI ?RET_HIGH load(1, XDATA, add(CFA_XSP16, literal(-4)))
          CFI ?RET_LOW load(1, XDATA, add(CFA_XSP16, literal(-5)))
        MOV     R7,#0x4
        LJMP    ?BANKED_LEAVE_XDATA
          CFI CFA_SP SP+-3
          CFI CFA_XSP16 XSP16+0
          CFI VB SameValue
          CFI DPL0 SameValue
          CFI DPH0 SameValue
          CFI R6 SameValue
          CFI R7 SameValue
          CFI V0 SameValue
          CFI V1 SameValue
          CFI V2 SameValue
          CFI V3 SameValue
          CFI ?BRET_EXT Frame(CFA_SP, 3)
          CFI ?RET_HIGH Frame(CFA_SP, 2)
          CFI ?RET_LOW Frame(CFA_SP, 1)
          CFI EndBlock cfiBlock85
//  961 
//  962 /*********************************************************************
//  963  * @fn      writeBuf
//  964  *
//  965  * @brief   Writes a data buffer to NV.
//  966  *
//  967  * @param   dstPg - A valid NV Flash page.
//  968  * @param   offset - A valid offset into the page.
//  969  * @param   len  - Byte count of the data to write.
//  970  * @param   buf  - The data to write.
//  971  *
//  972  * @return  TRUE if data buf checksum matches read back checksum, else FALSE.
//  973  */

        RSEG BANKED_CODE:CODE:NOROOT(0)
//  974 static void writeBuf( uint8 dstPg, uint16 dstOff, uint16 len, uint8 *buf )
writeBuf:
          CFI Block cfiBlock86 Using cfiCommon0
          CFI Function writeBuf
        CODE
//  975 {
        FUNCALL writeBuf, HalFlashRead
        LOCFRAME ISTACK, 0, STACK
        LOCFRAME PSTACK, 0, STACK
        LOCFRAME XSTACK, 24, STACK
        LOCFRAME IOVERLAY, 0, STATIC
        LOCFRAME DOVERLAY, 0, STATIC
        ARGFRAME ISTACK, 0, STACK
        ARGFRAME PSTACK, 0, STACK
        ARGFRAME XSTACK, 24, STACK
        ARGFRAME IOVERLAY, 0, STATIC
        ARGFRAME DOVERLAY, 0, STATIC
        FUNCALL writeBuf, HalFlashWrite
        LOCFRAME ISTACK, 0, STACK
        LOCFRAME PSTACK, 0, STACK
        LOCFRAME XSTACK, 24, STACK
        LOCFRAME IOVERLAY, 0, STATIC
        LOCFRAME DOVERLAY, 0, STATIC
        ARGFRAME ISTACK, 0, STACK
        ARGFRAME PSTACK, 0, STACK
        ARGFRAME XSTACK, 24, STACK
        ARGFRAME IOVERLAY, 0, STATIC
        ARGFRAME DOVERLAY, 0, STATIC
        FUNCALL writeBuf, HalFlashWrite
        LOCFRAME ISTACK, 0, STACK
        LOCFRAME PSTACK, 0, STACK
        LOCFRAME XSTACK, 24, STACK
        LOCFRAME IOVERLAY, 0, STATIC
        LOCFRAME DOVERLAY, 0, STATIC
        ARGFRAME ISTACK, 0, STACK
        ARGFRAME PSTACK, 0, STACK
        ARGFRAME XSTACK, 24, STACK
        ARGFRAME IOVERLAY, 0, STATIC
        ARGFRAME DOVERLAY, 0, STATIC
        FUNCALL writeBuf, HalFlashRead
        LOCFRAME ISTACK, 0, STACK
        LOCFRAME PSTACK, 0, STACK
        LOCFRAME XSTACK, 24, STACK
        LOCFRAME IOVERLAY, 0, STATIC
        LOCFRAME DOVERLAY, 0, STATIC
        ARGFRAME ISTACK, 0, STACK
        ARGFRAME PSTACK, 0, STACK
        ARGFRAME XSTACK, 24, STACK
        ARGFRAME IOVERLAY, 0, STATIC
        ARGFRAME DOVERLAY, 0, STATIC
        FUNCALL writeBuf, HalFlashWrite
        LOCFRAME ISTACK, 0, STACK
        LOCFRAME PSTACK, 0, STACK
        LOCFRAME XSTACK, 24, STACK
        LOCFRAME IOVERLAY, 0, STATIC
        LOCFRAME DOVERLAY, 0, STATIC
        ARGFRAME ISTACK, 0, STACK
        ARGFRAME PSTACK, 0, STACK
        ARGFRAME XSTACK, 24, STACK
        ARGFRAME IOVERLAY, 0, STATIC
        ARGFRAME DOVERLAY, 0, STATIC
        REQUIRE ?V0
        REQUIRE ?V1
        REQUIRE ?V2
        REQUIRE ?V3
        REQUIRE ?V4
        REQUIRE ?V5
        REQUIRE ?V6
        REQUIRE ?V7
        REQUIRE ?V8
        REQUIRE ?V9
        MOV     A,#-0x12
        LCALL   ?BANKED_ENTER_XDATA
          CFI DPH0 load(1, XDATA, add(CFA_XSP16, literal(-1)))
          CFI DPL0 load(1, XDATA, add(CFA_XSP16, literal(-2)))
          CFI ?BRET_EXT load(1, XDATA, add(CFA_XSP16, literal(-3)))
          CFI ?RET_HIGH load(1, XDATA, add(CFA_XSP16, literal(-4)))
          CFI ?RET_LOW load(1, XDATA, add(CFA_XSP16, literal(-5)))
          CFI R7 load(1, XDATA, add(CFA_XSP16, literal(-6)))
          CFI V9 load(1, XDATA, add(CFA_XSP16, literal(-7)))
          CFI V8 load(1, XDATA, add(CFA_XSP16, literal(-8)))
          CFI V7 load(1, XDATA, add(CFA_XSP16, literal(-9)))
          CFI V6 load(1, XDATA, add(CFA_XSP16, literal(-10)))
          CFI V5 load(1, XDATA, add(CFA_XSP16, literal(-11)))
          CFI V4 load(1, XDATA, add(CFA_XSP16, literal(-12)))
          CFI V3 load(1, XDATA, add(CFA_XSP16, literal(-13)))
          CFI V2 load(1, XDATA, add(CFA_XSP16, literal(-14)))
          CFI V1 load(1, XDATA, add(CFA_XSP16, literal(-15)))
          CFI V0 load(1, XDATA, add(CFA_XSP16, literal(-16)))
          CFI VB load(1, XDATA, add(CFA_XSP16, literal(-17)))
          CFI R6 load(1, XDATA, add(CFA_XSP16, literal(-18)))
          CFI CFA_SP SP+0
          CFI CFA_XSP16 add(XSP16, 18)
        ; Saved register size: 18
        ; Auto size: 4
        MOV     A,#-0x4
        LCALL   ?ALLOC_XSTACK8
          CFI CFA_XSP16 add(XSP16, 22)
        MOV     ?V1,R1
        MOV     ?V2,R2
        MOV     ?V3,R3
        MOV     ?V4,R4
        MOV     ?V5,R5
//  976   uint8 rem = dstOff % OSAL_NV_WORD_SIZE;
        MOV     A,R2
        ANL     A,#0x3
        MOV     ?V0,A
        MOV     A,#0x16
        LCALL   ?XSTACK_DISP0_8
        MOVX    A,@DPTR
        MOV     R6,A
        INC     DPTR
        MOVX    A,@DPTR
        MOV     R7,A
//  977   uint8 tmp[OSAL_NV_WORD_SIZE];
//  978 
//  979   if ( rem )
        MOV     A,?V0
        JNZ     $+5
        LJMP    ??CrossCallReturnLabel_83 & 0xFFFF
//  980   {
//  981     dstOff = (dstOff / OSAL_NV_WORD_SIZE) * OSAL_NV_WORD_SIZE;
        MOV     A,#-0x4
        ANL     A,?V2
        MOV     ?V2,A
//  982     HalFlashRead(dstPg, dstOff, tmp, OSAL_NV_WORD_SIZE);
        ; Setup parameters for call to function HalFlashRead
        MOV     ?V6,#0x4
        MOV     ?V7,#0x0
        MOV     R0,#?V6
        LCALL   ?PUSH_XSTACK_I_TWO
          CFI CFA_XSP16 add(XSP16, 24)
        MOV     A,#0x2
        LCALL   ?XSTACK_DISP102_8
        MOV     R2,?V2
        LCALL   `??HalFlashRead::?relay`; Banked call to: HalFlashRead
        MOV     A,#0x2
        LCALL   ?DEALLOC_XSTACK8
          CFI CFA_XSP16 add(XSP16, 22)
        MOV     R0,?V0
        MOV     DPL,?XSP + 0
        MOV     DPH,?XSP + 1
        MOV     A,DPL
        ADD     A,R0
        MOV     R0,A
        CLR     A
        ADDC    A,DPH
        MOV     R1,A
??writeBuf_0:
        MOV     A,?V4
        ORL     A,?V5
        JZ      ??writeBuf_1
//  983 
//  984     while ( (rem < OSAL_NV_WORD_SIZE) && len )
//  985     {
//  986       tmp[rem++] = *buf++;
        MOV     DPL,R6
        MOV     DPH,R7
        MOVX    A,@DPTR
        MOV     DPL,R0
        MOV     DPH,R1
        LCALL   ?Subroutine12 & 0xFFFF
??CrossCallReturnLabel_9:
        INC     ?V0
//  987       len--;
        MOV     A,?V4
        ADD     A,#-0x1
        MOV     ?V4,A
        MOV     A,?V5
        ADDC    A,#-0x1
        MOV     ?V5,A
        MOV     DPL,R0
        MOV     DPH,R1
        INC     DPTR
        MOV     R0,DPL
        MOV     R1,DPH
//  988     }
        MOV     A,?V0
        CLR     C
        SUBB    A,#0x4
        JC      ??writeBuf_0
//  989 
//  990     writeWord( dstPg, dstOff, tmp );
??writeBuf_1:
        ; Setup parameters for call to function HalFlashWrite
        MOV     ?V6,#0x1
        MOV     R0,#?V6
        LCALL   ?PUSH_XSTACK_I_TWO
          CFI CFA_XSP16 add(XSP16, 24)
        MOV     A,#0x2
        LCALL   ?XSTACK_DISP102_8
        MOV     ?V8,?V2
        MOV     ?V9,?V3
        MOV     A,#0x2
        MOV     R0,#?V8
        LCALL   ?US_SHR
        MOV     ?V0,?V1
        MOV     ?V6,?V0
        MOV     A,#0x9
        MOV     R0,#?V6
        LCALL   ?S_SHL
        LCALL   ?Subroutine38 & 0xFFFF
??CrossCallReturnLabel_74:
        LCALL   `??HalFlashWrite::?relay`; Banked call to: HalFlashWrite
        MOV     A,#0x2
        LCALL   ?DEALLOC_XSTACK8
          CFI CFA_XSP16 add(XSP16, 22)
//  991     dstOff += OSAL_NV_WORD_SIZE;
        LCALL   ?Subroutine42 & 0xFFFF
//  992   }
//  993 
//  994   rem = len % OSAL_NV_WORD_SIZE;
??CrossCallReturnLabel_83:
        MOV     A,?V4
        ANL     A,#0x3
        MOV     ?V0,A
//  995   len /= OSAL_NV_WORD_SIZE;
        MOV     ?V6,?V4
        MOV     ?V7,?V5
        MOV     A,#0x2
        MOV     R0,#?V6
        LCALL   ?US_SHR
        MOV     ?V4,?V6
        MOV     ?V5,?V7
//  996 
//  997   if ( len )
        MOV     A,?V4
        ORL     A,?V5
        JZ      ??writeBuf_2
//  998   {
//  999     writeWordM( dstPg, dstOff, buf, len );
        ; Setup parameters for call to function HalFlashWrite
        MOV     R0,#?V4
        LCALL   ?PUSH_XSTACK_I_TWO
          CFI CFA_XSP16 add(XSP16, 24)
        MOV     A,R6
        MOV     R4,A
        MOV     A,R7
        MOV     R5,A
        MOV     ?V8,?V2
        MOV     ?V9,?V3
        MOV     A,#0x2
        MOV     R0,#?V8
        LCALL   ?US_SHR
        MOV     ?V6,?V1
        MOV     ?V7,A
        MOV     A,#0x9
        MOV     R0,#?V6
        LCALL   ?S_SHL
        LCALL   ?Subroutine38 & 0xFFFF
??CrossCallReturnLabel_75:
        LCALL   `??HalFlashWrite::?relay`; Banked call to: HalFlashWrite
        MOV     A,#0x2
        LCALL   ?DEALLOC_XSTACK8
          CFI CFA_XSP16 add(XSP16, 22)
// 1000     dstOff += OSAL_NV_WORD_SIZE * len;
        MOV     A,#0x2
        MOV     R0,#?V4
        LCALL   ?S_SHL
        MOV     R0,?V4
        MOV     R1,?V5
        MOV     A,?V2
        ADD     A,R0
        MOV     ?V2,A
        MOV     A,?V3
        ADDC    A,R1
        MOV     ?V3,A
// 1001     buf += OSAL_NV_WORD_SIZE * len;
        MOV     A,R6
        ADD     A,R0
        MOV     R6,A
        MOV     A,R7
        ADDC    A,R1
        MOV     R7,A
// 1002   }
// 1003 
// 1004   if ( rem )
??writeBuf_2:
        MOV     A,?V0
        JNZ     $+5
        LJMP    ??writeBuf_3 & 0xFFFF
// 1005   {
// 1006     uint8 idx = 0;
        MOV     ?V4,#0x0
// 1007     HalFlashRead(dstPg, dstOff, tmp, OSAL_NV_WORD_SIZE);
        ; Setup parameters for call to function HalFlashRead
        MOV     ?V6,#0x4
        MOV     ?V7,#0x0
        MOV     R0,#?V6
        LCALL   ?PUSH_XSTACK_I_TWO
          CFI CFA_XSP16 add(XSP16, 24)
        MOV     A,#0x2
        LCALL   ?XSTACK_DISP102_8
        MOV     R2,?V2
        MOV     R3,?V3
        MOV     R1,?V1
        LCALL   `??HalFlashRead::?relay`; Banked call to: HalFlashRead
        MOV     A,#0x2
        LCALL   ?DEALLOC_XSTACK8
          CFI CFA_XSP16 add(XSP16, 22)
        MOV     ?V6,?V0
// 1008     while ( rem-- )
// 1009     {
// 1010       tmp[idx++] = *buf++;
??writeBuf_4:
        MOV     DPL,R6
        MOV     DPH,R7
        MOVX    A,@DPTR
        PUSH    A
          CFI CFA_SP SP+-1
        MOV     R0,?V4
        MOV     DPL,?XSP + 0
        MOV     DPH,?XSP + 1
        MOV     A,DPL
        ADD     A,R0
        MOV     DPL,A
        CLR     A
        ADDC    A,DPH
        MOV     DPH,A
        POP     A
          CFI CFA_SP SP+0
        LCALL   ?Subroutine12 & 0xFFFF
// 1011     }
??CrossCallReturnLabel_10:
        INC     ?V4
        DEC     ?V6
        MOV     A,?V6
        JNZ     ??writeBuf_4
// 1012     writeWord( dstPg, dstOff, tmp );
        ; Setup parameters for call to function HalFlashWrite
        MOV     ?V4,#0x1
        MOV     ?V5,#0x0
        MOV     R0,#?V4
        LCALL   ?PUSH_XSTACK_I_TWO
          CFI CFA_XSP16 add(XSP16, 24)
        MOV     A,#0x2
        LCALL   ?XSTACK_DISP102_8
        MOV     A,#0x2
        MOV     R0,#?V2
        LCALL   ?US_SHR
        MOV     ?V0,?V1
        MOV     ?V4,?V0
        MOV     A,#0x9
        MOV     R0,#?V4
        LCALL   ?S_SHL
        MOV     A,?V2
        ADD     A,#0x0
        MOV     R2,A
        MOV     A,?V3
        ADDC    A,?V5
        MOV     R3,A
        LCALL   `??HalFlashWrite::?relay`; Banked call to: HalFlashWrite
        MOV     A,#0x2
        LCALL   ?DEALLOC_XSTACK8
          CFI CFA_XSP16 add(XSP16, 22)
// 1013   }
// 1014 }
??writeBuf_3:
        MOV     A,#0x4
        LJMP    ?Subroutine4 & 0xFFFF
          CFI EndBlock cfiBlock86

        RSEG BANKED_CODE:CODE:NOROOT(0)
?Subroutine42:
          CFI Block cfiCond87 Using cfiCommon0
          CFI Function calcChkF
          CFI Conditional ??CrossCallReturnLabel_82
          CFI R6 load(1, XDATA, add(CFA_XSP16, literal(-16)))
          CFI VB load(1, XDATA, add(CFA_XSP16, literal(-15)))
          CFI V0 load(1, XDATA, add(CFA_XSP16, literal(-14)))
          CFI V1 load(1, XDATA, add(CFA_XSP16, literal(-13)))
          CFI V2 load(1, XDATA, add(CFA_XSP16, literal(-12)))
          CFI V3 load(1, XDATA, add(CFA_XSP16, literal(-11)))
          CFI V4 load(1, XDATA, add(CFA_XSP16, literal(-10)))
          CFI V5 load(1, XDATA, add(CFA_XSP16, literal(-9)))
          CFI V6 load(1, XDATA, add(CFA_XSP16, literal(-8)))
          CFI V7 load(1, XDATA, add(CFA_XSP16, literal(-7)))
          CFI R7 load(1, XDATA, add(CFA_XSP16, literal(-6)))
          CFI ?RET_LOW load(1, XDATA, add(CFA_XSP16, literal(-5)))
          CFI ?RET_HIGH load(1, XDATA, add(CFA_XSP16, literal(-4)))
          CFI ?BRET_EXT load(1, XDATA, add(CFA_XSP16, literal(-3)))
          CFI DPL0 load(1, XDATA, add(CFA_XSP16, literal(-2)))
          CFI DPH0 load(1, XDATA, add(CFA_XSP16, literal(-1)))
          CFI CFA_SP SP+-2
          CFI CFA_XSP16 add(XSP16, 20)
          CFI Block cfiCond88 Using cfiCommon0
          CFI (cfiCond88) Function writeBuf
          CFI (cfiCond88) Conditional ??CrossCallReturnLabel_83
          CFI (cfiCond88) R6 load(1, XDATA, add(CFA_XSP16, literal(-18)))
          CFI (cfiCond88) VB load(1, XDATA, add(CFA_XSP16, literal(-17)))
          CFI (cfiCond88) V0 load(1, XDATA, add(CFA_XSP16, literal(-16)))
          CFI (cfiCond88) V1 load(1, XDATA, add(CFA_XSP16, literal(-15)))
          CFI (cfiCond88) V2 load(1, XDATA, add(CFA_XSP16, literal(-14)))
          CFI (cfiCond88) V3 load(1, XDATA, add(CFA_XSP16, literal(-13)))
          CFI (cfiCond88) V4 load(1, XDATA, add(CFA_XSP16, literal(-12)))
          CFI (cfiCond88) V5 load(1, XDATA, add(CFA_XSP16, literal(-11)))
          CFI (cfiCond88) V6 load(1, XDATA, add(CFA_XSP16, literal(-10)))
          CFI (cfiCond88) V7 load(1, XDATA, add(CFA_XSP16, literal(-9)))
          CFI (cfiCond88) V8 load(1, XDATA, add(CFA_XSP16, literal(-8)))
          CFI (cfiCond88) V9 load(1, XDATA, add(CFA_XSP16, literal(-7)))
          CFI (cfiCond88) R7 load(1, XDATA, add(CFA_XSP16, literal(-6)))
          CFI (cfiCond88) ?RET_LOW load(1, XDATA, add(CFA_XSP16, literal(-5)))
          CFI (cfiCond88) ?RET_HIGH load(1, XDATA, add(CFA_XSP16, literal(-4)))
          CFI (cfiCond88) ?BRET_EXT load(1, XDATA, add(CFA_XSP16, literal(-3)))
          CFI (cfiCond88) DPL0 load(1, XDATA, add(CFA_XSP16, literal(-2)))
          CFI (cfiCond88) DPH0 load(1, XDATA, add(CFA_XSP16, literal(-1)))
          CFI (cfiCond88) CFA_SP SP+-2
          CFI (cfiCond88) CFA_XSP16 add(XSP16, 22)
          CFI Block cfiPicker89 Using cfiCommon1
          CFI (cfiPicker89) NoFunction
          CFI (cfiPicker89) Picker
        MOV     A,?V2
        ADD     A,#0x4
        MOV     ?V2,A
        CLR     A
        ADDC    A,?V3
        MOV     ?V3,A
        RET
          CFI (cfiCond87) CFA_SP SP+0
          CFI (cfiCond88) CFA_SP SP+0
          CFI (cfiPicker89) CFA_SP SP+0
          CFI EndBlock cfiCond87
          CFI EndBlock cfiCond88
          CFI EndBlock cfiPicker89

        RSEG BANKED_CODE:CODE:NOROOT(0)
?Subroutine38:
          CFI Block cfiCond90 Using cfiCommon0
          CFI Function writeBuf
          CFI Conditional ??CrossCallReturnLabel_74
          CFI R6 load(1, XDATA, add(CFA_XSP16, literal(-18)))
          CFI VB load(1, XDATA, add(CFA_XSP16, literal(-17)))
          CFI V0 load(1, XDATA, add(CFA_XSP16, literal(-16)))
          CFI V1 load(1, XDATA, add(CFA_XSP16, literal(-15)))
          CFI V2 load(1, XDATA, add(CFA_XSP16, literal(-14)))
          CFI V3 load(1, XDATA, add(CFA_XSP16, literal(-13)))
          CFI V4 load(1, XDATA, add(CFA_XSP16, literal(-12)))
          CFI V5 load(1, XDATA, add(CFA_XSP16, literal(-11)))
          CFI V6 load(1, XDATA, add(CFA_XSP16, literal(-10)))
          CFI V7 load(1, XDATA, add(CFA_XSP16, literal(-9)))
          CFI V8 load(1, XDATA, add(CFA_XSP16, literal(-8)))
          CFI V9 load(1, XDATA, add(CFA_XSP16, literal(-7)))
          CFI R7 load(1, XDATA, add(CFA_XSP16, literal(-6)))
          CFI ?RET_LOW load(1, XDATA, add(CFA_XSP16, literal(-5)))
          CFI ?RET_HIGH load(1, XDATA, add(CFA_XSP16, literal(-4)))
          CFI ?BRET_EXT load(1, XDATA, add(CFA_XSP16, literal(-3)))
          CFI DPL0 load(1, XDATA, add(CFA_XSP16, literal(-2)))
          CFI DPH0 load(1, XDATA, add(CFA_XSP16, literal(-1)))
          CFI CFA_SP SP+-2
          CFI CFA_XSP16 add(XSP16, 24)
          CFI Block cfiCond91 Using cfiCommon0
          CFI (cfiCond91) Function writeBuf
          CFI (cfiCond91) Conditional ??CrossCallReturnLabel_75
          CFI (cfiCond91) R6 load(1, XDATA, add(CFA_XSP16, literal(-18)))
          CFI (cfiCond91) VB load(1, XDATA, add(CFA_XSP16, literal(-17)))
          CFI (cfiCond91) V0 load(1, XDATA, add(CFA_XSP16, literal(-16)))
          CFI (cfiCond91) V1 load(1, XDATA, add(CFA_XSP16, literal(-15)))
          CFI (cfiCond91) V2 load(1, XDATA, add(CFA_XSP16, literal(-14)))
          CFI (cfiCond91) V3 load(1, XDATA, add(CFA_XSP16, literal(-13)))
          CFI (cfiCond91) V4 load(1, XDATA, add(CFA_XSP16, literal(-12)))
          CFI (cfiCond91) V5 load(1, XDATA, add(CFA_XSP16, literal(-11)))
          CFI (cfiCond91) V6 load(1, XDATA, add(CFA_XSP16, literal(-10)))
          CFI (cfiCond91) V7 load(1, XDATA, add(CFA_XSP16, literal(-9)))
          CFI (cfiCond91) V8 load(1, XDATA, add(CFA_XSP16, literal(-8)))
          CFI (cfiCond91) V9 load(1, XDATA, add(CFA_XSP16, literal(-7)))
          CFI (cfiCond91) R7 load(1, XDATA, add(CFA_XSP16, literal(-6)))
          CFI (cfiCond91) ?RET_LOW load(1, XDATA, add(CFA_XSP16, literal(-5)))
          CFI (cfiCond91) ?RET_HIGH load(1, XDATA, add(CFA_XSP16, literal(-4)))
          CFI (cfiCond91) ?BRET_EXT load(1, XDATA, add(CFA_XSP16, literal(-3)))
          CFI (cfiCond91) DPL0 load(1, XDATA, add(CFA_XSP16, literal(-2)))
          CFI (cfiCond91) DPH0 load(1, XDATA, add(CFA_XSP16, literal(-1)))
          CFI (cfiCond91) CFA_SP SP+-2
          CFI (cfiCond91) CFA_XSP16 add(XSP16, 24)
          CFI Block cfiPicker92 Using cfiCommon1
          CFI (cfiPicker92) NoFunction
          CFI (cfiPicker92) Picker
        MOV     A,?V8
        ADD     A,#0x0
        MOV     R2,A
        MOV     A,?V9
        ADDC    A,?V7
        MOV     R3,A
        RET
          CFI (cfiCond90) CFA_SP SP+0
          CFI (cfiCond91) CFA_SP SP+0
          CFI (cfiPicker92) CFA_SP SP+0
          CFI EndBlock cfiCond90
          CFI EndBlock cfiCond91
          CFI EndBlock cfiPicker92

        RSEG BANKED_CODE:CODE:NOROOT(0)
?Subroutine12:
          CFI Block cfiCond93 Using cfiCommon0
          CFI Function writeBuf
          CFI Conditional ??CrossCallReturnLabel_9
          CFI R6 load(1, XDATA, add(CFA_XSP16, literal(-18)))
          CFI VB load(1, XDATA, add(CFA_XSP16, literal(-17)))
          CFI V0 load(1, XDATA, add(CFA_XSP16, literal(-16)))
          CFI V1 load(1, XDATA, add(CFA_XSP16, literal(-15)))
          CFI V2 load(1, XDATA, add(CFA_XSP16, literal(-14)))
          CFI V3 load(1, XDATA, add(CFA_XSP16, literal(-13)))
          CFI V4 load(1, XDATA, add(CFA_XSP16, literal(-12)))
          CFI V5 load(1, XDATA, add(CFA_XSP16, literal(-11)))
          CFI V6 load(1, XDATA, add(CFA_XSP16, literal(-10)))
          CFI V7 load(1, XDATA, add(CFA_XSP16, literal(-9)))
          CFI V8 load(1, XDATA, add(CFA_XSP16, literal(-8)))
          CFI V9 load(1, XDATA, add(CFA_XSP16, literal(-7)))
          CFI R7 load(1, XDATA, add(CFA_XSP16, literal(-6)))
          CFI ?RET_LOW load(1, XDATA, add(CFA_XSP16, literal(-5)))
          CFI ?RET_HIGH load(1, XDATA, add(CFA_XSP16, literal(-4)))
          CFI ?BRET_EXT load(1, XDATA, add(CFA_XSP16, literal(-3)))
          CFI DPL0 load(1, XDATA, add(CFA_XSP16, literal(-2)))
          CFI DPH0 load(1, XDATA, add(CFA_XSP16, literal(-1)))
          CFI CFA_SP SP+-2
          CFI CFA_XSP16 add(XSP16, 22)
          CFI Block cfiCond94 Using cfiCommon0
          CFI (cfiCond94) Function writeBuf
          CFI (cfiCond94) Conditional ??CrossCallReturnLabel_10
          CFI (cfiCond94) R6 load(1, XDATA, add(CFA_XSP16, literal(-18)))
          CFI (cfiCond94) VB load(1, XDATA, add(CFA_XSP16, literal(-17)))
          CFI (cfiCond94) V0 load(1, XDATA, add(CFA_XSP16, literal(-16)))
          CFI (cfiCond94) V1 load(1, XDATA, add(CFA_XSP16, literal(-15)))
          CFI (cfiCond94) V2 load(1, XDATA, add(CFA_XSP16, literal(-14)))
          CFI (cfiCond94) V3 load(1, XDATA, add(CFA_XSP16, literal(-13)))
          CFI (cfiCond94) V4 load(1, XDATA, add(CFA_XSP16, literal(-12)))
          CFI (cfiCond94) V5 load(1, XDATA, add(CFA_XSP16, literal(-11)))
          CFI (cfiCond94) V6 load(1, XDATA, add(CFA_XSP16, literal(-10)))
          CFI (cfiCond94) V7 load(1, XDATA, add(CFA_XSP16, literal(-9)))
          CFI (cfiCond94) V8 load(1, XDATA, add(CFA_XSP16, literal(-8)))
          CFI (cfiCond94) V9 load(1, XDATA, add(CFA_XSP16, literal(-7)))
          CFI (cfiCond94) R7 load(1, XDATA, add(CFA_XSP16, literal(-6)))
          CFI (cfiCond94) ?RET_LOW load(1, XDATA, add(CFA_XSP16, literal(-5)))
          CFI (cfiCond94) ?RET_HIGH load(1, XDATA, add(CFA_XSP16, literal(-4)))
          CFI (cfiCond94) ?BRET_EXT load(1, XDATA, add(CFA_XSP16, literal(-3)))
          CFI (cfiCond94) DPL0 load(1, XDATA, add(CFA_XSP16, literal(-2)))
          CFI (cfiCond94) DPH0 load(1, XDATA, add(CFA_XSP16, literal(-1)))
          CFI (cfiCond94) CFA_SP SP+-2
          CFI (cfiCond94) CFA_XSP16 add(XSP16, 22)
          CFI Block cfiPicker95 Using cfiCommon1
          CFI (cfiPicker95) NoFunction
          CFI (cfiPicker95) Picker
        MOVX    @DPTR,A
        MOV     DPL,R6
        MOV     DPH,R7
        INC     DPTR
        MOV     R6,DPL
        MOV     R7,DPH
        RET
          CFI (cfiCond93) CFA_SP SP+0
          CFI (cfiCond94) CFA_SP SP+0
          CFI (cfiPicker95) CFA_SP SP+0
          CFI EndBlock cfiCond93
          CFI EndBlock cfiCond94
          CFI EndBlock cfiPicker95
// 1015 
// 1016 /*********************************************************************
// 1017  * @fn      xferBuf
// 1018  *
// 1019  * @brief   Xfers an NV buffer from one location to another, enforcing OSAL_NV_WORD_SIZE writes.
// 1020  *
// 1021  * @return  none
// 1022  */

        RSEG BANKED_CODE:CODE:NOROOT(0)
// 1023 static void xferBuf( uint8 srcPg, uint16 srcOff, uint8 dstPg, uint16 dstOff, uint16 len )
xferBuf:
          CFI Block cfiBlock96 Using cfiCommon0
          CFI Function xferBuf
        CODE
// 1024 {
        FUNCALL xferBuf, HalFlashRead
        LOCFRAME ISTACK, 0, STACK
        LOCFRAME PSTACK, 0, STACK
        LOCFRAME XSTACK, 26, STACK
        LOCFRAME IOVERLAY, 0, STATIC
        LOCFRAME DOVERLAY, 0, STATIC
        ARGFRAME ISTACK, 0, STACK
        ARGFRAME PSTACK, 0, STACK
        ARGFRAME XSTACK, 26, STACK
        ARGFRAME IOVERLAY, 0, STATIC
        ARGFRAME DOVERLAY, 0, STATIC
        FUNCALL xferBuf, HalFlashRead
        LOCFRAME ISTACK, 0, STACK
        LOCFRAME PSTACK, 0, STACK
        LOCFRAME XSTACK, 26, STACK
        LOCFRAME IOVERLAY, 0, STATIC
        LOCFRAME DOVERLAY, 0, STATIC
        ARGFRAME ISTACK, 0, STACK
        ARGFRAME PSTACK, 0, STACK
        ARGFRAME XSTACK, 26, STACK
        ARGFRAME IOVERLAY, 0, STATIC
        ARGFRAME DOVERLAY, 0, STATIC
        FUNCALL xferBuf, HalFlashWrite
        LOCFRAME ISTACK, 0, STACK
        LOCFRAME PSTACK, 0, STACK
        LOCFRAME XSTACK, 26, STACK
        LOCFRAME IOVERLAY, 0, STATIC
        LOCFRAME DOVERLAY, 0, STATIC
        ARGFRAME ISTACK, 0, STACK
        ARGFRAME PSTACK, 0, STACK
        ARGFRAME XSTACK, 26, STACK
        ARGFRAME IOVERLAY, 0, STATIC
        ARGFRAME DOVERLAY, 0, STATIC
        FUNCALL xferBuf, HalFlashRead
        LOCFRAME ISTACK, 0, STACK
        LOCFRAME PSTACK, 0, STACK
        LOCFRAME XSTACK, 26, STACK
        LOCFRAME IOVERLAY, 0, STATIC
        LOCFRAME DOVERLAY, 0, STATIC
        ARGFRAME ISTACK, 0, STACK
        ARGFRAME PSTACK, 0, STACK
        ARGFRAME XSTACK, 26, STACK
        ARGFRAME IOVERLAY, 0, STATIC
        ARGFRAME DOVERLAY, 0, STATIC
        FUNCALL xferBuf, HalFlashWrite
        LOCFRAME ISTACK, 0, STACK
        LOCFRAME PSTACK, 0, STACK
        LOCFRAME XSTACK, 26, STACK
        LOCFRAME IOVERLAY, 0, STATIC
        LOCFRAME DOVERLAY, 0, STATIC
        ARGFRAME ISTACK, 0, STACK
        ARGFRAME PSTACK, 0, STACK
        ARGFRAME XSTACK, 26, STACK
        ARGFRAME IOVERLAY, 0, STATIC
        ARGFRAME DOVERLAY, 0, STATIC
        FUNCALL xferBuf, HalFlashRead
        LOCFRAME ISTACK, 0, STACK
        LOCFRAME PSTACK, 0, STACK
        LOCFRAME XSTACK, 26, STACK
        LOCFRAME IOVERLAY, 0, STATIC
        LOCFRAME DOVERLAY, 0, STATIC
        ARGFRAME ISTACK, 0, STACK
        ARGFRAME PSTACK, 0, STACK
        ARGFRAME XSTACK, 26, STACK
        ARGFRAME IOVERLAY, 0, STATIC
        ARGFRAME DOVERLAY, 0, STATIC
        FUNCALL xferBuf, HalFlashRead
        LOCFRAME ISTACK, 0, STACK
        LOCFRAME PSTACK, 0, STACK
        LOCFRAME XSTACK, 26, STACK
        LOCFRAME IOVERLAY, 0, STATIC
        LOCFRAME DOVERLAY, 0, STATIC
        ARGFRAME ISTACK, 0, STACK
        ARGFRAME PSTACK, 0, STACK
        ARGFRAME XSTACK, 26, STACK
        ARGFRAME IOVERLAY, 0, STATIC
        ARGFRAME DOVERLAY, 0, STATIC
        FUNCALL xferBuf, HalFlashWrite
        LOCFRAME ISTACK, 0, STACK
        LOCFRAME PSTACK, 0, STACK
        LOCFRAME XSTACK, 26, STACK
        LOCFRAME IOVERLAY, 0, STATIC
        LOCFRAME DOVERLAY, 0, STATIC
        ARGFRAME ISTACK, 0, STACK
        ARGFRAME PSTACK, 0, STACK
        ARGFRAME XSTACK, 26, STACK
        ARGFRAME IOVERLAY, 0, STATIC
        ARGFRAME DOVERLAY, 0, STATIC
        REQUIRE ?V0
        REQUIRE ?V1
        REQUIRE ?V2
        REQUIRE ?V3
        REQUIRE ?V4
        REQUIRE ?V5
        REQUIRE ?V6
        REQUIRE ?V7
        REQUIRE ?V8
        REQUIRE ?V10
        REQUIRE ?V11
        MOV     A,#-0x14
        LCALL   ?BANKED_ENTER_XDATA
          CFI DPH0 load(1, XDATA, add(CFA_XSP16, literal(-1)))
          CFI DPL0 load(1, XDATA, add(CFA_XSP16, literal(-2)))
          CFI ?BRET_EXT load(1, XDATA, add(CFA_XSP16, literal(-3)))
          CFI ?RET_HIGH load(1, XDATA, add(CFA_XSP16, literal(-4)))
          CFI ?RET_LOW load(1, XDATA, add(CFA_XSP16, literal(-5)))
          CFI R7 load(1, XDATA, add(CFA_XSP16, literal(-6)))
          CFI V11 load(1, XDATA, add(CFA_XSP16, literal(-7)))
          CFI V10 load(1, XDATA, add(CFA_XSP16, literal(-8)))
          CFI V9 load(1, XDATA, add(CFA_XSP16, literal(-9)))
          CFI V8 load(1, XDATA, add(CFA_XSP16, literal(-10)))
          CFI V7 load(1, XDATA, add(CFA_XSP16, literal(-11)))
          CFI V6 load(1, XDATA, add(CFA_XSP16, literal(-12)))
          CFI V5 load(1, XDATA, add(CFA_XSP16, literal(-13)))
          CFI V4 load(1, XDATA, add(CFA_XSP16, literal(-14)))
          CFI V3 load(1, XDATA, add(CFA_XSP16, literal(-15)))
          CFI V2 load(1, XDATA, add(CFA_XSP16, literal(-16)))
          CFI V1 load(1, XDATA, add(CFA_XSP16, literal(-17)))
          CFI V0 load(1, XDATA, add(CFA_XSP16, literal(-18)))
          CFI VB load(1, XDATA, add(CFA_XSP16, literal(-19)))
          CFI R6 load(1, XDATA, add(CFA_XSP16, literal(-20)))
          CFI CFA_SP SP+0
          CFI CFA_XSP16 add(XSP16, 20)
        ; Saved register size: 20
        ; Auto size: 4
        MOV     A,#-0x4
        LCALL   ?ALLOC_XSTACK8
          CFI CFA_XSP16 add(XSP16, 24)
        MOV     ?V8,R1
        MOV     ?V4,R2
        MOV     ?V5,R3
        MOV     ?V3,R4
        MOV     A,#0x18
        LCALL   ?XSTACK_DISP0_8
        MOVX    A,@DPTR
        MOV     R6,A
        INC     DPTR
        MOVX    A,@DPTR
        MOV     R7,A
// 1025   uint8 rem = dstOff % OSAL_NV_WORD_SIZE;
        MOV     A,R6
        ANL     A,#0x3
        MOV     ?V2,A
        MOV     A,#0x1a
        LCALL   ?XSTACK_DISP0_8
        LCALL   ?Subroutine16 & 0xFFFF
// 1026   uint8 tmp[OSAL_NV_WORD_SIZE];
// 1027 
// 1028   if ( rem )
??CrossCallReturnLabel_19:
        MOV     A,?V2
        JNZ     $+5
        LJMP    ??xferBuf_0 & 0xFFFF
// 1029   {
// 1030     dstOff -= rem;
        MOV     R0,A
        CLR     C
        MOV     A,R6
        SUBB    A,R0
        MOV     R6,A
        MOV     A,R7
        SUBB    A,#0x0
        MOV     R7,A
// 1031     HalFlashRead(dstPg, dstOff, tmp, OSAL_NV_WORD_SIZE);
        ; Setup parameters for call to function HalFlashRead
        MOV     ?V6,#0x4
        MOV     ?V7,#0x0
        MOV     R0,#?V6
        LCALL   ?PUSH_XSTACK_I_TWO
          CFI CFA_XSP16 add(XSP16, 26)
        MOV     A,#0x2
        LCALL   ?XSTACK_DISP102_8
        MOV     A,R6
        MOV     R2,A
        MOV     A,R7
        MOV     R3,A
        MOV     R1,?V3
        LCALL   `??HalFlashRead::?relay`; Banked call to: HalFlashRead
        MOV     A,#0x2
        LCALL   ?DEALLOC_XSTACK8
          CFI CFA_XSP16 add(XSP16, 24)
        MOV     R0,?V2
        MOV     DPL,?XSP + 0
        MOV     DPH,?XSP + 1
        MOV     A,DPL
        ADD     A,R0
        MOV     ?V6,A
        CLR     A
        ADDC    A,DPH
        MOV     ?V7,A
??xferBuf_1:
        MOV     A,?V0
        ORL     A,?V1
        JZ      ??xferBuf_2
// 1032 
// 1033     while ( (rem < OSAL_NV_WORD_SIZE) && len )
// 1034     {
// 1035       HalFlashRead(srcPg, srcOff, tmp+rem, 1);
        ; Setup parameters for call to function HalFlashRead
        MOV     ?V10,#0x1
        MOV     ?V11,#0x0
        MOV     R0,#?V10
        LCALL   ?PUSH_XSTACK_I_TWO
          CFI CFA_XSP16 add(XSP16, 26)
        MOV     R4,?V6
        MOV     R5,?V7
        MOV     R2,?V4
        MOV     R3,?V5
        MOV     R1,?V8
        LCALL   `??HalFlashRead::?relay`; Banked call to: HalFlashRead
        MOV     A,#0x2
        LCALL   ?DEALLOC_XSTACK8
          CFI CFA_XSP16 add(XSP16, 24)
// 1036       srcOff++;
        INC     ?V4
        MOV     A,?V4
        JNZ     ??xferBuf_3
        INC     ?V5
// 1037       rem++;
??xferBuf_3:
        INC     ?V2
// 1038       len--;
        MOV     A,?V0
        ADD     A,#-0x1
        MOV     ?V0,A
        MOV     A,?V1
        ADDC    A,#-0x1
        MOV     ?V1,A
        MOV     DPL,?V6
        MOV     DPH,?V7
        INC     DPTR
        MOV     ?V6,DPL
        MOV     ?V7,DPH
// 1039     }
        MOV     A,?V2
        CLR     C
        SUBB    A,#0x4
        JC      ??xferBuf_1
// 1040 
// 1041     writeWord( dstPg, dstOff, tmp );
??xferBuf_2:
        ; Setup parameters for call to function HalFlashWrite
        MOV     ?V6,#0x1
        MOV     ?V7,#0x0
        MOV     R0,#?V6
        LCALL   ?PUSH_XSTACK_I_TWO
          CFI CFA_XSP16 add(XSP16, 26)
        MOV     A,#0x2
        LCALL   ?XSTACK_DISP102_8
        MOV     ?V10,R6
        MOV     ?V11,R7
        MOV     A,#0x2
        MOV     R0,#?V10
        LCALL   ?US_SHR
        MOV     ?V2,?V3
        MOV     ?V6,?V2
        MOV     A,#0x9
        MOV     R0,#?V6
        LCALL   ?S_SHL
        MOV     A,?V10
        ADD     A,#0x0
        MOV     R2,A
        MOV     A,?V11
        ADDC    A,?V7
        MOV     R3,A
        LCALL   `??HalFlashWrite::?relay`; Banked call to: HalFlashWrite
        MOV     A,#0x2
        LCALL   ?DEALLOC_XSTACK8
          CFI CFA_XSP16 add(XSP16, 24)
// 1042     dstOff += OSAL_NV_WORD_SIZE;
        MOV     A,R6
        ADD     A,#0x4
        MOV     R6,A
        CLR     A
        ADDC    A,R7
        MOV     R7,A
// 1043   }
// 1044 
// 1045   rem = len % OSAL_NV_WORD_SIZE;
??xferBuf_0:
        MOV     A,?V0
        ANL     A,#0x3
        MOV     ?V2,A
// 1046   len /= OSAL_NV_WORD_SIZE;
        MOV     ?V6,?V0
        MOV     ?V7,?V1
        MOV     A,#0x2
        MOV     R0,#?V6
        LCALL   ?US_SHR
        MOV     ?V0,?V6
        MOV     ?V1,?V7
        MOV     A,?V0
        ORL     A,?V1
        JZ      ??xferBuf_4
        MOV     ?V0,?V3
        MOV     ?V10,?V0
        MOV     ?V11,#0x0
        MOV     A,#0x9
        MOV     R0,#?V10
        LCALL   ?S_SHL
        MOV     ?V1,?V11
// 1047 
// 1048   while ( len-- )
// 1049   {
// 1050     HalFlashRead(srcPg, srcOff, tmp, OSAL_NV_WORD_SIZE);
??xferBuf_5:
        ; Setup parameters for call to function HalFlashRead
        MOV     ?V10,#0x4
        MOV     ?V11,#0x0
        MOV     R0,#?V10
        LCALL   ?PUSH_XSTACK_I_TWO
          CFI CFA_XSP16 add(XSP16, 26)
        MOV     A,#0x2
        LCALL   ?XSTACK_DISP102_8
        MOV     R2,?V4
        MOV     R3,?V5
        MOV     R1,?V8
        LCALL   `??HalFlashRead::?relay`; Banked call to: HalFlashRead
        MOV     A,#0x2
        LCALL   ?DEALLOC_XSTACK8
          CFI CFA_XSP16 add(XSP16, 24)
// 1051     srcOff += OSAL_NV_WORD_SIZE;
        MOV     A,?V4
        ADD     A,#0x4
        MOV     ?V4,A
        CLR     A
        ADDC    A,?V5
        MOV     ?V5,A
// 1052     writeWord( dstPg, dstOff, tmp );
        ; Setup parameters for call to function HalFlashWrite
        MOV     ?V10,#0x1
        MOV     R0,#?V10
        LCALL   ?PUSH_XSTACK_I_TWO
          CFI CFA_XSP16 add(XSP16, 26)
        MOV     A,#0x2
        LCALL   ?XSTACK_DISP102_8
        MOV     ?V10,R6
        MOV     ?V11,R7
        MOV     A,#0x2
        MOV     R0,#?V10
        LCALL   ?US_SHR
        MOV     A,?V10
        ADD     A,#0x0
        MOV     R2,A
        MOV     A,?V11
        ADDC    A,?V1
        MOV     R3,A
        LCALL   `??HalFlashWrite::?relay`; Banked call to: HalFlashWrite
        MOV     A,#0x2
        LCALL   ?DEALLOC_XSTACK8
          CFI CFA_XSP16 add(XSP16, 24)
// 1053     dstOff += OSAL_NV_WORD_SIZE;
        MOV     A,R6
        ADD     A,#0x4
        MOV     R6,A
        CLR     A
        ADDC    A,R7
        MOV     R7,A
// 1054   }
        LCALL   ?Subroutine40 & 0xFFFF
??CrossCallReturnLabel_78:
        JNZ     ??xferBuf_5
// 1055 
// 1056   if ( rem )
??xferBuf_4:
        MOV     A,?V2
        JNZ     $+5
        LJMP    ??xferBuf_6 & 0xFFFF
// 1057   {
// 1058     uint8 idx = 0;
        MOV     ?V0,#0x0
// 1059     HalFlashRead(dstPg, dstOff, tmp, OSAL_NV_WORD_SIZE);
        ; Setup parameters for call to function HalFlashRead
        MOV     ?V6,#0x4
        MOV     ?V7,#0x0
        MOV     R0,#?V6
        LCALL   ?PUSH_XSTACK_I_TWO
          CFI CFA_XSP16 add(XSP16, 26)
        MOV     A,#0x2
        LCALL   ?XSTACK_DISP102_8
        MOV     A,R6
        MOV     R2,A
        MOV     A,R7
        MOV     R3,A
        MOV     R1,?V3
        LCALL   `??HalFlashRead::?relay`; Banked call to: HalFlashRead
        MOV     A,#0x2
        LCALL   ?DEALLOC_XSTACK8
          CFI CFA_XSP16 add(XSP16, 24)
        MOV     ?V1,?V2
// 1060     while ( rem-- )
// 1061     {
// 1062       HalFlashRead(srcPg, srcOff, tmp+idx, 1);
??xferBuf_7:
        ; Setup parameters for call to function HalFlashRead
        MOV     ?V6,#0x1
        MOV     R0,#?V6
        LCALL   ?PUSH_XSTACK_I_TWO
          CFI CFA_XSP16 add(XSP16, 26)
        MOV     R0,?V0
        MOV     A,#0x2
        LCALL   ?XSTACK_DISP0_8
        MOV     A,DPL
        ADD     A,R0
        MOV     R4,A
        CLR     A
        ADDC    A,DPH
        MOV     R5,A
        MOV     R2,?V4
        MOV     R3,?V5
        MOV     R1,?V8
        LCALL   `??HalFlashRead::?relay`; Banked call to: HalFlashRead
        MOV     A,#0x2
        LCALL   ?DEALLOC_XSTACK8
          CFI CFA_XSP16 add(XSP16, 24)
// 1063       srcOff++;
        INC     ?V4
        MOV     A,?V4
        JNZ     ??xferBuf_8
        INC     ?V5
// 1064       idx++;
??xferBuf_8:
        INC     ?V0
// 1065     }
        DEC     ?V1
        MOV     A,?V1
        JNZ     ??xferBuf_7
// 1066     writeWord( dstPg, dstOff, tmp );
        ; Setup parameters for call to function HalFlashWrite
        MOV     ?V4,#0x1
        MOV     ?V5,#0x0
        MOV     R0,#?V4
        LCALL   ?PUSH_XSTACK_I_TWO
          CFI CFA_XSP16 add(XSP16, 26)
        MOV     A,#0x2
        LCALL   ?XSTACK_DISP102_8
        MOV     ?V6,R6
        MOV     ?V7,R7
        MOV     A,#0x2
        MOV     R0,#?V6
        LCALL   ?US_SHR
        MOV     ?V0,?V3
        MOV     ?V4,?V0
        MOV     A,#0x9
        MOV     R0,#?V4
        LCALL   ?S_SHL
        MOV     A,?V6
        ADD     A,#0x0
        MOV     R2,A
        MOV     A,?V7
        ADDC    A,?V5
        MOV     R3,A
        LCALL   `??HalFlashWrite::?relay`; Banked call to: HalFlashWrite
        MOV     A,#0x2
        LCALL   ?DEALLOC_XSTACK8
          CFI CFA_XSP16 add(XSP16, 24)
// 1067   }
// 1068 }
??xferBuf_6:
        MOV     A,#0x4
        LCALL   ?DEALLOC_XSTACK8
          CFI CFA_XSP16 add(XSP16, 20)
        MOV     R7,#0xc
        LJMP    ?BANKED_LEAVE_XDATA
          CFI R6 SameValue
          CFI VB SameValue
          CFI V0 SameValue
          CFI V1 SameValue
          CFI V2 SameValue
          CFI V3 SameValue
          CFI V4 SameValue
          CFI V5 SameValue
          CFI V6 SameValue
          CFI V7 SameValue
          CFI V8 SameValue
          CFI V9 SameValue
          CFI V10 SameValue
          CFI V11 SameValue
          CFI R7 SameValue
          CFI ?RET_LOW Frame(CFA_SP, 1)
          CFI ?RET_HIGH Frame(CFA_SP, 2)
          CFI ?BRET_EXT Frame(CFA_SP, 3)
          CFI DPL0 SameValue
          CFI DPH0 SameValue
          CFI CFA_SP SP+-3
          CFI CFA_XSP16 XSP16+0
          CFI EndBlock cfiBlock96
// 1069 
// 1070 /*********************************************************************
// 1071  * @fn      writeItem
// 1072  *
// 1073  * @brief   Writes an item header/data combo to the specified NV page.
// 1074  *
// 1075  * @param   pg - Valid NV Flash page.
// 1076  * @param   id - Valid NV item Id.
// 1077  * @param   len  - Byte count of the data to write.
// 1078  * @param   buf  - The data to write. If NULL, no data/checksum write.
// 1079  * @param   flag - TRUE if the checksum should be written, FALSE otherwise.
// 1080  *
// 1081  * @return  TRUE if header/data to write matches header/data read back, else FALSE.
// 1082  */

        RSEG BANKED_CODE:CODE:NOROOT(0)
// 1083 static uint8 writeItem( uint8 pg, uint16 id, uint16 len, void *buf, uint8 flag )
writeItem:
          CFI Block cfiBlock97 Using cfiCommon0
          CFI Function writeItem
        CODE
// 1084 {
        FUNCALL writeItem, HalFlashWrite
        LOCFRAME ISTACK, 0, STACK
        LOCFRAME PSTACK, 0, STACK
        LOCFRAME XSTACK, 32, STACK
        LOCFRAME IOVERLAY, 0, STATIC
        LOCFRAME DOVERLAY, 0, STATIC
        ARGFRAME ISTACK, 0, STACK
        ARGFRAME PSTACK, 0, STACK
        ARGFRAME XSTACK, 32, STACK
        ARGFRAME IOVERLAY, 0, STATIC
        ARGFRAME DOVERLAY, 0, STATIC
        FUNCALL writeItem, HalFlashRead
        LOCFRAME ISTACK, 0, STACK
        LOCFRAME PSTACK, 0, STACK
        LOCFRAME XSTACK, 32, STACK
        LOCFRAME IOVERLAY, 0, STATIC
        LOCFRAME DOVERLAY, 0, STATIC
        ARGFRAME ISTACK, 0, STACK
        ARGFRAME PSTACK, 0, STACK
        ARGFRAME XSTACK, 32, STACK
        ARGFRAME IOVERLAY, 0, STATIC
        ARGFRAME DOVERLAY, 0, STATIC
        FUNCALL writeItem, writeBuf
        LOCFRAME ISTACK, 0, STACK
        LOCFRAME PSTACK, 0, STACK
        LOCFRAME XSTACK, 32, STACK
        LOCFRAME IOVERLAY, 0, STATIC
        LOCFRAME DOVERLAY, 0, STATIC
        ARGFRAME ISTACK, 0, STACK
        ARGFRAME PSTACK, 0, STACK
        ARGFRAME XSTACK, 32, STACK
        ARGFRAME IOVERLAY, 0, STATIC
        ARGFRAME DOVERLAY, 0, STATIC
        FUNCALL writeItem, calcChkF
        LOCFRAME ISTACK, 0, STACK
        LOCFRAME PSTACK, 0, STACK
        LOCFRAME XSTACK, 30, STACK
        LOCFRAME IOVERLAY, 0, STATIC
        LOCFRAME DOVERLAY, 0, STATIC
        ARGFRAME ISTACK, 0, STACK
        ARGFRAME PSTACK, 0, STACK
        ARGFRAME XSTACK, 30, STACK
        ARGFRAME IOVERLAY, 0, STATIC
        ARGFRAME DOVERLAY, 0, STATIC
        FUNCALL writeItem, setChk
        LOCFRAME ISTACK, 0, STACK
        LOCFRAME PSTACK, 0, STACK
        LOCFRAME XSTACK, 30, STACK
        LOCFRAME IOVERLAY, 0, STATIC
        LOCFRAME DOVERLAY, 0, STATIC
        ARGFRAME ISTACK, 0, STACK
        ARGFRAME PSTACK, 0, STACK
        ARGFRAME XSTACK, 30, STACK
        ARGFRAME IOVERLAY, 0, STATIC
        ARGFRAME DOVERLAY, 0, STATIC
        FUNCALL writeItem, hotItemUpdate
        LOCFRAME ISTACK, 0, STACK
        LOCFRAME PSTACK, 0, STACK
        LOCFRAME XSTACK, 30, STACK
        LOCFRAME IOVERLAY, 0, STATIC
        LOCFRAME DOVERLAY, 0, STATIC
        ARGFRAME ISTACK, 0, STACK
        ARGFRAME PSTACK, 0, STACK
        ARGFRAME XSTACK, 30, STACK
        ARGFRAME IOVERLAY, 0, STATIC
        ARGFRAME DOVERLAY, 0, STATIC
        REQUIRE ?V0
        REQUIRE ?V1
        REQUIRE ?V2
        REQUIRE ?V3
        REQUIRE ?V4
        REQUIRE ?V5
        REQUIRE ?V6
        REQUIRE ?V7
        REQUIRE ?V8
        REQUIRE ?V9
        REQUIRE ?V10
        REQUIRE ?V11
        REQUIRE ?V12
        REQUIRE ?V13
        MOV     A,#-0x16
        LCALL   ?BANKED_ENTER_XDATA
          CFI DPH0 load(1, XDATA, add(CFA_XSP16, literal(-1)))
          CFI DPL0 load(1, XDATA, add(CFA_XSP16, literal(-2)))
          CFI ?BRET_EXT load(1, XDATA, add(CFA_XSP16, literal(-3)))
          CFI ?RET_HIGH load(1, XDATA, add(CFA_XSP16, literal(-4)))
          CFI ?RET_LOW load(1, XDATA, add(CFA_XSP16, literal(-5)))
          CFI R7 load(1, XDATA, add(CFA_XSP16, literal(-6)))
          CFI V13 load(1, XDATA, add(CFA_XSP16, literal(-7)))
          CFI V12 load(1, XDATA, add(CFA_XSP16, literal(-8)))
          CFI V11 load(1, XDATA, add(CFA_XSP16, literal(-9)))
          CFI V10 load(1, XDATA, add(CFA_XSP16, literal(-10)))
          CFI V9 load(1, XDATA, add(CFA_XSP16, literal(-11)))
          CFI V8 load(1, XDATA, add(CFA_XSP16, literal(-12)))
          CFI V7 load(1, XDATA, add(CFA_XSP16, literal(-13)))
          CFI V6 load(1, XDATA, add(CFA_XSP16, literal(-14)))
          CFI V5 load(1, XDATA, add(CFA_XSP16, literal(-15)))
          CFI V4 load(1, XDATA, add(CFA_XSP16, literal(-16)))
          CFI V3 load(1, XDATA, add(CFA_XSP16, literal(-17)))
          CFI V2 load(1, XDATA, add(CFA_XSP16, literal(-18)))
          CFI V1 load(1, XDATA, add(CFA_XSP16, literal(-19)))
          CFI V0 load(1, XDATA, add(CFA_XSP16, literal(-20)))
          CFI VB load(1, XDATA, add(CFA_XSP16, literal(-21)))
          CFI R6 load(1, XDATA, add(CFA_XSP16, literal(-22)))
          CFI CFA_SP SP+0
          CFI CFA_XSP16 add(XSP16, 22)
        ; Saved register size: 22
        ; Auto size: 8
        MOV     A,#-0x8
        LCALL   ?ALLOC_XSTACK8
          CFI CFA_XSP16 add(XSP16, 30)
        MOV     ?V4,R1
        MOV     ?V6,R2
        MOV     ?V7,R3
        MOV     A,R4
        MOV     R6,A
        MOV     A,R5
        MOV     R7,A
// 1085   uint16 offset = pgOff[pg-OSAL_NV_PAGE_BEG];
        MOV     A,R1
        ADD     A,R1
        MOV     ?V0,A
        CLR     A
        RLC     A
        MOV     ?V1,A
        MOV     A,#(pgOff + 14) & 0xff
        ADD     A,?V0
        MOV     ?V12,A
        MOV     A,#((pgOff - 242) >> 8) & 0xff
        ADDC    A,?V1
        MOV     ?V13,A
        MOV     DPL,?V12
        MOV     DPH,A
        MOVX    A,@DPTR
        MOV     ?V2,A
        INC     DPTR
        MOVX    A,@DPTR
        MOV     ?V3,A
// 1086   uint8 rtrn = FALSE;
        MOV     ?V5,#0x0
// 1087   osalNvHdr_t hdr;
// 1088 
// 1089   hdr.id = id;
        MOV     DPL,?XSP + 0
        MOV     DPH,?XSP + 1
        MOV     A,R2
        MOVX    @DPTR,A
        INC     DPTR
        MOV     A,R3
        MOVX    @DPTR,A
// 1090   hdr.len = len;
        MOV     A,#0x2
        LCALL   ?XSTACK_DISP0_8
        MOV     A,R6
        MOVX    @DPTR,A
        INC     DPTR
        MOV     A,R7
        MOVX    @DPTR,A
// 1091 
// 1092   writeWord( pg, offset, (uint8 *)&hdr );
        ; Setup parameters for call to function HalFlashWrite
        MOV     ?V8,#0x1
        MOV     ?V9,#0x0
        MOV     R0,#?V8
        LCALL   ?PUSH_XSTACK_I_TWO
          CFI CFA_XSP16 add(XSP16, 32)
        MOV     A,#0x2
        LCALL   ?XSTACK_DISP102_8
        MOV     ?V8,?V2
        MOV     ?V9,?V3
        MOV     A,#0x2
        MOV     R0,#?V8
        LCALL   ?US_SHR
        MOV     ?V10,R1
        MOV     ?V11,A
        MOV     A,#0x9
        MOV     R0,#?V10
        LCALL   ?S_SHL
        MOV     A,?V8
        ADD     A,#0x0
        MOV     R2,A
        MOV     A,?V9
        ADDC    A,?V11
        MOV     R3,A
        LCALL   `??HalFlashWrite::?relay`; Banked call to: HalFlashWrite
        MOV     A,#0x2
        LCALL   ?DEALLOC_XSTACK8
          CFI CFA_XSP16 add(XSP16, 30)
// 1093   HalFlashRead(pg, offset, (uint8 *)(&hdr), OSAL_NV_HDR_SIZE);
        ; Setup parameters for call to function HalFlashRead
        MOV     ?V8,#0x8
        MOV     ?V9,#0x0
        MOV     R0,#?V8
        LCALL   ?PUSH_XSTACK_I_TWO
          CFI CFA_XSP16 add(XSP16, 32)
        MOV     A,#0x2
        LCALL   ?XSTACK_DISP102_8
        MOV     R2,?V2
        MOV     R3,?V3
        MOV     R1,?V4
        LCALL   `??HalFlashRead::?relay`; Banked call to: HalFlashRead
        MOV     A,#0x2
        LCALL   ?DEALLOC_XSTACK8
          CFI CFA_XSP16 add(XSP16, 30)
// 1094 
// 1095   if ( (hdr.id == id) && (hdr.len == len) )
        MOV     A,#0x2
        LCALL   ?XSTACK_DISP0_8
        LCALL   ?Subroutine29 & 0xFFFF
??CrossCallReturnLabel_53:
        MOV     DPL,?XSP + 0
        MOV     DPH,?XSP + 1
        MOVX    A,@DPTR
        XRL     A,?V6
        JNZ     ??writeItem_0
        INC     DPTR
        MOVX    A,@DPTR
        XRL     A,?V7
??writeItem_0:
        JZ      $+5
        LJMP    ??writeItem_1 & 0xFFFF
        MOV     A,R6
        XRL     A,R0
        JNZ     ??writeItem_2
        MOV     A,R7
        XRL     A,R1
??writeItem_2:
        JZ      $+5
        LJMP    ??writeItem_1 & 0xFFFF
// 1096   {
// 1097     if ( flag )
        MOV     A,#0x20
        LCALL   ?XSTACK_DISP0_8
        MOVX    A,@DPTR
        JNZ     $+5
        LJMP    ??writeItem_3 & 0xFFFF
        MOV     A,#0x1e
        LCALL   ?XSTACK_DISP0_8
        LCALL   ?Subroutine16 & 0xFFFF
// 1098     {
// 1099       hdr.chk = calcChkB( len, buf );
??CrossCallReturnLabel_20:
        MOV     DPL,?V0
        MOV     DPH,A
        MOV     A,R6
        ANL     A,#0x3
        MOV     R2,A
        MOV     A,DPL
        ORL     A,DPH
        JNZ     ??writeItem_4
        MOV     A,R6
        MOV     R0,A
        MOV     A,R7
        MOV     R1,A
        MOV     A,R0
        MOV     B,#-0x1
        MUL     AB
        MOV     R0,A
        MOV     R3,B
        MOV     B,#-0x1
        MOV     A,R1
        MUL     AB
        ADD     A,R3
        MOV     R1,A
        SJMP    ??writeItem_5
??writeItem_4:
        MOV     R0,#0x0
        MOV     R1,#0x0
        MOV     A,R6
        ORL     A,R7
        JZ      ??writeItem_5
        MOV     ?V6,R6
        MOV     ?V7,R7
??writeItem_6:
        MOVX    A,@DPTR
        MOV     R4,A
        MOV     A,R0
        ADD     A,R4
        MOV     R0,A
        CLR     A
        ADDC    A,R1
        MOV     R1,A
        INC     DPTR
        LCALL   ?Subroutine40 & 0xFFFF
??CrossCallReturnLabel_79:
        JNZ     ??writeItem_6
??writeItem_5:
        MOV     A,R2
        JZ      ??writeItem_7
        MOV     A,#0x4
        CLR     C
        SUBB    A,R2
        MOV     R2,A
        SUBB    A,0xE0 /* A   */
        MOV     R3,A
        MOV     A,R2
        MOV     B,#-0x1
        MUL     AB
        MOV     R2,A
        MOV     R4,B
        MOV     B,#-0x1
        MOV     A,R3
        MUL     AB
        ADD     A,R4
        MOV     R3,A
        MOV     A,R0
        ADD     A,R2
        MOV     R0,A
        MOV     A,R1
        ADDC    A,R3
        MOV     R1,A
??writeItem_7:
        MOV     A,#0x4
        LCALL   ?XSTACK_DISP0_8
        MOV     A,R0
        MOVX    @DPTR,A
        INC     DPTR
        MOV     A,R1
        MOVX    @DPTR,A
// 1100 
// 1101       offset += OSAL_NV_HDR_SIZE;
        LCALL   ?Subroutine37 & 0xFFFF
// 1102       if ( buf != NULL )
??CrossCallReturnLabel_73:
        MOV     A,?V0
        ORL     A,?V1
        JZ      ??writeItem_8
// 1103       {
// 1104         writeBuf( pg, offset, len, buf );
        ; Setup parameters for call to function writeBuf
        MOV     R0,#?V0
        LCALL   ?PUSH_XSTACK_I_TWO
          CFI CFA_XSP16 add(XSP16, 32)
        MOV     A,R6
        MOV     R4,A
        MOV     A,R7
        MOV     R5,A
        MOV     R2,?V2
        MOV     R3,?V3
        MOV     R1,?V4
        LCALL   `??writeBuf::?relay` ; Banked call to: writeBuf
        MOV     A,#0x2
        LCALL   ?DEALLOC_XSTACK8
          CFI CFA_XSP16 add(XSP16, 30)
// 1105       }
// 1106 
// 1107       if ( hdr.chk == calcChkF( pg, offset, len ) )
??writeItem_8:
        ; Setup parameters for call to function calcChkF
        MOV     A,R6
        MOV     R4,A
        MOV     A,R7
        MOV     R5,A
        MOV     R2,?V2
        MOV     R3,?V3
        MOV     R1,?V4
        LCALL   `??calcChkF::?relay` ; Banked call to: calcChkF
        MOV     A,#0x4
        LCALL   ?XSTACK_DISP0_8
        LCALL   ?Subroutine26 & 0xFFFF
??CrossCallReturnLabel_42:
        MOV     A,R2
        XRL     A,R4
        JNZ     ??writeItem_9
        MOV     A,R3
        XRL     A,R5
??writeItem_9:
        JNZ     ??writeItem_10
// 1108       {
// 1109         if ( hdr.chk == setChk( pg, offset, hdr.chk ) )
        ; Setup parameters for call to function setChk
        MOV     R2,?V2
        MOV     R3,?V3
        MOV     R1,?V4
        LCALL   `??setChk::?relay`   ; Banked call to: setChk
        MOV     ?V0,R2
        MOV     ?V1,R3
        MOV     R0,?V0
        MOV     R1,?V1
        MOV     A,#0x4
        LCALL   ?XSTACK_DISP0_8
        MOVX    A,@DPTR
        XRL     A,R0
        JNZ     ??writeItem_11
        INC     DPTR
        MOVX    A,@DPTR
        XRL     A,R1
??writeItem_11:
        JNZ     ??writeItem_10
// 1110         {
// 1111           hotItemUpdate(pg, offset, hdr.id);
        ; Setup parameters for call to function hotItemUpdate
        MOV     DPL,?XSP + 0
        MOV     DPH,?XSP + 1
        LCALL   ?Subroutine25 & 0xFFFF
??CrossCallReturnLabel_38:
        MOV     R1,?V4
        LCALL   `??hotItemUpdate::?relay`; Banked call to: hotItemUpdate
// 1112           rtrn = TRUE;
// 1113         }
// 1114       }
// 1115     }
// 1116     else
// 1117     {
// 1118       rtrn = TRUE;
??writeItem_3:
        MOV     ?V5,#0x1
// 1119     }
// 1120 
// 1121     len = OSAL_NV_ITEM_SIZE( hdr.len );
??writeItem_10:
        MOV     A,#0x2
        LCALL   ?XSTACK_DISP0_8
        LCALL   ?Subroutine29 & 0xFFFF
// 1122   }
??CrossCallReturnLabel_54:
        CLR     C
        MOV     A,R0
        SUBB    A,#-0xc
        MOV     A,R1
        SUBB    A,#-0x1
        JC      ??writeItem_12
        MOV     R6,#-0x4
        MOV     R7,#-0x1
        SJMP    ??CrossCallReturnLabel_98
??writeItem_12:
        MOV     A,R0
        ADD     A,#0x3
        JNC     ??writeItem_13
        INC     R1
??writeItem_13:
        LCALL   ?Subroutine35 & 0xFFFF
??CrossCallReturnLabel_68:
        SJMP    ??CrossCallReturnLabel_98
// 1123   else
// 1124   {
// 1125     len = OSAL_NV_ITEM_SIZE( hdr.len );
??writeItem_1:
        CLR     C
        MOV     A,R0
        SUBB    A,#-0xc
        MOV     A,R1
        SUBB    A,#-0x1
        JC      ??writeItem_14
        MOV     R6,#-0x4
        MOV     R7,#-0x1
        SJMP    ??CrossCallReturnLabel_69
??writeItem_14:
        MOV     A,R0
        ADD     A,#0x3
        JNC     ??writeItem_15
        INC     R1
??writeItem_15:
        LCALL   ?Subroutine35 & 0xFFFF
// 1126 
// 1127     if (len > (OSAL_NV_PAGE_SIZE - pgOff[pg - OSAL_NV_PAGE_BEG]))
??CrossCallReturnLabel_69:
        MOV     DPL,?V12
        MOV     DPH,?V13
        LCALL   ?Subroutine28 & 0xFFFF
??CrossCallReturnLabel_48:
        MOV     R0,A
        MOV     A,#0x8
        SUBB    A,R1
        MOV     R1,A
        CLR     C
        MOV     A,R0
        SUBB    A,R6
        MOV     A,R1
        SUBB    A,R7
        JNC     ??writeItem_16
// 1128     {
// 1129       len = (OSAL_NV_PAGE_SIZE - pgOff[pg - OSAL_NV_PAGE_BEG]);
        MOV     A,R0
        MOV     R6,A
        MOV     A,R1
        MOV     R7,A
// 1130     }
// 1131 
// 1132     pgLost[pg - OSAL_NV_PAGE_BEG] += len;
??writeItem_16:
        MOV     A,#(pgLost + 14) & 0xff
        ADD     A,?V0
        MOV     DPL,A
        MOV     A,#((pgLost - 242) >> 8) & 0xff
        ADDC    A,?V1
        LCALL   ?Subroutine22 & 0xFFFF
// 1133   }
// 1134   pgOff[pg - OSAL_NV_PAGE_BEG] += len;
??CrossCallReturnLabel_98:
        MOV     DPL,?V12
        MOV     DPH,?V13
        LCALL   ??Subroutine47_0 & 0xFFFF
// 1135 
// 1136   return rtrn;
??CrossCallReturnLabel_96:
        MOV     R1,?V5
        MOV     A,#0x8
        LJMP    ?Subroutine3 & 0xFFFF
// 1137 }
          CFI EndBlock cfiBlock97

        RSEG BANKED_CODE:CODE:NOROOT(0)
?Subroutine40:
          CFI Block cfiCond98 Using cfiCommon0
          CFI Function xferBuf
          CFI Conditional ??CrossCallReturnLabel_78
          CFI R6 load(1, XDATA, add(CFA_XSP16, literal(-20)))
          CFI VB load(1, XDATA, add(CFA_XSP16, literal(-19)))
          CFI V0 load(1, XDATA, add(CFA_XSP16, literal(-18)))
          CFI V1 load(1, XDATA, add(CFA_XSP16, literal(-17)))
          CFI V2 load(1, XDATA, add(CFA_XSP16, literal(-16)))
          CFI V3 load(1, XDATA, add(CFA_XSP16, literal(-15)))
          CFI V4 load(1, XDATA, add(CFA_XSP16, literal(-14)))
          CFI V5 load(1, XDATA, add(CFA_XSP16, literal(-13)))
          CFI V6 load(1, XDATA, add(CFA_XSP16, literal(-12)))
          CFI V7 load(1, XDATA, add(CFA_XSP16, literal(-11)))
          CFI V8 load(1, XDATA, add(CFA_XSP16, literal(-10)))
          CFI V9 load(1, XDATA, add(CFA_XSP16, literal(-9)))
          CFI V10 load(1, XDATA, add(CFA_XSP16, literal(-8)))
          CFI V11 load(1, XDATA, add(CFA_XSP16, literal(-7)))
          CFI R7 load(1, XDATA, add(CFA_XSP16, literal(-6)))
          CFI ?RET_LOW load(1, XDATA, add(CFA_XSP16, literal(-5)))
          CFI ?RET_HIGH load(1, XDATA, add(CFA_XSP16, literal(-4)))
          CFI ?BRET_EXT load(1, XDATA, add(CFA_XSP16, literal(-3)))
          CFI DPL0 load(1, XDATA, add(CFA_XSP16, literal(-2)))
          CFI DPH0 load(1, XDATA, add(CFA_XSP16, literal(-1)))
          CFI CFA_SP SP+-2
          CFI CFA_XSP16 add(XSP16, 24)
          CFI Block cfiCond99 Using cfiCommon0
          CFI (cfiCond99) Function writeItem
          CFI (cfiCond99) Conditional ??CrossCallReturnLabel_79
          CFI (cfiCond99) R6 load(1, XDATA, add(CFA_XSP16, literal(-22)))
          CFI (cfiCond99) VB load(1, XDATA, add(CFA_XSP16, literal(-21)))
          CFI (cfiCond99) V0 load(1, XDATA, add(CFA_XSP16, literal(-20)))
          CFI (cfiCond99) V1 load(1, XDATA, add(CFA_XSP16, literal(-19)))
          CFI (cfiCond99) V2 load(1, XDATA, add(CFA_XSP16, literal(-18)))
          CFI (cfiCond99) V3 load(1, XDATA, add(CFA_XSP16, literal(-17)))
          CFI (cfiCond99) V4 load(1, XDATA, add(CFA_XSP16, literal(-16)))
          CFI (cfiCond99) V5 load(1, XDATA, add(CFA_XSP16, literal(-15)))
          CFI (cfiCond99) V6 load(1, XDATA, add(CFA_XSP16, literal(-14)))
          CFI (cfiCond99) V7 load(1, XDATA, add(CFA_XSP16, literal(-13)))
          CFI (cfiCond99) V8 load(1, XDATA, add(CFA_XSP16, literal(-12)))
          CFI (cfiCond99) V9 load(1, XDATA, add(CFA_XSP16, literal(-11)))
          CFI (cfiCond99) V10 load(1, XDATA, add(CFA_XSP16, literal(-10)))
          CFI (cfiCond99) V11 load(1, XDATA, add(CFA_XSP16, literal(-9)))
          CFI (cfiCond99) V12 load(1, XDATA, add(CFA_XSP16, literal(-8)))
          CFI (cfiCond99) V13 load(1, XDATA, add(CFA_XSP16, literal(-7)))
          CFI (cfiCond99) R7 load(1, XDATA, add(CFA_XSP16, literal(-6)))
          CFI (cfiCond99) ?RET_LOW load(1, XDATA, add(CFA_XSP16, literal(-5)))
          CFI (cfiCond99) ?RET_HIGH load(1, XDATA, add(CFA_XSP16, literal(-4)))
          CFI (cfiCond99) ?BRET_EXT load(1, XDATA, add(CFA_XSP16, literal(-3)))
          CFI (cfiCond99) DPL0 load(1, XDATA, add(CFA_XSP16, literal(-2)))
          CFI (cfiCond99) DPH0 load(1, XDATA, add(CFA_XSP16, literal(-1)))
          CFI (cfiCond99) CFA_SP SP+-2
          CFI (cfiCond99) CFA_XSP16 add(XSP16, 30)
          CFI Block cfiPicker100 Using cfiCommon1
          CFI (cfiPicker100) NoFunction
          CFI (cfiPicker100) Picker
        MOV     A,?V6
        ADD     A,#-0x1
        MOV     ?V6,A
        MOV     A,?V7
        ADDC    A,#-0x1
        MOV     ?V7,A
        MOV     A,?V6
        ORL     A,?V7
        RET
          CFI (cfiCond98) CFA_SP SP+0
          CFI (cfiCond99) CFA_SP SP+0
          CFI (cfiPicker100) CFA_SP SP+0
          CFI EndBlock cfiCond98
          CFI EndBlock cfiCond99
          CFI EndBlock cfiPicker100

        RSEG BANKED_CODE:CODE:NOROOT(0)
?Subroutine37:
          CFI Block cfiCond101 Using cfiCommon0
          CFI Function compactPage
          CFI Conditional ??CrossCallReturnLabel_72
          CFI R6 load(1, XDATA, add(CFA_XSP16, literal(-22)))
          CFI VB load(1, XDATA, add(CFA_XSP16, literal(-21)))
          CFI V0 load(1, XDATA, add(CFA_XSP16, literal(-20)))
          CFI V1 load(1, XDATA, add(CFA_XSP16, literal(-19)))
          CFI V2 load(1, XDATA, add(CFA_XSP16, literal(-18)))
          CFI V3 load(1, XDATA, add(CFA_XSP16, literal(-17)))
          CFI V4 load(1, XDATA, add(CFA_XSP16, literal(-16)))
          CFI V5 load(1, XDATA, add(CFA_XSP16, literal(-15)))
          CFI V6 load(1, XDATA, add(CFA_XSP16, literal(-14)))
          CFI V7 load(1, XDATA, add(CFA_XSP16, literal(-13)))
          CFI V8 load(1, XDATA, add(CFA_XSP16, literal(-12)))
          CFI V9 load(1, XDATA, add(CFA_XSP16, literal(-11)))
          CFI V10 load(1, XDATA, add(CFA_XSP16, literal(-10)))
          CFI V11 load(1, XDATA, add(CFA_XSP16, literal(-9)))
          CFI V12 load(1, XDATA, add(CFA_XSP16, literal(-8)))
          CFI V13 load(1, XDATA, add(CFA_XSP16, literal(-7)))
          CFI R7 load(1, XDATA, add(CFA_XSP16, literal(-6)))
          CFI ?RET_LOW load(1, XDATA, add(CFA_XSP16, literal(-5)))
          CFI ?RET_HIGH load(1, XDATA, add(CFA_XSP16, literal(-4)))
          CFI ?BRET_EXT load(1, XDATA, add(CFA_XSP16, literal(-3)))
          CFI DPL0 load(1, XDATA, add(CFA_XSP16, literal(-2)))
          CFI DPH0 load(1, XDATA, add(CFA_XSP16, literal(-1)))
          CFI CFA_SP SP+-2
          CFI CFA_XSP16 add(XSP16, 41)
          CFI Block cfiCond102 Using cfiCommon0
          CFI (cfiCond102) Function writeItem
          CFI (cfiCond102) Conditional ??CrossCallReturnLabel_73
          CFI (cfiCond102) R6 load(1, XDATA, add(CFA_XSP16, literal(-22)))
          CFI (cfiCond102) VB load(1, XDATA, add(CFA_XSP16, literal(-21)))
          CFI (cfiCond102) V0 load(1, XDATA, add(CFA_XSP16, literal(-20)))
          CFI (cfiCond102) V1 load(1, XDATA, add(CFA_XSP16, literal(-19)))
          CFI (cfiCond102) V2 load(1, XDATA, add(CFA_XSP16, literal(-18)))
          CFI (cfiCond102) V3 load(1, XDATA, add(CFA_XSP16, literal(-17)))
          CFI (cfiCond102) V4 load(1, XDATA, add(CFA_XSP16, literal(-16)))
          CFI (cfiCond102) V5 load(1, XDATA, add(CFA_XSP16, literal(-15)))
          CFI (cfiCond102) V6 load(1, XDATA, add(CFA_XSP16, literal(-14)))
          CFI (cfiCond102) V7 load(1, XDATA, add(CFA_XSP16, literal(-13)))
          CFI (cfiCond102) V8 load(1, XDATA, add(CFA_XSP16, literal(-12)))
          CFI (cfiCond102) V9 load(1, XDATA, add(CFA_XSP16, literal(-11)))
          CFI (cfiCond102) V10 load(1, XDATA, add(CFA_XSP16, literal(-10)))
          CFI (cfiCond102) V11 load(1, XDATA, add(CFA_XSP16, literal(-9)))
          CFI (cfiCond102) V12 load(1, XDATA, add(CFA_XSP16, literal(-8)))
          CFI (cfiCond102) V13 load(1, XDATA, add(CFA_XSP16, literal(-7)))
          CFI (cfiCond102) R7 load(1, XDATA, add(CFA_XSP16, literal(-6)))
          CFI (cfiCond102) ?RET_LOW load(1, XDATA, add(CFA_XSP16, literal(-5)))
          CFI (cfiCond102) ?RET_HIGH load(1, XDATA, add(CFA_XSP16, literal(-4)))
          CFI (cfiCond102) ?BRET_EXT load(1, XDATA, add(CFA_XSP16, literal(-3)))
          CFI (cfiCond102) DPL0 load(1, XDATA, add(CFA_XSP16, literal(-2)))
          CFI (cfiCond102) DPH0 load(1, XDATA, add(CFA_XSP16, literal(-1)))
          CFI (cfiCond102) CFA_SP SP+-2
          CFI (cfiCond102) CFA_XSP16 add(XSP16, 30)
          CFI Block cfiPicker103 Using cfiCommon1
          CFI (cfiPicker103) NoFunction
          CFI (cfiPicker103) Picker
        MOV     A,?V2
        ADD     A,#0x8
        MOV     ?V2,A
        CLR     A
        ADDC    A,?V3
        MOV     ?V3,A
        RET
          CFI (cfiCond101) CFA_SP SP+0
          CFI (cfiCond102) CFA_SP SP+0
          CFI (cfiPicker103) CFA_SP SP+0
          CFI EndBlock cfiCond101
          CFI EndBlock cfiCond102
          CFI EndBlock cfiPicker103

        RSEG BANKED_CODE:CODE:NOROOT(0)
?Subroutine35:
          CFI Block cfiCond104 Using cfiCommon0
          CFI Function setItem
          CFI Conditional ??CrossCallReturnLabel_67
          CFI R6 load(1, XDATA, add(CFA_XSP16, literal(-14)))
          CFI VB load(1, XDATA, add(CFA_XSP16, literal(-13)))
          CFI V0 load(1, XDATA, add(CFA_XSP16, literal(-12)))
          CFI V1 load(1, XDATA, add(CFA_XSP16, literal(-11)))
          CFI V2 load(1, XDATA, add(CFA_XSP16, literal(-10)))
          CFI V3 load(1, XDATA, add(CFA_XSP16, literal(-9)))
          CFI V4 load(1, XDATA, add(CFA_XSP16, literal(-8)))
          CFI V5 load(1, XDATA, add(CFA_XSP16, literal(-7)))
          CFI R7 load(1, XDATA, add(CFA_XSP16, literal(-6)))
          CFI ?RET_LOW load(1, XDATA, add(CFA_XSP16, literal(-5)))
          CFI ?RET_HIGH load(1, XDATA, add(CFA_XSP16, literal(-4)))
          CFI ?BRET_EXT load(1, XDATA, add(CFA_XSP16, literal(-3)))
          CFI DPL0 load(1, XDATA, add(CFA_XSP16, literal(-2)))
          CFI DPH0 load(1, XDATA, add(CFA_XSP16, literal(-1)))
          CFI CFA_SP SP+-2
          CFI CFA_XSP16 add(XSP16, 22)
          CFI Block cfiCond105 Using cfiCommon0
          CFI (cfiCond105) Function writeItem
          CFI (cfiCond105) Conditional ??CrossCallReturnLabel_68
          CFI (cfiCond105) R6 load(1, XDATA, add(CFA_XSP16, literal(-22)))
          CFI (cfiCond105) VB load(1, XDATA, add(CFA_XSP16, literal(-21)))
          CFI (cfiCond105) V0 load(1, XDATA, add(CFA_XSP16, literal(-20)))
          CFI (cfiCond105) V1 load(1, XDATA, add(CFA_XSP16, literal(-19)))
          CFI (cfiCond105) V2 load(1, XDATA, add(CFA_XSP16, literal(-18)))
          CFI (cfiCond105) V3 load(1, XDATA, add(CFA_XSP16, literal(-17)))
          CFI (cfiCond105) V4 load(1, XDATA, add(CFA_XSP16, literal(-16)))
          CFI (cfiCond105) V5 load(1, XDATA, add(CFA_XSP16, literal(-15)))
          CFI (cfiCond105) V6 load(1, XDATA, add(CFA_XSP16, literal(-14)))
          CFI (cfiCond105) V7 load(1, XDATA, add(CFA_XSP16, literal(-13)))
          CFI (cfiCond105) V8 load(1, XDATA, add(CFA_XSP16, literal(-12)))
          CFI (cfiCond105) V9 load(1, XDATA, add(CFA_XSP16, literal(-11)))
          CFI (cfiCond105) V10 load(1, XDATA, add(CFA_XSP16, literal(-10)))
          CFI (cfiCond105) V11 load(1, XDATA, add(CFA_XSP16, literal(-9)))
          CFI (cfiCond105) V12 load(1, XDATA, add(CFA_XSP16, literal(-8)))
          CFI (cfiCond105) V13 load(1, XDATA, add(CFA_XSP16, literal(-7)))
          CFI (cfiCond105) R7 load(1, XDATA, add(CFA_XSP16, literal(-6)))
          CFI (cfiCond105) ?RET_LOW load(1, XDATA, add(CFA_XSP16, literal(-5)))
          CFI (cfiCond105) ?RET_HIGH load(1, XDATA, add(CFA_XSP16, literal(-4)))
          CFI (cfiCond105) ?BRET_EXT load(1, XDATA, add(CFA_XSP16, literal(-3)))
          CFI (cfiCond105) DPL0 load(1, XDATA, add(CFA_XSP16, literal(-2)))
          CFI (cfiCond105) DPH0 load(1, XDATA, add(CFA_XSP16, literal(-1)))
          CFI (cfiCond105) CFA_SP SP+-2
          CFI (cfiCond105) CFA_XSP16 add(XSP16, 30)
          CFI Block cfiCond106 Using cfiCommon0
          CFI (cfiCond106) Function writeItem
          CFI (cfiCond106) Conditional ??CrossCallReturnLabel_69
          CFI (cfiCond106) R6 load(1, XDATA, add(CFA_XSP16, literal(-22)))
          CFI (cfiCond106) VB load(1, XDATA, add(CFA_XSP16, literal(-21)))
          CFI (cfiCond106) V0 load(1, XDATA, add(CFA_XSP16, literal(-20)))
          CFI (cfiCond106) V1 load(1, XDATA, add(CFA_XSP16, literal(-19)))
          CFI (cfiCond106) V2 load(1, XDATA, add(CFA_XSP16, literal(-18)))
          CFI (cfiCond106) V3 load(1, XDATA, add(CFA_XSP16, literal(-17)))
          CFI (cfiCond106) V4 load(1, XDATA, add(CFA_XSP16, literal(-16)))
          CFI (cfiCond106) V5 load(1, XDATA, add(CFA_XSP16, literal(-15)))
          CFI (cfiCond106) V6 load(1, XDATA, add(CFA_XSP16, literal(-14)))
          CFI (cfiCond106) V7 load(1, XDATA, add(CFA_XSP16, literal(-13)))
          CFI (cfiCond106) V8 load(1, XDATA, add(CFA_XSP16, literal(-12)))
          CFI (cfiCond106) V9 load(1, XDATA, add(CFA_XSP16, literal(-11)))
          CFI (cfiCond106) V10 load(1, XDATA, add(CFA_XSP16, literal(-10)))
          CFI (cfiCond106) V11 load(1, XDATA, add(CFA_XSP16, literal(-9)))
          CFI (cfiCond106) V12 load(1, XDATA, add(CFA_XSP16, literal(-8)))
          CFI (cfiCond106) V13 load(1, XDATA, add(CFA_XSP16, literal(-7)))
          CFI (cfiCond106) R7 load(1, XDATA, add(CFA_XSP16, literal(-6)))
          CFI (cfiCond106) ?RET_LOW load(1, XDATA, add(CFA_XSP16, literal(-5)))
          CFI (cfiCond106) ?RET_HIGH load(1, XDATA, add(CFA_XSP16, literal(-4)))
          CFI (cfiCond106) ?BRET_EXT load(1, XDATA, add(CFA_XSP16, literal(-3)))
          CFI (cfiCond106) DPL0 load(1, XDATA, add(CFA_XSP16, literal(-2)))
          CFI (cfiCond106) DPH0 load(1, XDATA, add(CFA_XSP16, literal(-1)))
          CFI (cfiCond106) CFA_SP SP+-2
          CFI (cfiCond106) CFA_XSP16 add(XSP16, 30)
          CFI Block cfiPicker107 Using cfiCommon1
          CFI (cfiPicker107) NoFunction
          CFI (cfiPicker107) Picker
        ANL     A,#0xfc
        ADD     A,#0x8
        MOV     R6,A
        CLR     A
        ADDC    A,R1
        MOV     R7,A
        RET
          CFI (cfiCond104) CFA_SP SP+0
          CFI (cfiCond105) CFA_SP SP+0
          CFI (cfiCond106) CFA_SP SP+0
          CFI (cfiPicker107) CFA_SP SP+0
          CFI EndBlock cfiCond104
          CFI EndBlock cfiCond105
          CFI EndBlock cfiCond106
          CFI EndBlock cfiPicker107

        RSEG BANKED_CODE:CODE:NOROOT(0)
?Subroutine29:
          CFI Block cfiCond108 Using cfiCommon0
          CFI Function initPage
          CFI Conditional ??CrossCallReturnLabel_49
          CFI R6 load(1, XDATA, add(CFA_XSP16, literal(-24)))
          CFI VB load(1, XDATA, add(CFA_XSP16, literal(-23)))
          CFI V0 load(1, XDATA, add(CFA_XSP16, literal(-22)))
          CFI V1 load(1, XDATA, add(CFA_XSP16, literal(-21)))
          CFI V2 load(1, XDATA, add(CFA_XSP16, literal(-20)))
          CFI V3 load(1, XDATA, add(CFA_XSP16, literal(-19)))
          CFI V4 load(1, XDATA, add(CFA_XSP16, literal(-18)))
          CFI V5 load(1, XDATA, add(CFA_XSP16, literal(-17)))
          CFI V6 load(1, XDATA, add(CFA_XSP16, literal(-16)))
          CFI V7 load(1, XDATA, add(CFA_XSP16, literal(-15)))
          CFI V8 load(1, XDATA, add(CFA_XSP16, literal(-14)))
          CFI V9 load(1, XDATA, add(CFA_XSP16, literal(-13)))
          CFI V10 load(1, XDATA, add(CFA_XSP16, literal(-12)))
          CFI V11 load(1, XDATA, add(CFA_XSP16, literal(-11)))
          CFI V12 load(1, XDATA, add(CFA_XSP16, literal(-10)))
          CFI V13 load(1, XDATA, add(CFA_XSP16, literal(-9)))
          CFI V14 load(1, XDATA, add(CFA_XSP16, literal(-8)))
          CFI V15 load(1, XDATA, add(CFA_XSP16, literal(-7)))
          CFI R7 load(1, XDATA, add(CFA_XSP16, literal(-6)))
          CFI ?RET_LOW load(1, XDATA, add(CFA_XSP16, literal(-5)))
          CFI ?RET_HIGH load(1, XDATA, add(CFA_XSP16, literal(-4)))
          CFI ?BRET_EXT load(1, XDATA, add(CFA_XSP16, literal(-3)))
          CFI DPL0 load(1, XDATA, add(CFA_XSP16, literal(-2)))
          CFI DPH0 load(1, XDATA, add(CFA_XSP16, literal(-1)))
          CFI CFA_SP SP+-2
          CFI CFA_XSP16 add(XSP16, 49)
          CFI Block cfiCond109 Using cfiCommon0
          CFI (cfiCond109) Function initPage
          CFI (cfiCond109) Conditional ??CrossCallReturnLabel_50
          CFI (cfiCond109) R6 load(1, XDATA, add(CFA_XSP16, literal(-24)))
          CFI (cfiCond109) VB load(1, XDATA, add(CFA_XSP16, literal(-23)))
          CFI (cfiCond109) V0 load(1, XDATA, add(CFA_XSP16, literal(-22)))
          CFI (cfiCond109) V1 load(1, XDATA, add(CFA_XSP16, literal(-21)))
          CFI (cfiCond109) V2 load(1, XDATA, add(CFA_XSP16, literal(-20)))
          CFI (cfiCond109) V3 load(1, XDATA, add(CFA_XSP16, literal(-19)))
          CFI (cfiCond109) V4 load(1, XDATA, add(CFA_XSP16, literal(-18)))
          CFI (cfiCond109) V5 load(1, XDATA, add(CFA_XSP16, literal(-17)))
          CFI (cfiCond109) V6 load(1, XDATA, add(CFA_XSP16, literal(-16)))
          CFI (cfiCond109) V7 load(1, XDATA, add(CFA_XSP16, literal(-15)))
          CFI (cfiCond109) V8 load(1, XDATA, add(CFA_XSP16, literal(-14)))
          CFI (cfiCond109) V9 load(1, XDATA, add(CFA_XSP16, literal(-13)))
          CFI (cfiCond109) V10 load(1, XDATA, add(CFA_XSP16, literal(-12)))
          CFI (cfiCond109) V11 load(1, XDATA, add(CFA_XSP16, literal(-11)))
          CFI (cfiCond109) V12 load(1, XDATA, add(CFA_XSP16, literal(-10)))
          CFI (cfiCond109) V13 load(1, XDATA, add(CFA_XSP16, literal(-9)))
          CFI (cfiCond109) V14 load(1, XDATA, add(CFA_XSP16, literal(-8)))
          CFI (cfiCond109) V15 load(1, XDATA, add(CFA_XSP16, literal(-7)))
          CFI (cfiCond109) R7 load(1, XDATA, add(CFA_XSP16, literal(-6)))
          CFI (cfiCond109) ?RET_LOW load(1, XDATA, add(CFA_XSP16, literal(-5)))
          CFI (cfiCond109) ?RET_HIGH load(1, XDATA, add(CFA_XSP16, literal(-4)))
          CFI (cfiCond109) ?BRET_EXT load(1, XDATA, add(CFA_XSP16, literal(-3)))
          CFI (cfiCond109) DPL0 load(1, XDATA, add(CFA_XSP16, literal(-2)))
          CFI (cfiCond109) DPH0 load(1, XDATA, add(CFA_XSP16, literal(-1)))
          CFI (cfiCond109) CFA_SP SP+-2
          CFI (cfiCond109) CFA_XSP16 add(XSP16, 49)
          CFI Block cfiCond110 Using cfiCommon0
          CFI (cfiCond110) Function compactPage
          CFI (cfiCond110) Conditional ??CrossCallReturnLabel_51
          CFI (cfiCond110) R6 load(1, XDATA, add(CFA_XSP16, literal(-22)))
          CFI (cfiCond110) VB load(1, XDATA, add(CFA_XSP16, literal(-21)))
          CFI (cfiCond110) V0 load(1, XDATA, add(CFA_XSP16, literal(-20)))
          CFI (cfiCond110) V1 load(1, XDATA, add(CFA_XSP16, literal(-19)))
          CFI (cfiCond110) V2 load(1, XDATA, add(CFA_XSP16, literal(-18)))
          CFI (cfiCond110) V3 load(1, XDATA, add(CFA_XSP16, literal(-17)))
          CFI (cfiCond110) V4 load(1, XDATA, add(CFA_XSP16, literal(-16)))
          CFI (cfiCond110) V5 load(1, XDATA, add(CFA_XSP16, literal(-15)))
          CFI (cfiCond110) V6 load(1, XDATA, add(CFA_XSP16, literal(-14)))
          CFI (cfiCond110) V7 load(1, XDATA, add(CFA_XSP16, literal(-13)))
          CFI (cfiCond110) V8 load(1, XDATA, add(CFA_XSP16, literal(-12)))
          CFI (cfiCond110) V9 load(1, XDATA, add(CFA_XSP16, literal(-11)))
          CFI (cfiCond110) V10 load(1, XDATA, add(CFA_XSP16, literal(-10)))
          CFI (cfiCond110) V11 load(1, XDATA, add(CFA_XSP16, literal(-9)))
          CFI (cfiCond110) V12 load(1, XDATA, add(CFA_XSP16, literal(-8)))
          CFI (cfiCond110) V13 load(1, XDATA, add(CFA_XSP16, literal(-7)))
          CFI (cfiCond110) R7 load(1, XDATA, add(CFA_XSP16, literal(-6)))
          CFI (cfiCond110) ?RET_LOW load(1, XDATA, add(CFA_XSP16, literal(-5)))
          CFI (cfiCond110) ?RET_HIGH load(1, XDATA, add(CFA_XSP16, literal(-4)))
          CFI (cfiCond110) ?BRET_EXT load(1, XDATA, add(CFA_XSP16, literal(-3)))
          CFI (cfiCond110) DPL0 load(1, XDATA, add(CFA_XSP16, literal(-2)))
          CFI (cfiCond110) DPH0 load(1, XDATA, add(CFA_XSP16, literal(-1)))
          CFI (cfiCond110) CFA_SP SP+-2
          CFI (cfiCond110) CFA_XSP16 add(XSP16, 41)
          CFI Block cfiCond111 Using cfiCommon0
          CFI (cfiCond111) Function compactPage
          CFI (cfiCond111) Conditional ??CrossCallReturnLabel_52
          CFI (cfiCond111) R6 load(1, XDATA, add(CFA_XSP16, literal(-22)))
          CFI (cfiCond111) VB load(1, XDATA, add(CFA_XSP16, literal(-21)))
          CFI (cfiCond111) V0 load(1, XDATA, add(CFA_XSP16, literal(-20)))
          CFI (cfiCond111) V1 load(1, XDATA, add(CFA_XSP16, literal(-19)))
          CFI (cfiCond111) V2 load(1, XDATA, add(CFA_XSP16, literal(-18)))
          CFI (cfiCond111) V3 load(1, XDATA, add(CFA_XSP16, literal(-17)))
          CFI (cfiCond111) V4 load(1, XDATA, add(CFA_XSP16, literal(-16)))
          CFI (cfiCond111) V5 load(1, XDATA, add(CFA_XSP16, literal(-15)))
          CFI (cfiCond111) V6 load(1, XDATA, add(CFA_XSP16, literal(-14)))
          CFI (cfiCond111) V7 load(1, XDATA, add(CFA_XSP16, literal(-13)))
          CFI (cfiCond111) V8 load(1, XDATA, add(CFA_XSP16, literal(-12)))
          CFI (cfiCond111) V9 load(1, XDATA, add(CFA_XSP16, literal(-11)))
          CFI (cfiCond111) V10 load(1, XDATA, add(CFA_XSP16, literal(-10)))
          CFI (cfiCond111) V11 load(1, XDATA, add(CFA_XSP16, literal(-9)))
          CFI (cfiCond111) V12 load(1, XDATA, add(CFA_XSP16, literal(-8)))
          CFI (cfiCond111) V13 load(1, XDATA, add(CFA_XSP16, literal(-7)))
          CFI (cfiCond111) R7 load(1, XDATA, add(CFA_XSP16, literal(-6)))
          CFI (cfiCond111) ?RET_LOW load(1, XDATA, add(CFA_XSP16, literal(-5)))
          CFI (cfiCond111) ?RET_HIGH load(1, XDATA, add(CFA_XSP16, literal(-4)))
          CFI (cfiCond111) ?BRET_EXT load(1, XDATA, add(CFA_XSP16, literal(-3)))
          CFI (cfiCond111) DPL0 load(1, XDATA, add(CFA_XSP16, literal(-2)))
          CFI (cfiCond111) DPH0 load(1, XDATA, add(CFA_XSP16, literal(-1)))
          CFI (cfiCond111) CFA_SP SP+-2
          CFI (cfiCond111) CFA_XSP16 add(XSP16, 41)
          CFI Block cfiCond112 Using cfiCommon0
          CFI (cfiCond112) Function writeItem
          CFI (cfiCond112) Conditional ??CrossCallReturnLabel_53
          CFI (cfiCond112) R6 load(1, XDATA, add(CFA_XSP16, literal(-22)))
          CFI (cfiCond112) VB load(1, XDATA, add(CFA_XSP16, literal(-21)))
          CFI (cfiCond112) V0 load(1, XDATA, add(CFA_XSP16, literal(-20)))
          CFI (cfiCond112) V1 load(1, XDATA, add(CFA_XSP16, literal(-19)))
          CFI (cfiCond112) V2 load(1, XDATA, add(CFA_XSP16, literal(-18)))
          CFI (cfiCond112) V3 load(1, XDATA, add(CFA_XSP16, literal(-17)))
          CFI (cfiCond112) V4 load(1, XDATA, add(CFA_XSP16, literal(-16)))
          CFI (cfiCond112) V5 load(1, XDATA, add(CFA_XSP16, literal(-15)))
          CFI (cfiCond112) V6 load(1, XDATA, add(CFA_XSP16, literal(-14)))
          CFI (cfiCond112) V7 load(1, XDATA, add(CFA_XSP16, literal(-13)))
          CFI (cfiCond112) V8 load(1, XDATA, add(CFA_XSP16, literal(-12)))
          CFI (cfiCond112) V9 load(1, XDATA, add(CFA_XSP16, literal(-11)))
          CFI (cfiCond112) V10 load(1, XDATA, add(CFA_XSP16, literal(-10)))
          CFI (cfiCond112) V11 load(1, XDATA, add(CFA_XSP16, literal(-9)))
          CFI (cfiCond112) V12 load(1, XDATA, add(CFA_XSP16, literal(-8)))
          CFI (cfiCond112) V13 load(1, XDATA, add(CFA_XSP16, literal(-7)))
          CFI (cfiCond112) R7 load(1, XDATA, add(CFA_XSP16, literal(-6)))
          CFI (cfiCond112) ?RET_LOW load(1, XDATA, add(CFA_XSP16, literal(-5)))
          CFI (cfiCond112) ?RET_HIGH load(1, XDATA, add(CFA_XSP16, literal(-4)))
          CFI (cfiCond112) ?BRET_EXT load(1, XDATA, add(CFA_XSP16, literal(-3)))
          CFI (cfiCond112) DPL0 load(1, XDATA, add(CFA_XSP16, literal(-2)))
          CFI (cfiCond112) DPH0 load(1, XDATA, add(CFA_XSP16, literal(-1)))
          CFI (cfiCond112) CFA_SP SP+-2
          CFI (cfiCond112) CFA_XSP16 add(XSP16, 30)
          CFI Block cfiCond113 Using cfiCommon0
          CFI (cfiCond113) Function writeItem
          CFI (cfiCond113) Conditional ??CrossCallReturnLabel_54
          CFI (cfiCond113) R6 load(1, XDATA, add(CFA_XSP16, literal(-22)))
          CFI (cfiCond113) VB load(1, XDATA, add(CFA_XSP16, literal(-21)))
          CFI (cfiCond113) V0 load(1, XDATA, add(CFA_XSP16, literal(-20)))
          CFI (cfiCond113) V1 load(1, XDATA, add(CFA_XSP16, literal(-19)))
          CFI (cfiCond113) V2 load(1, XDATA, add(CFA_XSP16, literal(-18)))
          CFI (cfiCond113) V3 load(1, XDATA, add(CFA_XSP16, literal(-17)))
          CFI (cfiCond113) V4 load(1, XDATA, add(CFA_XSP16, literal(-16)))
          CFI (cfiCond113) V5 load(1, XDATA, add(CFA_XSP16, literal(-15)))
          CFI (cfiCond113) V6 load(1, XDATA, add(CFA_XSP16, literal(-14)))
          CFI (cfiCond113) V7 load(1, XDATA, add(CFA_XSP16, literal(-13)))
          CFI (cfiCond113) V8 load(1, XDATA, add(CFA_XSP16, literal(-12)))
          CFI (cfiCond113) V9 load(1, XDATA, add(CFA_XSP16, literal(-11)))
          CFI (cfiCond113) V10 load(1, XDATA, add(CFA_XSP16, literal(-10)))
          CFI (cfiCond113) V11 load(1, XDATA, add(CFA_XSP16, literal(-9)))
          CFI (cfiCond113) V12 load(1, XDATA, add(CFA_XSP16, literal(-8)))
          CFI (cfiCond113) V13 load(1, XDATA, add(CFA_XSP16, literal(-7)))
          CFI (cfiCond113) R7 load(1, XDATA, add(CFA_XSP16, literal(-6)))
          CFI (cfiCond113) ?RET_LOW load(1, XDATA, add(CFA_XSP16, literal(-5)))
          CFI (cfiCond113) ?RET_HIGH load(1, XDATA, add(CFA_XSP16, literal(-4)))
          CFI (cfiCond113) ?BRET_EXT load(1, XDATA, add(CFA_XSP16, literal(-3)))
          CFI (cfiCond113) DPL0 load(1, XDATA, add(CFA_XSP16, literal(-2)))
          CFI (cfiCond113) DPH0 load(1, XDATA, add(CFA_XSP16, literal(-1)))
          CFI (cfiCond113) CFA_SP SP+-2
          CFI (cfiCond113) CFA_XSP16 add(XSP16, 30)
          CFI Block cfiCond114 Using cfiCommon0
          CFI (cfiCond114) Function osal_nv_write
          CFI (cfiCond114) Conditional ??CrossCallReturnLabel_55
          CFI (cfiCond114) R6 load(1, XDATA, add(CFA_XSP16, literal(-24)))
          CFI (cfiCond114) VB load(1, XDATA, add(CFA_XSP16, literal(-23)))
          CFI (cfiCond114) V0 load(1, XDATA, add(CFA_XSP16, literal(-22)))
          CFI (cfiCond114) V1 load(1, XDATA, add(CFA_XSP16, literal(-21)))
          CFI (cfiCond114) V2 load(1, XDATA, add(CFA_XSP16, literal(-20)))
          CFI (cfiCond114) V3 load(1, XDATA, add(CFA_XSP16, literal(-19)))
          CFI (cfiCond114) V4 load(1, XDATA, add(CFA_XSP16, literal(-18)))
          CFI (cfiCond114) V5 load(1, XDATA, add(CFA_XSP16, literal(-17)))
          CFI (cfiCond114) V6 load(1, XDATA, add(CFA_XSP16, literal(-16)))
          CFI (cfiCond114) V7 load(1, XDATA, add(CFA_XSP16, literal(-15)))
          CFI (cfiCond114) V8 load(1, XDATA, add(CFA_XSP16, literal(-14)))
          CFI (cfiCond114) V9 load(1, XDATA, add(CFA_XSP16, literal(-13)))
          CFI (cfiCond114) V10 load(1, XDATA, add(CFA_XSP16, literal(-12)))
          CFI (cfiCond114) V11 load(1, XDATA, add(CFA_XSP16, literal(-11)))
          CFI (cfiCond114) V12 load(1, XDATA, add(CFA_XSP16, literal(-10)))
          CFI (cfiCond114) V13 load(1, XDATA, add(CFA_XSP16, literal(-9)))
          CFI (cfiCond114) V14 load(1, XDATA, add(CFA_XSP16, literal(-8)))
          CFI (cfiCond114) V15 load(1, XDATA, add(CFA_XSP16, literal(-7)))
          CFI (cfiCond114) R7 load(1, XDATA, add(CFA_XSP16, literal(-6)))
          CFI (cfiCond114) ?RET_LOW load(1, XDATA, add(CFA_XSP16, literal(-5)))
          CFI (cfiCond114) ?RET_HIGH load(1, XDATA, add(CFA_XSP16, literal(-4)))
          CFI (cfiCond114) ?BRET_EXT load(1, XDATA, add(CFA_XSP16, literal(-3)))
          CFI (cfiCond114) DPL0 load(1, XDATA, add(CFA_XSP16, literal(-2)))
          CFI (cfiCond114) DPH0 load(1, XDATA, add(CFA_XSP16, literal(-1)))
          CFI (cfiCond114) CFA_SP SP+-2
          CFI (cfiCond114) CFA_XSP16 add(XSP16, 45)
          CFI Block cfiPicker115 Using cfiCommon1
          CFI (cfiPicker115) NoFunction
          CFI (cfiPicker115) Picker
        LCALL   ?Subroutine44 & 0xFFFF
??CrossCallReturnLabel_89:
        RET
          CFI (cfiCond108) CFA_SP SP+0
          CFI (cfiCond109) CFA_SP SP+0
          CFI (cfiCond110) CFA_SP SP+0
          CFI (cfiCond111) CFA_SP SP+0
          CFI (cfiCond112) CFA_SP SP+0
          CFI (cfiCond113) CFA_SP SP+0
          CFI (cfiCond114) CFA_SP SP+0
          CFI (cfiPicker115) CFA_SP SP+0
          CFI EndBlock cfiCond108
          CFI EndBlock cfiCond109
          CFI EndBlock cfiCond110
          CFI EndBlock cfiCond111
          CFI EndBlock cfiCond112
          CFI EndBlock cfiCond113
          CFI EndBlock cfiCond114
          CFI EndBlock cfiPicker115

        RSEG BANKED_CODE:CODE:NOROOT(0)
?Subroutine44:
          CFI Block cfiCond116 Using cfiCommon0
          CFI Function initPage
          CFI Conditional ??CrossCallReturnLabel_86, ??CrossCallReturnLabel_15
          CFI R6 load(1, XDATA, add(CFA_XSP16, literal(-24)))
          CFI VB load(1, XDATA, add(CFA_XSP16, literal(-23)))
          CFI V0 load(1, XDATA, add(CFA_XSP16, literal(-22)))
          CFI V1 load(1, XDATA, add(CFA_XSP16, literal(-21)))
          CFI V2 load(1, XDATA, add(CFA_XSP16, literal(-20)))
          CFI V3 load(1, XDATA, add(CFA_XSP16, literal(-19)))
          CFI V4 load(1, XDATA, add(CFA_XSP16, literal(-18)))
          CFI V5 load(1, XDATA, add(CFA_XSP16, literal(-17)))
          CFI V6 load(1, XDATA, add(CFA_XSP16, literal(-16)))
          CFI V7 load(1, XDATA, add(CFA_XSP16, literal(-15)))
          CFI V8 load(1, XDATA, add(CFA_XSP16, literal(-14)))
          CFI V9 load(1, XDATA, add(CFA_XSP16, literal(-13)))
          CFI V10 load(1, XDATA, add(CFA_XSP16, literal(-12)))
          CFI V11 load(1, XDATA, add(CFA_XSP16, literal(-11)))
          CFI V12 load(1, XDATA, add(CFA_XSP16, literal(-10)))
          CFI V13 load(1, XDATA, add(CFA_XSP16, literal(-9)))
          CFI V14 load(1, XDATA, add(CFA_XSP16, literal(-8)))
          CFI V15 load(1, XDATA, add(CFA_XSP16, literal(-7)))
          CFI R7 load(1, XDATA, add(CFA_XSP16, literal(-6)))
          CFI ?RET_LOW load(1, XDATA, add(CFA_XSP16, literal(-5)))
          CFI ?RET_HIGH load(1, XDATA, add(CFA_XSP16, literal(-4)))
          CFI ?BRET_EXT load(1, XDATA, add(CFA_XSP16, literal(-3)))
          CFI DPL0 load(1, XDATA, add(CFA_XSP16, literal(-2)))
          CFI DPH0 load(1, XDATA, add(CFA_XSP16, literal(-1)))
          CFI CFA_SP SP+-4
          CFI CFA_XSP16 add(XSP16, 49)
          CFI Block cfiCond117 Using cfiCommon0
          CFI (cfiCond117) Function initPage
          CFI (cfiCond117) Conditional ??CrossCallReturnLabel_86, ??CrossCallReturnLabel_16
          CFI (cfiCond117) R6 load(1, XDATA, add(CFA_XSP16, literal(-24)))
          CFI (cfiCond117) VB load(1, XDATA, add(CFA_XSP16, literal(-23)))
          CFI (cfiCond117) V0 load(1, XDATA, add(CFA_XSP16, literal(-22)))
          CFI (cfiCond117) V1 load(1, XDATA, add(CFA_XSP16, literal(-21)))
          CFI (cfiCond117) V2 load(1, XDATA, add(CFA_XSP16, literal(-20)))
          CFI (cfiCond117) V3 load(1, XDATA, add(CFA_XSP16, literal(-19)))
          CFI (cfiCond117) V4 load(1, XDATA, add(CFA_XSP16, literal(-18)))
          CFI (cfiCond117) V5 load(1, XDATA, add(CFA_XSP16, literal(-17)))
          CFI (cfiCond117) V6 load(1, XDATA, add(CFA_XSP16, literal(-16)))
          CFI (cfiCond117) V7 load(1, XDATA, add(CFA_XSP16, literal(-15)))
          CFI (cfiCond117) V8 load(1, XDATA, add(CFA_XSP16, literal(-14)))
          CFI (cfiCond117) V9 load(1, XDATA, add(CFA_XSP16, literal(-13)))
          CFI (cfiCond117) V10 load(1, XDATA, add(CFA_XSP16, literal(-12)))
          CFI (cfiCond117) V11 load(1, XDATA, add(CFA_XSP16, literal(-11)))
          CFI (cfiCond117) V12 load(1, XDATA, add(CFA_XSP16, literal(-10)))
          CFI (cfiCond117) V13 load(1, XDATA, add(CFA_XSP16, literal(-9)))
          CFI (cfiCond117) V14 load(1, XDATA, add(CFA_XSP16, literal(-8)))
          CFI (cfiCond117) V15 load(1, XDATA, add(CFA_XSP16, literal(-7)))
          CFI (cfiCond117) R7 load(1, XDATA, add(CFA_XSP16, literal(-6)))
          CFI (cfiCond117) ?RET_LOW load(1, XDATA, add(CFA_XSP16, literal(-5)))
          CFI (cfiCond117) ?RET_HIGH load(1, XDATA, add(CFA_XSP16, literal(-4)))
          CFI (cfiCond117) ?BRET_EXT load(1, XDATA, add(CFA_XSP16, literal(-3)))
          CFI (cfiCond117) DPL0 load(1, XDATA, add(CFA_XSP16, literal(-2)))
          CFI (cfiCond117) DPH0 load(1, XDATA, add(CFA_XSP16, literal(-1)))
          CFI (cfiCond117) CFA_SP SP+-4
          CFI (cfiCond117) CFA_XSP16 add(XSP16, 49)
          CFI Block cfiCond118 Using cfiCommon0
          CFI (cfiCond118) Function compactPage
          CFI (cfiCond118) Conditional ??CrossCallReturnLabel_86, ??CrossCallReturnLabel_17
          CFI (cfiCond118) R6 load(1, XDATA, add(CFA_XSP16, literal(-22)))
          CFI (cfiCond118) VB load(1, XDATA, add(CFA_XSP16, literal(-21)))
          CFI (cfiCond118) V0 load(1, XDATA, add(CFA_XSP16, literal(-20)))
          CFI (cfiCond118) V1 load(1, XDATA, add(CFA_XSP16, literal(-19)))
          CFI (cfiCond118) V2 load(1, XDATA, add(CFA_XSP16, literal(-18)))
          CFI (cfiCond118) V3 load(1, XDATA, add(CFA_XSP16, literal(-17)))
          CFI (cfiCond118) V4 load(1, XDATA, add(CFA_XSP16, literal(-16)))
          CFI (cfiCond118) V5 load(1, XDATA, add(CFA_XSP16, literal(-15)))
          CFI (cfiCond118) V6 load(1, XDATA, add(CFA_XSP16, literal(-14)))
          CFI (cfiCond118) V7 load(1, XDATA, add(CFA_XSP16, literal(-13)))
          CFI (cfiCond118) V8 load(1, XDATA, add(CFA_XSP16, literal(-12)))
          CFI (cfiCond118) V9 load(1, XDATA, add(CFA_XSP16, literal(-11)))
          CFI (cfiCond118) V10 load(1, XDATA, add(CFA_XSP16, literal(-10)))
          CFI (cfiCond118) V11 load(1, XDATA, add(CFA_XSP16, literal(-9)))
          CFI (cfiCond118) V12 load(1, XDATA, add(CFA_XSP16, literal(-8)))
          CFI (cfiCond118) V13 load(1, XDATA, add(CFA_XSP16, literal(-7)))
          CFI (cfiCond118) R7 load(1, XDATA, add(CFA_XSP16, literal(-6)))
          CFI (cfiCond118) ?RET_LOW load(1, XDATA, add(CFA_XSP16, literal(-5)))
          CFI (cfiCond118) ?RET_HIGH load(1, XDATA, add(CFA_XSP16, literal(-4)))
          CFI (cfiCond118) ?BRET_EXT load(1, XDATA, add(CFA_XSP16, literal(-3)))
          CFI (cfiCond118) DPL0 load(1, XDATA, add(CFA_XSP16, literal(-2)))
          CFI (cfiCond118) DPH0 load(1, XDATA, add(CFA_XSP16, literal(-1)))
          CFI (cfiCond118) CFA_SP SP+-4
          CFI (cfiCond118) CFA_XSP16 add(XSP16, 41)
          CFI Block cfiCond119 Using cfiCommon0
          CFI (cfiCond119) Function osal_nv_write
          CFI (cfiCond119) Conditional ??CrossCallReturnLabel_86, ??CrossCallReturnLabel_18
          CFI (cfiCond119) R6 load(1, XDATA, add(CFA_XSP16, literal(-24)))
          CFI (cfiCond119) VB load(1, XDATA, add(CFA_XSP16, literal(-23)))
          CFI (cfiCond119) V0 load(1, XDATA, add(CFA_XSP16, literal(-22)))
          CFI (cfiCond119) V1 load(1, XDATA, add(CFA_XSP16, literal(-21)))
          CFI (cfiCond119) V2 load(1, XDATA, add(CFA_XSP16, literal(-20)))
          CFI (cfiCond119) V3 load(1, XDATA, add(CFA_XSP16, literal(-19)))
          CFI (cfiCond119) V4 load(1, XDATA, add(CFA_XSP16, literal(-18)))
          CFI (cfiCond119) V5 load(1, XDATA, add(CFA_XSP16, literal(-17)))
          CFI (cfiCond119) V6 load(1, XDATA, add(CFA_XSP16, literal(-16)))
          CFI (cfiCond119) V7 load(1, XDATA, add(CFA_XSP16, literal(-15)))
          CFI (cfiCond119) V8 load(1, XDATA, add(CFA_XSP16, literal(-14)))
          CFI (cfiCond119) V9 load(1, XDATA, add(CFA_XSP16, literal(-13)))
          CFI (cfiCond119) V10 load(1, XDATA, add(CFA_XSP16, literal(-12)))
          CFI (cfiCond119) V11 load(1, XDATA, add(CFA_XSP16, literal(-11)))
          CFI (cfiCond119) V12 load(1, XDATA, add(CFA_XSP16, literal(-10)))
          CFI (cfiCond119) V13 load(1, XDATA, add(CFA_XSP16, literal(-9)))
          CFI (cfiCond119) V14 load(1, XDATA, add(CFA_XSP16, literal(-8)))
          CFI (cfiCond119) V15 load(1, XDATA, add(CFA_XSP16, literal(-7)))
          CFI (cfiCond119) R7 load(1, XDATA, add(CFA_XSP16, literal(-6)))
          CFI (cfiCond119) ?RET_LOW load(1, XDATA, add(CFA_XSP16, literal(-5)))
          CFI (cfiCond119) ?RET_HIGH load(1, XDATA, add(CFA_XSP16, literal(-4)))
          CFI (cfiCond119) ?BRET_EXT load(1, XDATA, add(CFA_XSP16, literal(-3)))
          CFI (cfiCond119) DPL0 load(1, XDATA, add(CFA_XSP16, literal(-2)))
          CFI (cfiCond119) DPH0 load(1, XDATA, add(CFA_XSP16, literal(-1)))
          CFI (cfiCond119) CFA_SP SP+-4
          CFI (cfiCond119) CFA_XSP16 add(XSP16, 45)
          CFI Block cfiCond120 Using cfiCommon0
          CFI (cfiCond120) Function initItem
          CFI (cfiCond120) Conditional ??CrossCallReturnLabel_87, ??CrossCallReturnLabel_33
          CFI (cfiCond120) R6 load(1, XDATA, add(CFA_XSP16, literal(-18)))
          CFI (cfiCond120) VB load(1, XDATA, add(CFA_XSP16, literal(-17)))
          CFI (cfiCond120) V0 load(1, XDATA, add(CFA_XSP16, literal(-16)))
          CFI (cfiCond120) V1 load(1, XDATA, add(CFA_XSP16, literal(-15)))
          CFI (cfiCond120) V2 load(1, XDATA, add(CFA_XSP16, literal(-14)))
          CFI (cfiCond120) V3 load(1, XDATA, add(CFA_XSP16, literal(-13)))
          CFI (cfiCond120) V4 load(1, XDATA, add(CFA_XSP16, literal(-12)))
          CFI (cfiCond120) V5 load(1, XDATA, add(CFA_XSP16, literal(-11)))
          CFI (cfiCond120) V6 load(1, XDATA, add(CFA_XSP16, literal(-10)))
          CFI (cfiCond120) V7 load(1, XDATA, add(CFA_XSP16, literal(-9)))
          CFI (cfiCond120) V8 load(1, XDATA, add(CFA_XSP16, literal(-8)))
          CFI (cfiCond120) V9 load(1, XDATA, add(CFA_XSP16, literal(-7)))
          CFI (cfiCond120) R7 load(1, XDATA, add(CFA_XSP16, literal(-6)))
          CFI (cfiCond120) ?RET_LOW load(1, XDATA, add(CFA_XSP16, literal(-5)))
          CFI (cfiCond120) ?RET_HIGH load(1, XDATA, add(CFA_XSP16, literal(-4)))
          CFI (cfiCond120) ?BRET_EXT load(1, XDATA, add(CFA_XSP16, literal(-3)))
          CFI (cfiCond120) DPL0 load(1, XDATA, add(CFA_XSP16, literal(-2)))
          CFI (cfiCond120) DPH0 load(1, XDATA, add(CFA_XSP16, literal(-1)))
          CFI (cfiCond120) CFA_SP SP+-4
          CFI (cfiCond120) CFA_XSP16 add(XSP16, 40)
          CFI Block cfiCond121 Using cfiCommon0
          CFI (cfiCond121) Function initItem
          CFI (cfiCond121) Conditional ??CrossCallReturnLabel_87, ??CrossCallReturnLabel_34
          CFI (cfiCond121) R6 load(1, XDATA, add(CFA_XSP16, literal(-18)))
          CFI (cfiCond121) VB load(1, XDATA, add(CFA_XSP16, literal(-17)))
          CFI (cfiCond121) V0 load(1, XDATA, add(CFA_XSP16, literal(-16)))
          CFI (cfiCond121) V1 load(1, XDATA, add(CFA_XSP16, literal(-15)))
          CFI (cfiCond121) V2 load(1, XDATA, add(CFA_XSP16, literal(-14)))
          CFI (cfiCond121) V3 load(1, XDATA, add(CFA_XSP16, literal(-13)))
          CFI (cfiCond121) V4 load(1, XDATA, add(CFA_XSP16, literal(-12)))
          CFI (cfiCond121) V5 load(1, XDATA, add(CFA_XSP16, literal(-11)))
          CFI (cfiCond121) V6 load(1, XDATA, add(CFA_XSP16, literal(-10)))
          CFI (cfiCond121) V7 load(1, XDATA, add(CFA_XSP16, literal(-9)))
          CFI (cfiCond121) V8 load(1, XDATA, add(CFA_XSP16, literal(-8)))
          CFI (cfiCond121) V9 load(1, XDATA, add(CFA_XSP16, literal(-7)))
          CFI (cfiCond121) R7 load(1, XDATA, add(CFA_XSP16, literal(-6)))
          CFI (cfiCond121) ?RET_LOW load(1, XDATA, add(CFA_XSP16, literal(-5)))
          CFI (cfiCond121) ?RET_HIGH load(1, XDATA, add(CFA_XSP16, literal(-4)))
          CFI (cfiCond121) ?BRET_EXT load(1, XDATA, add(CFA_XSP16, literal(-3)))
          CFI (cfiCond121) DPL0 load(1, XDATA, add(CFA_XSP16, literal(-2)))
          CFI (cfiCond121) DPH0 load(1, XDATA, add(CFA_XSP16, literal(-1)))
          CFI (cfiCond121) CFA_SP SP+-4
          CFI (cfiCond121) CFA_XSP16 add(XSP16, 40)
          CFI Block cfiCond122 Using cfiCommon0
          CFI (cfiCond122) Function initPage
          CFI (cfiCond122) Conditional ??CrossCallReturnLabel_89, ??CrossCallReturnLabel_49
          CFI (cfiCond122) R6 load(1, XDATA, add(CFA_XSP16, literal(-24)))
          CFI (cfiCond122) VB load(1, XDATA, add(CFA_XSP16, literal(-23)))
          CFI (cfiCond122) V0 load(1, XDATA, add(CFA_XSP16, literal(-22)))
          CFI (cfiCond122) V1 load(1, XDATA, add(CFA_XSP16, literal(-21)))
          CFI (cfiCond122) V2 load(1, XDATA, add(CFA_XSP16, literal(-20)))
          CFI (cfiCond122) V3 load(1, XDATA, add(CFA_XSP16, literal(-19)))
          CFI (cfiCond122) V4 load(1, XDATA, add(CFA_XSP16, literal(-18)))
          CFI (cfiCond122) V5 load(1, XDATA, add(CFA_XSP16, literal(-17)))
          CFI (cfiCond122) V6 load(1, XDATA, add(CFA_XSP16, literal(-16)))
          CFI (cfiCond122) V7 load(1, XDATA, add(CFA_XSP16, literal(-15)))
          CFI (cfiCond122) V8 load(1, XDATA, add(CFA_XSP16, literal(-14)))
          CFI (cfiCond122) V9 load(1, XDATA, add(CFA_XSP16, literal(-13)))
          CFI (cfiCond122) V10 load(1, XDATA, add(CFA_XSP16, literal(-12)))
          CFI (cfiCond122) V11 load(1, XDATA, add(CFA_XSP16, literal(-11)))
          CFI (cfiCond122) V12 load(1, XDATA, add(CFA_XSP16, literal(-10)))
          CFI (cfiCond122) V13 load(1, XDATA, add(CFA_XSP16, literal(-9)))
          CFI (cfiCond122) V14 load(1, XDATA, add(CFA_XSP16, literal(-8)))
          CFI (cfiCond122) V15 load(1, XDATA, add(CFA_XSP16, literal(-7)))
          CFI (cfiCond122) R7 load(1, XDATA, add(CFA_XSP16, literal(-6)))
          CFI (cfiCond122) ?RET_LOW load(1, XDATA, add(CFA_XSP16, literal(-5)))
          CFI (cfiCond122) ?RET_HIGH load(1, XDATA, add(CFA_XSP16, literal(-4)))
          CFI (cfiCond122) ?BRET_EXT load(1, XDATA, add(CFA_XSP16, literal(-3)))
          CFI (cfiCond122) DPL0 load(1, XDATA, add(CFA_XSP16, literal(-2)))
          CFI (cfiCond122) DPH0 load(1, XDATA, add(CFA_XSP16, literal(-1)))
          CFI (cfiCond122) CFA_SP SP+-4
          CFI (cfiCond122) CFA_XSP16 add(XSP16, 49)
          CFI Block cfiCond123 Using cfiCommon0
          CFI (cfiCond123) Function initPage
          CFI (cfiCond123) Conditional ??CrossCallReturnLabel_89, ??CrossCallReturnLabel_50
          CFI (cfiCond123) R6 load(1, XDATA, add(CFA_XSP16, literal(-24)))
          CFI (cfiCond123) VB load(1, XDATA, add(CFA_XSP16, literal(-23)))
          CFI (cfiCond123) V0 load(1, XDATA, add(CFA_XSP16, literal(-22)))
          CFI (cfiCond123) V1 load(1, XDATA, add(CFA_XSP16, literal(-21)))
          CFI (cfiCond123) V2 load(1, XDATA, add(CFA_XSP16, literal(-20)))
          CFI (cfiCond123) V3 load(1, XDATA, add(CFA_XSP16, literal(-19)))
          CFI (cfiCond123) V4 load(1, XDATA, add(CFA_XSP16, literal(-18)))
          CFI (cfiCond123) V5 load(1, XDATA, add(CFA_XSP16, literal(-17)))
          CFI (cfiCond123) V6 load(1, XDATA, add(CFA_XSP16, literal(-16)))
          CFI (cfiCond123) V7 load(1, XDATA, add(CFA_XSP16, literal(-15)))
          CFI (cfiCond123) V8 load(1, XDATA, add(CFA_XSP16, literal(-14)))
          CFI (cfiCond123) V9 load(1, XDATA, add(CFA_XSP16, literal(-13)))
          CFI (cfiCond123) V10 load(1, XDATA, add(CFA_XSP16, literal(-12)))
          CFI (cfiCond123) V11 load(1, XDATA, add(CFA_XSP16, literal(-11)))
          CFI (cfiCond123) V12 load(1, XDATA, add(CFA_XSP16, literal(-10)))
          CFI (cfiCond123) V13 load(1, XDATA, add(CFA_XSP16, literal(-9)))
          CFI (cfiCond123) V14 load(1, XDATA, add(CFA_XSP16, literal(-8)))
          CFI (cfiCond123) V15 load(1, XDATA, add(CFA_XSP16, literal(-7)))
          CFI (cfiCond123) R7 load(1, XDATA, add(CFA_XSP16, literal(-6)))
          CFI (cfiCond123) ?RET_LOW load(1, XDATA, add(CFA_XSP16, literal(-5)))
          CFI (cfiCond123) ?RET_HIGH load(1, XDATA, add(CFA_XSP16, literal(-4)))
          CFI (cfiCond123) ?BRET_EXT load(1, XDATA, add(CFA_XSP16, literal(-3)))
          CFI (cfiCond123) DPL0 load(1, XDATA, add(CFA_XSP16, literal(-2)))
          CFI (cfiCond123) DPH0 load(1, XDATA, add(CFA_XSP16, literal(-1)))
          CFI (cfiCond123) CFA_SP SP+-4
          CFI (cfiCond123) CFA_XSP16 add(XSP16, 49)
          CFI Block cfiCond124 Using cfiCommon0
          CFI (cfiCond124) Function compactPage
          CFI (cfiCond124) Conditional ??CrossCallReturnLabel_89, ??CrossCallReturnLabel_51
          CFI (cfiCond124) R6 load(1, XDATA, add(CFA_XSP16, literal(-22)))
          CFI (cfiCond124) VB load(1, XDATA, add(CFA_XSP16, literal(-21)))
          CFI (cfiCond124) V0 load(1, XDATA, add(CFA_XSP16, literal(-20)))
          CFI (cfiCond124) V1 load(1, XDATA, add(CFA_XSP16, literal(-19)))
          CFI (cfiCond124) V2 load(1, XDATA, add(CFA_XSP16, literal(-18)))
          CFI (cfiCond124) V3 load(1, XDATA, add(CFA_XSP16, literal(-17)))
          CFI (cfiCond124) V4 load(1, XDATA, add(CFA_XSP16, literal(-16)))
          CFI (cfiCond124) V5 load(1, XDATA, add(CFA_XSP16, literal(-15)))
          CFI (cfiCond124) V6 load(1, XDATA, add(CFA_XSP16, literal(-14)))
          CFI (cfiCond124) V7 load(1, XDATA, add(CFA_XSP16, literal(-13)))
          CFI (cfiCond124) V8 load(1, XDATA, add(CFA_XSP16, literal(-12)))
          CFI (cfiCond124) V9 load(1, XDATA, add(CFA_XSP16, literal(-11)))
          CFI (cfiCond124) V10 load(1, XDATA, add(CFA_XSP16, literal(-10)))
          CFI (cfiCond124) V11 load(1, XDATA, add(CFA_XSP16, literal(-9)))
          CFI (cfiCond124) V12 load(1, XDATA, add(CFA_XSP16, literal(-8)))
          CFI (cfiCond124) V13 load(1, XDATA, add(CFA_XSP16, literal(-7)))
          CFI (cfiCond124) R7 load(1, XDATA, add(CFA_XSP16, literal(-6)))
          CFI (cfiCond124) ?RET_LOW load(1, XDATA, add(CFA_XSP16, literal(-5)))
          CFI (cfiCond124) ?RET_HIGH load(1, XDATA, add(CFA_XSP16, literal(-4)))
          CFI (cfiCond124) ?BRET_EXT load(1, XDATA, add(CFA_XSP16, literal(-3)))
          CFI (cfiCond124) DPL0 load(1, XDATA, add(CFA_XSP16, literal(-2)))
          CFI (cfiCond124) DPH0 load(1, XDATA, add(CFA_XSP16, literal(-1)))
          CFI (cfiCond124) CFA_SP SP+-4
          CFI (cfiCond124) CFA_XSP16 add(XSP16, 41)
          CFI Block cfiCond125 Using cfiCommon0
          CFI (cfiCond125) Function compactPage
          CFI (cfiCond125) Conditional ??CrossCallReturnLabel_89, ??CrossCallReturnLabel_52
          CFI (cfiCond125) R6 load(1, XDATA, add(CFA_XSP16, literal(-22)))
          CFI (cfiCond125) VB load(1, XDATA, add(CFA_XSP16, literal(-21)))
          CFI (cfiCond125) V0 load(1, XDATA, add(CFA_XSP16, literal(-20)))
          CFI (cfiCond125) V1 load(1, XDATA, add(CFA_XSP16, literal(-19)))
          CFI (cfiCond125) V2 load(1, XDATA, add(CFA_XSP16, literal(-18)))
          CFI (cfiCond125) V3 load(1, XDATA, add(CFA_XSP16, literal(-17)))
          CFI (cfiCond125) V4 load(1, XDATA, add(CFA_XSP16, literal(-16)))
          CFI (cfiCond125) V5 load(1, XDATA, add(CFA_XSP16, literal(-15)))
          CFI (cfiCond125) V6 load(1, XDATA, add(CFA_XSP16, literal(-14)))
          CFI (cfiCond125) V7 load(1, XDATA, add(CFA_XSP16, literal(-13)))
          CFI (cfiCond125) V8 load(1, XDATA, add(CFA_XSP16, literal(-12)))
          CFI (cfiCond125) V9 load(1, XDATA, add(CFA_XSP16, literal(-11)))
          CFI (cfiCond125) V10 load(1, XDATA, add(CFA_XSP16, literal(-10)))
          CFI (cfiCond125) V11 load(1, XDATA, add(CFA_XSP16, literal(-9)))
          CFI (cfiCond125) V12 load(1, XDATA, add(CFA_XSP16, literal(-8)))
          CFI (cfiCond125) V13 load(1, XDATA, add(CFA_XSP16, literal(-7)))
          CFI (cfiCond125) R7 load(1, XDATA, add(CFA_XSP16, literal(-6)))
          CFI (cfiCond125) ?RET_LOW load(1, XDATA, add(CFA_XSP16, literal(-5)))
          CFI (cfiCond125) ?RET_HIGH load(1, XDATA, add(CFA_XSP16, literal(-4)))
          CFI (cfiCond125) ?BRET_EXT load(1, XDATA, add(CFA_XSP16, literal(-3)))
          CFI (cfiCond125) DPL0 load(1, XDATA, add(CFA_XSP16, literal(-2)))
          CFI (cfiCond125) DPH0 load(1, XDATA, add(CFA_XSP16, literal(-1)))
          CFI (cfiCond125) CFA_SP SP+-4
          CFI (cfiCond125) CFA_XSP16 add(XSP16, 41)
          CFI Block cfiCond126 Using cfiCommon0
          CFI (cfiCond126) Function writeItem
          CFI (cfiCond126) Conditional ??CrossCallReturnLabel_89, ??CrossCallReturnLabel_53
          CFI (cfiCond126) R6 load(1, XDATA, add(CFA_XSP16, literal(-22)))
          CFI (cfiCond126) VB load(1, XDATA, add(CFA_XSP16, literal(-21)))
          CFI (cfiCond126) V0 load(1, XDATA, add(CFA_XSP16, literal(-20)))
          CFI (cfiCond126) V1 load(1, XDATA, add(CFA_XSP16, literal(-19)))
          CFI (cfiCond126) V2 load(1, XDATA, add(CFA_XSP16, literal(-18)))
          CFI (cfiCond126) V3 load(1, XDATA, add(CFA_XSP16, literal(-17)))
          CFI (cfiCond126) V4 load(1, XDATA, add(CFA_XSP16, literal(-16)))
          CFI (cfiCond126) V5 load(1, XDATA, add(CFA_XSP16, literal(-15)))
          CFI (cfiCond126) V6 load(1, XDATA, add(CFA_XSP16, literal(-14)))
          CFI (cfiCond126) V7 load(1, XDATA, add(CFA_XSP16, literal(-13)))
          CFI (cfiCond126) V8 load(1, XDATA, add(CFA_XSP16, literal(-12)))
          CFI (cfiCond126) V9 load(1, XDATA, add(CFA_XSP16, literal(-11)))
          CFI (cfiCond126) V10 load(1, XDATA, add(CFA_XSP16, literal(-10)))
          CFI (cfiCond126) V11 load(1, XDATA, add(CFA_XSP16, literal(-9)))
          CFI (cfiCond126) V12 load(1, XDATA, add(CFA_XSP16, literal(-8)))
          CFI (cfiCond126) V13 load(1, XDATA, add(CFA_XSP16, literal(-7)))
          CFI (cfiCond126) R7 load(1, XDATA, add(CFA_XSP16, literal(-6)))
          CFI (cfiCond126) ?RET_LOW load(1, XDATA, add(CFA_XSP16, literal(-5)))
          CFI (cfiCond126) ?RET_HIGH load(1, XDATA, add(CFA_XSP16, literal(-4)))
          CFI (cfiCond126) ?BRET_EXT load(1, XDATA, add(CFA_XSP16, literal(-3)))
          CFI (cfiCond126) DPL0 load(1, XDATA, add(CFA_XSP16, literal(-2)))
          CFI (cfiCond126) DPH0 load(1, XDATA, add(CFA_XSP16, literal(-1)))
          CFI (cfiCond126) CFA_SP SP+-4
          CFI (cfiCond126) CFA_XSP16 add(XSP16, 30)
          CFI Block cfiCond127 Using cfiCommon0
          CFI (cfiCond127) Function writeItem
          CFI (cfiCond127) Conditional ??CrossCallReturnLabel_89, ??CrossCallReturnLabel_54
          CFI (cfiCond127) R6 load(1, XDATA, add(CFA_XSP16, literal(-22)))
          CFI (cfiCond127) VB load(1, XDATA, add(CFA_XSP16, literal(-21)))
          CFI (cfiCond127) V0 load(1, XDATA, add(CFA_XSP16, literal(-20)))
          CFI (cfiCond127) V1 load(1, XDATA, add(CFA_XSP16, literal(-19)))
          CFI (cfiCond127) V2 load(1, XDATA, add(CFA_XSP16, literal(-18)))
          CFI (cfiCond127) V3 load(1, XDATA, add(CFA_XSP16, literal(-17)))
          CFI (cfiCond127) V4 load(1, XDATA, add(CFA_XSP16, literal(-16)))
          CFI (cfiCond127) V5 load(1, XDATA, add(CFA_XSP16, literal(-15)))
          CFI (cfiCond127) V6 load(1, XDATA, add(CFA_XSP16, literal(-14)))
          CFI (cfiCond127) V7 load(1, XDATA, add(CFA_XSP16, literal(-13)))
          CFI (cfiCond127) V8 load(1, XDATA, add(CFA_XSP16, literal(-12)))
          CFI (cfiCond127) V9 load(1, XDATA, add(CFA_XSP16, literal(-11)))
          CFI (cfiCond127) V10 load(1, XDATA, add(CFA_XSP16, literal(-10)))
          CFI (cfiCond127) V11 load(1, XDATA, add(CFA_XSP16, literal(-9)))
          CFI (cfiCond127) V12 load(1, XDATA, add(CFA_XSP16, literal(-8)))
          CFI (cfiCond127) V13 load(1, XDATA, add(CFA_XSP16, literal(-7)))
          CFI (cfiCond127) R7 load(1, XDATA, add(CFA_XSP16, literal(-6)))
          CFI (cfiCond127) ?RET_LOW load(1, XDATA, add(CFA_XSP16, literal(-5)))
          CFI (cfiCond127) ?RET_HIGH load(1, XDATA, add(CFA_XSP16, literal(-4)))
          CFI (cfiCond127) ?BRET_EXT load(1, XDATA, add(CFA_XSP16, literal(-3)))
          CFI (cfiCond127) DPL0 load(1, XDATA, add(CFA_XSP16, literal(-2)))
          CFI (cfiCond127) DPH0 load(1, XDATA, add(CFA_XSP16, literal(-1)))
          CFI (cfiCond127) CFA_SP SP+-4
          CFI (cfiCond127) CFA_XSP16 add(XSP16, 30)
          CFI Block cfiCond128 Using cfiCommon0
          CFI (cfiCond128) Function osal_nv_write
          CFI (cfiCond128) Conditional ??CrossCallReturnLabel_89, ??CrossCallReturnLabel_55
          CFI (cfiCond128) R6 load(1, XDATA, add(CFA_XSP16, literal(-24)))
          CFI (cfiCond128) VB load(1, XDATA, add(CFA_XSP16, literal(-23)))
          CFI (cfiCond128) V0 load(1, XDATA, add(CFA_XSP16, literal(-22)))
          CFI (cfiCond128) V1 load(1, XDATA, add(CFA_XSP16, literal(-21)))
          CFI (cfiCond128) V2 load(1, XDATA, add(CFA_XSP16, literal(-20)))
          CFI (cfiCond128) V3 load(1, XDATA, add(CFA_XSP16, literal(-19)))
          CFI (cfiCond128) V4 load(1, XDATA, add(CFA_XSP16, literal(-18)))
          CFI (cfiCond128) V5 load(1, XDATA, add(CFA_XSP16, literal(-17)))
          CFI (cfiCond128) V6 load(1, XDATA, add(CFA_XSP16, literal(-16)))
          CFI (cfiCond128) V7 load(1, XDATA, add(CFA_XSP16, literal(-15)))
          CFI (cfiCond128) V8 load(1, XDATA, add(CFA_XSP16, literal(-14)))
          CFI (cfiCond128) V9 load(1, XDATA, add(CFA_XSP16, literal(-13)))
          CFI (cfiCond128) V10 load(1, XDATA, add(CFA_XSP16, literal(-12)))
          CFI (cfiCond128) V11 load(1, XDATA, add(CFA_XSP16, literal(-11)))
          CFI (cfiCond128) V12 load(1, XDATA, add(CFA_XSP16, literal(-10)))
          CFI (cfiCond128) V13 load(1, XDATA, add(CFA_XSP16, literal(-9)))
          CFI (cfiCond128) V14 load(1, XDATA, add(CFA_XSP16, literal(-8)))
          CFI (cfiCond128) V15 load(1, XDATA, add(CFA_XSP16, literal(-7)))
          CFI (cfiCond128) R7 load(1, XDATA, add(CFA_XSP16, literal(-6)))
          CFI (cfiCond128) ?RET_LOW load(1, XDATA, add(CFA_XSP16, literal(-5)))
          CFI (cfiCond128) ?RET_HIGH load(1, XDATA, add(CFA_XSP16, literal(-4)))
          CFI (cfiCond128) ?BRET_EXT load(1, XDATA, add(CFA_XSP16, literal(-3)))
          CFI (cfiCond128) DPL0 load(1, XDATA, add(CFA_XSP16, literal(-2)))
          CFI (cfiCond128) DPH0 load(1, XDATA, add(CFA_XSP16, literal(-1)))
          CFI (cfiCond128) CFA_SP SP+-4
          CFI (cfiCond128) CFA_XSP16 add(XSP16, 45)
          CFI Block cfiCond129 Using cfiCommon0
          CFI (cfiCond129) Function initItem
          CFI (cfiCond129) Conditional ??CrossCallReturnLabel_88, ??CrossCallReturnLabel_47
          CFI (cfiCond129) R6 load(1, XDATA, add(CFA_XSP16, literal(-18)))
          CFI (cfiCond129) VB load(1, XDATA, add(CFA_XSP16, literal(-17)))
          CFI (cfiCond129) V0 load(1, XDATA, add(CFA_XSP16, literal(-16)))
          CFI (cfiCond129) V1 load(1, XDATA, add(CFA_XSP16, literal(-15)))
          CFI (cfiCond129) V2 load(1, XDATA, add(CFA_XSP16, literal(-14)))
          CFI (cfiCond129) V3 load(1, XDATA, add(CFA_XSP16, literal(-13)))
          CFI (cfiCond129) V4 load(1, XDATA, add(CFA_XSP16, literal(-12)))
          CFI (cfiCond129) V5 load(1, XDATA, add(CFA_XSP16, literal(-11)))
          CFI (cfiCond129) V6 load(1, XDATA, add(CFA_XSP16, literal(-10)))
          CFI (cfiCond129) V7 load(1, XDATA, add(CFA_XSP16, literal(-9)))
          CFI (cfiCond129) V8 load(1, XDATA, add(CFA_XSP16, literal(-8)))
          CFI (cfiCond129) V9 load(1, XDATA, add(CFA_XSP16, literal(-7)))
          CFI (cfiCond129) R7 load(1, XDATA, add(CFA_XSP16, literal(-6)))
          CFI (cfiCond129) ?RET_LOW load(1, XDATA, add(CFA_XSP16, literal(-5)))
          CFI (cfiCond129) ?RET_HIGH load(1, XDATA, add(CFA_XSP16, literal(-4)))
          CFI (cfiCond129) ?BRET_EXT load(1, XDATA, add(CFA_XSP16, literal(-3)))
          CFI (cfiCond129) DPL0 load(1, XDATA, add(CFA_XSP16, literal(-2)))
          CFI (cfiCond129) DPH0 load(1, XDATA, add(CFA_XSP16, literal(-1)))
          CFI (cfiCond129) CFA_SP SP+-4
          CFI (cfiCond129) CFA_XSP16 add(XSP16, 40)
          CFI Block cfiCond130 Using cfiCommon0
          CFI (cfiCond130) Function writeItem
          CFI (cfiCond130) Conditional ??CrossCallReturnLabel_88, ??CrossCallReturnLabel_48
          CFI (cfiCond130) R6 load(1, XDATA, add(CFA_XSP16, literal(-22)))
          CFI (cfiCond130) VB load(1, XDATA, add(CFA_XSP16, literal(-21)))
          CFI (cfiCond130) V0 load(1, XDATA, add(CFA_XSP16, literal(-20)))
          CFI (cfiCond130) V1 load(1, XDATA, add(CFA_XSP16, literal(-19)))
          CFI (cfiCond130) V2 load(1, XDATA, add(CFA_XSP16, literal(-18)))
          CFI (cfiCond130) V3 load(1, XDATA, add(CFA_XSP16, literal(-17)))
          CFI (cfiCond130) V4 load(1, XDATA, add(CFA_XSP16, literal(-16)))
          CFI (cfiCond130) V5 load(1, XDATA, add(CFA_XSP16, literal(-15)))
          CFI (cfiCond130) V6 load(1, XDATA, add(CFA_XSP16, literal(-14)))
          CFI (cfiCond130) V7 load(1, XDATA, add(CFA_XSP16, literal(-13)))
          CFI (cfiCond130) V8 load(1, XDATA, add(CFA_XSP16, literal(-12)))
          CFI (cfiCond130) V9 load(1, XDATA, add(CFA_XSP16, literal(-11)))
          CFI (cfiCond130) V10 load(1, XDATA, add(CFA_XSP16, literal(-10)))
          CFI (cfiCond130) V11 load(1, XDATA, add(CFA_XSP16, literal(-9)))
          CFI (cfiCond130) V12 load(1, XDATA, add(CFA_XSP16, literal(-8)))
          CFI (cfiCond130) V13 load(1, XDATA, add(CFA_XSP16, literal(-7)))
          CFI (cfiCond130) R7 load(1, XDATA, add(CFA_XSP16, literal(-6)))
          CFI (cfiCond130) ?RET_LOW load(1, XDATA, add(CFA_XSP16, literal(-5)))
          CFI (cfiCond130) ?RET_HIGH load(1, XDATA, add(CFA_XSP16, literal(-4)))
          CFI (cfiCond130) ?BRET_EXT load(1, XDATA, add(CFA_XSP16, literal(-3)))
          CFI (cfiCond130) DPL0 load(1, XDATA, add(CFA_XSP16, literal(-2)))
          CFI (cfiCond130) DPH0 load(1, XDATA, add(CFA_XSP16, literal(-1)))
          CFI (cfiCond130) CFA_SP SP+-4
          CFI (cfiCond130) CFA_XSP16 add(XSP16, 30)
          CFI Block cfiPicker131 Using cfiCommon1
          CFI (cfiPicker131) NoFunction
          CFI (cfiPicker131) Picker
        MOVX    A,@DPTR
        MOV     R0,A
        INC     DPTR
        MOVX    A,@DPTR
        MOV     R1,A
        RET
          CFI (cfiCond116) CFA_SP SP+-2
          CFI (cfiCond117) CFA_SP SP+-2
          CFI (cfiCond118) CFA_SP SP+-2
          CFI (cfiCond119) CFA_SP SP+-2
          CFI (cfiCond120) CFA_SP SP+-2
          CFI (cfiCond121) CFA_SP SP+-2
          CFI (cfiCond122) CFA_SP SP+-2
          CFI (cfiCond123) CFA_SP SP+-2
          CFI (cfiCond124) CFA_SP SP+-2
          CFI (cfiCond125) CFA_SP SP+-2
          CFI (cfiCond126) CFA_SP SP+-2
          CFI (cfiCond127) CFA_SP SP+-2
          CFI (cfiCond128) CFA_SP SP+-2
          CFI (cfiCond129) CFA_SP SP+-2
          CFI (cfiCond130) CFA_SP SP+-2
          CFI (cfiPicker131) CFA_SP SP+0
          CFI EndBlock cfiCond116
          CFI EndBlock cfiCond117
          CFI EndBlock cfiCond118
          CFI EndBlock cfiCond119
          CFI EndBlock cfiCond120
          CFI EndBlock cfiCond121
          CFI EndBlock cfiCond122
          CFI EndBlock cfiCond123
          CFI EndBlock cfiCond124
          CFI EndBlock cfiCond125
          CFI EndBlock cfiCond126
          CFI EndBlock cfiCond127
          CFI EndBlock cfiCond128
          CFI EndBlock cfiCond129
          CFI EndBlock cfiCond130
          CFI EndBlock cfiPicker131

        RSEG BANKED_CODE:CODE:NOROOT(0)
?Subroutine28:
          CFI Block cfiCond132 Using cfiCommon0
          CFI Function initItem
          CFI Conditional ??CrossCallReturnLabel_47
          CFI R6 load(1, XDATA, add(CFA_XSP16, literal(-18)))
          CFI VB load(1, XDATA, add(CFA_XSP16, literal(-17)))
          CFI V0 load(1, XDATA, add(CFA_XSP16, literal(-16)))
          CFI V1 load(1, XDATA, add(CFA_XSP16, literal(-15)))
          CFI V2 load(1, XDATA, add(CFA_XSP16, literal(-14)))
          CFI V3 load(1, XDATA, add(CFA_XSP16, literal(-13)))
          CFI V4 load(1, XDATA, add(CFA_XSP16, literal(-12)))
          CFI V5 load(1, XDATA, add(CFA_XSP16, literal(-11)))
          CFI V6 load(1, XDATA, add(CFA_XSP16, literal(-10)))
          CFI V7 load(1, XDATA, add(CFA_XSP16, literal(-9)))
          CFI V8 load(1, XDATA, add(CFA_XSP16, literal(-8)))
          CFI V9 load(1, XDATA, add(CFA_XSP16, literal(-7)))
          CFI R7 load(1, XDATA, add(CFA_XSP16, literal(-6)))
          CFI ?RET_LOW load(1, XDATA, add(CFA_XSP16, literal(-5)))
          CFI ?RET_HIGH load(1, XDATA, add(CFA_XSP16, literal(-4)))
          CFI ?BRET_EXT load(1, XDATA, add(CFA_XSP16, literal(-3)))
          CFI DPL0 load(1, XDATA, add(CFA_XSP16, literal(-2)))
          CFI DPH0 load(1, XDATA, add(CFA_XSP16, literal(-1)))
          CFI CFA_SP SP+-2
          CFI CFA_XSP16 add(XSP16, 40)
          CFI Block cfiCond133 Using cfiCommon0
          CFI (cfiCond133) Function writeItem
          CFI (cfiCond133) Conditional ??CrossCallReturnLabel_48
          CFI (cfiCond133) R6 load(1, XDATA, add(CFA_XSP16, literal(-22)))
          CFI (cfiCond133) VB load(1, XDATA, add(CFA_XSP16, literal(-21)))
          CFI (cfiCond133) V0 load(1, XDATA, add(CFA_XSP16, literal(-20)))
          CFI (cfiCond133) V1 load(1, XDATA, add(CFA_XSP16, literal(-19)))
          CFI (cfiCond133) V2 load(1, XDATA, add(CFA_XSP16, literal(-18)))
          CFI (cfiCond133) V3 load(1, XDATA, add(CFA_XSP16, literal(-17)))
          CFI (cfiCond133) V4 load(1, XDATA, add(CFA_XSP16, literal(-16)))
          CFI (cfiCond133) V5 load(1, XDATA, add(CFA_XSP16, literal(-15)))
          CFI (cfiCond133) V6 load(1, XDATA, add(CFA_XSP16, literal(-14)))
          CFI (cfiCond133) V7 load(1, XDATA, add(CFA_XSP16, literal(-13)))
          CFI (cfiCond133) V8 load(1, XDATA, add(CFA_XSP16, literal(-12)))
          CFI (cfiCond133) V9 load(1, XDATA, add(CFA_XSP16, literal(-11)))
          CFI (cfiCond133) V10 load(1, XDATA, add(CFA_XSP16, literal(-10)))
          CFI (cfiCond133) V11 load(1, XDATA, add(CFA_XSP16, literal(-9)))
          CFI (cfiCond133) V12 load(1, XDATA, add(CFA_XSP16, literal(-8)))
          CFI (cfiCond133) V13 load(1, XDATA, add(CFA_XSP16, literal(-7)))
          CFI (cfiCond133) R7 load(1, XDATA, add(CFA_XSP16, literal(-6)))
          CFI (cfiCond133) ?RET_LOW load(1, XDATA, add(CFA_XSP16, literal(-5)))
          CFI (cfiCond133) ?RET_HIGH load(1, XDATA, add(CFA_XSP16, literal(-4)))
          CFI (cfiCond133) ?BRET_EXT load(1, XDATA, add(CFA_XSP16, literal(-3)))
          CFI (cfiCond133) DPL0 load(1, XDATA, add(CFA_XSP16, literal(-2)))
          CFI (cfiCond133) DPH0 load(1, XDATA, add(CFA_XSP16, literal(-1)))
          CFI (cfiCond133) CFA_SP SP+-2
          CFI (cfiCond133) CFA_XSP16 add(XSP16, 30)
          CFI Block cfiPicker134 Using cfiCommon1
          CFI (cfiPicker134) NoFunction
          CFI (cfiPicker134) Picker
        LCALL   ?Subroutine44 & 0xFFFF
??CrossCallReturnLabel_88:
        CLR     A
        CLR     C
        SUBB    A,R0
        RET
          CFI (cfiCond132) CFA_SP SP+0
          CFI (cfiCond133) CFA_SP SP+0
          CFI (cfiPicker134) CFA_SP SP+0
          CFI EndBlock cfiCond132
          CFI EndBlock cfiCond133
          CFI EndBlock cfiPicker134

        RSEG BANKED_CODE:CODE:NOROOT(0)
?Subroutine26:
          CFI Block cfiCond135 Using cfiCommon0
          CFI Function initNV
          CFI Conditional ??CrossCallReturnLabel_39
          CFI R6 load(1, XDATA, add(CFA_XSP16, literal(-12)))
          CFI VB load(1, XDATA, add(CFA_XSP16, literal(-11)))
          CFI V0 load(1, XDATA, add(CFA_XSP16, literal(-10)))
          CFI V1 load(1, XDATA, add(CFA_XSP16, literal(-9)))
          CFI V2 load(1, XDATA, add(CFA_XSP16, literal(-8)))
          CFI V3 load(1, XDATA, add(CFA_XSP16, literal(-7)))
          CFI R7 load(1, XDATA, add(CFA_XSP16, literal(-6)))
          CFI ?RET_LOW load(1, XDATA, add(CFA_XSP16, literal(-5)))
          CFI ?RET_HIGH load(1, XDATA, add(CFA_XSP16, literal(-4)))
          CFI ?BRET_EXT load(1, XDATA, add(CFA_XSP16, literal(-3)))
          CFI DPL0 load(1, XDATA, add(CFA_XSP16, literal(-2)))
          CFI DPH0 load(1, XDATA, add(CFA_XSP16, literal(-1)))
          CFI CFA_SP SP+-2
          CFI CFA_XSP16 add(XSP16, 28)
          CFI Block cfiCond136 Using cfiCommon0
          CFI (cfiCond136) Function compactPage
          CFI (cfiCond136) Conditional ??CrossCallReturnLabel_40
          CFI (cfiCond136) R6 load(1, XDATA, add(CFA_XSP16, literal(-22)))
          CFI (cfiCond136) VB load(1, XDATA, add(CFA_XSP16, literal(-21)))
          CFI (cfiCond136) V0 load(1, XDATA, add(CFA_XSP16, literal(-20)))
          CFI (cfiCond136) V1 load(1, XDATA, add(CFA_XSP16, literal(-19)))
          CFI (cfiCond136) V2 load(1, XDATA, add(CFA_XSP16, literal(-18)))
          CFI (cfiCond136) V3 load(1, XDATA, add(CFA_XSP16, literal(-17)))
          CFI (cfiCond136) V4 load(1, XDATA, add(CFA_XSP16, literal(-16)))
          CFI (cfiCond136) V5 load(1, XDATA, add(CFA_XSP16, literal(-15)))
          CFI (cfiCond136) V6 load(1, XDATA, add(CFA_XSP16, literal(-14)))
          CFI (cfiCond136) V7 load(1, XDATA, add(CFA_XSP16, literal(-13)))
          CFI (cfiCond136) V8 load(1, XDATA, add(CFA_XSP16, literal(-12)))
          CFI (cfiCond136) V9 load(1, XDATA, add(CFA_XSP16, literal(-11)))
          CFI (cfiCond136) V10 load(1, XDATA, add(CFA_XSP16, literal(-10)))
          CFI (cfiCond136) V11 load(1, XDATA, add(CFA_XSP16, literal(-9)))
          CFI (cfiCond136) V12 load(1, XDATA, add(CFA_XSP16, literal(-8)))
          CFI (cfiCond136) V13 load(1, XDATA, add(CFA_XSP16, literal(-7)))
          CFI (cfiCond136) R7 load(1, XDATA, add(CFA_XSP16, literal(-6)))
          CFI (cfiCond136) ?RET_LOW load(1, XDATA, add(CFA_XSP16, literal(-5)))
          CFI (cfiCond136) ?RET_HIGH load(1, XDATA, add(CFA_XSP16, literal(-4)))
          CFI (cfiCond136) ?BRET_EXT load(1, XDATA, add(CFA_XSP16, literal(-3)))
          CFI (cfiCond136) DPL0 load(1, XDATA, add(CFA_XSP16, literal(-2)))
          CFI (cfiCond136) DPH0 load(1, XDATA, add(CFA_XSP16, literal(-1)))
          CFI (cfiCond136) CFA_SP SP+-2
          CFI (cfiCond136) CFA_XSP16 add(XSP16, 44)
          CFI Block cfiCond137 Using cfiCommon0
          CFI (cfiCond137) Function compactPage
          CFI (cfiCond137) Conditional ??CrossCallReturnLabel_41
          CFI (cfiCond137) R6 load(1, XDATA, add(CFA_XSP16, literal(-22)))
          CFI (cfiCond137) VB load(1, XDATA, add(CFA_XSP16, literal(-21)))
          CFI (cfiCond137) V0 load(1, XDATA, add(CFA_XSP16, literal(-20)))
          CFI (cfiCond137) V1 load(1, XDATA, add(CFA_XSP16, literal(-19)))
          CFI (cfiCond137) V2 load(1, XDATA, add(CFA_XSP16, literal(-18)))
          CFI (cfiCond137) V3 load(1, XDATA, add(CFA_XSP16, literal(-17)))
          CFI (cfiCond137) V4 load(1, XDATA, add(CFA_XSP16, literal(-16)))
          CFI (cfiCond137) V5 load(1, XDATA, add(CFA_XSP16, literal(-15)))
          CFI (cfiCond137) V6 load(1, XDATA, add(CFA_XSP16, literal(-14)))
          CFI (cfiCond137) V7 load(1, XDATA, add(CFA_XSP16, literal(-13)))
          CFI (cfiCond137) V8 load(1, XDATA, add(CFA_XSP16, literal(-12)))
          CFI (cfiCond137) V9 load(1, XDATA, add(CFA_XSP16, literal(-11)))
          CFI (cfiCond137) V10 load(1, XDATA, add(CFA_XSP16, literal(-10)))
          CFI (cfiCond137) V11 load(1, XDATA, add(CFA_XSP16, literal(-9)))
          CFI (cfiCond137) V12 load(1, XDATA, add(CFA_XSP16, literal(-8)))
          CFI (cfiCond137) V13 load(1, XDATA, add(CFA_XSP16, literal(-7)))
          CFI (cfiCond137) R7 load(1, XDATA, add(CFA_XSP16, literal(-6)))
          CFI (cfiCond137) ?RET_LOW load(1, XDATA, add(CFA_XSP16, literal(-5)))
          CFI (cfiCond137) ?RET_HIGH load(1, XDATA, add(CFA_XSP16, literal(-4)))
          CFI (cfiCond137) ?BRET_EXT load(1, XDATA, add(CFA_XSP16, literal(-3)))
          CFI (cfiCond137) DPL0 load(1, XDATA, add(CFA_XSP16, literal(-2)))
          CFI (cfiCond137) DPH0 load(1, XDATA, add(CFA_XSP16, literal(-1)))
          CFI (cfiCond137) CFA_SP SP+-2
          CFI (cfiCond137) CFA_XSP16 add(XSP16, 41)
          CFI Block cfiCond138 Using cfiCommon0
          CFI (cfiCond138) Function writeItem
          CFI (cfiCond138) Conditional ??CrossCallReturnLabel_42
          CFI (cfiCond138) R6 load(1, XDATA, add(CFA_XSP16, literal(-22)))
          CFI (cfiCond138) VB load(1, XDATA, add(CFA_XSP16, literal(-21)))
          CFI (cfiCond138) V0 load(1, XDATA, add(CFA_XSP16, literal(-20)))
          CFI (cfiCond138) V1 load(1, XDATA, add(CFA_XSP16, literal(-19)))
          CFI (cfiCond138) V2 load(1, XDATA, add(CFA_XSP16, literal(-18)))
          CFI (cfiCond138) V3 load(1, XDATA, add(CFA_XSP16, literal(-17)))
          CFI (cfiCond138) V4 load(1, XDATA, add(CFA_XSP16, literal(-16)))
          CFI (cfiCond138) V5 load(1, XDATA, add(CFA_XSP16, literal(-15)))
          CFI (cfiCond138) V6 load(1, XDATA, add(CFA_XSP16, literal(-14)))
          CFI (cfiCond138) V7 load(1, XDATA, add(CFA_XSP16, literal(-13)))
          CFI (cfiCond138) V8 load(1, XDATA, add(CFA_XSP16, literal(-12)))
          CFI (cfiCond138) V9 load(1, XDATA, add(CFA_XSP16, literal(-11)))
          CFI (cfiCond138) V10 load(1, XDATA, add(CFA_XSP16, literal(-10)))
          CFI (cfiCond138) V11 load(1, XDATA, add(CFA_XSP16, literal(-9)))
          CFI (cfiCond138) V12 load(1, XDATA, add(CFA_XSP16, literal(-8)))
          CFI (cfiCond138) V13 load(1, XDATA, add(CFA_XSP16, literal(-7)))
          CFI (cfiCond138) R7 load(1, XDATA, add(CFA_XSP16, literal(-6)))
          CFI (cfiCond138) ?RET_LOW load(1, XDATA, add(CFA_XSP16, literal(-5)))
          CFI (cfiCond138) ?RET_HIGH load(1, XDATA, add(CFA_XSP16, literal(-4)))
          CFI (cfiCond138) ?BRET_EXT load(1, XDATA, add(CFA_XSP16, literal(-3)))
          CFI (cfiCond138) DPL0 load(1, XDATA, add(CFA_XSP16, literal(-2)))
          CFI (cfiCond138) DPH0 load(1, XDATA, add(CFA_XSP16, literal(-1)))
          CFI (cfiCond138) CFA_SP SP+-2
          CFI (cfiCond138) CFA_XSP16 add(XSP16, 30)
          CFI Block cfiCond139 Using cfiCommon0
          CFI (cfiCond139) Function osal_nv_write
          CFI (cfiCond139) Conditional ??CrossCallReturnLabel_43
          CFI (cfiCond139) R6 load(1, XDATA, add(CFA_XSP16, literal(-24)))
          CFI (cfiCond139) VB load(1, XDATA, add(CFA_XSP16, literal(-23)))
          CFI (cfiCond139) V0 load(1, XDATA, add(CFA_XSP16, literal(-22)))
          CFI (cfiCond139) V1 load(1, XDATA, add(CFA_XSP16, literal(-21)))
          CFI (cfiCond139) V2 load(1, XDATA, add(CFA_XSP16, literal(-20)))
          CFI (cfiCond139) V3 load(1, XDATA, add(CFA_XSP16, literal(-19)))
          CFI (cfiCond139) V4 load(1, XDATA, add(CFA_XSP16, literal(-18)))
          CFI (cfiCond139) V5 load(1, XDATA, add(CFA_XSP16, literal(-17)))
          CFI (cfiCond139) V6 load(1, XDATA, add(CFA_XSP16, literal(-16)))
          CFI (cfiCond139) V7 load(1, XDATA, add(CFA_XSP16, literal(-15)))
          CFI (cfiCond139) V8 load(1, XDATA, add(CFA_XSP16, literal(-14)))
          CFI (cfiCond139) V9 load(1, XDATA, add(CFA_XSP16, literal(-13)))
          CFI (cfiCond139) V10 load(1, XDATA, add(CFA_XSP16, literal(-12)))
          CFI (cfiCond139) V11 load(1, XDATA, add(CFA_XSP16, literal(-11)))
          CFI (cfiCond139) V12 load(1, XDATA, add(CFA_XSP16, literal(-10)))
          CFI (cfiCond139) V13 load(1, XDATA, add(CFA_XSP16, literal(-9)))
          CFI (cfiCond139) V14 load(1, XDATA, add(CFA_XSP16, literal(-8)))
          CFI (cfiCond139) V15 load(1, XDATA, add(CFA_XSP16, literal(-7)))
          CFI (cfiCond139) R7 load(1, XDATA, add(CFA_XSP16, literal(-6)))
          CFI (cfiCond139) ?RET_LOW load(1, XDATA, add(CFA_XSP16, literal(-5)))
          CFI (cfiCond139) ?RET_HIGH load(1, XDATA, add(CFA_XSP16, literal(-4)))
          CFI (cfiCond139) ?BRET_EXT load(1, XDATA, add(CFA_XSP16, literal(-3)))
          CFI (cfiCond139) DPL0 load(1, XDATA, add(CFA_XSP16, literal(-2)))
          CFI (cfiCond139) DPH0 load(1, XDATA, add(CFA_XSP16, literal(-1)))
          CFI (cfiCond139) CFA_SP SP+-2
          CFI (cfiCond139) CFA_XSP16 add(XSP16, 47)
          CFI Block cfiCond140 Using cfiCommon0
          CFI (cfiCond140) Function osal_nv_write
          CFI (cfiCond140) Conditional ??CrossCallReturnLabel_44
          CFI (cfiCond140) R6 load(1, XDATA, add(CFA_XSP16, literal(-24)))
          CFI (cfiCond140) VB load(1, XDATA, add(CFA_XSP16, literal(-23)))
          CFI (cfiCond140) V0 load(1, XDATA, add(CFA_XSP16, literal(-22)))
          CFI (cfiCond140) V1 load(1, XDATA, add(CFA_XSP16, literal(-21)))
          CFI (cfiCond140) V2 load(1, XDATA, add(CFA_XSP16, literal(-20)))
          CFI (cfiCond140) V3 load(1, XDATA, add(CFA_XSP16, literal(-19)))
          CFI (cfiCond140) V4 load(1, XDATA, add(CFA_XSP16, literal(-18)))
          CFI (cfiCond140) V5 load(1, XDATA, add(CFA_XSP16, literal(-17)))
          CFI (cfiCond140) V6 load(1, XDATA, add(CFA_XSP16, literal(-16)))
          CFI (cfiCond140) V7 load(1, XDATA, add(CFA_XSP16, literal(-15)))
          CFI (cfiCond140) V8 load(1, XDATA, add(CFA_XSP16, literal(-14)))
          CFI (cfiCond140) V9 load(1, XDATA, add(CFA_XSP16, literal(-13)))
          CFI (cfiCond140) V10 load(1, XDATA, add(CFA_XSP16, literal(-12)))
          CFI (cfiCond140) V11 load(1, XDATA, add(CFA_XSP16, literal(-11)))
          CFI (cfiCond140) V12 load(1, XDATA, add(CFA_XSP16, literal(-10)))
          CFI (cfiCond140) V13 load(1, XDATA, add(CFA_XSP16, literal(-9)))
          CFI (cfiCond140) V14 load(1, XDATA, add(CFA_XSP16, literal(-8)))
          CFI (cfiCond140) V15 load(1, XDATA, add(CFA_XSP16, literal(-7)))
          CFI (cfiCond140) R7 load(1, XDATA, add(CFA_XSP16, literal(-6)))
          CFI (cfiCond140) ?RET_LOW load(1, XDATA, add(CFA_XSP16, literal(-5)))
          CFI (cfiCond140) ?RET_HIGH load(1, XDATA, add(CFA_XSP16, literal(-4)))
          CFI (cfiCond140) ?BRET_EXT load(1, XDATA, add(CFA_XSP16, literal(-3)))
          CFI (cfiCond140) DPL0 load(1, XDATA, add(CFA_XSP16, literal(-2)))
          CFI (cfiCond140) DPH0 load(1, XDATA, add(CFA_XSP16, literal(-1)))
          CFI (cfiCond140) CFA_SP SP+-2
          CFI (cfiCond140) CFA_XSP16 add(XSP16, 45)
          CFI Block cfiPicker141 Using cfiCommon1
          CFI (cfiPicker141) NoFunction
          CFI (cfiPicker141) Picker
        LCALL   ?Subroutine45 & 0xFFFF
??CrossCallReturnLabel_93:
        RET
          CFI (cfiCond135) CFA_SP SP+0
          CFI (cfiCond136) CFA_SP SP+0
          CFI (cfiCond137) CFA_SP SP+0
          CFI (cfiCond138) CFA_SP SP+0
          CFI (cfiCond139) CFA_SP SP+0
          CFI (cfiCond140) CFA_SP SP+0
          CFI (cfiPicker141) CFA_SP SP+0
          CFI EndBlock cfiCond135
          CFI EndBlock cfiCond136
          CFI EndBlock cfiCond137
          CFI EndBlock cfiCond138
          CFI EndBlock cfiCond139
          CFI EndBlock cfiCond140
          CFI EndBlock cfiPicker141

        RSEG BANKED_CODE:CODE:NOROOT(0)
?Subroutine45:
          CFI Block cfiCond142 Using cfiCommon0
          CFI Function initPage
          CFI Conditional ??CrossCallReturnLabel_90, ??CrossCallReturnLabel_23
          CFI R6 load(1, XDATA, add(CFA_XSP16, literal(-24)))
          CFI VB load(1, XDATA, add(CFA_XSP16, literal(-23)))
          CFI V0 load(1, XDATA, add(CFA_XSP16, literal(-22)))
          CFI V1 load(1, XDATA, add(CFA_XSP16, literal(-21)))
          CFI V2 load(1, XDATA, add(CFA_XSP16, literal(-20)))
          CFI V3 load(1, XDATA, add(CFA_XSP16, literal(-19)))
          CFI V4 load(1, XDATA, add(CFA_XSP16, literal(-18)))
          CFI V5 load(1, XDATA, add(CFA_XSP16, literal(-17)))
          CFI V6 load(1, XDATA, add(CFA_XSP16, literal(-16)))
          CFI V7 load(1, XDATA, add(CFA_XSP16, literal(-15)))
          CFI V8 load(1, XDATA, add(CFA_XSP16, literal(-14)))
          CFI V9 load(1, XDATA, add(CFA_XSP16, literal(-13)))
          CFI V10 load(1, XDATA, add(CFA_XSP16, literal(-12)))
          CFI V11 load(1, XDATA, add(CFA_XSP16, literal(-11)))
          CFI V12 load(1, XDATA, add(CFA_XSP16, literal(-10)))
          CFI V13 load(1, XDATA, add(CFA_XSP16, literal(-9)))
          CFI V14 load(1, XDATA, add(CFA_XSP16, literal(-8)))
          CFI V15 load(1, XDATA, add(CFA_XSP16, literal(-7)))
          CFI R7 load(1, XDATA, add(CFA_XSP16, literal(-6)))
          CFI ?RET_LOW load(1, XDATA, add(CFA_XSP16, literal(-5)))
          CFI ?RET_HIGH load(1, XDATA, add(CFA_XSP16, literal(-4)))
          CFI ?BRET_EXT load(1, XDATA, add(CFA_XSP16, literal(-3)))
          CFI DPL0 load(1, XDATA, add(CFA_XSP16, literal(-2)))
          CFI DPH0 load(1, XDATA, add(CFA_XSP16, literal(-1)))
          CFI CFA_SP SP+-4
          CFI CFA_XSP16 add(XSP16, 49)
          CFI Block cfiCond143 Using cfiCommon0
          CFI (cfiCond143) Function compactPage
          CFI (cfiCond143) Conditional ??CrossCallReturnLabel_90, ??CrossCallReturnLabel_24
          CFI (cfiCond143) R6 load(1, XDATA, add(CFA_XSP16, literal(-22)))
          CFI (cfiCond143) VB load(1, XDATA, add(CFA_XSP16, literal(-21)))
          CFI (cfiCond143) V0 load(1, XDATA, add(CFA_XSP16, literal(-20)))
          CFI (cfiCond143) V1 load(1, XDATA, add(CFA_XSP16, literal(-19)))
          CFI (cfiCond143) V2 load(1, XDATA, add(CFA_XSP16, literal(-18)))
          CFI (cfiCond143) V3 load(1, XDATA, add(CFA_XSP16, literal(-17)))
          CFI (cfiCond143) V4 load(1, XDATA, add(CFA_XSP16, literal(-16)))
          CFI (cfiCond143) V5 load(1, XDATA, add(CFA_XSP16, literal(-15)))
          CFI (cfiCond143) V6 load(1, XDATA, add(CFA_XSP16, literal(-14)))
          CFI (cfiCond143) V7 load(1, XDATA, add(CFA_XSP16, literal(-13)))
          CFI (cfiCond143) V8 load(1, XDATA, add(CFA_XSP16, literal(-12)))
          CFI (cfiCond143) V9 load(1, XDATA, add(CFA_XSP16, literal(-11)))
          CFI (cfiCond143) V10 load(1, XDATA, add(CFA_XSP16, literal(-10)))
          CFI (cfiCond143) V11 load(1, XDATA, add(CFA_XSP16, literal(-9)))
          CFI (cfiCond143) V12 load(1, XDATA, add(CFA_XSP16, literal(-8)))
          CFI (cfiCond143) V13 load(1, XDATA, add(CFA_XSP16, literal(-7)))
          CFI (cfiCond143) R7 load(1, XDATA, add(CFA_XSP16, literal(-6)))
          CFI (cfiCond143) ?RET_LOW load(1, XDATA, add(CFA_XSP16, literal(-5)))
          CFI (cfiCond143) ?RET_HIGH load(1, XDATA, add(CFA_XSP16, literal(-4)))
          CFI (cfiCond143) ?BRET_EXT load(1, XDATA, add(CFA_XSP16, literal(-3)))
          CFI (cfiCond143) DPL0 load(1, XDATA, add(CFA_XSP16, literal(-2)))
          CFI (cfiCond143) DPH0 load(1, XDATA, add(CFA_XSP16, literal(-1)))
          CFI (cfiCond143) CFA_SP SP+-4
          CFI (cfiCond143) CFA_XSP16 add(XSP16, 41)
          CFI Block cfiCond144 Using cfiCommon0
          CFI (cfiCond144) Function initNV
          CFI (cfiCond144) Conditional ??CrossCallReturnLabel_93, ??CrossCallReturnLabel_39
          CFI (cfiCond144) R6 load(1, XDATA, add(CFA_XSP16, literal(-12)))
          CFI (cfiCond144) VB load(1, XDATA, add(CFA_XSP16, literal(-11)))
          CFI (cfiCond144) V0 load(1, XDATA, add(CFA_XSP16, literal(-10)))
          CFI (cfiCond144) V1 load(1, XDATA, add(CFA_XSP16, literal(-9)))
          CFI (cfiCond144) V2 load(1, XDATA, add(CFA_XSP16, literal(-8)))
          CFI (cfiCond144) V3 load(1, XDATA, add(CFA_XSP16, literal(-7)))
          CFI (cfiCond144) R7 load(1, XDATA, add(CFA_XSP16, literal(-6)))
          CFI (cfiCond144) ?RET_LOW load(1, XDATA, add(CFA_XSP16, literal(-5)))
          CFI (cfiCond144) ?RET_HIGH load(1, XDATA, add(CFA_XSP16, literal(-4)))
          CFI (cfiCond144) ?BRET_EXT load(1, XDATA, add(CFA_XSP16, literal(-3)))
          CFI (cfiCond144) DPL0 load(1, XDATA, add(CFA_XSP16, literal(-2)))
          CFI (cfiCond144) DPH0 load(1, XDATA, add(CFA_XSP16, literal(-1)))
          CFI (cfiCond144) CFA_SP SP+-4
          CFI (cfiCond144) CFA_XSP16 add(XSP16, 28)
          CFI Block cfiCond145 Using cfiCommon0
          CFI (cfiCond145) Function compactPage
          CFI (cfiCond145) Conditional ??CrossCallReturnLabel_93, ??CrossCallReturnLabel_40
          CFI (cfiCond145) R6 load(1, XDATA, add(CFA_XSP16, literal(-22)))
          CFI (cfiCond145) VB load(1, XDATA, add(CFA_XSP16, literal(-21)))
          CFI (cfiCond145) V0 load(1, XDATA, add(CFA_XSP16, literal(-20)))
          CFI (cfiCond145) V1 load(1, XDATA, add(CFA_XSP16, literal(-19)))
          CFI (cfiCond145) V2 load(1, XDATA, add(CFA_XSP16, literal(-18)))
          CFI (cfiCond145) V3 load(1, XDATA, add(CFA_XSP16, literal(-17)))
          CFI (cfiCond145) V4 load(1, XDATA, add(CFA_XSP16, literal(-16)))
          CFI (cfiCond145) V5 load(1, XDATA, add(CFA_XSP16, literal(-15)))
          CFI (cfiCond145) V6 load(1, XDATA, add(CFA_XSP16, literal(-14)))
          CFI (cfiCond145) V7 load(1, XDATA, add(CFA_XSP16, literal(-13)))
          CFI (cfiCond145) V8 load(1, XDATA, add(CFA_XSP16, literal(-12)))
          CFI (cfiCond145) V9 load(1, XDATA, add(CFA_XSP16, literal(-11)))
          CFI (cfiCond145) V10 load(1, XDATA, add(CFA_XSP16, literal(-10)))
          CFI (cfiCond145) V11 load(1, XDATA, add(CFA_XSP16, literal(-9)))
          CFI (cfiCond145) V12 load(1, XDATA, add(CFA_XSP16, literal(-8)))
          CFI (cfiCond145) V13 load(1, XDATA, add(CFA_XSP16, literal(-7)))
          CFI (cfiCond145) R7 load(1, XDATA, add(CFA_XSP16, literal(-6)))
          CFI (cfiCond145) ?RET_LOW load(1, XDATA, add(CFA_XSP16, literal(-5)))
          CFI (cfiCond145) ?RET_HIGH load(1, XDATA, add(CFA_XSP16, literal(-4)))
          CFI (cfiCond145) ?BRET_EXT load(1, XDATA, add(CFA_XSP16, literal(-3)))
          CFI (cfiCond145) DPL0 load(1, XDATA, add(CFA_XSP16, literal(-2)))
          CFI (cfiCond145) DPH0 load(1, XDATA, add(CFA_XSP16, literal(-1)))
          CFI (cfiCond145) CFA_SP SP+-4
          CFI (cfiCond145) CFA_XSP16 add(XSP16, 44)
          CFI Block cfiCond146 Using cfiCommon0
          CFI (cfiCond146) Function compactPage
          CFI (cfiCond146) Conditional ??CrossCallReturnLabel_93, ??CrossCallReturnLabel_41
          CFI (cfiCond146) R6 load(1, XDATA, add(CFA_XSP16, literal(-22)))
          CFI (cfiCond146) VB load(1, XDATA, add(CFA_XSP16, literal(-21)))
          CFI (cfiCond146) V0 load(1, XDATA, add(CFA_XSP16, literal(-20)))
          CFI (cfiCond146) V1 load(1, XDATA, add(CFA_XSP16, literal(-19)))
          CFI (cfiCond146) V2 load(1, XDATA, add(CFA_XSP16, literal(-18)))
          CFI (cfiCond146) V3 load(1, XDATA, add(CFA_XSP16, literal(-17)))
          CFI (cfiCond146) V4 load(1, XDATA, add(CFA_XSP16, literal(-16)))
          CFI (cfiCond146) V5 load(1, XDATA, add(CFA_XSP16, literal(-15)))
          CFI (cfiCond146) V6 load(1, XDATA, add(CFA_XSP16, literal(-14)))
          CFI (cfiCond146) V7 load(1, XDATA, add(CFA_XSP16, literal(-13)))
          CFI (cfiCond146) V8 load(1, XDATA, add(CFA_XSP16, literal(-12)))
          CFI (cfiCond146) V9 load(1, XDATA, add(CFA_XSP16, literal(-11)))
          CFI (cfiCond146) V10 load(1, XDATA, add(CFA_XSP16, literal(-10)))
          CFI (cfiCond146) V11 load(1, XDATA, add(CFA_XSP16, literal(-9)))
          CFI (cfiCond146) V12 load(1, XDATA, add(CFA_XSP16, literal(-8)))
          CFI (cfiCond146) V13 load(1, XDATA, add(CFA_XSP16, literal(-7)))
          CFI (cfiCond146) R7 load(1, XDATA, add(CFA_XSP16, literal(-6)))
          CFI (cfiCond146) ?RET_LOW load(1, XDATA, add(CFA_XSP16, literal(-5)))
          CFI (cfiCond146) ?RET_HIGH load(1, XDATA, add(CFA_XSP16, literal(-4)))
          CFI (cfiCond146) ?BRET_EXT load(1, XDATA, add(CFA_XSP16, literal(-3)))
          CFI (cfiCond146) DPL0 load(1, XDATA, add(CFA_XSP16, literal(-2)))
          CFI (cfiCond146) DPH0 load(1, XDATA, add(CFA_XSP16, literal(-1)))
          CFI (cfiCond146) CFA_SP SP+-4
          CFI (cfiCond146) CFA_XSP16 add(XSP16, 41)
          CFI Block cfiCond147 Using cfiCommon0
          CFI (cfiCond147) Function writeItem
          CFI (cfiCond147) Conditional ??CrossCallReturnLabel_93, ??CrossCallReturnLabel_42
          CFI (cfiCond147) R6 load(1, XDATA, add(CFA_XSP16, literal(-22)))
          CFI (cfiCond147) VB load(1, XDATA, add(CFA_XSP16, literal(-21)))
          CFI (cfiCond147) V0 load(1, XDATA, add(CFA_XSP16, literal(-20)))
          CFI (cfiCond147) V1 load(1, XDATA, add(CFA_XSP16, literal(-19)))
          CFI (cfiCond147) V2 load(1, XDATA, add(CFA_XSP16, literal(-18)))
          CFI (cfiCond147) V3 load(1, XDATA, add(CFA_XSP16, literal(-17)))
          CFI (cfiCond147) V4 load(1, XDATA, add(CFA_XSP16, literal(-16)))
          CFI (cfiCond147) V5 load(1, XDATA, add(CFA_XSP16, literal(-15)))
          CFI (cfiCond147) V6 load(1, XDATA, add(CFA_XSP16, literal(-14)))
          CFI (cfiCond147) V7 load(1, XDATA, add(CFA_XSP16, literal(-13)))
          CFI (cfiCond147) V8 load(1, XDATA, add(CFA_XSP16, literal(-12)))
          CFI (cfiCond147) V9 load(1, XDATA, add(CFA_XSP16, literal(-11)))
          CFI (cfiCond147) V10 load(1, XDATA, add(CFA_XSP16, literal(-10)))
          CFI (cfiCond147) V11 load(1, XDATA, add(CFA_XSP16, literal(-9)))
          CFI (cfiCond147) V12 load(1, XDATA, add(CFA_XSP16, literal(-8)))
          CFI (cfiCond147) V13 load(1, XDATA, add(CFA_XSP16, literal(-7)))
          CFI (cfiCond147) R7 load(1, XDATA, add(CFA_XSP16, literal(-6)))
          CFI (cfiCond147) ?RET_LOW load(1, XDATA, add(CFA_XSP16, literal(-5)))
          CFI (cfiCond147) ?RET_HIGH load(1, XDATA, add(CFA_XSP16, literal(-4)))
          CFI (cfiCond147) ?BRET_EXT load(1, XDATA, add(CFA_XSP16, literal(-3)))
          CFI (cfiCond147) DPL0 load(1, XDATA, add(CFA_XSP16, literal(-2)))
          CFI (cfiCond147) DPH0 load(1, XDATA, add(CFA_XSP16, literal(-1)))
          CFI (cfiCond147) CFA_SP SP+-4
          CFI (cfiCond147) CFA_XSP16 add(XSP16, 30)
          CFI Block cfiCond148 Using cfiCommon0
          CFI (cfiCond148) Function osal_nv_write
          CFI (cfiCond148) Conditional ??CrossCallReturnLabel_93, ??CrossCallReturnLabel_43
          CFI (cfiCond148) R6 load(1, XDATA, add(CFA_XSP16, literal(-24)))
          CFI (cfiCond148) VB load(1, XDATA, add(CFA_XSP16, literal(-23)))
          CFI (cfiCond148) V0 load(1, XDATA, add(CFA_XSP16, literal(-22)))
          CFI (cfiCond148) V1 load(1, XDATA, add(CFA_XSP16, literal(-21)))
          CFI (cfiCond148) V2 load(1, XDATA, add(CFA_XSP16, literal(-20)))
          CFI (cfiCond148) V3 load(1, XDATA, add(CFA_XSP16, literal(-19)))
          CFI (cfiCond148) V4 load(1, XDATA, add(CFA_XSP16, literal(-18)))
          CFI (cfiCond148) V5 load(1, XDATA, add(CFA_XSP16, literal(-17)))
          CFI (cfiCond148) V6 load(1, XDATA, add(CFA_XSP16, literal(-16)))
          CFI (cfiCond148) V7 load(1, XDATA, add(CFA_XSP16, literal(-15)))
          CFI (cfiCond148) V8 load(1, XDATA, add(CFA_XSP16, literal(-14)))
          CFI (cfiCond148) V9 load(1, XDATA, add(CFA_XSP16, literal(-13)))
          CFI (cfiCond148) V10 load(1, XDATA, add(CFA_XSP16, literal(-12)))
          CFI (cfiCond148) V11 load(1, XDATA, add(CFA_XSP16, literal(-11)))
          CFI (cfiCond148) V12 load(1, XDATA, add(CFA_XSP16, literal(-10)))
          CFI (cfiCond148) V13 load(1, XDATA, add(CFA_XSP16, literal(-9)))
          CFI (cfiCond148) V14 load(1, XDATA, add(CFA_XSP16, literal(-8)))
          CFI (cfiCond148) V15 load(1, XDATA, add(CFA_XSP16, literal(-7)))
          CFI (cfiCond148) R7 load(1, XDATA, add(CFA_XSP16, literal(-6)))
          CFI (cfiCond148) ?RET_LOW load(1, XDATA, add(CFA_XSP16, literal(-5)))
          CFI (cfiCond148) ?RET_HIGH load(1, XDATA, add(CFA_XSP16, literal(-4)))
          CFI (cfiCond148) ?BRET_EXT load(1, XDATA, add(CFA_XSP16, literal(-3)))
          CFI (cfiCond148) DPL0 load(1, XDATA, add(CFA_XSP16, literal(-2)))
          CFI (cfiCond148) DPH0 load(1, XDATA, add(CFA_XSP16, literal(-1)))
          CFI (cfiCond148) CFA_SP SP+-4
          CFI (cfiCond148) CFA_XSP16 add(XSP16, 47)
          CFI Block cfiCond149 Using cfiCommon0
          CFI (cfiCond149) Function osal_nv_write
          CFI (cfiCond149) Conditional ??CrossCallReturnLabel_93, ??CrossCallReturnLabel_44
          CFI (cfiCond149) R6 load(1, XDATA, add(CFA_XSP16, literal(-24)))
          CFI (cfiCond149) VB load(1, XDATA, add(CFA_XSP16, literal(-23)))
          CFI (cfiCond149) V0 load(1, XDATA, add(CFA_XSP16, literal(-22)))
          CFI (cfiCond149) V1 load(1, XDATA, add(CFA_XSP16, literal(-21)))
          CFI (cfiCond149) V2 load(1, XDATA, add(CFA_XSP16, literal(-20)))
          CFI (cfiCond149) V3 load(1, XDATA, add(CFA_XSP16, literal(-19)))
          CFI (cfiCond149) V4 load(1, XDATA, add(CFA_XSP16, literal(-18)))
          CFI (cfiCond149) V5 load(1, XDATA, add(CFA_XSP16, literal(-17)))
          CFI (cfiCond149) V6 load(1, XDATA, add(CFA_XSP16, literal(-16)))
          CFI (cfiCond149) V7 load(1, XDATA, add(CFA_XSP16, literal(-15)))
          CFI (cfiCond149) V8 load(1, XDATA, add(CFA_XSP16, literal(-14)))
          CFI (cfiCond149) V9 load(1, XDATA, add(CFA_XSP16, literal(-13)))
          CFI (cfiCond149) V10 load(1, XDATA, add(CFA_XSP16, literal(-12)))
          CFI (cfiCond149) V11 load(1, XDATA, add(CFA_XSP16, literal(-11)))
          CFI (cfiCond149) V12 load(1, XDATA, add(CFA_XSP16, literal(-10)))
          CFI (cfiCond149) V13 load(1, XDATA, add(CFA_XSP16, literal(-9)))
          CFI (cfiCond149) V14 load(1, XDATA, add(CFA_XSP16, literal(-8)))
          CFI (cfiCond149) V15 load(1, XDATA, add(CFA_XSP16, literal(-7)))
          CFI (cfiCond149) R7 load(1, XDATA, add(CFA_XSP16, literal(-6)))
          CFI (cfiCond149) ?RET_LOW load(1, XDATA, add(CFA_XSP16, literal(-5)))
          CFI (cfiCond149) ?RET_HIGH load(1, XDATA, add(CFA_XSP16, literal(-4)))
          CFI (cfiCond149) ?BRET_EXT load(1, XDATA, add(CFA_XSP16, literal(-3)))
          CFI (cfiCond149) DPL0 load(1, XDATA, add(CFA_XSP16, literal(-2)))
          CFI (cfiCond149) DPH0 load(1, XDATA, add(CFA_XSP16, literal(-1)))
          CFI (cfiCond149) CFA_SP SP+-4
          CFI (cfiCond149) CFA_XSP16 add(XSP16, 45)
          CFI Block cfiCond150 Using cfiCommon0
          CFI (cfiCond150) Function compactPage
          CFI (cfiCond150) Conditional ??CrossCallReturnLabel_92, ??CrossCallReturnLabel_37
          CFI (cfiCond150) R6 load(1, XDATA, add(CFA_XSP16, literal(-22)))
          CFI (cfiCond150) VB load(1, XDATA, add(CFA_XSP16, literal(-21)))
          CFI (cfiCond150) V0 load(1, XDATA, add(CFA_XSP16, literal(-20)))
          CFI (cfiCond150) V1 load(1, XDATA, add(CFA_XSP16, literal(-19)))
          CFI (cfiCond150) V2 load(1, XDATA, add(CFA_XSP16, literal(-18)))
          CFI (cfiCond150) V3 load(1, XDATA, add(CFA_XSP16, literal(-17)))
          CFI (cfiCond150) V4 load(1, XDATA, add(CFA_XSP16, literal(-16)))
          CFI (cfiCond150) V5 load(1, XDATA, add(CFA_XSP16, literal(-15)))
          CFI (cfiCond150) V6 load(1, XDATA, add(CFA_XSP16, literal(-14)))
          CFI (cfiCond150) V7 load(1, XDATA, add(CFA_XSP16, literal(-13)))
          CFI (cfiCond150) V8 load(1, XDATA, add(CFA_XSP16, literal(-12)))
          CFI (cfiCond150) V9 load(1, XDATA, add(CFA_XSP16, literal(-11)))
          CFI (cfiCond150) V10 load(1, XDATA, add(CFA_XSP16, literal(-10)))
          CFI (cfiCond150) V11 load(1, XDATA, add(CFA_XSP16, literal(-9)))
          CFI (cfiCond150) V12 load(1, XDATA, add(CFA_XSP16, literal(-8)))
          CFI (cfiCond150) V13 load(1, XDATA, add(CFA_XSP16, literal(-7)))
          CFI (cfiCond150) R7 load(1, XDATA, add(CFA_XSP16, literal(-6)))
          CFI (cfiCond150) ?RET_LOW load(1, XDATA, add(CFA_XSP16, literal(-5)))
          CFI (cfiCond150) ?RET_HIGH load(1, XDATA, add(CFA_XSP16, literal(-4)))
          CFI (cfiCond150) ?BRET_EXT load(1, XDATA, add(CFA_XSP16, literal(-3)))
          CFI (cfiCond150) DPL0 load(1, XDATA, add(CFA_XSP16, literal(-2)))
          CFI (cfiCond150) DPH0 load(1, XDATA, add(CFA_XSP16, literal(-1)))
          CFI (cfiCond150) CFA_SP SP+-4
          CFI (cfiCond150) CFA_XSP16 add(XSP16, 41)
          CFI Block cfiCond151 Using cfiCommon0
          CFI (cfiCond151) Function writeItem
          CFI (cfiCond151) Conditional ??CrossCallReturnLabel_92, ??CrossCallReturnLabel_38
          CFI (cfiCond151) R6 load(1, XDATA, add(CFA_XSP16, literal(-22)))
          CFI (cfiCond151) VB load(1, XDATA, add(CFA_XSP16, literal(-21)))
          CFI (cfiCond151) V0 load(1, XDATA, add(CFA_XSP16, literal(-20)))
          CFI (cfiCond151) V1 load(1, XDATA, add(CFA_XSP16, literal(-19)))
          CFI (cfiCond151) V2 load(1, XDATA, add(CFA_XSP16, literal(-18)))
          CFI (cfiCond151) V3 load(1, XDATA, add(CFA_XSP16, literal(-17)))
          CFI (cfiCond151) V4 load(1, XDATA, add(CFA_XSP16, literal(-16)))
          CFI (cfiCond151) V5 load(1, XDATA, add(CFA_XSP16, literal(-15)))
          CFI (cfiCond151) V6 load(1, XDATA, add(CFA_XSP16, literal(-14)))
          CFI (cfiCond151) V7 load(1, XDATA, add(CFA_XSP16, literal(-13)))
          CFI (cfiCond151) V8 load(1, XDATA, add(CFA_XSP16, literal(-12)))
          CFI (cfiCond151) V9 load(1, XDATA, add(CFA_XSP16, literal(-11)))
          CFI (cfiCond151) V10 load(1, XDATA, add(CFA_XSP16, literal(-10)))
          CFI (cfiCond151) V11 load(1, XDATA, add(CFA_XSP16, literal(-9)))
          CFI (cfiCond151) V12 load(1, XDATA, add(CFA_XSP16, literal(-8)))
          CFI (cfiCond151) V13 load(1, XDATA, add(CFA_XSP16, literal(-7)))
          CFI (cfiCond151) R7 load(1, XDATA, add(CFA_XSP16, literal(-6)))
          CFI (cfiCond151) ?RET_LOW load(1, XDATA, add(CFA_XSP16, literal(-5)))
          CFI (cfiCond151) ?RET_HIGH load(1, XDATA, add(CFA_XSP16, literal(-4)))
          CFI (cfiCond151) ?BRET_EXT load(1, XDATA, add(CFA_XSP16, literal(-3)))
          CFI (cfiCond151) DPL0 load(1, XDATA, add(CFA_XSP16, literal(-2)))
          CFI (cfiCond151) DPH0 load(1, XDATA, add(CFA_XSP16, literal(-1)))
          CFI (cfiCond151) CFA_SP SP+-4
          CFI (cfiCond151) CFA_XSP16 add(XSP16, 30)
          CFI Block cfiCond152 Using cfiCommon0
          CFI (cfiCond152) Function osal_nv_write
          CFI (cfiCond152) Conditional ??CrossCallReturnLabel_91, ??CrossCallReturnLabel_25
          CFI (cfiCond152) R6 load(1, XDATA, add(CFA_XSP16, literal(-24)))
          CFI (cfiCond152) VB load(1, XDATA, add(CFA_XSP16, literal(-23)))
          CFI (cfiCond152) V0 load(1, XDATA, add(CFA_XSP16, literal(-22)))
          CFI (cfiCond152) V1 load(1, XDATA, add(CFA_XSP16, literal(-21)))
          CFI (cfiCond152) V2 load(1, XDATA, add(CFA_XSP16, literal(-20)))
          CFI (cfiCond152) V3 load(1, XDATA, add(CFA_XSP16, literal(-19)))
          CFI (cfiCond152) V4 load(1, XDATA, add(CFA_XSP16, literal(-18)))
          CFI (cfiCond152) V5 load(1, XDATA, add(CFA_XSP16, literal(-17)))
          CFI (cfiCond152) V6 load(1, XDATA, add(CFA_XSP16, literal(-16)))
          CFI (cfiCond152) V7 load(1, XDATA, add(CFA_XSP16, literal(-15)))
          CFI (cfiCond152) V8 load(1, XDATA, add(CFA_XSP16, literal(-14)))
          CFI (cfiCond152) V9 load(1, XDATA, add(CFA_XSP16, literal(-13)))
          CFI (cfiCond152) V10 load(1, XDATA, add(CFA_XSP16, literal(-12)))
          CFI (cfiCond152) V11 load(1, XDATA, add(CFA_XSP16, literal(-11)))
          CFI (cfiCond152) V12 load(1, XDATA, add(CFA_XSP16, literal(-10)))
          CFI (cfiCond152) V13 load(1, XDATA, add(CFA_XSP16, literal(-9)))
          CFI (cfiCond152) V14 load(1, XDATA, add(CFA_XSP16, literal(-8)))
          CFI (cfiCond152) V15 load(1, XDATA, add(CFA_XSP16, literal(-7)))
          CFI (cfiCond152) R7 load(1, XDATA, add(CFA_XSP16, literal(-6)))
          CFI (cfiCond152) ?RET_LOW load(1, XDATA, add(CFA_XSP16, literal(-5)))
          CFI (cfiCond152) ?RET_HIGH load(1, XDATA, add(CFA_XSP16, literal(-4)))
          CFI (cfiCond152) ?BRET_EXT load(1, XDATA, add(CFA_XSP16, literal(-3)))
          CFI (cfiCond152) DPL0 load(1, XDATA, add(CFA_XSP16, literal(-2)))
          CFI (cfiCond152) DPH0 load(1, XDATA, add(CFA_XSP16, literal(-1)))
          CFI (cfiCond152) CFA_SP SP+-4
          CFI (cfiCond152) CFA_XSP16 add(XSP16, 45)
          CFI Block cfiCond153 Using cfiCommon0
          CFI (cfiCond153) Function osal_nv_write
          CFI (cfiCond153) Conditional ??CrossCallReturnLabel_91, ??CrossCallReturnLabel_26
          CFI (cfiCond153) R6 load(1, XDATA, add(CFA_XSP16, literal(-24)))
          CFI (cfiCond153) VB load(1, XDATA, add(CFA_XSP16, literal(-23)))
          CFI (cfiCond153) V0 load(1, XDATA, add(CFA_XSP16, literal(-22)))
          CFI (cfiCond153) V1 load(1, XDATA, add(CFA_XSP16, literal(-21)))
          CFI (cfiCond153) V2 load(1, XDATA, add(CFA_XSP16, literal(-20)))
          CFI (cfiCond153) V3 load(1, XDATA, add(CFA_XSP16, literal(-19)))
          CFI (cfiCond153) V4 load(1, XDATA, add(CFA_XSP16, literal(-18)))
          CFI (cfiCond153) V5 load(1, XDATA, add(CFA_XSP16, literal(-17)))
          CFI (cfiCond153) V6 load(1, XDATA, add(CFA_XSP16, literal(-16)))
          CFI (cfiCond153) V7 load(1, XDATA, add(CFA_XSP16, literal(-15)))
          CFI (cfiCond153) V8 load(1, XDATA, add(CFA_XSP16, literal(-14)))
          CFI (cfiCond153) V9 load(1, XDATA, add(CFA_XSP16, literal(-13)))
          CFI (cfiCond153) V10 load(1, XDATA, add(CFA_XSP16, literal(-12)))
          CFI (cfiCond153) V11 load(1, XDATA, add(CFA_XSP16, literal(-11)))
          CFI (cfiCond153) V12 load(1, XDATA, add(CFA_XSP16, literal(-10)))
          CFI (cfiCond153) V13 load(1, XDATA, add(CFA_XSP16, literal(-9)))
          CFI (cfiCond153) V14 load(1, XDATA, add(CFA_XSP16, literal(-8)))
          CFI (cfiCond153) V15 load(1, XDATA, add(CFA_XSP16, literal(-7)))
          CFI (cfiCond153) R7 load(1, XDATA, add(CFA_XSP16, literal(-6)))
          CFI (cfiCond153) ?RET_LOW load(1, XDATA, add(CFA_XSP16, literal(-5)))
          CFI (cfiCond153) ?RET_HIGH load(1, XDATA, add(CFA_XSP16, literal(-4)))
          CFI (cfiCond153) ?BRET_EXT load(1, XDATA, add(CFA_XSP16, literal(-3)))
          CFI (cfiCond153) DPL0 load(1, XDATA, add(CFA_XSP16, literal(-2)))
          CFI (cfiCond153) DPH0 load(1, XDATA, add(CFA_XSP16, literal(-1)))
          CFI (cfiCond153) CFA_SP SP+-4
          CFI (cfiCond153) CFA_XSP16 add(XSP16, 45)
          CFI Block cfiPicker154 Using cfiCommon1
          CFI (cfiPicker154) NoFunction
          CFI (cfiPicker154) Picker
        MOVX    A,@DPTR
        MOV     R4,A
        INC     DPTR
        MOVX    A,@DPTR
        MOV     R5,A
        RET
          CFI (cfiCond142) CFA_SP SP+-2
          CFI (cfiCond143) CFA_SP SP+-2
          CFI (cfiCond144) CFA_SP SP+-2
          CFI (cfiCond145) CFA_SP SP+-2
          CFI (cfiCond146) CFA_SP SP+-2
          CFI (cfiCond147) CFA_SP SP+-2
          CFI (cfiCond148) CFA_SP SP+-2
          CFI (cfiCond149) CFA_SP SP+-2
          CFI (cfiCond150) CFA_SP SP+-2
          CFI (cfiCond151) CFA_SP SP+-2
          CFI (cfiCond152) CFA_SP SP+-2
          CFI (cfiCond153) CFA_SP SP+-2
          CFI (cfiPicker154) CFA_SP SP+0
          CFI EndBlock cfiCond142
          CFI EndBlock cfiCond143
          CFI EndBlock cfiCond144
          CFI EndBlock cfiCond145
          CFI EndBlock cfiCond146
          CFI EndBlock cfiCond147
          CFI EndBlock cfiCond148
          CFI EndBlock cfiCond149
          CFI EndBlock cfiCond150
          CFI EndBlock cfiCond151
          CFI EndBlock cfiCond152
          CFI EndBlock cfiCond153
          CFI EndBlock cfiPicker154

        RSEG BANKED_CODE:CODE:NOROOT(0)
?Subroutine25:
          CFI Block cfiCond155 Using cfiCommon0
          CFI Function compactPage
          CFI Conditional ??CrossCallReturnLabel_37
          CFI R6 load(1, XDATA, add(CFA_XSP16, literal(-22)))
          CFI VB load(1, XDATA, add(CFA_XSP16, literal(-21)))
          CFI V0 load(1, XDATA, add(CFA_XSP16, literal(-20)))
          CFI V1 load(1, XDATA, add(CFA_XSP16, literal(-19)))
          CFI V2 load(1, XDATA, add(CFA_XSP16, literal(-18)))
          CFI V3 load(1, XDATA, add(CFA_XSP16, literal(-17)))
          CFI V4 load(1, XDATA, add(CFA_XSP16, literal(-16)))
          CFI V5 load(1, XDATA, add(CFA_XSP16, literal(-15)))
          CFI V6 load(1, XDATA, add(CFA_XSP16, literal(-14)))
          CFI V7 load(1, XDATA, add(CFA_XSP16, literal(-13)))
          CFI V8 load(1, XDATA, add(CFA_XSP16, literal(-12)))
          CFI V9 load(1, XDATA, add(CFA_XSP16, literal(-11)))
          CFI V10 load(1, XDATA, add(CFA_XSP16, literal(-10)))
          CFI V11 load(1, XDATA, add(CFA_XSP16, literal(-9)))
          CFI V12 load(1, XDATA, add(CFA_XSP16, literal(-8)))
          CFI V13 load(1, XDATA, add(CFA_XSP16, literal(-7)))
          CFI R7 load(1, XDATA, add(CFA_XSP16, literal(-6)))
          CFI ?RET_LOW load(1, XDATA, add(CFA_XSP16, literal(-5)))
          CFI ?RET_HIGH load(1, XDATA, add(CFA_XSP16, literal(-4)))
          CFI ?BRET_EXT load(1, XDATA, add(CFA_XSP16, literal(-3)))
          CFI DPL0 load(1, XDATA, add(CFA_XSP16, literal(-2)))
          CFI DPH0 load(1, XDATA, add(CFA_XSP16, literal(-1)))
          CFI CFA_SP SP+-2
          CFI CFA_XSP16 add(XSP16, 41)
          CFI Block cfiCond156 Using cfiCommon0
          CFI (cfiCond156) Function writeItem
          CFI (cfiCond156) Conditional ??CrossCallReturnLabel_38
          CFI (cfiCond156) R6 load(1, XDATA, add(CFA_XSP16, literal(-22)))
          CFI (cfiCond156) VB load(1, XDATA, add(CFA_XSP16, literal(-21)))
          CFI (cfiCond156) V0 load(1, XDATA, add(CFA_XSP16, literal(-20)))
          CFI (cfiCond156) V1 load(1, XDATA, add(CFA_XSP16, literal(-19)))
          CFI (cfiCond156) V2 load(1, XDATA, add(CFA_XSP16, literal(-18)))
          CFI (cfiCond156) V3 load(1, XDATA, add(CFA_XSP16, literal(-17)))
          CFI (cfiCond156) V4 load(1, XDATA, add(CFA_XSP16, literal(-16)))
          CFI (cfiCond156) V5 load(1, XDATA, add(CFA_XSP16, literal(-15)))
          CFI (cfiCond156) V6 load(1, XDATA, add(CFA_XSP16, literal(-14)))
          CFI (cfiCond156) V7 load(1, XDATA, add(CFA_XSP16, literal(-13)))
          CFI (cfiCond156) V8 load(1, XDATA, add(CFA_XSP16, literal(-12)))
          CFI (cfiCond156) V9 load(1, XDATA, add(CFA_XSP16, literal(-11)))
          CFI (cfiCond156) V10 load(1, XDATA, add(CFA_XSP16, literal(-10)))
          CFI (cfiCond156) V11 load(1, XDATA, add(CFA_XSP16, literal(-9)))
          CFI (cfiCond156) V12 load(1, XDATA, add(CFA_XSP16, literal(-8)))
          CFI (cfiCond156) V13 load(1, XDATA, add(CFA_XSP16, literal(-7)))
          CFI (cfiCond156) R7 load(1, XDATA, add(CFA_XSP16, literal(-6)))
          CFI (cfiCond156) ?RET_LOW load(1, XDATA, add(CFA_XSP16, literal(-5)))
          CFI (cfiCond156) ?RET_HIGH load(1, XDATA, add(CFA_XSP16, literal(-4)))
          CFI (cfiCond156) ?BRET_EXT load(1, XDATA, add(CFA_XSP16, literal(-3)))
          CFI (cfiCond156) DPL0 load(1, XDATA, add(CFA_XSP16, literal(-2)))
          CFI (cfiCond156) DPH0 load(1, XDATA, add(CFA_XSP16, literal(-1)))
          CFI (cfiCond156) CFA_SP SP+-2
          CFI (cfiCond156) CFA_XSP16 add(XSP16, 30)
          CFI Block cfiPicker157 Using cfiCommon1
          CFI (cfiPicker157) NoFunction
          CFI (cfiPicker157) Picker
        LCALL   ?Subroutine45 & 0xFFFF
??CrossCallReturnLabel_92:
        MOV     R2,?V2
        MOV     R3,?V3
        RET
          CFI (cfiCond155) CFA_SP SP+0
          CFI (cfiCond156) CFA_SP SP+0
          CFI (cfiPicker157) CFA_SP SP+0
          CFI EndBlock cfiCond155
          CFI EndBlock cfiCond156
          CFI EndBlock cfiPicker157
// 1138 
// 1139 /*********************************************************************
// 1140  * @fn      hotItem
// 1141  *
// 1142  * @brief   Look for the parameter 'id' in the hot items array.
// 1143  *
// 1144  * @param   id - A valid NV item Id.
// 1145  *
// 1146  * @return  A valid index into the hot items if the item is hot; OSAL_NV_MAX_HOT if not.
// 1147  */

        RSEG BANKED_CODE:CODE:NOROOT(0)
// 1148 static uint8 hotItem(uint16 id)
hotItem:
          CFI Block cfiBlock158 Using cfiCommon0
          CFI Function hotItem
        CODE
// 1149 {
        PUSH    DPL
          CFI DPL0 Frame(CFA_SP, 4)
          CFI CFA_SP SP+-4
        PUSH    DPH
          CFI DPH0 Frame(CFA_SP, 5)
          CFI CFA_SP SP+-5
        ; Saved register size: 2
        ; Auto size: 0
// 1150   uint8 hotIdx;
// 1151 
// 1152   for (hotIdx = 0; hotIdx < OSAL_NV_MAX_HOT; hotIdx++)
        MOV     R1,#0x0
        MOV     R4,#hotIds & 0xff
        MOV     R5,#(hotIds >> 8) & 0xff
// 1153   {
// 1154     if (hotIds[hotIdx] == id)
??hotItem_0:
        MOV     DPL,R4
        MOV     DPH,R5
        MOVX    A,@DPTR
        XRL     A,R2
        JNZ     ??hotItem_1
        INC     DPTR
        MOVX    A,@DPTR
        XRL     A,R3
??hotItem_1:
        JZ      ??hotItem_2
// 1155     {
// 1156       break;
// 1157     }
// 1158   }
        INC     R1
        MOV     A,R4
        ADD     A,#0x2
        MOV     R4,A
        JNC     ??hotItem_3
        INC     R5
??hotItem_3:
        MOV     A,R1
        CLR     C
        SUBB    A,#0x3
        JC      ??hotItem_0
// 1159 
// 1160   return hotIdx;
??hotItem_2:
          CFI EndBlock cfiBlock158
        REQUIRE ?Subroutine7
        ; // Fall through to label ?Subroutine7
// 1161 }

        RSEG BANKED_CODE:CODE:NOROOT(0)
?Subroutine7:
          CFI Block cfiBlock159 Using cfiCommon0
          CFI NoFunction
          CFI CFA_SP SP+-5
          CFI DPL0 Frame(CFA_SP, 4)
          CFI DPH0 Frame(CFA_SP, 5)
        POP     DPH
          CFI CFA_SP SP+-4
          CFI DPH0 SameValue
        POP     DPL
          CFI CFA_SP SP+-3
          CFI DPL0 SameValue
        LJMP    ?BRET
          CFI EndBlock cfiBlock159
// 1162 
// 1163 /*********************************************************************
// 1164  * @fn      hotItemUpdate
// 1165  *
// 1166  * @brief   If the parameter 'id' is a hot item, update the corresponding hot item data.
// 1167  *
// 1168  * @param   pg - The new NV page corresponding to the hot item.
// 1169  * @param   off - The new NV page offset corresponding to the hot item.
// 1170  * @param   id - A valid NV item Id.
// 1171  *
// 1172  * @return  none
// 1173  */

        RSEG BANKED_CODE:CODE:NOROOT(0)
// 1174 static void hotItemUpdate(uint8 pg, uint16 off, uint16 id)
hotItemUpdate:
          CFI Block cfiBlock160 Using cfiCommon0
          CFI Function hotItemUpdate
        CODE
// 1175 {
        REQUIRE ?V0
        MOV     A,#-0x9
        LCALL   ?BANKED_ENTER_XDATA
          CFI DPH0 load(1, XDATA, add(CFA_XSP16, literal(-1)))
          CFI DPL0 load(1, XDATA, add(CFA_XSP16, literal(-2)))
          CFI ?BRET_EXT load(1, XDATA, add(CFA_XSP16, literal(-3)))
          CFI ?RET_HIGH load(1, XDATA, add(CFA_XSP16, literal(-4)))
          CFI ?RET_LOW load(1, XDATA, add(CFA_XSP16, literal(-5)))
          CFI R7 load(1, XDATA, add(CFA_XSP16, literal(-6)))
          CFI V0 load(1, XDATA, add(CFA_XSP16, literal(-7)))
          CFI VB load(1, XDATA, add(CFA_XSP16, literal(-8)))
          CFI R6 load(1, XDATA, add(CFA_XSP16, literal(-9)))
          CFI CFA_SP SP+0
          CFI CFA_XSP16 add(XSP16, 9)
        ; Saved register size: 9
        ; Auto size: 0
        MOV     A,R1
        MOV     R7,A
// 1176   uint8 hotIdx = hotItem(id);
        MOV     R6,#0x0
        MOV     R0,#hotIds & 0xff
        MOV     R1,#(hotIds >> 8) & 0xff
??hotItemUpdate_0:
        MOV     DPL,R0
        MOV     DPH,R1
        MOVX    A,@DPTR
        XRL     A,R4
        JNZ     ??hotItemUpdate_1
        INC     DPTR
        MOVX    A,@DPTR
        XRL     A,R5
??hotItemUpdate_1:
        JZ      ??hotItemUpdate_2
        INC     R6
        MOV     A,R0
        ADD     A,#0x2
        MOV     R0,A
        JNC     ??hotItemUpdate_3
        INC     R1
??hotItemUpdate_3:
        MOV     A,R6
        CLR     C
        SUBB    A,#0x3
        JC      ??hotItemUpdate_0
// 1177 
// 1178   if (hotIdx < OSAL_NV_MAX_HOT)
??hotItemUpdate_2:
        MOV     A,R6
        CLR     C
        SUBB    A,#0x3
        JNC     ??hotItemUpdate_4
// 1179   {
// 1180     {
// 1181       hotPg[hotIdx] = pg;
        MOV     A,R6
        LCALL   ?Subroutine34 & 0xFFFF
// 1182       hotOff[hotIdx] = off;
// 1183     }
// 1184   }
??CrossCallReturnLabel_66:
        MOV     A,R7
        LCALL   ?Subroutine9 & 0xFFFF
??CrossCallReturnLabel_3:
        MOV     A,R2
        MOVX    @DPTR,A
        INC     DPTR
        MOV     A,R3
        MOVX    @DPTR,A
// 1185 }
??hotItemUpdate_4:
        LJMP    ?Subroutine2 & 0xFFFF
          CFI EndBlock cfiBlock160

        RSEG BANKED_CODE:CODE:NOROOT(0)
?Subroutine34:
          CFI Block cfiCond161 Using cfiCommon0
          CFI Function compactPage
          CFI Conditional ??CrossCallReturnLabel_65
          CFI R6 load(1, XDATA, add(CFA_XSP16, literal(-22)))
          CFI VB load(1, XDATA, add(CFA_XSP16, literal(-21)))
          CFI V0 load(1, XDATA, add(CFA_XSP16, literal(-20)))
          CFI V1 load(1, XDATA, add(CFA_XSP16, literal(-19)))
          CFI V2 load(1, XDATA, add(CFA_XSP16, literal(-18)))
          CFI V3 load(1, XDATA, add(CFA_XSP16, literal(-17)))
          CFI V4 load(1, XDATA, add(CFA_XSP16, literal(-16)))
          CFI V5 load(1, XDATA, add(CFA_XSP16, literal(-15)))
          CFI V6 load(1, XDATA, add(CFA_XSP16, literal(-14)))
          CFI V7 load(1, XDATA, add(CFA_XSP16, literal(-13)))
          CFI V8 load(1, XDATA, add(CFA_XSP16, literal(-12)))
          CFI V9 load(1, XDATA, add(CFA_XSP16, literal(-11)))
          CFI V10 load(1, XDATA, add(CFA_XSP16, literal(-10)))
          CFI V11 load(1, XDATA, add(CFA_XSP16, literal(-9)))
          CFI V12 load(1, XDATA, add(CFA_XSP16, literal(-8)))
          CFI V13 load(1, XDATA, add(CFA_XSP16, literal(-7)))
          CFI R7 load(1, XDATA, add(CFA_XSP16, literal(-6)))
          CFI ?RET_LOW load(1, XDATA, add(CFA_XSP16, literal(-5)))
          CFI ?RET_HIGH load(1, XDATA, add(CFA_XSP16, literal(-4)))
          CFI ?BRET_EXT load(1, XDATA, add(CFA_XSP16, literal(-3)))
          CFI DPL0 load(1, XDATA, add(CFA_XSP16, literal(-2)))
          CFI DPH0 load(1, XDATA, add(CFA_XSP16, literal(-1)))
          CFI CFA_SP SP+-2
          CFI CFA_XSP16 add(XSP16, 41)
          CFI Block cfiCond162 Using cfiCommon0
          CFI (cfiCond162) Function hotItemUpdate
          CFI (cfiCond162) Conditional ??CrossCallReturnLabel_66
          CFI (cfiCond162) R6 load(1, XDATA, add(CFA_XSP16, literal(-9)))
          CFI (cfiCond162) VB load(1, XDATA, add(CFA_XSP16, literal(-8)))
          CFI (cfiCond162) V0 load(1, XDATA, add(CFA_XSP16, literal(-7)))
          CFI (cfiCond162) R7 load(1, XDATA, add(CFA_XSP16, literal(-6)))
          CFI (cfiCond162) ?RET_LOW load(1, XDATA, add(CFA_XSP16, literal(-5)))
          CFI (cfiCond162) ?RET_HIGH load(1, XDATA, add(CFA_XSP16, literal(-4)))
          CFI (cfiCond162) ?BRET_EXT load(1, XDATA, add(CFA_XSP16, literal(-3)))
          CFI (cfiCond162) DPL0 load(1, XDATA, add(CFA_XSP16, literal(-2)))
          CFI (cfiCond162) DPH0 load(1, XDATA, add(CFA_XSP16, literal(-1)))
          CFI (cfiCond162) CFA_SP SP+-2
          CFI (cfiCond162) CFA_XSP16 add(XSP16, 9)
          CFI Block cfiPicker163 Using cfiCommon1
          CFI (cfiPicker163) NoFunction
          CFI (cfiPicker163) Picker
        MOV     R0,A
        MOV     A,#hotPg & 0xff
        ADD     A,R0
        MOV     DPL,A
        CLR     A
        ADDC    A,#(hotPg >> 8) & 0xff
        MOV     DPH,A
        RET
          CFI (cfiCond161) CFA_SP SP+0
          CFI (cfiCond162) CFA_SP SP+0
          CFI (cfiPicker163) CFA_SP SP+0
          CFI EndBlock cfiCond161
          CFI EndBlock cfiCond162
          CFI EndBlock cfiPicker163

        RSEG BANKED_CODE:CODE:NOROOT(0)
?Subroutine9:
          CFI Block cfiCond164 Using cfiCommon0
          CFI Function compactPage
          CFI Conditional ??CrossCallReturnLabel_4
          CFI R6 load(1, XDATA, add(CFA_XSP16, literal(-22)))
          CFI VB load(1, XDATA, add(CFA_XSP16, literal(-21)))
          CFI V0 load(1, XDATA, add(CFA_XSP16, literal(-20)))
          CFI V1 load(1, XDATA, add(CFA_XSP16, literal(-19)))
          CFI V2 load(1, XDATA, add(CFA_XSP16, literal(-18)))
          CFI V3 load(1, XDATA, add(CFA_XSP16, literal(-17)))
          CFI V4 load(1, XDATA, add(CFA_XSP16, literal(-16)))
          CFI V5 load(1, XDATA, add(CFA_XSP16, literal(-15)))
          CFI V6 load(1, XDATA, add(CFA_XSP16, literal(-14)))
          CFI V7 load(1, XDATA, add(CFA_XSP16, literal(-13)))
          CFI V8 load(1, XDATA, add(CFA_XSP16, literal(-12)))
          CFI V9 load(1, XDATA, add(CFA_XSP16, literal(-11)))
          CFI V10 load(1, XDATA, add(CFA_XSP16, literal(-10)))
          CFI V11 load(1, XDATA, add(CFA_XSP16, literal(-9)))
          CFI V12 load(1, XDATA, add(CFA_XSP16, literal(-8)))
          CFI V13 load(1, XDATA, add(CFA_XSP16, literal(-7)))
          CFI R7 load(1, XDATA, add(CFA_XSP16, literal(-6)))
          CFI ?RET_LOW load(1, XDATA, add(CFA_XSP16, literal(-5)))
          CFI ?RET_HIGH load(1, XDATA, add(CFA_XSP16, literal(-4)))
          CFI ?BRET_EXT load(1, XDATA, add(CFA_XSP16, literal(-3)))
          CFI DPL0 load(1, XDATA, add(CFA_XSP16, literal(-2)))
          CFI DPH0 load(1, XDATA, add(CFA_XSP16, literal(-1)))
          CFI CFA_SP SP+-2
          CFI CFA_XSP16 add(XSP16, 41)
          CFI Block cfiCond165 Using cfiCommon0
          CFI (cfiCond165) Function hotItemUpdate
          CFI (cfiCond165) Conditional ??CrossCallReturnLabel_3
          CFI (cfiCond165) R6 load(1, XDATA, add(CFA_XSP16, literal(-9)))
          CFI (cfiCond165) VB load(1, XDATA, add(CFA_XSP16, literal(-8)))
          CFI (cfiCond165) V0 load(1, XDATA, add(CFA_XSP16, literal(-7)))
          CFI (cfiCond165) R7 load(1, XDATA, add(CFA_XSP16, literal(-6)))
          CFI (cfiCond165) ?RET_LOW load(1, XDATA, add(CFA_XSP16, literal(-5)))
          CFI (cfiCond165) ?RET_HIGH load(1, XDATA, add(CFA_XSP16, literal(-4)))
          CFI (cfiCond165) ?BRET_EXT load(1, XDATA, add(CFA_XSP16, literal(-3)))
          CFI (cfiCond165) DPL0 load(1, XDATA, add(CFA_XSP16, literal(-2)))
          CFI (cfiCond165) DPH0 load(1, XDATA, add(CFA_XSP16, literal(-1)))
          CFI (cfiCond165) CFA_SP SP+-2
          CFI (cfiCond165) CFA_XSP16 add(XSP16, 9)
          CFI Block cfiPicker166 Using cfiCommon1
          CFI (cfiPicker166) NoFunction
          CFI (cfiPicker166) Picker
        MOVX    @DPTR,A
        MOV     A,R0
        ADD     A,R0
        MOV     R0,A
        CLR     A
        RLC     A
        MOV     R1,A
        MOV     A,#hotOff & 0xff
        ADD     A,R0
        MOV     DPL,A
        MOV     A,#(hotOff >> 8) & 0xff
        ADDC    A,R1
        MOV     DPH,A
        RET
          CFI (cfiCond164) CFA_SP SP+0
          CFI (cfiCond165) CFA_SP SP+0
          CFI (cfiPicker166) CFA_SP SP+0
          CFI EndBlock cfiCond164
          CFI EndBlock cfiCond165
          CFI EndBlock cfiPicker166
// 1186 
// 1187 /*********************************************************************
// 1188  * @fn      osal_nv_init
// 1189  *
// 1190  * @brief   Initialize NV service.
// 1191  *
// 1192  * @param   p - Not used.
// 1193  *
// 1194  * @return  none
// 1195  */

        RSEG BANKED_CODE:CODE:NOROOT(0)
// 1196 void osal_nv_init( void *p )
osal_nv_init:
          CFI Block cfiBlock167 Using cfiCommon0
          CFI Function osal_nv_init
        CODE
// 1197 {
        FUNCALL osal_nv_init, initNV
        LOCFRAME ISTACK, 2, STACK
        LOCFRAME PSTACK, 0, STACK
        LOCFRAME XSTACK, 0, STACK
        LOCFRAME IOVERLAY, 0, STATIC
        LOCFRAME DOVERLAY, 0, STATIC
        ARGFRAME ISTACK, 2, STACK
        ARGFRAME PSTACK, 0, STACK
        ARGFRAME XSTACK, 0, STACK
        ARGFRAME IOVERLAY, 0, STATIC
        ARGFRAME DOVERLAY, 0, STATIC
        PUSH    DPL
          CFI DPL0 Frame(CFA_SP, 4)
          CFI CFA_SP SP+-4
        PUSH    DPH
          CFI DPH0 Frame(CFA_SP, 5)
          CFI CFA_SP SP+-5
        ; Saved register size: 2
        ; Auto size: 0
// 1198   (void)p;  // Suppress Lint warning.
// 1199   (void)initNV();  // Always returns TRUE after pages have been erased.
        ; Setup parameters for call to function initNV
        LCALL   `??initNV::?relay`   ; Banked call to: initNV
// 1200 }
        SJMP    ?Subroutine7
          CFI EndBlock cfiBlock167
// 1201 
// 1202 /*********************************************************************
// 1203  * @fn      osal_nv_item_init
// 1204  *
// 1205  * @brief   If the NV item does not already exist, it is created and
// 1206  *          initialized with the data passed to the function, if any.
// 1207  *          This function must be called before calling osal_nv_read() or
// 1208  *          osal_nv_write().
// 1209  *
// 1210  * @param   id  - Valid NV item Id.
// 1211  * @param   len - Item length.
// 1212  * @param  *buf - Pointer to item initalization data. Set to NULL if none.
// 1213  *
// 1214  * @return  NV_ITEM_UNINIT - Id did not exist and was created successfully.
// 1215  *          SUCCESS        - Id already existed, no action taken.
// 1216  *          NV_OPER_FAILED - Failure to find or create Id.
// 1217  */

        RSEG BANKED_CODE:CODE:NOROOT(0)
// 1218 uint8 osal_nv_item_init( uint16 id, uint16 len, void *buf )
osal_nv_item_init:
          CFI Block cfiBlock168 Using cfiCommon0
          CFI Function osal_nv_item_init
        CODE
// 1219 {
        FUNCALL osal_nv_item_init, HalAdcCheckVdd
        LOCFRAME ISTACK, 0, STACK
        LOCFRAME PSTACK, 0, STACK
        LOCFRAME XSTACK, 12, STACK
        LOCFRAME IOVERLAY, 0, STATIC
        LOCFRAME DOVERLAY, 0, STATIC
        ARGFRAME ISTACK, 0, STACK
        ARGFRAME PSTACK, 0, STACK
        ARGFRAME XSTACK, 12, STACK
        ARGFRAME IOVERLAY, 0, STATIC
        ARGFRAME DOVERLAY, 0, STATIC
        FUNCALL osal_nv_item_init, findItem
        LOCFRAME ISTACK, 0, STACK
        LOCFRAME PSTACK, 0, STACK
        LOCFRAME XSTACK, 12, STACK
        LOCFRAME IOVERLAY, 0, STATIC
        LOCFRAME DOVERLAY, 0, STATIC
        ARGFRAME ISTACK, 0, STACK
        ARGFRAME PSTACK, 0, STACK
        ARGFRAME XSTACK, 12, STACK
        ARGFRAME IOVERLAY, 0, STATIC
        ARGFRAME DOVERLAY, 0, STATIC
        FUNCALL osal_nv_item_init, hotItemUpdate
        LOCFRAME ISTACK, 0, STACK
        LOCFRAME PSTACK, 0, STACK
        LOCFRAME XSTACK, 12, STACK
        LOCFRAME IOVERLAY, 0, STATIC
        LOCFRAME DOVERLAY, 0, STATIC
        ARGFRAME ISTACK, 0, STACK
        ARGFRAME PSTACK, 0, STACK
        ARGFRAME XSTACK, 12, STACK
        ARGFRAME IOVERLAY, 0, STATIC
        ARGFRAME DOVERLAY, 0, STATIC
        FUNCALL osal_nv_item_init, initItem
        LOCFRAME ISTACK, 0, STACK
        LOCFRAME PSTACK, 0, STACK
        LOCFRAME XSTACK, 14, STACK
        LOCFRAME IOVERLAY, 0, STATIC
        LOCFRAME DOVERLAY, 0, STATIC
        ARGFRAME ISTACK, 0, STACK
        ARGFRAME PSTACK, 0, STACK
        ARGFRAME XSTACK, 14, STACK
        ARGFRAME IOVERLAY, 0, STATIC
        ARGFRAME DOVERLAY, 0, STATIC
        REQUIRE ?V0
        REQUIRE ?V1
        REQUIRE ?V2
        REQUIRE ?V3
        MOV     A,#-0xc
        LCALL   ?BANKED_ENTER_XDATA
          CFI DPH0 load(1, XDATA, add(CFA_XSP16, literal(-1)))
          CFI DPL0 load(1, XDATA, add(CFA_XSP16, literal(-2)))
          CFI ?BRET_EXT load(1, XDATA, add(CFA_XSP16, literal(-3)))
          CFI ?RET_HIGH load(1, XDATA, add(CFA_XSP16, literal(-4)))
          CFI ?RET_LOW load(1, XDATA, add(CFA_XSP16, literal(-5)))
          CFI R7 load(1, XDATA, add(CFA_XSP16, literal(-6)))
          CFI V3 load(1, XDATA, add(CFA_XSP16, literal(-7)))
          CFI V2 load(1, XDATA, add(CFA_XSP16, literal(-8)))
          CFI V1 load(1, XDATA, add(CFA_XSP16, literal(-9)))
          CFI V0 load(1, XDATA, add(CFA_XSP16, literal(-10)))
          CFI VB load(1, XDATA, add(CFA_XSP16, literal(-11)))
          CFI R6 load(1, XDATA, add(CFA_XSP16, literal(-12)))
          CFI CFA_SP SP+0
          CFI CFA_XSP16 add(XSP16, 12)
        ; Saved register size: 12
        ; Auto size: 0
        MOV     A,R2
        MOV     R6,A
        MOV     A,R3
        MOV     R7,A
        MOV     ?V0,R4
        MOV     ?V1,R5
// 1220   uint16 offset;
// 1221 
// 1222   if ( !OSAL_NV_CHECK_BUS_VOLTAGE )
        ; Setup parameters for call to function HalAdcCheckVdd
        MOV     R1,#0x4e
        LCALL   `??HalAdcCheckVdd::?relay`; Banked call to: HalAdcCheckVdd
        MOV     A,R1
        JZ      ??osal_nv_item_init_0
// 1223   {
// 1224     return NV_OPER_FAILED;
// 1225   }
// 1226   else if ((offset = findItem(id)) != OSAL_NV_ITEM_NULL)
        ; Setup parameters for call to function findItem
        MOV     A,R6
        MOV     R2,A
        MOV     A,R7
        MOV     R3,A
        LCALL   `??findItem::?relay` ; Banked call to: findItem
        MOV     A,R2
        ORL     A,R3
        JZ      ??osal_nv_item_init_1
// 1227   {
// 1228     // Re-populate the NV hot item data if the corresponding items are already established.
// 1229     hotItemUpdate(findPg, offset, id);
        ; Setup parameters for call to function hotItemUpdate
        MOV     A,R6
        MOV     R4,A
        MOV     A,R7
        MOV     R5,A
        MOV     DPTR,#findPg
        MOVX    A,@DPTR
        MOV     R1,A
        LCALL   `??hotItemUpdate::?relay`; Banked call to: hotItemUpdate
// 1230 
// 1231     return SUCCESS;
        MOV     R1,#0x0
        SJMP    ??osal_nv_item_init_2
// 1232   }
// 1233   else if ( initItem( TRUE, id, len, buf ) != OSAL_NV_PAGE_NULL )
??osal_nv_item_init_1:
        ; Setup parameters for call to function initItem
        MOV     A,#0xc
        LCALL   ?XSTACK_DISP0_8
        LCALL   ?PUSH_XSTACK8_X_TWO
          CFI CFA_XSP16 add(XSP16, 14)
        MOV     R4,?V0
        MOV     R5,?V1
        MOV     A,R6
        MOV     R2,A
        MOV     A,R7
        MOV     R3,A
        MOV     R1,#0x1
        LCALL   `??initItem::?relay` ; Banked call to: initItem
        MOV     A,#0x2
        LCALL   ?DEALLOC_XSTACK8
          CFI CFA_XSP16 add(XSP16, 12)
        MOV     A,R1
        JZ      ??osal_nv_item_init_0
// 1234   {
// 1235     return NV_ITEM_UNINIT;
        MOV     R1,#0x9
        SJMP    ??osal_nv_item_init_2
// 1236   }
// 1237   else
// 1238   {
// 1239     return NV_OPER_FAILED;
??osal_nv_item_init_0:
        MOV     R1,#0xa
// 1240   }
??osal_nv_item_init_2:
        LJMP    ??Subroutine48_0 & 0xFFFF
// 1241 }
          CFI EndBlock cfiBlock168
// 1242 
// 1243 /*********************************************************************
// 1244  * @fn      osal_nv_item_len
// 1245  *
// 1246  * @brief   Get the data length of the item stored in NV memory.
// 1247  *
// 1248  * @param   id  - Valid NV item Id.
// 1249  *
// 1250  * @return  Item length, if found; zero otherwise.
// 1251  */

        RSEG BANKED_CODE:CODE:NOROOT(0)
// 1252 uint16 osal_nv_item_len( uint16 id )
osal_nv_item_len:
          CFI Block cfiBlock169 Using cfiCommon0
          CFI Function osal_nv_item_len
        CODE
// 1253 {
        FUNCALL osal_nv_item_len, hotItem
        LOCFRAME ISTACK, 0, STACK
        LOCFRAME PSTACK, 0, STACK
        LOCFRAME XSTACK, 18, STACK
        LOCFRAME IOVERLAY, 0, STATIC
        LOCFRAME DOVERLAY, 0, STATIC
        ARGFRAME ISTACK, 0, STACK
        ARGFRAME PSTACK, 0, STACK
        ARGFRAME XSTACK, 18, STACK
        ARGFRAME IOVERLAY, 0, STATIC
        ARGFRAME DOVERLAY, 0, STATIC
        FUNCALL osal_nv_item_len, HalFlashRead
        LOCFRAME ISTACK, 0, STACK
        LOCFRAME PSTACK, 0, STACK
        LOCFRAME XSTACK, 20, STACK
        LOCFRAME IOVERLAY, 0, STATIC
        LOCFRAME DOVERLAY, 0, STATIC
        ARGFRAME ISTACK, 0, STACK
        ARGFRAME PSTACK, 0, STACK
        ARGFRAME XSTACK, 20, STACK
        ARGFRAME IOVERLAY, 0, STATIC
        ARGFRAME DOVERLAY, 0, STATIC
        FUNCALL osal_nv_item_len, findItem
        LOCFRAME ISTACK, 0, STACK
        LOCFRAME PSTACK, 0, STACK
        LOCFRAME XSTACK, 18, STACK
        LOCFRAME IOVERLAY, 0, STATIC
        LOCFRAME DOVERLAY, 0, STATIC
        ARGFRAME ISTACK, 0, STACK
        ARGFRAME PSTACK, 0, STACK
        ARGFRAME XSTACK, 18, STACK
        ARGFRAME IOVERLAY, 0, STATIC
        ARGFRAME DOVERLAY, 0, STATIC
        REQUIRE ?V0
        REQUIRE ?V1
        MOV     A,#-0xa
        LCALL   ?BANKED_ENTER_XDATA
          CFI DPH0 load(1, XDATA, add(CFA_XSP16, literal(-1)))
          CFI DPL0 load(1, XDATA, add(CFA_XSP16, literal(-2)))
          CFI ?BRET_EXT load(1, XDATA, add(CFA_XSP16, literal(-3)))
          CFI ?RET_HIGH load(1, XDATA, add(CFA_XSP16, literal(-4)))
          CFI ?RET_LOW load(1, XDATA, add(CFA_XSP16, literal(-5)))
          CFI R7 load(1, XDATA, add(CFA_XSP16, literal(-6)))
          CFI V1 load(1, XDATA, add(CFA_XSP16, literal(-7)))
          CFI V0 load(1, XDATA, add(CFA_XSP16, literal(-8)))
          CFI VB load(1, XDATA, add(CFA_XSP16, literal(-9)))
          CFI R6 load(1, XDATA, add(CFA_XSP16, literal(-10)))
          CFI CFA_SP SP+0
          CFI CFA_XSP16 add(XSP16, 10)
        ; Saved register size: 10
        ; Auto size: 8
        MOV     A,#-0x8
        LCALL   ?ALLOC_XSTACK8
          CFI CFA_XSP16 add(XSP16, 18)
        MOV     A,R2
        MOV     R6,A
        MOV     A,R3
        MOV     R7,A
// 1254   osalNvHdr_t hdr;
// 1255   uint16 offset;
// 1256   uint8 hotIdx;
// 1257 
// 1258   if ((hotIdx = hotItem(id)) < OSAL_NV_MAX_HOT)
        ; Setup parameters for call to function hotItem
        LCALL   `??hotItem::?relay`  ; Banked call to: hotItem
        MOV     A,R1
        MOV     R0,A
        CLR     C
        SUBB    A,#0x3
        JNC     ??osal_nv_item_len_0
// 1259   {
// 1260     findPg = hotPg[hotIdx];
        MOV     A,#hotPg & 0xff
        ADD     A,R1
        MOV     DPL,A
        CLR     A
        ADDC    A,#(hotPg >> 8) & 0xff
        MOV     DPH,A
        MOVX    A,@DPTR
        MOV     DPTR,#findPg
        MOVX    @DPTR,A
// 1261     offset = hotOff[hotIdx];
        MOV     A,R0
        LCALL   ?Subroutine41 & 0xFFFF
// 1262   }
??CrossCallReturnLabel_80:
        LCALL   ?Subroutine20 & 0xFFFF
// 1263   else if ((offset = findItem(id)) == OSAL_NV_ITEM_NULL)
// 1264   {
// 1265     return 0;
// 1266   }
// 1267 
// 1268   HalFlashRead(findPg, (offset - OSAL_NV_HDR_SIZE), (uint8 *)(&hdr), OSAL_NV_HDR_SIZE);
??CrossCallReturnLabel_105:
        ; Setup parameters for call to function HalFlashRead
        MOV     ?V0,#0x8
        MOV     ?V1,#0x0
        MOV     R0,#?V0
        LCALL   ?PUSH_XSTACK_I_TWO
          CFI CFA_XSP16 add(XSP16, 20)
        MOV     A,#0x2
        LCALL   ?XSTACK_DISP102_8
        MOV     A,R2
        ADD     A,#-0x8
        MOV     R2,A
        MOV     A,R3
        ADDC    A,#-0x1
        MOV     R3,A
        MOV     DPTR,#findPg
        MOVX    A,@DPTR
        MOV     R1,A
        LCALL   `??HalFlashRead::?relay`; Banked call to: HalFlashRead
        MOV     A,#0x2
        LCALL   ?DEALLOC_XSTACK8
          CFI CFA_XSP16 add(XSP16, 18)
// 1269   return hdr.len;
        MOV     A,#0x2
        LCALL   ?XSTACK_DISP0_8
        LCALL   ??Subroutine49_0 & 0xFFFF
??CrossCallReturnLabel_101:
        MOV     A,#0x8
        LCALL   ?DEALLOC_XSTACK8
          CFI CFA_XSP16 add(XSP16, 10)
        MOV     R7,#0x2
        LJMP    ?BANKED_LEAVE_XDATA
          CFI CFA_XSP16 add(XSP16, 18)
??osal_nv_item_len_0:
        ; Setup parameters for call to function findItem
        MOV     A,R6
        MOV     R2,A
        MOV     A,R7
        MOV     R3,A
        LCALL   `??findItem::?relay` ; Banked call to: findItem
        MOV     ?V1,R3
        MOV     R1,?V1
        MOV     A,R2
        ORL     A,R1
        JNZ     ??CrossCallReturnLabel_105
        MOV     R2,#0x0
        MOV     R3,#0x0
        SJMP    ??CrossCallReturnLabel_101
// 1270 }
          CFI EndBlock cfiBlock169

        RSEG BANKED_CODE:CODE:NOROOT(0)
?Subroutine20:
          CFI Block cfiCond170 Using cfiCommon0
          CFI Function initItem
          CFI Conditional ??CrossCallReturnLabel_104
          CFI R6 load(1, XDATA, add(CFA_XSP16, literal(-18)))
          CFI VB load(1, XDATA, add(CFA_XSP16, literal(-17)))
          CFI V0 load(1, XDATA, add(CFA_XSP16, literal(-16)))
          CFI V1 load(1, XDATA, add(CFA_XSP16, literal(-15)))
          CFI V2 load(1, XDATA, add(CFA_XSP16, literal(-14)))
          CFI V3 load(1, XDATA, add(CFA_XSP16, literal(-13)))
          CFI V4 load(1, XDATA, add(CFA_XSP16, literal(-12)))
          CFI V5 load(1, XDATA, add(CFA_XSP16, literal(-11)))
          CFI V6 load(1, XDATA, add(CFA_XSP16, literal(-10)))
          CFI V7 load(1, XDATA, add(CFA_XSP16, literal(-9)))
          CFI V8 load(1, XDATA, add(CFA_XSP16, literal(-8)))
          CFI V9 load(1, XDATA, add(CFA_XSP16, literal(-7)))
          CFI R7 load(1, XDATA, add(CFA_XSP16, literal(-6)))
          CFI ?RET_LOW load(1, XDATA, add(CFA_XSP16, literal(-5)))
          CFI ?RET_HIGH load(1, XDATA, add(CFA_XSP16, literal(-4)))
          CFI ?BRET_EXT load(1, XDATA, add(CFA_XSP16, literal(-3)))
          CFI DPL0 load(1, XDATA, add(CFA_XSP16, literal(-2)))
          CFI DPH0 load(1, XDATA, add(CFA_XSP16, literal(-1)))
          CFI CFA_SP SP+-2
          CFI CFA_XSP16 add(XSP16, 40)
          CFI Block cfiCond171 Using cfiCommon0
          CFI (cfiCond171) Function osal_nv_item_len
          CFI (cfiCond171) Conditional ??CrossCallReturnLabel_105
          CFI (cfiCond171) R6 load(1, XDATA, add(CFA_XSP16, literal(-10)))
          CFI (cfiCond171) VB load(1, XDATA, add(CFA_XSP16, literal(-9)))
          CFI (cfiCond171) V0 load(1, XDATA, add(CFA_XSP16, literal(-8)))
          CFI (cfiCond171) V1 load(1, XDATA, add(CFA_XSP16, literal(-7)))
          CFI (cfiCond171) R7 load(1, XDATA, add(CFA_XSP16, literal(-6)))
          CFI (cfiCond171) ?RET_LOW load(1, XDATA, add(CFA_XSP16, literal(-5)))
          CFI (cfiCond171) ?RET_HIGH load(1, XDATA, add(CFA_XSP16, literal(-4)))
          CFI (cfiCond171) ?BRET_EXT load(1, XDATA, add(CFA_XSP16, literal(-3)))
          CFI (cfiCond171) DPL0 load(1, XDATA, add(CFA_XSP16, literal(-2)))
          CFI (cfiCond171) DPH0 load(1, XDATA, add(CFA_XSP16, literal(-1)))
          CFI (cfiCond171) CFA_SP SP+-2
          CFI (cfiCond171) CFA_XSP16 add(XSP16, 18)
          CFI Block cfiPicker172 Using cfiCommon1
          CFI (cfiPicker172) NoFunction
          CFI (cfiPicker172) Picker
        ADDC    A,R1
        MOV     DPH,A
          CFI EndBlock cfiCond170
          CFI EndBlock cfiCond171
          CFI EndBlock cfiPicker172
        REQUIRE ??Subroutine49_0
        ; // Fall through to label ??Subroutine49_0

        RSEG BANKED_CODE:CODE:NOROOT(0)
??Subroutine49_0:
          CFI Block cfiCond173 Using cfiCommon0
          CFI Function compactPage
          CFI Conditional ??CrossCallReturnLabel_99
          CFI R6 load(1, XDATA, add(CFA_XSP16, literal(-22)))
          CFI VB load(1, XDATA, add(CFA_XSP16, literal(-21)))
          CFI V0 load(1, XDATA, add(CFA_XSP16, literal(-20)))
          CFI V1 load(1, XDATA, add(CFA_XSP16, literal(-19)))
          CFI V2 load(1, XDATA, add(CFA_XSP16, literal(-18)))
          CFI V3 load(1, XDATA, add(CFA_XSP16, literal(-17)))
          CFI V4 load(1, XDATA, add(CFA_XSP16, literal(-16)))
          CFI V5 load(1, XDATA, add(CFA_XSP16, literal(-15)))
          CFI V6 load(1, XDATA, add(CFA_XSP16, literal(-14)))
          CFI V7 load(1, XDATA, add(CFA_XSP16, literal(-13)))
          CFI V8 load(1, XDATA, add(CFA_XSP16, literal(-12)))
          CFI V9 load(1, XDATA, add(CFA_XSP16, literal(-11)))
          CFI V10 load(1, XDATA, add(CFA_XSP16, literal(-10)))
          CFI V11 load(1, XDATA, add(CFA_XSP16, literal(-9)))
          CFI V12 load(1, XDATA, add(CFA_XSP16, literal(-8)))
          CFI V13 load(1, XDATA, add(CFA_XSP16, literal(-7)))
          CFI R7 load(1, XDATA, add(CFA_XSP16, literal(-6)))
          CFI ?RET_LOW load(1, XDATA, add(CFA_XSP16, literal(-5)))
          CFI ?RET_HIGH load(1, XDATA, add(CFA_XSP16, literal(-4)))
          CFI ?BRET_EXT load(1, XDATA, add(CFA_XSP16, literal(-3)))
          CFI DPL0 load(1, XDATA, add(CFA_XSP16, literal(-2)))
          CFI DPH0 load(1, XDATA, add(CFA_XSP16, literal(-1)))
          CFI CFA_SP SP+-2
          CFI CFA_XSP16 add(XSP16, 44)
          CFI Block cfiCond174 Using cfiCommon0
          CFI (cfiCond174) Function setChk
          CFI (cfiCond174) Conditional ??CrossCallReturnLabel_100
          CFI (cfiCond174) R6 load(1, XDATA, add(CFA_XSP16, literal(-12)))
          CFI (cfiCond174) VB load(1, XDATA, add(CFA_XSP16, literal(-11)))
          CFI (cfiCond174) V0 load(1, XDATA, add(CFA_XSP16, literal(-10)))
          CFI (cfiCond174) V1 load(1, XDATA, add(CFA_XSP16, literal(-9)))
          CFI (cfiCond174) V2 load(1, XDATA, add(CFA_XSP16, literal(-8)))
          CFI (cfiCond174) V3 load(1, XDATA, add(CFA_XSP16, literal(-7)))
          CFI (cfiCond174) R7 load(1, XDATA, add(CFA_XSP16, literal(-6)))
          CFI (cfiCond174) ?RET_LOW load(1, XDATA, add(CFA_XSP16, literal(-5)))
          CFI (cfiCond174) ?RET_HIGH load(1, XDATA, add(CFA_XSP16, literal(-4)))
          CFI (cfiCond174) ?BRET_EXT load(1, XDATA, add(CFA_XSP16, literal(-3)))
          CFI (cfiCond174) DPL0 load(1, XDATA, add(CFA_XSP16, literal(-2)))
          CFI (cfiCond174) DPH0 load(1, XDATA, add(CFA_XSP16, literal(-1)))
          CFI (cfiCond174) CFA_SP SP+-2
          CFI (cfiCond174) CFA_XSP16 add(XSP16, 14)
          CFI Block cfiCond175 Using cfiCommon0
          CFI (cfiCond175) Function osal_nv_item_len
          CFI (cfiCond175) Conditional ??CrossCallReturnLabel_101
          CFI (cfiCond175) R6 load(1, XDATA, add(CFA_XSP16, literal(-10)))
          CFI (cfiCond175) VB load(1, XDATA, add(CFA_XSP16, literal(-9)))
          CFI (cfiCond175) V0 load(1, XDATA, add(CFA_XSP16, literal(-8)))
          CFI (cfiCond175) V1 load(1, XDATA, add(CFA_XSP16, literal(-7)))
          CFI (cfiCond175) R7 load(1, XDATA, add(CFA_XSP16, literal(-6)))
          CFI (cfiCond175) ?RET_LOW load(1, XDATA, add(CFA_XSP16, literal(-5)))
          CFI (cfiCond175) ?RET_HIGH load(1, XDATA, add(CFA_XSP16, literal(-4)))
          CFI (cfiCond175) ?BRET_EXT load(1, XDATA, add(CFA_XSP16, literal(-3)))
          CFI (cfiCond175) DPL0 load(1, XDATA, add(CFA_XSP16, literal(-2)))
          CFI (cfiCond175) DPH0 load(1, XDATA, add(CFA_XSP16, literal(-1)))
          CFI (cfiCond175) CFA_SP SP+-2
          CFI (cfiCond175) CFA_XSP16 add(XSP16, 18)
          CFI Block cfiCond176 Using cfiCommon0
          CFI (cfiCond176) Function osal_nv_write
          CFI (cfiCond176) Conditional ??CrossCallReturnLabel_102
          CFI (cfiCond176) R6 load(1, XDATA, add(CFA_XSP16, literal(-24)))
          CFI (cfiCond176) VB load(1, XDATA, add(CFA_XSP16, literal(-23)))
          CFI (cfiCond176) V0 load(1, XDATA, add(CFA_XSP16, literal(-22)))
          CFI (cfiCond176) V1 load(1, XDATA, add(CFA_XSP16, literal(-21)))
          CFI (cfiCond176) V2 load(1, XDATA, add(CFA_XSP16, literal(-20)))
          CFI (cfiCond176) V3 load(1, XDATA, add(CFA_XSP16, literal(-19)))
          CFI (cfiCond176) V4 load(1, XDATA, add(CFA_XSP16, literal(-18)))
          CFI (cfiCond176) V5 load(1, XDATA, add(CFA_XSP16, literal(-17)))
          CFI (cfiCond176) V6 load(1, XDATA, add(CFA_XSP16, literal(-16)))
          CFI (cfiCond176) V7 load(1, XDATA, add(CFA_XSP16, literal(-15)))
          CFI (cfiCond176) V8 load(1, XDATA, add(CFA_XSP16, literal(-14)))
          CFI (cfiCond176) V9 load(1, XDATA, add(CFA_XSP16, literal(-13)))
          CFI (cfiCond176) V10 load(1, XDATA, add(CFA_XSP16, literal(-12)))
          CFI (cfiCond176) V11 load(1, XDATA, add(CFA_XSP16, literal(-11)))
          CFI (cfiCond176) V12 load(1, XDATA, add(CFA_XSP16, literal(-10)))
          CFI (cfiCond176) V13 load(1, XDATA, add(CFA_XSP16, literal(-9)))
          CFI (cfiCond176) V14 load(1, XDATA, add(CFA_XSP16, literal(-8)))
          CFI (cfiCond176) V15 load(1, XDATA, add(CFA_XSP16, literal(-7)))
          CFI (cfiCond176) R7 load(1, XDATA, add(CFA_XSP16, literal(-6)))
          CFI (cfiCond176) ?RET_LOW load(1, XDATA, add(CFA_XSP16, literal(-5)))
          CFI (cfiCond176) ?RET_HIGH load(1, XDATA, add(CFA_XSP16, literal(-4)))
          CFI (cfiCond176) ?BRET_EXT load(1, XDATA, add(CFA_XSP16, literal(-3)))
          CFI (cfiCond176) DPL0 load(1, XDATA, add(CFA_XSP16, literal(-2)))
          CFI (cfiCond176) DPH0 load(1, XDATA, add(CFA_XSP16, literal(-1)))
          CFI (cfiCond176) CFA_SP SP+-2
          CFI (cfiCond176) CFA_XSP16 add(XSP16, 45)
          CFI Block cfiCond177 Using cfiCommon0
          CFI (cfiCond177) Function osal_nv_write
          CFI (cfiCond177) Conditional ??CrossCallReturnLabel_103
          CFI (cfiCond177) R6 load(1, XDATA, add(CFA_XSP16, literal(-24)))
          CFI (cfiCond177) VB load(1, XDATA, add(CFA_XSP16, literal(-23)))
          CFI (cfiCond177) V0 load(1, XDATA, add(CFA_XSP16, literal(-22)))
          CFI (cfiCond177) V1 load(1, XDATA, add(CFA_XSP16, literal(-21)))
          CFI (cfiCond177) V2 load(1, XDATA, add(CFA_XSP16, literal(-20)))
          CFI (cfiCond177) V3 load(1, XDATA, add(CFA_XSP16, literal(-19)))
          CFI (cfiCond177) V4 load(1, XDATA, add(CFA_XSP16, literal(-18)))
          CFI (cfiCond177) V5 load(1, XDATA, add(CFA_XSP16, literal(-17)))
          CFI (cfiCond177) V6 load(1, XDATA, add(CFA_XSP16, literal(-16)))
          CFI (cfiCond177) V7 load(1, XDATA, add(CFA_XSP16, literal(-15)))
          CFI (cfiCond177) V8 load(1, XDATA, add(CFA_XSP16, literal(-14)))
          CFI (cfiCond177) V9 load(1, XDATA, add(CFA_XSP16, literal(-13)))
          CFI (cfiCond177) V10 load(1, XDATA, add(CFA_XSP16, literal(-12)))
          CFI (cfiCond177) V11 load(1, XDATA, add(CFA_XSP16, literal(-11)))
          CFI (cfiCond177) V12 load(1, XDATA, add(CFA_XSP16, literal(-10)))
          CFI (cfiCond177) V13 load(1, XDATA, add(CFA_XSP16, literal(-9)))
          CFI (cfiCond177) V14 load(1, XDATA, add(CFA_XSP16, literal(-8)))
          CFI (cfiCond177) V15 load(1, XDATA, add(CFA_XSP16, literal(-7)))
          CFI (cfiCond177) R7 load(1, XDATA, add(CFA_XSP16, literal(-6)))
          CFI (cfiCond177) ?RET_LOW load(1, XDATA, add(CFA_XSP16, literal(-5)))
          CFI (cfiCond177) ?RET_HIGH load(1, XDATA, add(CFA_XSP16, literal(-4)))
          CFI (cfiCond177) ?BRET_EXT load(1, XDATA, add(CFA_XSP16, literal(-3)))
          CFI (cfiCond177) DPL0 load(1, XDATA, add(CFA_XSP16, literal(-2)))
          CFI (cfiCond177) DPH0 load(1, XDATA, add(CFA_XSP16, literal(-1)))
          CFI (cfiCond177) CFA_SP SP+-2
          CFI (cfiCond177) CFA_XSP16 add(XSP16, 47)
          CFI Block cfiCond178 Using cfiCommon0
          CFI (cfiCond178) Function initItem
          CFI (cfiCond178) Conditional ??CrossCallReturnLabel_104
          CFI (cfiCond178) R6 load(1, XDATA, add(CFA_XSP16, literal(-18)))
          CFI (cfiCond178) VB load(1, XDATA, add(CFA_XSP16, literal(-17)))
          CFI (cfiCond178) V0 load(1, XDATA, add(CFA_XSP16, literal(-16)))
          CFI (cfiCond178) V1 load(1, XDATA, add(CFA_XSP16, literal(-15)))
          CFI (cfiCond178) V2 load(1, XDATA, add(CFA_XSP16, literal(-14)))
          CFI (cfiCond178) V3 load(1, XDATA, add(CFA_XSP16, literal(-13)))
          CFI (cfiCond178) V4 load(1, XDATA, add(CFA_XSP16, literal(-12)))
          CFI (cfiCond178) V5 load(1, XDATA, add(CFA_XSP16, literal(-11)))
          CFI (cfiCond178) V6 load(1, XDATA, add(CFA_XSP16, literal(-10)))
          CFI (cfiCond178) V7 load(1, XDATA, add(CFA_XSP16, literal(-9)))
          CFI (cfiCond178) V8 load(1, XDATA, add(CFA_XSP16, literal(-8)))
          CFI (cfiCond178) V9 load(1, XDATA, add(CFA_XSP16, literal(-7)))
          CFI (cfiCond178) R7 load(1, XDATA, add(CFA_XSP16, literal(-6)))
          CFI (cfiCond178) ?RET_LOW load(1, XDATA, add(CFA_XSP16, literal(-5)))
          CFI (cfiCond178) ?RET_HIGH load(1, XDATA, add(CFA_XSP16, literal(-4)))
          CFI (cfiCond178) ?BRET_EXT load(1, XDATA, add(CFA_XSP16, literal(-3)))
          CFI (cfiCond178) DPL0 load(1, XDATA, add(CFA_XSP16, literal(-2)))
          CFI (cfiCond178) DPH0 load(1, XDATA, add(CFA_XSP16, literal(-1)))
          CFI (cfiCond178) CFA_SP SP+-2
          CFI (cfiCond178) CFA_XSP16 add(XSP16, 40)
          CFI Block cfiCond179 Using cfiCommon0
          CFI (cfiCond179) Function osal_nv_item_len
          CFI (cfiCond179) Conditional ??CrossCallReturnLabel_105
          CFI (cfiCond179) R6 load(1, XDATA, add(CFA_XSP16, literal(-10)))
          CFI (cfiCond179) VB load(1, XDATA, add(CFA_XSP16, literal(-9)))
          CFI (cfiCond179) V0 load(1, XDATA, add(CFA_XSP16, literal(-8)))
          CFI (cfiCond179) V1 load(1, XDATA, add(CFA_XSP16, literal(-7)))
          CFI (cfiCond179) R7 load(1, XDATA, add(CFA_XSP16, literal(-6)))
          CFI (cfiCond179) ?RET_LOW load(1, XDATA, add(CFA_XSP16, literal(-5)))
          CFI (cfiCond179) ?RET_HIGH load(1, XDATA, add(CFA_XSP16, literal(-4)))
          CFI (cfiCond179) ?BRET_EXT load(1, XDATA, add(CFA_XSP16, literal(-3)))
          CFI (cfiCond179) DPL0 load(1, XDATA, add(CFA_XSP16, literal(-2)))
          CFI (cfiCond179) DPH0 load(1, XDATA, add(CFA_XSP16, literal(-1)))
          CFI (cfiCond179) CFA_SP SP+-2
          CFI (cfiCond179) CFA_XSP16 add(XSP16, 18)
          CFI Block cfiPicker180 Using cfiCommon1
          CFI (cfiPicker180) NoFunction
          CFI (cfiPicker180) Picker
        MOVX    A,@DPTR
        MOV     R2,A
        INC     DPTR
        MOVX    A,@DPTR
        MOV     R3,A
        RET
          CFI (cfiCond173) CFA_SP SP+0
          CFI (cfiCond174) CFA_SP SP+0
          CFI (cfiCond175) CFA_SP SP+0
          CFI (cfiCond176) CFA_SP SP+0
          CFI (cfiCond177) CFA_SP SP+0
          CFI (cfiCond178) CFA_SP SP+0
          CFI (cfiCond179) CFA_SP SP+0
          CFI (cfiPicker180) CFA_SP SP+0
          CFI EndBlock cfiCond173
          CFI EndBlock cfiCond174
          CFI EndBlock cfiCond175
          CFI EndBlock cfiCond176
          CFI EndBlock cfiCond177
          CFI EndBlock cfiCond178
          CFI EndBlock cfiCond179
          CFI EndBlock cfiPicker180
// 1271 
// 1272 /*********************************************************************
// 1273  * @fn      osal_nv_write
// 1274  *
// 1275  * @brief   Write a data item to NV. Function can write an entire item to NV or
// 1276  *          an element of an item by indexing into the item with an offset.
// 1277  *
// 1278  * @param   id  - Valid NV item Id.
// 1279  * @param   ndx - Index offset into item
// 1280  * @param   len - Length of data to write.
// 1281  * @param  *buf - Data to write.
// 1282  *
// 1283  * @return  SUCCESS if successful, NV_ITEM_UNINIT if item did not
// 1284  *          exist in NV and offset is non-zero, NV_OPER_FAILED if failure.
// 1285  */

        RSEG BANKED_CODE:CODE:NOROOT(0)
// 1286 uint8 osal_nv_write( uint16 id, uint16 ndx, uint16 len, void *buf )
osal_nv_write:
          CFI Block cfiBlock181 Using cfiCommon0
          CFI Function osal_nv_write
        CODE
// 1287 {
        FUNCALL osal_nv_write, HalAdcCheckVdd
        LOCFRAME ISTACK, 0, STACK
        LOCFRAME PSTACK, 0, STACK
        LOCFRAME XSTACK, 45, STACK
        LOCFRAME IOVERLAY, 0, STATIC
        LOCFRAME DOVERLAY, 0, STATIC
        ARGFRAME ISTACK, 0, STACK
        ARGFRAME PSTACK, 0, STACK
        ARGFRAME XSTACK, 45, STACK
        ARGFRAME IOVERLAY, 0, STATIC
        ARGFRAME DOVERLAY, 0, STATIC
        FUNCALL osal_nv_write, findItem
        LOCFRAME ISTACK, 0, STACK
        LOCFRAME PSTACK, 0, STACK
        LOCFRAME XSTACK, 45, STACK
        LOCFRAME IOVERLAY, 0, STATIC
        LOCFRAME DOVERLAY, 0, STATIC
        ARGFRAME ISTACK, 0, STACK
        ARGFRAME PSTACK, 0, STACK
        ARGFRAME XSTACK, 45, STACK
        ARGFRAME IOVERLAY, 0, STATIC
        ARGFRAME DOVERLAY, 0, STATIC
        FUNCALL osal_nv_write, HalFlashRead
        LOCFRAME ISTACK, 0, STACK
        LOCFRAME PSTACK, 0, STACK
        LOCFRAME XSTACK, 47, STACK
        LOCFRAME IOVERLAY, 0, STATIC
        LOCFRAME DOVERLAY, 0, STATIC
        ARGFRAME ISTACK, 0, STACK
        ARGFRAME PSTACK, 0, STACK
        ARGFRAME XSTACK, 47, STACK
        ARGFRAME IOVERLAY, 0, STATIC
        ARGFRAME DOVERLAY, 0, STATIC
        FUNCALL osal_nv_write, HalFlashRead
        LOCFRAME ISTACK, 0, STACK
        LOCFRAME PSTACK, 0, STACK
        LOCFRAME XSTACK, 47, STACK
        LOCFRAME IOVERLAY, 0, STATIC
        LOCFRAME DOVERLAY, 0, STATIC
        ARGFRAME ISTACK, 0, STACK
        ARGFRAME PSTACK, 0, STACK
        ARGFRAME XSTACK, 47, STACK
        ARGFRAME IOVERLAY, 0, STATIC
        ARGFRAME DOVERLAY, 0, STATIC
        FUNCALL osal_nv_write, initItem
        LOCFRAME ISTACK, 0, STACK
        LOCFRAME PSTACK, 0, STACK
        LOCFRAME XSTACK, 47, STACK
        LOCFRAME IOVERLAY, 0, STATIC
        LOCFRAME DOVERLAY, 0, STATIC
        ARGFRAME ISTACK, 0, STACK
        ARGFRAME PSTACK, 0, STACK
        ARGFRAME XSTACK, 47, STACK
        ARGFRAME IOVERLAY, 0, STATIC
        ARGFRAME DOVERLAY, 0, STATIC
        FUNCALL osal_nv_write, setItem
        LOCFRAME ISTACK, 0, STACK
        LOCFRAME PSTACK, 0, STACK
        LOCFRAME XSTACK, 45, STACK
        LOCFRAME IOVERLAY, 0, STATIC
        LOCFRAME DOVERLAY, 0, STATIC
        ARGFRAME ISTACK, 0, STACK
        ARGFRAME PSTACK, 0, STACK
        ARGFRAME XSTACK, 45, STACK
        ARGFRAME IOVERLAY, 0, STATIC
        ARGFRAME DOVERLAY, 0, STATIC
        FUNCALL osal_nv_write, xferBuf
        LOCFRAME ISTACK, 0, STACK
        LOCFRAME PSTACK, 0, STACK
        LOCFRAME XSTACK, 49, STACK
        LOCFRAME IOVERLAY, 0, STATIC
        LOCFRAME DOVERLAY, 0, STATIC
        ARGFRAME ISTACK, 0, STACK
        ARGFRAME PSTACK, 0, STACK
        ARGFRAME XSTACK, 49, STACK
        ARGFRAME IOVERLAY, 0, STATIC
        ARGFRAME DOVERLAY, 0, STATIC
        FUNCALL osal_nv_write, writeBuf
        LOCFRAME ISTACK, 0, STACK
        LOCFRAME PSTACK, 0, STACK
        LOCFRAME XSTACK, 47, STACK
        LOCFRAME IOVERLAY, 0, STATIC
        LOCFRAME DOVERLAY, 0, STATIC
        ARGFRAME ISTACK, 0, STACK
        ARGFRAME PSTACK, 0, STACK
        ARGFRAME XSTACK, 47, STACK
        ARGFRAME IOVERLAY, 0, STATIC
        ARGFRAME DOVERLAY, 0, STATIC
        FUNCALL osal_nv_write, xferBuf
        LOCFRAME ISTACK, 0, STACK
        LOCFRAME PSTACK, 0, STACK
        LOCFRAME XSTACK, 49, STACK
        LOCFRAME IOVERLAY, 0, STATIC
        LOCFRAME DOVERLAY, 0, STATIC
        ARGFRAME ISTACK, 0, STACK
        ARGFRAME PSTACK, 0, STACK
        ARGFRAME XSTACK, 49, STACK
        ARGFRAME IOVERLAY, 0, STATIC
        ARGFRAME DOVERLAY, 0, STATIC
        FUNCALL osal_nv_write, calcChkF
        LOCFRAME ISTACK, 0, STACK
        LOCFRAME PSTACK, 0, STACK
        LOCFRAME XSTACK, 45, STACK
        LOCFRAME IOVERLAY, 0, STATIC
        LOCFRAME DOVERLAY, 0, STATIC
        ARGFRAME ISTACK, 0, STACK
        ARGFRAME PSTACK, 0, STACK
        ARGFRAME XSTACK, 45, STACK
        ARGFRAME IOVERLAY, 0, STATIC
        ARGFRAME DOVERLAY, 0, STATIC
        FUNCALL osal_nv_write, setChk
        LOCFRAME ISTACK, 0, STACK
        LOCFRAME PSTACK, 0, STACK
        LOCFRAME XSTACK, 45, STACK
        LOCFRAME IOVERLAY, 0, STATIC
        LOCFRAME DOVERLAY, 0, STATIC
        ARGFRAME ISTACK, 0, STACK
        ARGFRAME PSTACK, 0, STACK
        ARGFRAME XSTACK, 45, STACK
        ARGFRAME IOVERLAY, 0, STATIC
        ARGFRAME DOVERLAY, 0, STATIC
        FUNCALL osal_nv_write, hotItemUpdate
        LOCFRAME ISTACK, 0, STACK
        LOCFRAME PSTACK, 0, STACK
        LOCFRAME XSTACK, 45, STACK
        LOCFRAME IOVERLAY, 0, STATIC
        LOCFRAME DOVERLAY, 0, STATIC
        ARGFRAME ISTACK, 0, STACK
        ARGFRAME PSTACK, 0, STACK
        ARGFRAME XSTACK, 45, STACK
        ARGFRAME IOVERLAY, 0, STATIC
        ARGFRAME DOVERLAY, 0, STATIC
        FUNCALL osal_nv_write, erasePage
        LOCFRAME ISTACK, 0, STACK
        LOCFRAME PSTACK, 0, STACK
        LOCFRAME XSTACK, 45, STACK
        LOCFRAME IOVERLAY, 0, STATIC
        LOCFRAME DOVERLAY, 0, STATIC
        ARGFRAME ISTACK, 0, STACK
        ARGFRAME PSTACK, 0, STACK
        ARGFRAME XSTACK, 45, STACK
        ARGFRAME IOVERLAY, 0, STATIC
        ARGFRAME DOVERLAY, 0, STATIC
        FUNCALL osal_nv_write, HalFlashWrite
        LOCFRAME ISTACK, 0, STACK
        LOCFRAME PSTACK, 0, STACK
        LOCFRAME XSTACK, 47, STACK
        LOCFRAME IOVERLAY, 0, STATIC
        LOCFRAME DOVERLAY, 0, STATIC
        ARGFRAME ISTACK, 0, STACK
        ARGFRAME PSTACK, 0, STACK
        ARGFRAME XSTACK, 47, STACK
        ARGFRAME IOVERLAY, 0, STATIC
        ARGFRAME DOVERLAY, 0, STATIC
        FUNCALL osal_nv_write, erasePage
        LOCFRAME ISTACK, 0, STACK
        LOCFRAME PSTACK, 0, STACK
        LOCFRAME XSTACK, 45, STACK
        LOCFRAME IOVERLAY, 0, STATIC
        LOCFRAME DOVERLAY, 0, STATIC
        ARGFRAME ISTACK, 0, STACK
        ARGFRAME PSTACK, 0, STACK
        ARGFRAME XSTACK, 45, STACK
        ARGFRAME IOVERLAY, 0, STATIC
        ARGFRAME DOVERLAY, 0, STATIC
        FUNCALL osal_nv_write, setItem
        LOCFRAME ISTACK, 0, STACK
        LOCFRAME PSTACK, 0, STACK
        LOCFRAME XSTACK, 45, STACK
        LOCFRAME IOVERLAY, 0, STATIC
        LOCFRAME DOVERLAY, 0, STATIC
        ARGFRAME ISTACK, 0, STACK
        ARGFRAME PSTACK, 0, STACK
        ARGFRAME XSTACK, 45, STACK
        ARGFRAME IOVERLAY, 0, STATIC
        ARGFRAME DOVERLAY, 0, STATIC
        REQUIRE ?V0
        REQUIRE ?V1
        REQUIRE ?V2
        REQUIRE ?V3
        REQUIRE ?V4
        REQUIRE ?V5
        REQUIRE ?V6
        REQUIRE ?V7
        REQUIRE ?V8
        REQUIRE ?V9
        REQUIRE ?V10
        REQUIRE ?V11
        REQUIRE ?V12
        REQUIRE ?V13
        REQUIRE ?V14
        REQUIRE ?V15
        MOV     A,#-0x18
        LCALL   ?BANKED_ENTER_XDATA
          CFI DPH0 load(1, XDATA, add(CFA_XSP16, literal(-1)))
          CFI DPL0 load(1, XDATA, add(CFA_XSP16, literal(-2)))
          CFI ?BRET_EXT load(1, XDATA, add(CFA_XSP16, literal(-3)))
          CFI ?RET_HIGH load(1, XDATA, add(CFA_XSP16, literal(-4)))
          CFI ?RET_LOW load(1, XDATA, add(CFA_XSP16, literal(-5)))
          CFI R7 load(1, XDATA, add(CFA_XSP16, literal(-6)))
          CFI V15 load(1, XDATA, add(CFA_XSP16, literal(-7)))
          CFI V14 load(1, XDATA, add(CFA_XSP16, literal(-8)))
          CFI V13 load(1, XDATA, add(CFA_XSP16, literal(-9)))
          CFI V12 load(1, XDATA, add(CFA_XSP16, literal(-10)))
          CFI V11 load(1, XDATA, add(CFA_XSP16, literal(-11)))
          CFI V10 load(1, XDATA, add(CFA_XSP16, literal(-12)))
          CFI V9 load(1, XDATA, add(CFA_XSP16, literal(-13)))
          CFI V8 load(1, XDATA, add(CFA_XSP16, literal(-14)))
          CFI V7 load(1, XDATA, add(CFA_XSP16, literal(-15)))
          CFI V6 load(1, XDATA, add(CFA_XSP16, literal(-16)))
          CFI V5 load(1, XDATA, add(CFA_XSP16, literal(-17)))
          CFI V4 load(1, XDATA, add(CFA_XSP16, literal(-18)))
          CFI V3 load(1, XDATA, add(CFA_XSP16, literal(-19)))
          CFI V2 load(1, XDATA, add(CFA_XSP16, literal(-20)))
          CFI V1 load(1, XDATA, add(CFA_XSP16, literal(-21)))
          CFI V0 load(1, XDATA, add(CFA_XSP16, literal(-22)))
          CFI VB load(1, XDATA, add(CFA_XSP16, literal(-23)))
          CFI R6 load(1, XDATA, add(CFA_XSP16, literal(-24)))
          CFI CFA_SP SP+0
          CFI CFA_XSP16 add(XSP16, 24)
        ; Saved register size: 24
        ; Auto size: 21
        MOV     A,#-0x15
        LCALL   ?ALLOC_XSTACK8
          CFI CFA_XSP16 add(XSP16, 45)
        MOV     A,#0xb
        LCALL   ?XSTACK_DISP0_8
        MOV     A,R2
        MOVX    @DPTR,A
        INC     DPTR
        MOV     A,R3
        MOVX    @DPTR,A
        MOV     ?V6,R4
        MOV     ?V7,R5
// 1288   uint8 rtrn = SUCCESS;
        MOV     ?V9,#0x0
// 1289 
// 1290   if ( !OSAL_NV_CHECK_BUS_VOLTAGE )
        ; Setup parameters for call to function HalAdcCheckVdd
        MOV     R1,#0x4e
        LCALL   `??HalAdcCheckVdd::?relay`; Banked call to: HalAdcCheckVdd
        MOV     A,R1
        JZ      ??osal_nv_write_0
        MOV     A,#0x2d
        LCALL   ?XSTACK_DISP0_8
        MOVX    A,@DPTR
        MOV     ?V14,A
        INC     DPTR
        MOVX    A,@DPTR
        MOV     ?V15,A
// 1291   {
// 1292     return NV_OPER_FAILED;
// 1293   }
// 1294   else if ( len != 0 )
        MOV     A,?V14
        ORL     A,?V15
        JNZ     $+5
        LJMP    ??osal_nv_write_1 & 0xFFFF
// 1295   {
// 1296     osalNvHdr_t hdr;
// 1297     uint16 origOff, srcOff;
// 1298     uint16 cnt, chk;
// 1299     uint8 *ptr, srcPg;
// 1300 
// 1301     origOff = srcOff = findItem( id );
        ; Setup parameters for call to function findItem
        MOV     A,#0xb
        LCALL   ?XSTACK_DISP0_8
        LCALL   ??Subroutine49_0 & 0xFFFF
??CrossCallReturnLabel_102:
        LCALL   `??findItem::?relay` ; Banked call to: findItem
        MOV     A,#0x1
        LCALL   ?XSTACK_DISP0_8
        MOV     A,R2
        MOVX    @DPTR,A
        INC     DPTR
        MOV     A,R3
        MOVX    @DPTR,A
// 1302     srcPg = findPg;
        MOV     DPTR,#findPg
        MOVX    A,@DPTR
        MOV     ?V8,A
// 1303     if ( srcOff == OSAL_NV_ITEM_NULL )
        MOV     A,#0x1
        LCALL   ?XSTACK_DISP0_8
        LCALL   ?Subroutine15 & 0xFFFF
??CrossCallReturnLabel_18:
        JNZ     ??osal_nv_write_2
// 1304     {
// 1305       return NV_ITEM_UNINIT;
        MOV     R1,#0x9
        LJMP    ??osal_nv_write_3 & 0xFFFF
// 1306     }
// 1307 
// 1308     HalFlashRead(srcPg, (srcOff - OSAL_NV_HDR_SIZE), (uint8 *)(&hdr), OSAL_NV_HDR_SIZE);
??osal_nv_write_2:
        ; Setup parameters for call to function HalFlashRead
        MOV     ?V0,#0x8
        MOV     ?V1,#0x0
        MOV     R0,#?V0
        LCALL   ?PUSH_XSTACK_I_TWO
          CFI CFA_XSP16 add(XSP16, 47)
        MOV     A,#0x5
        LCALL   ?XSTACK_DISP102_8
        MOV     A,#0x3
        LCALL   ?XSTACK_DISP0_8
        MOVX    A,@DPTR
        ADD     A,#-0x8
        MOV     R2,A
        INC     DPTR
        MOVX    A,@DPTR
        ADDC    A,#-0x1
        MOV     R3,A
        MOV     R1,?V8
        LCALL   `??HalFlashRead::?relay`; Banked call to: HalFlashRead
        MOV     A,#0x2
        LCALL   ?DEALLOC_XSTACK8
          CFI CFA_XSP16 add(XSP16, 45)
// 1309     if ( hdr.len < (ndx + len) )
        MOV     A,#0x5
        LCALL   ?XSTACK_DISP0_8
        MOV     A,?V6
        ADD     A,?V14
        MOV     R0,A
        MOV     A,?V7
        ADDC    A,?V15
        MOV     R1,A
        CLR     C
        MOVX    A,@DPTR
        SUBB    A,R0
        INC     DPTR
        MOVX    A,@DPTR
        SUBB    A,R1
        JNC     ??osal_nv_write_4
// 1310     {
// 1311       return NV_OPER_FAILED;
??osal_nv_write_0:
        MOV     R1,#0xa
        LJMP    ??osal_nv_write_3 & 0xFFFF
// 1312     }
// 1313 
// 1314     srcOff += ndx;
??osal_nv_write_4:
        MOV     A,#0x1
        LCALL   ?XSTACK_DISP0_8
        MOVX    A,@DPTR
        ADD     A,?V6
        MOV     ?V2,A
        INC     DPTR
        MOVX    A,@DPTR
        ADDC    A,?V7
        MOV     ?V3,A
        MOV     ?V4,?V2
        MOV     ?V5,A
// 1315     ptr = buf;
        MOV     A,#0x2f
        LCALL   ?XSTACK_DISP0_8
        LCALL   ?Subroutine16 & 0xFFFF
// 1316     cnt = len;
// 1317     chk = 0;
??CrossCallReturnLabel_21:
        MOV     R6,#0x0
        MOV     ?V10,?V14
        MOV     ?V11,?V15
// 1318     while ( cnt-- )
// 1319     {
// 1320       uint8 tmp;
// 1321       HalFlashRead(srcPg, srcOff, &tmp, 1);
??osal_nv_write_5:
        ; Setup parameters for call to function HalFlashRead
        MOV     ?V12,#0x1
        MOV     ?V13,#0x0
        MOV     R0,#?V12
        LCALL   ?PUSH_XSTACK_I_TWO
          CFI CFA_XSP16 add(XSP16, 47)
        MOV     A,#0x2
        LCALL   ?XSTACK_DISP102_8
        MOV     R2,?V4
        MOV     R3,?V5
        MOV     R1,?V8
        LCALL   `??HalFlashRead::?relay`; Banked call to: HalFlashRead
        MOV     A,#0x2
        LCALL   ?DEALLOC_XSTACK8
          CFI CFA_XSP16 add(XSP16, 45)
// 1322       if ( tmp != *ptr )
        MOV     A,?V10
        ADD     A,#-0x1
        MOV     ?V10,A
        MOV     A,?V11
        ADDC    A,#-0x1
        MOV     ?V11,A
        MOV     DPL,?XSP + 0
        MOV     DPH,?XSP + 1
        MOVX    A,@DPTR
        MOV     R0,A
        MOV     DPL,?V0
        MOV     DPH,?V1
        MOVX    A,@DPTR
        XRL     A,R0
        JZ      ??osal_nv_write_6
// 1323       {
// 1324         chk = 1;  // Mark that at least one byte is different.
        MOV     R6,#0x1
// 1325         // Calculate expected checksum after transferring old data and writing new data.
// 1326         hdr.chk -= tmp;
        MOV     A,#0x7
        LCALL   ?XSTACK_DISP0_8
        CLR     C
        MOVX    A,@DPTR
        SUBB    A,R0
        MOVX    @DPTR,A
        INC     DPTR
        MOVX    A,@DPTR
        SUBB    A,#0x0
        MOVX    @DPTR,A
// 1327         hdr.chk += *ptr;
        MOV     DPL,?V0
        MOV     DPH,?V1
        MOVX    A,@DPTR
        MOV     R0,A
        MOV     A,#0x7
        LCALL   ?XSTACK_DISP0_8
        MOVX    A,@DPTR
        ADD     A,R0
        MOVX    @DPTR,A
        INC     DPTR
        MOVX    A,@DPTR
        ADDC    A,#0x0
        MOVX    @DPTR,A
// 1328       }
// 1329       srcOff++;
??osal_nv_write_6:
        INC     ?V4
        MOV     A,?V4
        JNZ     ??osal_nv_write_7
        INC     ?V5
// 1330       ptr++;
??osal_nv_write_7:
        MOV     DPL,?V0
        MOV     DPH,?V1
        INC     DPTR
        MOV     ?V0,DPL
        MOV     ?V1,DPH
// 1331     }
        MOV     A,?V10
        ORL     A,?V11
        JNZ     ??osal_nv_write_5
// 1332 
// 1333     if ( chk != 0 )  // If the buffer to write is different in one or more bytes.
        MOV     A,R6
        MOV     C,0xE0 /* A   */.0
        JC      $+5
        LJMP    ??osal_nv_write_1 & 0xFFFF
// 1334     {
// 1335       uint8 comPg = OSAL_NV_PAGE_NULL;
        MOV     DPL,?XSP + 0
        MOV     DPH,?XSP + 1
        CLR     A
        MOVX    @DPTR,A
// 1336       uint8 dstPg = initItem( FALSE, id, hdr.len, &comPg );
        ; Setup parameters for call to function initItem
        MOV     R0,?XSP + 0
        MOV     R1,?XSP + 1
        MOV     ?V0,R0
        MOV     ?V1,R1
        MOV     R0,#?V0
        LCALL   ?PUSH_XSTACK_I_TWO
          CFI CFA_XSP16 add(XSP16, 47)
        MOV     A,#0x7
        LCALL   ?XSTACK_DISP0_8
        LCALL   ?Subroutine26 & 0xFFFF
??CrossCallReturnLabel_43:
        MOV     A,#0xd
        LCALL   ?XSTACK_DISP0_8
        LCALL   ??Subroutine49_0 & 0xFFFF
??CrossCallReturnLabel_103:
        MOV     R1,#0x0
        LCALL   `??initItem::?relay` ; Banked call to: initItem
        MOV     A,#0x2
        LCALL   ?DEALLOC_XSTACK8
          CFI CFA_XSP16 add(XSP16, 45)
        MOV     A,R1
        MOV     ?V4,A
// 1337 
// 1338       if ( dstPg != OSAL_NV_PAGE_NULL )
        JNZ     $+5
        LJMP    ??osal_nv_write_8 & 0xFFFF
// 1339       {
// 1340         uint16 tmp = OSAL_NV_DATA_SIZE( hdr.len );
        MOV     A,#0x5
        LCALL   ?XSTACK_DISP0_8
        LCALL   ?Subroutine29 & 0xFFFF
??CrossCallReturnLabel_55:
        CLR     C
        MOV     A,R0
        SUBB    A,#-0x4
        MOV     A,R1
        SUBB    A,#-0x1
        JC      ??osal_nv_write_9
        MOV     ?V0,#-0x4
        MOV     ?V1,#-0x1
        SJMP    ??osal_nv_write_10
??osal_nv_write_9:
        MOV     A,R0
        ADD     A,#0x3
        JNC     ??osal_nv_write_11
        INC     R1
??osal_nv_write_11:
        ANL     A,#0xfc
        MOV     ?V0,A
        MOV     A,R1
        MOV     ?V1,A
// 1341         uint16 dstOff = pgOff[dstPg-OSAL_NV_PAGE_BEG] - tmp;
??osal_nv_write_10:
        MOV     R0,?V4
        MOV     A,R0
        ADD     A,R0
        MOV     R0,A
        CLR     A
        RLC     A
        MOV     R1,A
        MOV     A,#(pgOff + 14) & 0xff
        ADD     A,R0
        MOV     ?V12,A
        MOV     A,#((pgOff - 242) >> 8) & 0xff
        ADDC    A,R1
        MOV     ?V13,A
        MOV     DPL,?V12
        MOV     DPH,A
        LCALL   ?Subroutine24 & 0xFFFF
// 1342         srcOff = origOff;
// 1343 
// 1344         /* Prevent excessive re-writes to item header caused by numerous, rapid, & successive
// 1345          * OSAL_Nv interruptions caused by resets.
// 1346          */
// 1347         if ( hdr.stat == OSAL_NV_ERASED_ID )
??CrossCallReturnLabel_35:
        MOV     A,#0x9
        LCALL   ?XSTACK_DISP0_8
        MOVX    A,@DPTR
        CPL     A
        JNZ     ??osal_nv_write_12
        INC     DPTR
        MOVX    A,@DPTR
        CPL     A
??osal_nv_write_12:
        JNZ     ??osal_nv_write_13
// 1348         {
// 1349           setItem( srcPg, srcOff, eNvXfer );
        ; Setup parameters for call to function setItem
        MOV     R4,#0x0
        MOV     A,#0x1
        LCALL   ?XSTACK_DISP0_8
        LCALL   ?Subroutine19 & 0xFFFF
// 1350         }
??CrossCallReturnLabel_27:
        LCALL   `??setItem::?relay`  ; Banked call to: setItem
// 1351 
// 1352         xferBuf( srcPg, srcOff, dstPg, dstOff, ndx );
??osal_nv_write_13:
        ; Setup parameters for call to function xferBuf
        MOV     R0,#?V6
        LCALL   ?PUSH_XSTACK_I_TWO
          CFI CFA_XSP16 add(XSP16, 47)
        MOV     ?V10,R6
        MOV     ?V11,R7
        MOV     R0,#?V10
        LCALL   ?PUSH_XSTACK_I_TWO
          CFI CFA_XSP16 add(XSP16, 49)
        MOV     R4,?V4
        MOV     A,#0x5
        LCALL   ?XSTACK_DISP0_8
        LCALL   ?Subroutine19 & 0xFFFF
??CrossCallReturnLabel_28:
        LCALL   `??xferBuf::?relay`  ; Banked call to: xferBuf
        MOV     A,#0x4
        LCALL   ?DEALLOC_XSTACK8
          CFI CFA_XSP16 add(XSP16, 45)
// 1353         srcOff += ndx;
// 1354         dstOff += ndx;
        MOV     A,R6
        ADD     A,?V6
        MOV     R6,A
        MOV     A,R7
        ADDC    A,?V7
        MOV     R7,A
// 1355 
// 1356         writeBuf( dstPg, dstOff, len, buf );
        ; Setup parameters for call to function writeBuf
        MOV     A,#0x2f
        LCALL   ?XSTACK_DISP0_8
        LCALL   ?PUSH_XSTACK8_X_TWO
          CFI CFA_XSP16 add(XSP16, 47)
        MOV     R4,?V14
        MOV     R5,?V15
        MOV     A,R6
        MOV     R2,A
        MOV     A,R7
        MOV     R3,A
        MOV     R1,?V4
        LCALL   `??writeBuf::?relay` ; Banked call to: writeBuf
        MOV     A,#0x2
        LCALL   ?DEALLOC_XSTACK8
          CFI CFA_XSP16 add(XSP16, 45)
// 1357         srcOff += len;
// 1358         dstOff += len;
// 1359 
// 1360         xferBuf( srcPg, srcOff, dstPg, dstOff, (hdr.len-ndx-len) );
        ; Setup parameters for call to function xferBuf
        MOV     A,#0x5
        LCALL   ?XSTACK_DISP0_8
        MOVX    A,@DPTR
        CLR     C
        SUBB    A,?V6
        MOV     R0,A
        INC     DPTR
        MOVX    A,@DPTR
        SUBB    A,?V7
        MOV     R1,A
        MOV     A,R0
        CLR     C
        SUBB    A,?V14
        MOV     ?V6,A
        MOV     A,R1
        SUBB    A,?V15
        MOV     ?V7,A
        MOV     R0,#?V6
        LCALL   ?PUSH_XSTACK_I_TWO
          CFI CFA_XSP16 add(XSP16, 47)
        MOV     A,R6
        ADD     A,?V14
        MOV     ?V6,A
        MOV     A,R7
        ADDC    A,?V15
        MOV     ?V7,A
        MOV     R0,#?V6
        LCALL   ?PUSH_XSTACK_I_TWO
          CFI CFA_XSP16 add(XSP16, 49)
        MOV     R4,?V4
        MOV     A,?V2
        ADD     A,?V14
        MOV     R2,A
        MOV     A,?V3
        ADDC    A,?V15
        MOV     R3,A
        MOV     R1,?V8
        LCALL   `??xferBuf::?relay`  ; Banked call to: xferBuf
        MOV     A,#0x4
        LCALL   ?DEALLOC_XSTACK8
          CFI CFA_XSP16 add(XSP16, 45)
// 1361 
// 1362         // Calculate and write the new checksum.
// 1363         dstOff = pgOff[dstPg-OSAL_NV_PAGE_BEG] - tmp;
        MOV     DPL,?V12
        MOV     DPH,?V13
        LCALL   ?Subroutine24 & 0xFFFF
// 1364 
// 1365         if ( hdr.chk == calcChkF( dstPg, dstOff, hdr.len ) )
??CrossCallReturnLabel_36:
        ; Setup parameters for call to function calcChkF
        MOV     A,#0x5
        LCALL   ?XSTACK_DISP0_8
        LCALL   ?Subroutine18 & 0xFFFF
??CrossCallReturnLabel_25:
        LCALL   `??calcChkF::?relay` ; Banked call to: calcChkF
        MOV     A,#0x7
        LCALL   ?XSTACK_DISP0_8
        LCALL   ?Subroutine26 & 0xFFFF
??CrossCallReturnLabel_44:
        MOV     A,R2
        XRL     A,R4
        JNZ     ??osal_nv_write_14
        MOV     A,R3
        XRL     A,R5
??osal_nv_write_14:
        JNZ     ??osal_nv_write_8
// 1366         {
// 1367           if ( hdr.chk != setChk( dstPg, dstOff, hdr.chk ) )
        ; Setup parameters for call to function setChk
        MOV     A,R6
        MOV     R2,A
        MOV     A,R7
        MOV     R3,A
        MOV     R1,?V4
        LCALL   `??setChk::?relay`   ; Banked call to: setChk
        MOV     ?V0,R2
        MOV     ?V1,R3
        MOV     R0,?V0
        MOV     R1,?V1
        MOV     A,#0x7
        LCALL   ?XSTACK_DISP0_8
        MOVX    A,@DPTR
        XRL     A,R0
        JNZ     ??osal_nv_write_15
        INC     DPTR
        MOVX    A,@DPTR
        XRL     A,R1
??osal_nv_write_15:
        JNZ     ??osal_nv_write_8
// 1368           {
// 1369             rtrn = NV_OPER_FAILED;
// 1370           }
// 1371           else
// 1372           {
// 1373             hotItemUpdate(dstPg, dstOff, hdr.id);
        ; Setup parameters for call to function hotItemUpdate
        MOV     A,#0x3
        LCALL   ?XSTACK_DISP0_8
        LCALL   ?Subroutine18 & 0xFFFF
// 1374           }
// 1375         }
// 1376         else
// 1377         {
// 1378           rtrn = NV_OPER_FAILED;
// 1379         }
// 1380       }
??CrossCallReturnLabel_26:
        LCALL   `??hotItemUpdate::?relay`; Banked call to: hotItemUpdate
        SJMP    ??osal_nv_write_16
// 1381       else
// 1382       {
// 1383         rtrn = NV_OPER_FAILED;
??osal_nv_write_8:
        MOV     ?V9,#0xa
// 1384       }
// 1385 
// 1386       if ( comPg != OSAL_NV_PAGE_NULL )
??osal_nv_write_16:
        MOV     DPL,?XSP + 0
        MOV     DPH,?XSP + 1
        MOVX    A,@DPTR
        JZ      ??osal_nv_write_17
// 1387       {
// 1388         /* Even though the page compaction succeeded, if the new item is coming from the compacted
// 1389          * page and writing the new value failed, then the compaction must be aborted.
// 1390          */
// 1391         if ( (srcPg == comPg) && (rtrn == NV_OPER_FAILED) )
        XRL     A,?V8
        JNZ     ??osal_nv_write_18
        MOV     A,#0xa
        XRL     A,?V9
        JNZ     ??osal_nv_write_18
// 1392         {
// 1393           erasePage( pgRes );
        ; Setup parameters for call to function erasePage
        MOV     DPTR,#pgRes
        MOVX    A,@DPTR
        MOV     R1,A
        LCALL   `??erasePage::?relay`; Banked call to: erasePage
        SJMP    ??osal_nv_write_1
// 1394         }
// 1395         else
// 1396         {
// 1397           COMPACT_PAGE_CLEANUP( comPg );
??osal_nv_write_18:
        MOV     A,#0xd
        LCALL   ?XSTACK_DISP0_8
        CLR     A
        MOVX    @DPTR,A
        INC     DPTR
        MOVX    @DPTR,A
        MOV     A,#0xf
        LCALL   ?XSTACK_DISP0_8
        LCALL   ?Subroutine8 & 0xFFFF
??CrossCallReturnLabel_2:
        LCALL   ?PUSH_XSTACK_I_TWO
          CFI CFA_XSP16 add(XSP16, 47)
        MOV     A,#0xf
        LCALL   ?XSTACK_DISP102_8
        LCALL   ?Subroutine21 & 0xFFFF
??CrossCallReturnLabel_32:
        LCALL   ?S_SHL
        MOV     R2,A
        MOV     R3,?V1
        LCALL   `??HalFlashWrite::?relay`; Banked call to: HalFlashWrite
        MOV     A,#0x2
        LCALL   ?DEALLOC_XSTACK8
          CFI CFA_XSP16 add(XSP16, 45)
        ; Setup parameters for call to function erasePage
        MOV     DPL,?XSP + 0
        MOV     DPH,?XSP + 1
        MOVX    A,@DPTR
        MOV     R1,A
        LCALL   `??erasePage::?relay`; Banked call to: erasePage
        MOV     DPL,?XSP + 0
        MOV     DPH,?XSP + 1
        MOVX    A,@DPTR
        MOV     DPTR,#pgRes
        MOVX    @DPTR,A
// 1398         }
// 1399       }
// 1400 
// 1401       /* Zero of the old item must wait until after compact page cleanup has finished - if the item
// 1402        * is zeroed before and cleanup is interrupted by a power-cycle, the new item can be lost.
// 1403        */
// 1404       if ( (srcPg != comPg) && (rtrn != NV_OPER_FAILED) )
??osal_nv_write_17:
        MOV     DPL,?XSP + 0
        MOV     DPH,?XSP + 1
        MOVX    A,@DPTR
        XRL     A,?V8
        JZ      ??osal_nv_write_1
        MOV     A,#0xa
        XRL     A,?V9
        JZ      ??osal_nv_write_1
// 1405       {
// 1406         setItem( srcPg, origOff, eNvZero );
        ; Setup parameters for call to function setItem
        MOV     R4,#0x1
        MOV     A,R4
        LCALL   ?XSTACK_DISP0_8
        LCALL   ?Subroutine19 & 0xFFFF
// 1407       }
// 1408     }
// 1409   }
??CrossCallReturnLabel_29:
        LCALL   `??setItem::?relay`  ; Banked call to: setItem
// 1410 
// 1411   return rtrn;
??osal_nv_write_1:
        MOV     R1,?V9
??osal_nv_write_3:
        MOV     A,#0x15
        LJMP    ?Subroutine1 & 0xFFFF
// 1412 }
          CFI EndBlock cfiBlock181

        RSEG BANKED_CODE:CODE:NOROOT(0)
?Subroutine24:
          CFI Block cfiCond182 Using cfiCommon0
          CFI Function osal_nv_write
          CFI Conditional ??CrossCallReturnLabel_35
          CFI R6 load(1, XDATA, add(CFA_XSP16, literal(-24)))
          CFI VB load(1, XDATA, add(CFA_XSP16, literal(-23)))
          CFI V0 load(1, XDATA, add(CFA_XSP16, literal(-22)))
          CFI V1 load(1, XDATA, add(CFA_XSP16, literal(-21)))
          CFI V2 load(1, XDATA, add(CFA_XSP16, literal(-20)))
          CFI V3 load(1, XDATA, add(CFA_XSP16, literal(-19)))
          CFI V4 load(1, XDATA, add(CFA_XSP16, literal(-18)))
          CFI V5 load(1, XDATA, add(CFA_XSP16, literal(-17)))
          CFI V6 load(1, XDATA, add(CFA_XSP16, literal(-16)))
          CFI V7 load(1, XDATA, add(CFA_XSP16, literal(-15)))
          CFI V8 load(1, XDATA, add(CFA_XSP16, literal(-14)))
          CFI V9 load(1, XDATA, add(CFA_XSP16, literal(-13)))
          CFI V10 load(1, XDATA, add(CFA_XSP16, literal(-12)))
          CFI V11 load(1, XDATA, add(CFA_XSP16, literal(-11)))
          CFI V12 load(1, XDATA, add(CFA_XSP16, literal(-10)))
          CFI V13 load(1, XDATA, add(CFA_XSP16, literal(-9)))
          CFI V14 load(1, XDATA, add(CFA_XSP16, literal(-8)))
          CFI V15 load(1, XDATA, add(CFA_XSP16, literal(-7)))
          CFI R7 load(1, XDATA, add(CFA_XSP16, literal(-6)))
          CFI ?RET_LOW load(1, XDATA, add(CFA_XSP16, literal(-5)))
          CFI ?RET_HIGH load(1, XDATA, add(CFA_XSP16, literal(-4)))
          CFI ?BRET_EXT load(1, XDATA, add(CFA_XSP16, literal(-3)))
          CFI DPL0 load(1, XDATA, add(CFA_XSP16, literal(-2)))
          CFI DPH0 load(1, XDATA, add(CFA_XSP16, literal(-1)))
          CFI CFA_SP SP+-2
          CFI CFA_XSP16 add(XSP16, 45)
          CFI Block cfiCond183 Using cfiCommon0
          CFI (cfiCond183) Function osal_nv_write
          CFI (cfiCond183) Conditional ??CrossCallReturnLabel_36
          CFI (cfiCond183) R6 load(1, XDATA, add(CFA_XSP16, literal(-24)))
          CFI (cfiCond183) VB load(1, XDATA, add(CFA_XSP16, literal(-23)))
          CFI (cfiCond183) V0 load(1, XDATA, add(CFA_XSP16, literal(-22)))
          CFI (cfiCond183) V1 load(1, XDATA, add(CFA_XSP16, literal(-21)))
          CFI (cfiCond183) V2 load(1, XDATA, add(CFA_XSP16, literal(-20)))
          CFI (cfiCond183) V3 load(1, XDATA, add(CFA_XSP16, literal(-19)))
          CFI (cfiCond183) V4 load(1, XDATA, add(CFA_XSP16, literal(-18)))
          CFI (cfiCond183) V5 load(1, XDATA, add(CFA_XSP16, literal(-17)))
          CFI (cfiCond183) V6 load(1, XDATA, add(CFA_XSP16, literal(-16)))
          CFI (cfiCond183) V7 load(1, XDATA, add(CFA_XSP16, literal(-15)))
          CFI (cfiCond183) V8 load(1, XDATA, add(CFA_XSP16, literal(-14)))
          CFI (cfiCond183) V9 load(1, XDATA, add(CFA_XSP16, literal(-13)))
          CFI (cfiCond183) V10 load(1, XDATA, add(CFA_XSP16, literal(-12)))
          CFI (cfiCond183) V11 load(1, XDATA, add(CFA_XSP16, literal(-11)))
          CFI (cfiCond183) V12 load(1, XDATA, add(CFA_XSP16, literal(-10)))
          CFI (cfiCond183) V13 load(1, XDATA, add(CFA_XSP16, literal(-9)))
          CFI (cfiCond183) V14 load(1, XDATA, add(CFA_XSP16, literal(-8)))
          CFI (cfiCond183) V15 load(1, XDATA, add(CFA_XSP16, literal(-7)))
          CFI (cfiCond183) R7 load(1, XDATA, add(CFA_XSP16, literal(-6)))
          CFI (cfiCond183) ?RET_LOW load(1, XDATA, add(CFA_XSP16, literal(-5)))
          CFI (cfiCond183) ?RET_HIGH load(1, XDATA, add(CFA_XSP16, literal(-4)))
          CFI (cfiCond183) ?BRET_EXT load(1, XDATA, add(CFA_XSP16, literal(-3)))
          CFI (cfiCond183) DPL0 load(1, XDATA, add(CFA_XSP16, literal(-2)))
          CFI (cfiCond183) DPH0 load(1, XDATA, add(CFA_XSP16, literal(-1)))
          CFI (cfiCond183) CFA_SP SP+-2
          CFI (cfiCond183) CFA_XSP16 add(XSP16, 45)
          CFI Block cfiPicker184 Using cfiCommon1
          CFI (cfiPicker184) NoFunction
          CFI (cfiPicker184) Picker
        MOVX    A,@DPTR
        CLR     C
        SUBB    A,?V0
        MOV     R6,A
        INC     DPTR
        MOVX    A,@DPTR
        SUBB    A,?V1
        MOV     R7,A
        RET
          CFI (cfiCond182) CFA_SP SP+0
          CFI (cfiCond183) CFA_SP SP+0
          CFI (cfiPicker184) CFA_SP SP+0
          CFI EndBlock cfiCond182
          CFI EndBlock cfiCond183
          CFI EndBlock cfiPicker184

        RSEG BANKED_CODE:CODE:NOROOT(0)
?Subroutine19:
          CFI Block cfiCond185 Using cfiCommon0
          CFI Function osal_nv_write
          CFI Conditional ??CrossCallReturnLabel_27
          CFI R6 load(1, XDATA, add(CFA_XSP16, literal(-24)))
          CFI VB load(1, XDATA, add(CFA_XSP16, literal(-23)))
          CFI V0 load(1, XDATA, add(CFA_XSP16, literal(-22)))
          CFI V1 load(1, XDATA, add(CFA_XSP16, literal(-21)))
          CFI V2 load(1, XDATA, add(CFA_XSP16, literal(-20)))
          CFI V3 load(1, XDATA, add(CFA_XSP16, literal(-19)))
          CFI V4 load(1, XDATA, add(CFA_XSP16, literal(-18)))
          CFI V5 load(1, XDATA, add(CFA_XSP16, literal(-17)))
          CFI V6 load(1, XDATA, add(CFA_XSP16, literal(-16)))
          CFI V7 load(1, XDATA, add(CFA_XSP16, literal(-15)))
          CFI V8 load(1, XDATA, add(CFA_XSP16, literal(-14)))
          CFI V9 load(1, XDATA, add(CFA_XSP16, literal(-13)))
          CFI V10 load(1, XDATA, add(CFA_XSP16, literal(-12)))
          CFI V11 load(1, XDATA, add(CFA_XSP16, literal(-11)))
          CFI V12 load(1, XDATA, add(CFA_XSP16, literal(-10)))
          CFI V13 load(1, XDATA, add(CFA_XSP16, literal(-9)))
          CFI V14 load(1, XDATA, add(CFA_XSP16, literal(-8)))
          CFI V15 load(1, XDATA, add(CFA_XSP16, literal(-7)))
          CFI R7 load(1, XDATA, add(CFA_XSP16, literal(-6)))
          CFI ?RET_LOW load(1, XDATA, add(CFA_XSP16, literal(-5)))
          CFI ?RET_HIGH load(1, XDATA, add(CFA_XSP16, literal(-4)))
          CFI ?BRET_EXT load(1, XDATA, add(CFA_XSP16, literal(-3)))
          CFI DPL0 load(1, XDATA, add(CFA_XSP16, literal(-2)))
          CFI DPH0 load(1, XDATA, add(CFA_XSP16, literal(-1)))
          CFI CFA_SP SP+-2
          CFI CFA_XSP16 add(XSP16, 45)
          CFI Block cfiCond186 Using cfiCommon0
          CFI (cfiCond186) Function osal_nv_write
          CFI (cfiCond186) Conditional ??CrossCallReturnLabel_28
          CFI (cfiCond186) R6 load(1, XDATA, add(CFA_XSP16, literal(-24)))
          CFI (cfiCond186) VB load(1, XDATA, add(CFA_XSP16, literal(-23)))
          CFI (cfiCond186) V0 load(1, XDATA, add(CFA_XSP16, literal(-22)))
          CFI (cfiCond186) V1 load(1, XDATA, add(CFA_XSP16, literal(-21)))
          CFI (cfiCond186) V2 load(1, XDATA, add(CFA_XSP16, literal(-20)))
          CFI (cfiCond186) V3 load(1, XDATA, add(CFA_XSP16, literal(-19)))
          CFI (cfiCond186) V4 load(1, XDATA, add(CFA_XSP16, literal(-18)))
          CFI (cfiCond186) V5 load(1, XDATA, add(CFA_XSP16, literal(-17)))
          CFI (cfiCond186) V6 load(1, XDATA, add(CFA_XSP16, literal(-16)))
          CFI (cfiCond186) V7 load(1, XDATA, add(CFA_XSP16, literal(-15)))
          CFI (cfiCond186) V8 load(1, XDATA, add(CFA_XSP16, literal(-14)))
          CFI (cfiCond186) V9 load(1, XDATA, add(CFA_XSP16, literal(-13)))
          CFI (cfiCond186) V10 load(1, XDATA, add(CFA_XSP16, literal(-12)))
          CFI (cfiCond186) V11 load(1, XDATA, add(CFA_XSP16, literal(-11)))
          CFI (cfiCond186) V12 load(1, XDATA, add(CFA_XSP16, literal(-10)))
          CFI (cfiCond186) V13 load(1, XDATA, add(CFA_XSP16, literal(-9)))
          CFI (cfiCond186) V14 load(1, XDATA, add(CFA_XSP16, literal(-8)))
          CFI (cfiCond186) V15 load(1, XDATA, add(CFA_XSP16, literal(-7)))
          CFI (cfiCond186) R7 load(1, XDATA, add(CFA_XSP16, literal(-6)))
          CFI (cfiCond186) ?RET_LOW load(1, XDATA, add(CFA_XSP16, literal(-5)))
          CFI (cfiCond186) ?RET_HIGH load(1, XDATA, add(CFA_XSP16, literal(-4)))
          CFI (cfiCond186) ?BRET_EXT load(1, XDATA, add(CFA_XSP16, literal(-3)))
          CFI (cfiCond186) DPL0 load(1, XDATA, add(CFA_XSP16, literal(-2)))
          CFI (cfiCond186) DPH0 load(1, XDATA, add(CFA_XSP16, literal(-1)))
          CFI (cfiCond186) CFA_SP SP+-2
          CFI (cfiCond186) CFA_XSP16 add(XSP16, 49)
          CFI Block cfiCond187 Using cfiCommon0
          CFI (cfiCond187) Function osal_nv_write
          CFI (cfiCond187) Conditional ??CrossCallReturnLabel_29
          CFI (cfiCond187) R6 load(1, XDATA, add(CFA_XSP16, literal(-24)))
          CFI (cfiCond187) VB load(1, XDATA, add(CFA_XSP16, literal(-23)))
          CFI (cfiCond187) V0 load(1, XDATA, add(CFA_XSP16, literal(-22)))
          CFI (cfiCond187) V1 load(1, XDATA, add(CFA_XSP16, literal(-21)))
          CFI (cfiCond187) V2 load(1, XDATA, add(CFA_XSP16, literal(-20)))
          CFI (cfiCond187) V3 load(1, XDATA, add(CFA_XSP16, literal(-19)))
          CFI (cfiCond187) V4 load(1, XDATA, add(CFA_XSP16, literal(-18)))
          CFI (cfiCond187) V5 load(1, XDATA, add(CFA_XSP16, literal(-17)))
          CFI (cfiCond187) V6 load(1, XDATA, add(CFA_XSP16, literal(-16)))
          CFI (cfiCond187) V7 load(1, XDATA, add(CFA_XSP16, literal(-15)))
          CFI (cfiCond187) V8 load(1, XDATA, add(CFA_XSP16, literal(-14)))
          CFI (cfiCond187) V9 load(1, XDATA, add(CFA_XSP16, literal(-13)))
          CFI (cfiCond187) V10 load(1, XDATA, add(CFA_XSP16, literal(-12)))
          CFI (cfiCond187) V11 load(1, XDATA, add(CFA_XSP16, literal(-11)))
          CFI (cfiCond187) V12 load(1, XDATA, add(CFA_XSP16, literal(-10)))
          CFI (cfiCond187) V13 load(1, XDATA, add(CFA_XSP16, literal(-9)))
          CFI (cfiCond187) V14 load(1, XDATA, add(CFA_XSP16, literal(-8)))
          CFI (cfiCond187) V15 load(1, XDATA, add(CFA_XSP16, literal(-7)))
          CFI (cfiCond187) R7 load(1, XDATA, add(CFA_XSP16, literal(-6)))
          CFI (cfiCond187) ?RET_LOW load(1, XDATA, add(CFA_XSP16, literal(-5)))
          CFI (cfiCond187) ?RET_HIGH load(1, XDATA, add(CFA_XSP16, literal(-4)))
          CFI (cfiCond187) ?BRET_EXT load(1, XDATA, add(CFA_XSP16, literal(-3)))
          CFI (cfiCond187) DPL0 load(1, XDATA, add(CFA_XSP16, literal(-2)))
          CFI (cfiCond187) DPH0 load(1, XDATA, add(CFA_XSP16, literal(-1)))
          CFI (cfiCond187) CFA_SP SP+-2
          CFI (cfiCond187) CFA_XSP16 add(XSP16, 45)
          CFI Block cfiPicker188 Using cfiCommon1
          CFI (cfiPicker188) NoFunction
          CFI (cfiPicker188) Picker
        MOVX    A,@DPTR
        MOV     R2,A
        INC     DPTR
        MOVX    A,@DPTR
        MOV     R3,A
        MOV     R1,?V8
        RET
          CFI (cfiCond185) CFA_SP SP+0
          CFI (cfiCond186) CFA_SP SP+0
          CFI (cfiCond187) CFA_SP SP+0
          CFI (cfiPicker188) CFA_SP SP+0
          CFI EndBlock cfiCond185
          CFI EndBlock cfiCond186
          CFI EndBlock cfiCond187
          CFI EndBlock cfiPicker188

        RSEG BANKED_CODE:CODE:NOROOT(0)
?Subroutine18:
          CFI Block cfiCond189 Using cfiCommon0
          CFI Function osal_nv_write
          CFI Conditional ??CrossCallReturnLabel_25
          CFI R6 load(1, XDATA, add(CFA_XSP16, literal(-24)))
          CFI VB load(1, XDATA, add(CFA_XSP16, literal(-23)))
          CFI V0 load(1, XDATA, add(CFA_XSP16, literal(-22)))
          CFI V1 load(1, XDATA, add(CFA_XSP16, literal(-21)))
          CFI V2 load(1, XDATA, add(CFA_XSP16, literal(-20)))
          CFI V3 load(1, XDATA, add(CFA_XSP16, literal(-19)))
          CFI V4 load(1, XDATA, add(CFA_XSP16, literal(-18)))
          CFI V5 load(1, XDATA, add(CFA_XSP16, literal(-17)))
          CFI V6 load(1, XDATA, add(CFA_XSP16, literal(-16)))
          CFI V7 load(1, XDATA, add(CFA_XSP16, literal(-15)))
          CFI V8 load(1, XDATA, add(CFA_XSP16, literal(-14)))
          CFI V9 load(1, XDATA, add(CFA_XSP16, literal(-13)))
          CFI V10 load(1, XDATA, add(CFA_XSP16, literal(-12)))
          CFI V11 load(1, XDATA, add(CFA_XSP16, literal(-11)))
          CFI V12 load(1, XDATA, add(CFA_XSP16, literal(-10)))
          CFI V13 load(1, XDATA, add(CFA_XSP16, literal(-9)))
          CFI V14 load(1, XDATA, add(CFA_XSP16, literal(-8)))
          CFI V15 load(1, XDATA, add(CFA_XSP16, literal(-7)))
          CFI R7 load(1, XDATA, add(CFA_XSP16, literal(-6)))
          CFI ?RET_LOW load(1, XDATA, add(CFA_XSP16, literal(-5)))
          CFI ?RET_HIGH load(1, XDATA, add(CFA_XSP16, literal(-4)))
          CFI ?BRET_EXT load(1, XDATA, add(CFA_XSP16, literal(-3)))
          CFI DPL0 load(1, XDATA, add(CFA_XSP16, literal(-2)))
          CFI DPH0 load(1, XDATA, add(CFA_XSP16, literal(-1)))
          CFI CFA_SP SP+-2
          CFI CFA_XSP16 add(XSP16, 45)
          CFI Block cfiCond190 Using cfiCommon0
          CFI (cfiCond190) Function osal_nv_write
          CFI (cfiCond190) Conditional ??CrossCallReturnLabel_26
          CFI (cfiCond190) R6 load(1, XDATA, add(CFA_XSP16, literal(-24)))
          CFI (cfiCond190) VB load(1, XDATA, add(CFA_XSP16, literal(-23)))
          CFI (cfiCond190) V0 load(1, XDATA, add(CFA_XSP16, literal(-22)))
          CFI (cfiCond190) V1 load(1, XDATA, add(CFA_XSP16, literal(-21)))
          CFI (cfiCond190) V2 load(1, XDATA, add(CFA_XSP16, literal(-20)))
          CFI (cfiCond190) V3 load(1, XDATA, add(CFA_XSP16, literal(-19)))
          CFI (cfiCond190) V4 load(1, XDATA, add(CFA_XSP16, literal(-18)))
          CFI (cfiCond190) V5 load(1, XDATA, add(CFA_XSP16, literal(-17)))
          CFI (cfiCond190) V6 load(1, XDATA, add(CFA_XSP16, literal(-16)))
          CFI (cfiCond190) V7 load(1, XDATA, add(CFA_XSP16, literal(-15)))
          CFI (cfiCond190) V8 load(1, XDATA, add(CFA_XSP16, literal(-14)))
          CFI (cfiCond190) V9 load(1, XDATA, add(CFA_XSP16, literal(-13)))
          CFI (cfiCond190) V10 load(1, XDATA, add(CFA_XSP16, literal(-12)))
          CFI (cfiCond190) V11 load(1, XDATA, add(CFA_XSP16, literal(-11)))
          CFI (cfiCond190) V12 load(1, XDATA, add(CFA_XSP16, literal(-10)))
          CFI (cfiCond190) V13 load(1, XDATA, add(CFA_XSP16, literal(-9)))
          CFI (cfiCond190) V14 load(1, XDATA, add(CFA_XSP16, literal(-8)))
          CFI (cfiCond190) V15 load(1, XDATA, add(CFA_XSP16, literal(-7)))
          CFI (cfiCond190) R7 load(1, XDATA, add(CFA_XSP16, literal(-6)))
          CFI (cfiCond190) ?RET_LOW load(1, XDATA, add(CFA_XSP16, literal(-5)))
          CFI (cfiCond190) ?RET_HIGH load(1, XDATA, add(CFA_XSP16, literal(-4)))
          CFI (cfiCond190) ?BRET_EXT load(1, XDATA, add(CFA_XSP16, literal(-3)))
          CFI (cfiCond190) DPL0 load(1, XDATA, add(CFA_XSP16, literal(-2)))
          CFI (cfiCond190) DPH0 load(1, XDATA, add(CFA_XSP16, literal(-1)))
          CFI (cfiCond190) CFA_SP SP+-2
          CFI (cfiCond190) CFA_XSP16 add(XSP16, 45)
          CFI Block cfiPicker191 Using cfiCommon1
          CFI (cfiPicker191) NoFunction
          CFI (cfiPicker191) Picker
        LCALL   ?Subroutine45 & 0xFFFF
??CrossCallReturnLabel_91:
        MOV     A,R6
        MOV     R2,A
        MOV     A,R7
        MOV     R3,A
        MOV     R1,?V4
        RET
          CFI (cfiCond189) CFA_SP SP+0
          CFI (cfiCond190) CFA_SP SP+0
          CFI (cfiPicker191) CFA_SP SP+0
          CFI EndBlock cfiCond189
          CFI EndBlock cfiCond190
          CFI EndBlock cfiPicker191

        RSEG BANKED_CODE:CODE:NOROOT(0)
?Subroutine16:
          CFI Block cfiCond192 Using cfiCommon0
          CFI Function xferBuf
          CFI Conditional ??CrossCallReturnLabel_19
          CFI R6 load(1, XDATA, add(CFA_XSP16, literal(-20)))
          CFI VB load(1, XDATA, add(CFA_XSP16, literal(-19)))
          CFI V0 load(1, XDATA, add(CFA_XSP16, literal(-18)))
          CFI V1 load(1, XDATA, add(CFA_XSP16, literal(-17)))
          CFI V2 load(1, XDATA, add(CFA_XSP16, literal(-16)))
          CFI V3 load(1, XDATA, add(CFA_XSP16, literal(-15)))
          CFI V4 load(1, XDATA, add(CFA_XSP16, literal(-14)))
          CFI V5 load(1, XDATA, add(CFA_XSP16, literal(-13)))
          CFI V6 load(1, XDATA, add(CFA_XSP16, literal(-12)))
          CFI V7 load(1, XDATA, add(CFA_XSP16, literal(-11)))
          CFI V8 load(1, XDATA, add(CFA_XSP16, literal(-10)))
          CFI V9 load(1, XDATA, add(CFA_XSP16, literal(-9)))
          CFI V10 load(1, XDATA, add(CFA_XSP16, literal(-8)))
          CFI V11 load(1, XDATA, add(CFA_XSP16, literal(-7)))
          CFI R7 load(1, XDATA, add(CFA_XSP16, literal(-6)))
          CFI ?RET_LOW load(1, XDATA, add(CFA_XSP16, literal(-5)))
          CFI ?RET_HIGH load(1, XDATA, add(CFA_XSP16, literal(-4)))
          CFI ?BRET_EXT load(1, XDATA, add(CFA_XSP16, literal(-3)))
          CFI DPL0 load(1, XDATA, add(CFA_XSP16, literal(-2)))
          CFI DPH0 load(1, XDATA, add(CFA_XSP16, literal(-1)))
          CFI CFA_SP SP+-2
          CFI CFA_XSP16 add(XSP16, 24)
          CFI Block cfiCond193 Using cfiCommon0
          CFI (cfiCond193) Function writeItem
          CFI (cfiCond193) Conditional ??CrossCallReturnLabel_20
          CFI (cfiCond193) R6 load(1, XDATA, add(CFA_XSP16, literal(-22)))
          CFI (cfiCond193) VB load(1, XDATA, add(CFA_XSP16, literal(-21)))
          CFI (cfiCond193) V0 load(1, XDATA, add(CFA_XSP16, literal(-20)))
          CFI (cfiCond193) V1 load(1, XDATA, add(CFA_XSP16, literal(-19)))
          CFI (cfiCond193) V2 load(1, XDATA, add(CFA_XSP16, literal(-18)))
          CFI (cfiCond193) V3 load(1, XDATA, add(CFA_XSP16, literal(-17)))
          CFI (cfiCond193) V4 load(1, XDATA, add(CFA_XSP16, literal(-16)))
          CFI (cfiCond193) V5 load(1, XDATA, add(CFA_XSP16, literal(-15)))
          CFI (cfiCond193) V6 load(1, XDATA, add(CFA_XSP16, literal(-14)))
          CFI (cfiCond193) V7 load(1, XDATA, add(CFA_XSP16, literal(-13)))
          CFI (cfiCond193) V8 load(1, XDATA, add(CFA_XSP16, literal(-12)))
          CFI (cfiCond193) V9 load(1, XDATA, add(CFA_XSP16, literal(-11)))
          CFI (cfiCond193) V10 load(1, XDATA, add(CFA_XSP16, literal(-10)))
          CFI (cfiCond193) V11 load(1, XDATA, add(CFA_XSP16, literal(-9)))
          CFI (cfiCond193) V12 load(1, XDATA, add(CFA_XSP16, literal(-8)))
          CFI (cfiCond193) V13 load(1, XDATA, add(CFA_XSP16, literal(-7)))
          CFI (cfiCond193) R7 load(1, XDATA, add(CFA_XSP16, literal(-6)))
          CFI (cfiCond193) ?RET_LOW load(1, XDATA, add(CFA_XSP16, literal(-5)))
          CFI (cfiCond193) ?RET_HIGH load(1, XDATA, add(CFA_XSP16, literal(-4)))
          CFI (cfiCond193) ?BRET_EXT load(1, XDATA, add(CFA_XSP16, literal(-3)))
          CFI (cfiCond193) DPL0 load(1, XDATA, add(CFA_XSP16, literal(-2)))
          CFI (cfiCond193) DPH0 load(1, XDATA, add(CFA_XSP16, literal(-1)))
          CFI (cfiCond193) CFA_SP SP+-2
          CFI (cfiCond193) CFA_XSP16 add(XSP16, 30)
          CFI Block cfiCond194 Using cfiCommon0
          CFI (cfiCond194) Function osal_nv_write
          CFI (cfiCond194) Conditional ??CrossCallReturnLabel_21
          CFI (cfiCond194) R6 load(1, XDATA, add(CFA_XSP16, literal(-24)))
          CFI (cfiCond194) VB load(1, XDATA, add(CFA_XSP16, literal(-23)))
          CFI (cfiCond194) V0 load(1, XDATA, add(CFA_XSP16, literal(-22)))
          CFI (cfiCond194) V1 load(1, XDATA, add(CFA_XSP16, literal(-21)))
          CFI (cfiCond194) V2 load(1, XDATA, add(CFA_XSP16, literal(-20)))
          CFI (cfiCond194) V3 load(1, XDATA, add(CFA_XSP16, literal(-19)))
          CFI (cfiCond194) V4 load(1, XDATA, add(CFA_XSP16, literal(-18)))
          CFI (cfiCond194) V5 load(1, XDATA, add(CFA_XSP16, literal(-17)))
          CFI (cfiCond194) V6 load(1, XDATA, add(CFA_XSP16, literal(-16)))
          CFI (cfiCond194) V7 load(1, XDATA, add(CFA_XSP16, literal(-15)))
          CFI (cfiCond194) V8 load(1, XDATA, add(CFA_XSP16, literal(-14)))
          CFI (cfiCond194) V9 load(1, XDATA, add(CFA_XSP16, literal(-13)))
          CFI (cfiCond194) V10 load(1, XDATA, add(CFA_XSP16, literal(-12)))
          CFI (cfiCond194) V11 load(1, XDATA, add(CFA_XSP16, literal(-11)))
          CFI (cfiCond194) V12 load(1, XDATA, add(CFA_XSP16, literal(-10)))
          CFI (cfiCond194) V13 load(1, XDATA, add(CFA_XSP16, literal(-9)))
          CFI (cfiCond194) V14 load(1, XDATA, add(CFA_XSP16, literal(-8)))
          CFI (cfiCond194) V15 load(1, XDATA, add(CFA_XSP16, literal(-7)))
          CFI (cfiCond194) R7 load(1, XDATA, add(CFA_XSP16, literal(-6)))
          CFI (cfiCond194) ?RET_LOW load(1, XDATA, add(CFA_XSP16, literal(-5)))
          CFI (cfiCond194) ?RET_HIGH load(1, XDATA, add(CFA_XSP16, literal(-4)))
          CFI (cfiCond194) ?BRET_EXT load(1, XDATA, add(CFA_XSP16, literal(-3)))
          CFI (cfiCond194) DPL0 load(1, XDATA, add(CFA_XSP16, literal(-2)))
          CFI (cfiCond194) DPH0 load(1, XDATA, add(CFA_XSP16, literal(-1)))
          CFI (cfiCond194) CFA_SP SP+-2
          CFI (cfiCond194) CFA_XSP16 add(XSP16, 45)
          CFI Block cfiCond195 Using cfiCommon0
          CFI (cfiCond195) Function osal_nv_read
          CFI (cfiCond195) Conditional ??CrossCallReturnLabel_22
          CFI (cfiCond195) R6 load(1, XDATA, add(CFA_XSP16, literal(-16)))
          CFI (cfiCond195) VB load(1, XDATA, add(CFA_XSP16, literal(-15)))
          CFI (cfiCond195) V0 load(1, XDATA, add(CFA_XSP16, literal(-14)))
          CFI (cfiCond195) V1 load(1, XDATA, add(CFA_XSP16, literal(-13)))
          CFI (cfiCond195) V2 load(1, XDATA, add(CFA_XSP16, literal(-12)))
          CFI (cfiCond195) V3 load(1, XDATA, add(CFA_XSP16, literal(-11)))
          CFI (cfiCond195) V4 load(1, XDATA, add(CFA_XSP16, literal(-10)))
          CFI (cfiCond195) V5 load(1, XDATA, add(CFA_XSP16, literal(-9)))
          CFI (cfiCond195) V6 load(1, XDATA, add(CFA_XSP16, literal(-8)))
          CFI (cfiCond195) V7 load(1, XDATA, add(CFA_XSP16, literal(-7)))
          CFI (cfiCond195) R7 load(1, XDATA, add(CFA_XSP16, literal(-6)))
          CFI (cfiCond195) ?RET_LOW load(1, XDATA, add(CFA_XSP16, literal(-5)))
          CFI (cfiCond195) ?RET_HIGH load(1, XDATA, add(CFA_XSP16, literal(-4)))
          CFI (cfiCond195) ?BRET_EXT load(1, XDATA, add(CFA_XSP16, literal(-3)))
          CFI (cfiCond195) DPL0 load(1, XDATA, add(CFA_XSP16, literal(-2)))
          CFI (cfiCond195) DPH0 load(1, XDATA, add(CFA_XSP16, literal(-1)))
          CFI (cfiCond195) CFA_SP SP+-2
          CFI (cfiCond195) CFA_XSP16 add(XSP16, 16)
          CFI Block cfiPicker196 Using cfiCommon1
          CFI (cfiPicker196) NoFunction
          CFI (cfiPicker196) Picker
        MOVX    A,@DPTR
        MOV     ?V0,A
        INC     DPTR
        MOVX    A,@DPTR
        MOV     ?V1,A
        RET
          CFI (cfiCond192) CFA_SP SP+0
          CFI (cfiCond193) CFA_SP SP+0
          CFI (cfiCond194) CFA_SP SP+0
          CFI (cfiCond195) CFA_SP SP+0
          CFI (cfiPicker196) CFA_SP SP+0
          CFI EndBlock cfiCond192
          CFI EndBlock cfiCond193
          CFI EndBlock cfiCond194
          CFI EndBlock cfiCond195
          CFI EndBlock cfiPicker196
// 1413 
// 1414 /*********************************************************************
// 1415  * @fn      osal_nv_read
// 1416  *
// 1417  * @brief   Read data from NV. This function can be used to read an entire item from NV or
// 1418  *          an element of an item by indexing into the item with an offset.
// 1419  *          Read data is copied into *buf.
// 1420  *
// 1421  * @param   id  - Valid NV item Id.
// 1422  * @param   ndx - Index offset into item
// 1423  * @param   len - Length of data to read.
// 1424  * @param  *buf - Data is read into this buffer.
// 1425  *
// 1426  * @return  SUCCESS if NV data was copied to the parameter 'buf'.
// 1427  *          Otherwise, NV_OPER_FAILED for failure.
// 1428  */

        RSEG BANKED_CODE:CODE:NOROOT(0)
// 1429 uint8 osal_nv_read( uint16 id, uint16 ndx, uint16 len, void *buf )
osal_nv_read:
          CFI Block cfiBlock197 Using cfiCommon0
          CFI Function osal_nv_read
        CODE
// 1430 {
        FUNCALL osal_nv_read, hotItem
        LOCFRAME ISTACK, 0, STACK
        LOCFRAME PSTACK, 0, STACK
        LOCFRAME XSTACK, 16, STACK
        LOCFRAME IOVERLAY, 0, STATIC
        LOCFRAME DOVERLAY, 0, STATIC
        ARGFRAME ISTACK, 0, STACK
        ARGFRAME PSTACK, 0, STACK
        ARGFRAME XSTACK, 16, STACK
        ARGFRAME IOVERLAY, 0, STATIC
        ARGFRAME DOVERLAY, 0, STATIC
        FUNCALL osal_nv_read, HalFlashRead
        LOCFRAME ISTACK, 0, STACK
        LOCFRAME PSTACK, 0, STACK
        LOCFRAME XSTACK, 18, STACK
        LOCFRAME IOVERLAY, 0, STATIC
        LOCFRAME DOVERLAY, 0, STATIC
        ARGFRAME ISTACK, 0, STACK
        ARGFRAME PSTACK, 0, STACK
        ARGFRAME XSTACK, 18, STACK
        ARGFRAME IOVERLAY, 0, STATIC
        ARGFRAME DOVERLAY, 0, STATIC
        FUNCALL osal_nv_read, findItem
        LOCFRAME ISTACK, 0, STACK
        LOCFRAME PSTACK, 0, STACK
        LOCFRAME XSTACK, 16, STACK
        LOCFRAME IOVERLAY, 0, STATIC
        LOCFRAME DOVERLAY, 0, STATIC
        ARGFRAME ISTACK, 0, STACK
        ARGFRAME PSTACK, 0, STACK
        ARGFRAME XSTACK, 16, STACK
        ARGFRAME IOVERLAY, 0, STATIC
        ARGFRAME DOVERLAY, 0, STATIC
        FUNCALL osal_nv_read, HalFlashRead
        LOCFRAME ISTACK, 0, STACK
        LOCFRAME PSTACK, 0, STACK
        LOCFRAME XSTACK, 18, STACK
        LOCFRAME IOVERLAY, 0, STATIC
        LOCFRAME DOVERLAY, 0, STATIC
        ARGFRAME ISTACK, 0, STACK
        ARGFRAME PSTACK, 0, STACK
        ARGFRAME XSTACK, 18, STACK
        ARGFRAME IOVERLAY, 0, STATIC
        ARGFRAME DOVERLAY, 0, STATIC
        REQUIRE ?V0
        REQUIRE ?V1
        REQUIRE ?V2
        REQUIRE ?V3
        REQUIRE ?V4
        REQUIRE ?V5
        REQUIRE ?V6
        REQUIRE ?V7
        MOV     A,#-0x10
        LCALL   ?BANKED_ENTER_XDATA
          CFI DPH0 load(1, XDATA, add(CFA_XSP16, literal(-1)))
          CFI DPL0 load(1, XDATA, add(CFA_XSP16, literal(-2)))
          CFI ?BRET_EXT load(1, XDATA, add(CFA_XSP16, literal(-3)))
          CFI ?RET_HIGH load(1, XDATA, add(CFA_XSP16, literal(-4)))
          CFI ?RET_LOW load(1, XDATA, add(CFA_XSP16, literal(-5)))
          CFI R7 load(1, XDATA, add(CFA_XSP16, literal(-6)))
          CFI V7 load(1, XDATA, add(CFA_XSP16, literal(-7)))
          CFI V6 load(1, XDATA, add(CFA_XSP16, literal(-8)))
          CFI V5 load(1, XDATA, add(CFA_XSP16, literal(-9)))
          CFI V4 load(1, XDATA, add(CFA_XSP16, literal(-10)))
          CFI V3 load(1, XDATA, add(CFA_XSP16, literal(-11)))
          CFI V2 load(1, XDATA, add(CFA_XSP16, literal(-12)))
          CFI V1 load(1, XDATA, add(CFA_XSP16, literal(-13)))
          CFI V0 load(1, XDATA, add(CFA_XSP16, literal(-14)))
          CFI VB load(1, XDATA, add(CFA_XSP16, literal(-15)))
          CFI R6 load(1, XDATA, add(CFA_XSP16, literal(-16)))
          CFI CFA_SP SP+0
          CFI CFA_XSP16 add(XSP16, 16)
        ; Saved register size: 16
        ; Auto size: 0
        MOV     A,R2
        MOV     R6,A
        MOV     A,R3
        MOV     R7,A
        MOV     ?V2,R4
        MOV     ?V3,R5
// 1431   uint16 offset;
// 1432   uint8 hotIdx;
// 1433 
// 1434   if ((hotIdx = hotItem(id)) < OSAL_NV_MAX_HOT)
        ; Setup parameters for call to function hotItem
        LCALL   `??hotItem::?relay`  ; Banked call to: hotItem
        MOV     A,R1
        MOV     R0,A
        MOV     A,#0x10
        LCALL   ?XSTACK_DISP0_8
        MOVX    A,@DPTR
        MOV     ?V4,A
        INC     DPTR
        MOVX    A,@DPTR
        MOV     ?V5,A
        MOV     A,#0x12
        LCALL   ?XSTACK_DISP0_8
        LCALL   ?Subroutine16 & 0xFFFF
??CrossCallReturnLabel_22:
        MOV     A,R0
        CLR     C
        SUBB    A,#0x3
        JNC     ??osal_nv_read_0
// 1435   {
// 1436     HalFlashRead(hotPg[hotIdx], hotOff[hotIdx]+ndx, buf, len);
        MOV     A,R0
        MOV     R6,A
        ; Setup parameters for call to function HalFlashRead
        MOV     R0,#?V4
        LCALL   ?PUSH_XSTACK_I_TWO
          CFI CFA_XSP16 add(XSP16, 18)
        MOV     R4,?V0
        MOV     R5,?V1
        MOV     A,R6
        LCALL   ?Subroutine41 & 0xFFFF
// 1437     return SUCCESS;
// 1438   }
??CrossCallReturnLabel_81:
        ADDC    A,R1
        MOV     DPH,A
        MOVX    A,@DPTR
        ADD     A,?V2
        MOV     R2,A
        INC     DPTR
        MOVX    A,@DPTR
        ADDC    A,?V3
        MOV     R3,A
        MOV     A,#hotPg & 0xff
        ADD     A,R6
        MOV     DPL,A
        CLR     A
        ADDC    A,#(hotPg >> 8) & 0xff
        MOV     DPH,A
        SJMP    ??osal_nv_read_1
          CFI CFA_XSP16 add(XSP16, 16)
// 1439 
// 1440   if ((offset = findItem(id)) == OSAL_NV_ITEM_NULL)
??osal_nv_read_0:
        ; Setup parameters for call to function findItem
        MOV     A,R6
        MOV     R2,A
        MOV     A,R7
        MOV     R3,A
        LCALL   `??findItem::?relay` ; Banked call to: findItem
        MOV     A,R2
        ORL     A,R3
        JNZ     ??osal_nv_read_2
// 1441   {
// 1442     return NV_OPER_FAILED;
        MOV     R1,#0xa
        SJMP    ??osal_nv_read_3
// 1443   }
// 1444   else
// 1445   {
// 1446     HalFlashRead(findPg, offset+ndx, buf, len);
??osal_nv_read_2:
        ; Setup parameters for call to function HalFlashRead
        MOV     R0,#?V4
        LCALL   ?PUSH_XSTACK_I_TWO
          CFI CFA_XSP16 add(XSP16, 18)
        MOV     R4,?V0
        MOV     R5,?V1
        MOV     A,R2
        ADD     A,?V2
        MOV     R2,A
        MOV     A,R3
        ADDC    A,?V3
        MOV     R3,A
        MOV     DPTR,#findPg
??osal_nv_read_1:
        MOVX    A,@DPTR
        MOV     R1,A
        LCALL   `??HalFlashRead::?relay`; Banked call to: HalFlashRead
        MOV     A,#0x2
        LCALL   ?DEALLOC_XSTACK8
          CFI CFA_XSP16 add(XSP16, 16)
// 1447     return SUCCESS;
        MOV     R1,#0x0
// 1448   }
??osal_nv_read_3:
        LJMP    ?Subroutine6 & 0xFFFF
// 1449 }
          CFI EndBlock cfiBlock197

        RSEG BANKED_CODE:CODE:NOROOT(0)
?Subroutine41:
          CFI Block cfiCond198 Using cfiCommon0
          CFI Function osal_nv_item_len
          CFI Conditional ??CrossCallReturnLabel_80
          CFI R6 load(1, XDATA, add(CFA_XSP16, literal(-10)))
          CFI VB load(1, XDATA, add(CFA_XSP16, literal(-9)))
          CFI V0 load(1, XDATA, add(CFA_XSP16, literal(-8)))
          CFI V1 load(1, XDATA, add(CFA_XSP16, literal(-7)))
          CFI R7 load(1, XDATA, add(CFA_XSP16, literal(-6)))
          CFI ?RET_LOW load(1, XDATA, add(CFA_XSP16, literal(-5)))
          CFI ?RET_HIGH load(1, XDATA, add(CFA_XSP16, literal(-4)))
          CFI ?BRET_EXT load(1, XDATA, add(CFA_XSP16, literal(-3)))
          CFI DPL0 load(1, XDATA, add(CFA_XSP16, literal(-2)))
          CFI DPH0 load(1, XDATA, add(CFA_XSP16, literal(-1)))
          CFI CFA_SP SP+-2
          CFI CFA_XSP16 add(XSP16, 18)
          CFI Block cfiCond199 Using cfiCommon0
          CFI (cfiCond199) Function osal_nv_read
          CFI (cfiCond199) Conditional ??CrossCallReturnLabel_81
          CFI (cfiCond199) R6 load(1, XDATA, add(CFA_XSP16, literal(-16)))
          CFI (cfiCond199) VB load(1, XDATA, add(CFA_XSP16, literal(-15)))
          CFI (cfiCond199) V0 load(1, XDATA, add(CFA_XSP16, literal(-14)))
          CFI (cfiCond199) V1 load(1, XDATA, add(CFA_XSP16, literal(-13)))
          CFI (cfiCond199) V2 load(1, XDATA, add(CFA_XSP16, literal(-12)))
          CFI (cfiCond199) V3 load(1, XDATA, add(CFA_XSP16, literal(-11)))
          CFI (cfiCond199) V4 load(1, XDATA, add(CFA_XSP16, literal(-10)))
          CFI (cfiCond199) V5 load(1, XDATA, add(CFA_XSP16, literal(-9)))
          CFI (cfiCond199) V6 load(1, XDATA, add(CFA_XSP16, literal(-8)))
          CFI (cfiCond199) V7 load(1, XDATA, add(CFA_XSP16, literal(-7)))
          CFI (cfiCond199) R7 load(1, XDATA, add(CFA_XSP16, literal(-6)))
          CFI (cfiCond199) ?RET_LOW load(1, XDATA, add(CFA_XSP16, literal(-5)))
          CFI (cfiCond199) ?RET_HIGH load(1, XDATA, add(CFA_XSP16, literal(-4)))
          CFI (cfiCond199) ?BRET_EXT load(1, XDATA, add(CFA_XSP16, literal(-3)))
          CFI (cfiCond199) DPL0 load(1, XDATA, add(CFA_XSP16, literal(-2)))
          CFI (cfiCond199) DPH0 load(1, XDATA, add(CFA_XSP16, literal(-1)))
          CFI (cfiCond199) CFA_SP SP+-2
          CFI (cfiCond199) CFA_XSP16 add(XSP16, 18)
          CFI Block cfiPicker200 Using cfiCommon1
          CFI (cfiPicker200) NoFunction
          CFI (cfiPicker200) Picker
        ADD     A,R1
        MOV     R0,A
        CLR     A
        RLC     A
        MOV     R1,A
        MOV     A,#hotOff & 0xff
        ADD     A,R0
        MOV     DPL,A
        MOV     A,#(hotOff >> 8) & 0xff
        RET
          CFI (cfiCond198) CFA_SP SP+0
          CFI (cfiCond199) CFA_SP SP+0
          CFI (cfiPicker200) CFA_SP SP+0
          CFI EndBlock cfiCond198
          CFI EndBlock cfiCond199
          CFI EndBlock cfiPicker200
// 1450 
// 1451 /*********************************************************************
// 1452  * @fn      osal_nv_delete
// 1453  *
// 1454  * @brief   Delete item from NV. This function will fail if the length
// 1455  *          parameter does not match the length of the item in NV.
// 1456  *
// 1457  * @param   id  - Valid NV item Id.
// 1458  * @param   len - Length of item to delete.
// 1459  *
// 1460  * @return  SUCCESS if item was deleted,
// 1461  *          NV_ITEM_UNINIT if item did not exist in NV,
// 1462  *          NV_BAD_ITEM_LEN if length parameter not correct,
// 1463  *          NV_OPER_FAILED if attempted deletion failed.
// 1464  */

        RSEG BANKED_CODE:CODE:NOROOT(0)
// 1465 uint8 osal_nv_delete( uint16 id, uint16 len )
osal_nv_delete:
          CFI Block cfiBlock201 Using cfiCommon0
          CFI Function osal_nv_delete
        CODE
// 1466 {
        FUNCALL osal_nv_delete, findItem
        LOCFRAME ISTACK, 0, STACK
        LOCFRAME PSTACK, 0, STACK
        LOCFRAME XSTACK, 14, STACK
        LOCFRAME IOVERLAY, 0, STATIC
        LOCFRAME DOVERLAY, 0, STATIC
        ARGFRAME ISTACK, 0, STACK
        ARGFRAME PSTACK, 0, STACK
        ARGFRAME XSTACK, 14, STACK
        ARGFRAME IOVERLAY, 0, STATIC
        ARGFRAME DOVERLAY, 0, STATIC
        FUNCALL osal_nv_delete, osal_nv_item_len
        LOCFRAME ISTACK, 0, STACK
        LOCFRAME PSTACK, 0, STACK
        LOCFRAME XSTACK, 14, STACK
        LOCFRAME IOVERLAY, 0, STATIC
        LOCFRAME DOVERLAY, 0, STATIC
        ARGFRAME ISTACK, 0, STACK
        ARGFRAME PSTACK, 0, STACK
        ARGFRAME XSTACK, 14, STACK
        ARGFRAME IOVERLAY, 0, STATIC
        ARGFRAME DOVERLAY, 0, STATIC
        FUNCALL osal_nv_delete, setItem
        LOCFRAME ISTACK, 0, STACK
        LOCFRAME PSTACK, 0, STACK
        LOCFRAME XSTACK, 14, STACK
        LOCFRAME IOVERLAY, 0, STATIC
        LOCFRAME DOVERLAY, 0, STATIC
        ARGFRAME ISTACK, 0, STACK
        ARGFRAME PSTACK, 0, STACK
        ARGFRAME XSTACK, 14, STACK
        ARGFRAME IOVERLAY, 0, STATIC
        ARGFRAME DOVERLAY, 0, STATIC
        FUNCALL osal_nv_delete, findItem
        LOCFRAME ISTACK, 0, STACK
        LOCFRAME PSTACK, 0, STACK
        LOCFRAME XSTACK, 14, STACK
        LOCFRAME IOVERLAY, 0, STATIC
        LOCFRAME DOVERLAY, 0, STATIC
        ARGFRAME ISTACK, 0, STACK
        ARGFRAME PSTACK, 0, STACK
        ARGFRAME XSTACK, 14, STACK
        ARGFRAME IOVERLAY, 0, STATIC
        ARGFRAME DOVERLAY, 0, STATIC
        REQUIRE ?V0
        REQUIRE ?V1
        REQUIRE ?V2
        REQUIRE ?V3
        REQUIRE ?V4
        REQUIRE ?V5
        MOV     A,#-0xe
        LCALL   ?BANKED_ENTER_XDATA
          CFI DPH0 load(1, XDATA, add(CFA_XSP16, literal(-1)))
          CFI DPL0 load(1, XDATA, add(CFA_XSP16, literal(-2)))
          CFI ?BRET_EXT load(1, XDATA, add(CFA_XSP16, literal(-3)))
          CFI ?RET_HIGH load(1, XDATA, add(CFA_XSP16, literal(-4)))
          CFI ?RET_LOW load(1, XDATA, add(CFA_XSP16, literal(-5)))
          CFI R7 load(1, XDATA, add(CFA_XSP16, literal(-6)))
          CFI V5 load(1, XDATA, add(CFA_XSP16, literal(-7)))
          CFI V4 load(1, XDATA, add(CFA_XSP16, literal(-8)))
          CFI V3 load(1, XDATA, add(CFA_XSP16, literal(-9)))
          CFI V2 load(1, XDATA, add(CFA_XSP16, literal(-10)))
          CFI V1 load(1, XDATA, add(CFA_XSP16, literal(-11)))
          CFI V0 load(1, XDATA, add(CFA_XSP16, literal(-12)))
          CFI VB load(1, XDATA, add(CFA_XSP16, literal(-13)))
          CFI R6 load(1, XDATA, add(CFA_XSP16, literal(-14)))
          CFI CFA_SP SP+0
          CFI CFA_XSP16 add(XSP16, 14)
        ; Saved register size: 14
        ; Auto size: 0
        MOV     A,R2
        MOV     R6,A
        MOV     A,R3
        MOV     R7,A
        MOV     ?V2,R4
        MOV     ?V3,R5
// 1467   uint16 length;
// 1468   uint16 offset;
// 1469 
// 1470   offset = findItem( id );
        ; Setup parameters for call to function findItem
        LCALL   `??findItem::?relay` ; Banked call to: findItem
        MOV     ?V0,R2
        MOV     ?V1,R3
// 1471   if ( offset == OSAL_NV_ITEM_NULL )
        MOV     A,R2
        ORL     A,?V1
        JNZ     ??osal_nv_delete_0
// 1472   {
// 1473     // NV item does not exist
// 1474     return NV_ITEM_UNINIT;
        MOV     R1,#0x9
        SJMP    ??osal_nv_delete_1
// 1475   }
// 1476 
// 1477   length = osal_nv_item_len( id );
// 1478   if ( length != len )
??osal_nv_delete_0:
        ; Setup parameters for call to function osal_nv_item_len
        MOV     A,R6
        MOV     R2,A
        MOV     A,R7
        MOV     R3,A
        LCALL   `??osal_nv_item_len::?relay`; Banked call to: osal_nv_item_len
        MOV     ?V4,R2
        MOV     ?V5,R3
        MOV     A,?V2
        XRL     A,?V4
        JNZ     ??osal_nv_delete_2
        MOV     A,?V3
        XRL     A,?V5
??osal_nv_delete_2:
        JZ      ??osal_nv_delete_3
// 1479   {
// 1480     // NV item has different length
// 1481     return NV_BAD_ITEM_LEN;
        MOV     R1,#0xc
        SJMP    ??osal_nv_delete_1
// 1482   }
// 1483 
// 1484   // Set item header ID to zero to 'delete' the item
// 1485   setItem( findPg, offset, eNvZero );
??osal_nv_delete_3:
        ; Setup parameters for call to function setItem
        MOV     R4,#0x1
        MOV     R2,?V0
        MOV     R3,?V1
        MOV     DPTR,#findPg
        MOVX    A,@DPTR
        MOV     R1,A
        LCALL   `??setItem::?relay`  ; Banked call to: setItem
// 1486 
// 1487   // Verify that item has been removed
// 1488   offset = findItem( id );
// 1489   if ( offset != OSAL_NV_ITEM_NULL )
        ; Setup parameters for call to function findItem
        MOV     A,R6
        MOV     R2,A
        MOV     A,R7
        MOV     R3,A
        LCALL   `??findItem::?relay` ; Banked call to: findItem
        MOV     ?V1,R3
        MOV     A,R2
        ORL     A,?V1
        JZ      ??osal_nv_delete_4
// 1490   {
// 1491     // Still there
// 1492     return NV_OPER_FAILED;
        MOV     R1,#0xa
        SJMP    ??osal_nv_delete_1
// 1493   }
// 1494   else
// 1495   {
// 1496     // Yes, it's gone
// 1497     return SUCCESS;
??osal_nv_delete_4:
        MOV     R1,#0x0
// 1498   }
??osal_nv_delete_1:
        LJMP    ?Subroutine5 & 0xFFFF
// 1499 }
          CFI EndBlock cfiBlock201

        RSEG BANK_RELAYS:CODE:REORDER:NOROOT(0)
`??initNV::?relay`:
        CODE
        LCALL   ?BDISPATCH
        DATA24
        DC24    initNV

        RSEG BANK_RELAYS:CODE:REORDER:NOROOT(0)
`??initPage::?relay`:
        CODE
        LCALL   ?BDISPATCH
        DATA24
        DC24    initPage

        RSEG BANK_RELAYS:CODE:REORDER:NOROOT(0)
`??erasePage::?relay`:
        CODE
        LCALL   ?BDISPATCH
        DATA24
        DC24    erasePage

        RSEG BANK_RELAYS:CODE:REORDER:NOROOT(0)
`??compactPage::?relay`:
        CODE
        LCALL   ?BDISPATCH
        DATA24
        DC24    compactPage

        RSEG BANK_RELAYS:CODE:REORDER:NOROOT(0)
`??findItem::?relay`:
        CODE
        LCALL   ?BDISPATCH
        DATA24
        DC24    findItem

        RSEG BANK_RELAYS:CODE:REORDER:NOROOT(0)
`??initItem::?relay`:
        CODE
        LCALL   ?BDISPATCH
        DATA24
        DC24    initItem

        RSEG BANK_RELAYS:CODE:REORDER:NOROOT(0)
`??setItem::?relay`:
        CODE
        LCALL   ?BDISPATCH
        DATA24
        DC24    setItem

        RSEG BANK_RELAYS:CODE:REORDER:NOROOT(0)
`??setChk::?relay`:
        CODE
        LCALL   ?BDISPATCH
        DATA24
        DC24    setChk

        RSEG BANK_RELAYS:CODE:REORDER:NOROOT(0)
`??calcChkF::?relay`:
        CODE
        LCALL   ?BDISPATCH
        DATA24
        DC24    calcChkF

        RSEG BANK_RELAYS:CODE:REORDER:NOROOT(0)
`??writeWordH::?relay`:
        CODE
        LCALL   ?BDISPATCH
        DATA24
        DC24    writeWordH

        RSEG BANK_RELAYS:CODE:REORDER:NOROOT(0)
`??writeBuf::?relay`:
        CODE
        LCALL   ?BDISPATCH
        DATA24
        DC24    writeBuf

        RSEG BANK_RELAYS:CODE:REORDER:NOROOT(0)
`??xferBuf::?relay`:
        CODE
        LCALL   ?BDISPATCH
        DATA24
        DC24    xferBuf

        RSEG BANK_RELAYS:CODE:REORDER:NOROOT(0)
`??writeItem::?relay`:
        CODE
        LCALL   ?BDISPATCH
        DATA24
        DC24    writeItem

        RSEG BANK_RELAYS:CODE:REORDER:NOROOT(0)
`??hotItem::?relay`:
        CODE
        LCALL   ?BDISPATCH
        DATA24
        DC24    hotItem

        RSEG BANK_RELAYS:CODE:REORDER:NOROOT(0)
`??hotItemUpdate::?relay`:
        CODE
        LCALL   ?BDISPATCH
        DATA24
        DC24    hotItemUpdate

        RSEG BANK_RELAYS:CODE:REORDER:NOROOT(0)
`??osal_nv_init::?relay`:
        CODE
        LCALL   ?BDISPATCH
        DATA24
        DC24    osal_nv_init

        RSEG BANK_RELAYS:CODE:REORDER:NOROOT(0)
`??osal_nv_item_init::?relay`:
        CODE
        LCALL   ?BDISPATCH
        DATA24
        DC24    osal_nv_item_init

        RSEG BANK_RELAYS:CODE:REORDER:NOROOT(0)
`??osal_nv_item_len::?relay`:
        CODE
        LCALL   ?BDISPATCH
        DATA24
        DC24    osal_nv_item_len

        RSEG BANK_RELAYS:CODE:REORDER:NOROOT(0)
`??osal_nv_write::?relay`:
        CODE
        LCALL   ?BDISPATCH
        DATA24
        DC24    osal_nv_write

        RSEG BANK_RELAYS:CODE:REORDER:NOROOT(0)
`??osal_nv_read::?relay`:
        CODE
        LCALL   ?BDISPATCH
        DATA24
        DC24    osal_nv_read

        RSEG BANK_RELAYS:CODE:REORDER:NOROOT(0)
`??osal_nv_delete::?relay`:
        CODE
        LCALL   ?BDISPATCH
        DATA24
        DC24    osal_nv_delete

        END
// 1500 
// 1501 /*********************************************************************
// 1502  */
// 
//  6 460 bytes in segment BANKED_CODE
//    126 bytes in segment BANK_RELAYS
//      6 bytes in segment XDATA_ROM_C
//     35 bytes in segment XDATA_Z
// 12 288 bytes in segment ZIGNV_ADDRESS_SPACE
// 
//  6 586 bytes of CODE  memory
//      6 bytes of CONST memory
// 12 323 bytes of XDATA memory
//
//Errors: none
//Warnings: none
