///////////////////////////////////////////////////////////////////////////////
//
// IAR C/C++ Compiler V9.20.1.2476 for 8051               13/Mar/2016  23:19:58
// Copyright 2004-2015 IAR Systems AB.
// Standalone license - IAR Embedded Workbench for 8051
//
//    Core               =  plain
//    Code model         =  banked
//    Data model         =  large
//    Calling convention =  xdata reentrant
//    Constant location  =  data_rom
//    Dptr setup         =  1,16
//                          
//    Source file        =  
//        C:\Users\Bart\Documents\GitHub\WTSN\Projects\zstack\Project\Eindopdracht\Source\DemoCoordinator.c
//    Command line       =  
//        -f
//        C:\Users\Bart\Documents\GitHub\WTSN\Projects\zstack\Project\Eindopdracht\CC2530DB\..\..\..\Tools\CC2530DB\f8wCoord.cfg
//        (-DCPU32MHZ -DROOT=__near_func -DMAC_CFG_APP_PENDING_QUEUE=TRUE
//        -DMAC_CFG_TX_DATA_MAX=5 -DMAC_CFG_TX_MAX=8 -DMAC_CFG_RX_MAX=5
//        -DZDO_COORDINATOR -DRTR_NWK) -f
//        C:\Users\Bart\Documents\GitHub\WTSN\Projects\zstack\Project\Eindopdracht\CC2530DB\..\..\..\Tools\CC2530DB\f8wConfig.cfg
//        (-DZIGBEEPRO -DSECURE=0 -DZG_SECURE_DYNAMIC=0 -DREFLECTOR
//        -DDEFAULT_CHANLIST=0x04000000 -DZDAPP_CONFIG_PAN_ID=0x0EEE
//        -DNWK_START_DELAY=100 -DEXTENDED_JOINING_RANDOM_MASK=0x007F
//        -DBEACON_REQUEST_DELAY=100 -DBEACON_REQ_DELAY_MASK=0x00FF
//        -DLINK_STATUS_JITTER_MASK=0x007F -DROUTE_EXPIRY_TIME=30
//        -DAPSC_ACK_WAIT_DURATION_POLLED=3000 -DNWK_INDIRECT_MSG_TIMEOUT=7
//        -DMAX_RREQ_ENTRIES=8 -DAPSC_MAX_FRAME_RETRIES=3
//        -DNWK_MAX_DATA_RETRIES=2 -DMAX_POLL_FAILURE_RETRIES=2 -DMAX_BCAST=9
//        -DAPS_MAX_GROUPS=16 -DMAX_RTG_ENTRIES=40 -DNWK_MAX_BINDING_ENTRIES=4
//        -DMAX_BINDING_CLUSTER_IDS=4 "-DDEFAULT_KEY={0x01, 0x03, 0x05, 0x07,
//        0x09, 0x0B, 0x0D, 0x0F, 0x00, 0x02, 0x04, 0x06, 0x08, 0x0A, 0x0C,
//        0x0D}" -DMAC_MAX_FRAME_SIZE=116 -DZDNWKMGR_MIN_TRANSMISSIONS=20
//        "-DCONST=const __code" -DGENERIC=__generic -DRFD_RCVC_ALWAYS_ON=FALSE
//        -DPOLL_RATE=1000 -DQUEUED_POLL_RATE=100 -DRESPONSE_POLL_RATE=100)
//        -DREJOIN_POLL_RATE=440
//        C:\Users\Bart\Documents\GitHub\WTSN\Projects\zstack\Project\Eindopdracht\Source\DemoCoordinator.c
//        -D HOLD_AUTO_START -D BUILD_ALL_DEVICES -D REFLECTOR -D NV_INIT -D
//        xNV_RESTORE -D ZTOOL_P1 -lC
//        C:\Users\Bart\Documents\GitHub\WTSN\Projects\zstack\Project\Eindopdracht\CC2530DB\CoordinatorEB\List\
//        -lA
//        C:\Users\Bart\Documents\GitHub\WTSN\Projects\zstack\Project\Eindopdracht\CC2530DB\CoordinatorEB\List\
//        --diag_suppress Pe001,Pa010,Pe1665 -o
//        C:\Users\Bart\Documents\GitHub\WTSN\Projects\zstack\Project\Eindopdracht\CC2530DB\CoordinatorEB\Obj\
//        -e --debug --core=plain --dptr=16,1 --data_model=large
//        --code_model=banked --calling_convention=xdata_reentrant
//        --place_constants=data_rom --nr_virtual_regs 16 -I
//        C:\Users\Bart\Documents\GitHub\WTSN\Projects\zstack\Project\Eindopdracht\CC2530DB\
//        -I
//        C:\Users\Bart\Documents\GitHub\WTSN\Projects\zstack\Project\Eindopdracht\CC2530DB\..\Source\
//        -I
//        C:\Users\Bart\Documents\GitHub\WTSN\Projects\zstack\Project\Eindopdracht\CC2530DB\..\..\..\ZMain\TI2530DB\
//        -I
//        C:\Users\Bart\Documents\GitHub\WTSN\Projects\zstack\Project\Eindopdracht\CC2530DB\..\..\..\..\..\Components\hal\include\
//        -I
//        C:\Users\Bart\Documents\GitHub\WTSN\Projects\zstack\Project\Eindopdracht\CC2530DB\..\..\..\..\..\Components\hal\target\CC2530EB\
//        -I
//        C:\Users\Bart\Documents\GitHub\WTSN\Projects\zstack\Project\Eindopdracht\CC2530DB\..\..\..\..\..\Components\mac\include\
//        -I
//        C:\Users\Bart\Documents\GitHub\WTSN\Projects\zstack\Project\Eindopdracht\CC2530DB\..\..\..\..\..\Components\mac\high_level\
//        -I
//        C:\Users\Bart\Documents\GitHub\WTSN\Projects\zstack\Project\Eindopdracht\CC2530DB\..\..\..\..\..\Components\mac\low_level\srf04\
//        -I
//        C:\Users\Bart\Documents\GitHub\WTSN\Projects\zstack\Project\Eindopdracht\CC2530DB\..\..\..\..\..\Components\mac\low_level\srf04\single_chip\
//        -I
//        C:\Users\Bart\Documents\GitHub\WTSN\Projects\zstack\Project\Eindopdracht\CC2530DB\..\..\..\..\..\Components\mt\
//        -I
//        C:\Users\Bart\Documents\GitHub\WTSN\Projects\zstack\Project\Eindopdracht\CC2530DB\..\..\..\..\..\Components\osal\include\
//        -I
//        C:\Users\Bart\Documents\GitHub\WTSN\Projects\zstack\Project\Eindopdracht\CC2530DB\..\..\..\..\..\Components\services\saddr\
//        -I
//        C:\Users\Bart\Documents\GitHub\WTSN\Projects\zstack\Project\Eindopdracht\CC2530DB\..\..\..\..\..\Components\services\sdata\
//        -I
//        C:\Users\Bart\Documents\GitHub\WTSN\Projects\zstack\Project\Eindopdracht\CC2530DB\..\..\..\..\..\Components\stack\af\
//        -I
//        C:\Users\Bart\Documents\GitHub\WTSN\Projects\zstack\Project\Eindopdracht\CC2530DB\..\..\..\..\..\Components\stack\nwk\
//        -I
//        C:\Users\Bart\Documents\GitHub\WTSN\Projects\zstack\Project\Eindopdracht\CC2530DB\..\..\..\..\..\Components\stack\sapi\
//        -I
//        C:\Users\Bart\Documents\GitHub\WTSN\Projects\zstack\Project\Eindopdracht\CC2530DB\..\..\..\..\..\Components\stack\sec\
//        -I
//        C:\Users\Bart\Documents\GitHub\WTSN\Projects\zstack\Project\Eindopdracht\CC2530DB\..\..\..\..\..\Components\stack\sys\
//        -I
//        C:\Users\Bart\Documents\GitHub\WTSN\Projects\zstack\Project\Eindopdracht\CC2530DB\..\..\..\..\..\Components\stack\zdo\
//        -I
//        C:\Users\Bart\Documents\GitHub\WTSN\Projects\zstack\Project\Eindopdracht\CC2530DB\..\..\..\..\..\Components\zmac\
//        -I
//        C:\Users\Bart\Documents\GitHub\WTSN\Projects\zstack\Project\Eindopdracht\CC2530DB\..\..\..\..\..\Components\zmac\f8w\
//        -Oh --require_prototypes
//    List file          =  
//        C:\Users\Bart\Documents\GitHub\WTSN\Projects\zstack\Project\Eindopdracht\CC2530DB\CoordinatorEB\List\DemoCoordinator.s51
//
///////////////////////////////////////////////////////////////////////////////

        NAME DemoCoordinator

        RTMODEL "__SystemLibrary", "CLib"
        RTMODEL "__calling_convention", "xdata_reentrant"
        RTMODEL "__code_model", "banked"
        RTMODEL "__core", "plain"
        RTMODEL "__data_model", "large"
        RTMODEL "__dptr_size", "16"
        RTMODEL "__extended_stack", "disabled"
        RTMODEL "__location_for_constants", "data"
        RTMODEL "__number_of_dptrs", "1"
        RTMODEL "__rt_version", "1"

        RSEG DOVERLAY:DATA:NOROOT(0)
        RSEG IOVERLAY:IDATA:NOROOT(0)
        RSEG ISTACK:IDATA:NOROOT(0)
        RSEG PSTACK:XDATA:NOROOT(0)
        RSEG XSTACK:XDATA:NOROOT(0)

        EXTERN ?V0
        EXTERN ?V1
        EXTERN ?V2
        EXTERN ?V3
        EXTERN ?ALLOC_XSTACK8
        EXTERN ?BANKED_ENTER_XDATA
        EXTERN ?BANKED_LEAVE_XDATA
        EXTERN ?BDISPATCH
        EXTERN ?BRET
        EXTERN ?DEALLOC_XSTACK8
        EXTERN ?PUSH_XSTACK8_X_FOUR
        EXTERN ?PUSH_XSTACK_I_FOUR
        EXTERN ?PUSH_XSTACK_I_ONE
        EXTERN ?PUSH_XSTACK_I_TWO
        EXTERN ?XSP
        EXTERN ?XSTACK_DISP0_8
        EXTERN ?XSTACK_DISP100_8
        EXTERN ?XSTACK_DISP101_8
        EXTERN __INIT_XDATA_I
        EXTERN __INIT_XDATA_Z

        PUBLIC `??uartRxCB::?relay`
        FUNCTION `??uartRxCB::?relay`,0203H
        PUBLIC `??zb_AllowBindConfirm::?relay`
        FUNCTION `??zb_AllowBindConfirm::?relay`,0203H
        PUBLIC `??zb_BindConfirm::?relay`
        FUNCTION `??zb_BindConfirm::?relay`,0203H
        PUBLIC `??zb_FindDeviceConfirm::?relay`
        FUNCTION `??zb_FindDeviceConfirm::?relay`,0203H
        PUBLIC `??zb_HandleKeys::?relay`
        FUNCTION `??zb_HandleKeys::?relay`,0203H
        PUBLIC `??zb_HandleOsalEvent::?relay`
        FUNCTION `??zb_HandleOsalEvent::?relay`,0203H
        PUBLIC `??zb_ReceiveDataIndication::?relay`
        FUNCTION `??zb_ReceiveDataIndication::?relay`,0203H
        PUBLIC `??zb_SendDataConfirm::?relay`
        FUNCTION `??zb_SendDataConfirm::?relay`,0203H
        PUBLIC `??zb_StartConfirm::?relay`
        FUNCTION `??zb_StartConfirm::?relay`,0203H
        PUBWEAK P0DIR
        PUBWEAK P0INP
        PUBWEAK P0SEL
        PUBWEAK P2INP
        PUBWEAK _A_P0
        PUBWEAK __Constant_64
        PUBLIC uartRxCB
        FUNCTION uartRxCB,0a1603H
        ARGFRAME XSTACK, 0, STACK
        LOCFRAME ISTACK, 1, STACK
        LOCFRAME XSTACK, 145, STACK
        PUBLIC zb_AllowBindConfirm
        FUNCTION zb_AllowBindConfirm,021203H
        ARGFRAME XSTACK, 0, STACK
        LOCFRAME ISTACK, 2, STACK
        PUBLIC zb_BindConfirm
        FUNCTION zb_BindConfirm,021203H
        ARGFRAME XSTACK, 0, STACK
        LOCFRAME XSTACK, 9, STACK
        PUBLIC zb_FindDeviceConfirm
        FUNCTION zb_FindDeviceConfirm,0203H
        ARGFRAME XSTACK, 0, STACK
        PUBLIC zb_HandleKeys
        FUNCTION zb_HandleKeys,021203H
        ARGFRAME XSTACK, 0, STACK
        LOCFRAME XSTACK, 9, STACK
        PUBLIC zb_HandleOsalEvent
        FUNCTION zb_HandleOsalEvent,0a1203H
        ARGFRAME XSTACK, 0, STACK
        LOCFRAME ISTACK, 1, STACK
        LOCFRAME XSTACK, 16, STACK
        PUBLIC zb_InCmdList
        PUBLIC zb_OutCmdList
        PUBLIC zb_ReceiveDataIndication
        FUNCTION zb_ReceiveDataIndication,0203H
        ARGFRAME XSTACK, 4, STACK
        LOCFRAME ISTACK, 2, STACK
        PUBLIC zb_SendDataConfirm
        FUNCTION zb_SendDataConfirm,0203H
        ARGFRAME XSTACK, 0, STACK
        PUBLIC zb_SimpleDesc
        PUBLIC zb_StartConfirm
        FUNCTION zb_StartConfirm,0a1203H
        ARGFRAME XSTACK, 0, STACK
        LOCFRAME XSTACK, 16, STACK
        
          CFI Names cfiNames0
          CFI StackFrame CFA_SP SP IDATA
          CFI StackFrame CFA_PSP16 PSP16 XDATA
          CFI StackFrame CFA_XSP16 XSP16 XDATA
          CFI StaticOverlayFrame CFA_IOVERLAY IOVERLAY
          CFI StaticOverlayFrame CFA_DOVERLAY DOVERLAY
          CFI Resource `PSW.CY`:1, `B.BR0`:1, `B.BR1`:1, `B.BR2`:1, `B.BR3`:1
          CFI Resource `B.BR4`:1, `B.BR5`:1, `B.BR6`:1, `B.BR7`:1, `VB.BR8`:1
          CFI Resource `VB.BR9`:1, `VB.BR10`:1, `VB.BR11`:1, `VB.BR12`:1
          CFI Resource `VB.BR13`:1, `VB.BR14`:1, `VB.BR15`:1, VB:8, B:8, A:8
          CFI Resource PSW:8, DPL0:8, DPH0:8, R0:8, R1:8, R2:8, R3:8, R4:8, R5:8
          CFI Resource R6:8, R7:8, V0:8, V1:8, V2:8, V3:8, V4:8, V5:8, V6:8, V7:8
          CFI Resource V8:8, V9:8, V10:8, V11:8, V12:8, V13:8, V14:8, V15:8, SP:8
          CFI Resource PSPH:8, PSPL:8, PSP16:16, XSPH:8, XSPL:8, XSP16:16
          CFI VirtualResource ?RET:24
          CFI Resource ?BRET_EXT:8
          CFI VirtualResource ?RET_HIGH:8, ?RET_LOW:8
          CFI ResourceParts PSP16 PSPH, PSPL
          CFI ResourceParts XSP16 XSPH, XSPL
          CFI ResourceParts ?RET ?BRET_EXT, ?RET_HIGH, ?RET_LOW
          CFI EndNames cfiNames0
        
          CFI Common cfiCommon0 Using cfiNames0
          CFI CodeAlign 1
          CFI DataAlign -1
          CFI ReturnAddress ?RET CODE
          CFI CFA_DOVERLAY Used
          CFI CFA_IOVERLAY Used
          CFI CFA_SP SP+-3
          CFI CFA_PSP16 PSP16+0
          CFI CFA_XSP16 XSP16+0
          CFI `PSW.CY` SameValue
          CFI `B.BR0` SameValue
          CFI `B.BR1` SameValue
          CFI `B.BR2` SameValue
          CFI `B.BR3` SameValue
          CFI `B.BR4` SameValue
          CFI `B.BR5` SameValue
          CFI `B.BR6` SameValue
          CFI `B.BR7` SameValue
          CFI `VB.BR8` SameValue
          CFI `VB.BR9` SameValue
          CFI `VB.BR10` SameValue
          CFI `VB.BR11` SameValue
          CFI `VB.BR12` SameValue
          CFI `VB.BR13` SameValue
          CFI `VB.BR14` SameValue
          CFI `VB.BR15` SameValue
          CFI VB SameValue
          CFI B Undefined
          CFI A Undefined
          CFI PSW SameValue
          CFI DPL0 SameValue
          CFI DPH0 SameValue
          CFI R0 Undefined
          CFI R1 Undefined
          CFI R2 Undefined
          CFI R3 Undefined
          CFI R4 Undefined
          CFI R5 Undefined
          CFI R6 SameValue
          CFI R7 SameValue
          CFI V0 SameValue
          CFI V1 SameValue
          CFI V2 SameValue
          CFI V3 SameValue
          CFI V4 SameValue
          CFI V5 SameValue
          CFI V6 SameValue
          CFI V7 SameValue
          CFI V8 SameValue
          CFI V9 SameValue
          CFI V10 SameValue
          CFI V11 SameValue
          CFI V12 SameValue
          CFI V13 SameValue
          CFI V14 SameValue
          CFI V15 SameValue
          CFI PSPH Undefined
          CFI PSPL Undefined
          CFI XSPH Undefined
          CFI XSPL Undefined
          CFI ?RET Concat
          CFI ?BRET_EXT Frame(CFA_SP, 3)
          CFI ?RET_HIGH Frame(CFA_SP, 2)
          CFI ?RET_LOW Frame(CFA_SP, 1)
          CFI EndCommon cfiCommon0
        
        
          CFI Common cfiCommon1 Using cfiNames0
          CFI CodeAlign 1
          CFI DataAlign -1
          CFI ReturnAddress ?RET CODE
          CFI CFA_DOVERLAY Used
          CFI CFA_IOVERLAY Used
          CFI CFA_SP SP+-2
          CFI CFA_PSP16 PSP16+0
          CFI CFA_XSP16 XSP16+0
          CFI `PSW.CY` SameValue
          CFI `B.BR0` SameValue
          CFI `B.BR1` SameValue
          CFI `B.BR2` SameValue
          CFI `B.BR3` SameValue
          CFI `B.BR4` SameValue
          CFI `B.BR5` SameValue
          CFI `B.BR6` SameValue
          CFI `B.BR7` SameValue
          CFI `VB.BR8` SameValue
          CFI `VB.BR9` SameValue
          CFI `VB.BR10` SameValue
          CFI `VB.BR11` SameValue
          CFI `VB.BR12` SameValue
          CFI `VB.BR13` SameValue
          CFI `VB.BR14` SameValue
          CFI `VB.BR15` SameValue
          CFI VB SameValue
          CFI B SameValue
          CFI A SameValue
          CFI PSW SameValue
          CFI DPL0 SameValue
          CFI DPH0 SameValue
          CFI R0 SameValue
          CFI R1 SameValue
          CFI R2 SameValue
          CFI R3 SameValue
          CFI R4 SameValue
          CFI R5 SameValue
          CFI R6 SameValue
          CFI R7 SameValue
          CFI V0 SameValue
          CFI V1 SameValue
          CFI V2 SameValue
          CFI V3 SameValue
          CFI V4 SameValue
          CFI V5 SameValue
          CFI V6 SameValue
          CFI V7 SameValue
          CFI V8 SameValue
          CFI V9 SameValue
          CFI V10 SameValue
          CFI V11 SameValue
          CFI V12 SameValue
          CFI V13 SameValue
          CFI V14 SameValue
          CFI V15 SameValue
          CFI PSPH Undefined
          CFI PSPL Undefined
          CFI XSPH Undefined
          CFI XSPL Undefined
          CFI ?RET Concat
          CFI ?BRET_EXT SameValue
          CFI ?RET_HIGH Frame(CFA_SP, 2)
          CFI ?RET_LOW Frame(CFA_SP, 1)
          CFI EndCommon cfiCommon1
        
HalLedSet           SYMBOL "HalLedSet"
`??HalLedSet::?relay` SYMBOL "?relay", HalLedSet
HalUARTRead         SYMBOL "HalUARTRead"
`??HalUARTRead::?relay` SYMBOL "?relay", HalUARTRead
HalUARTWrite        SYMBOL "HalUARTWrite"
`??HalUARTWrite::?relay` SYMBOL "?relay", HalUARTWrite
initUart            SYMBOL "initUart"
`??initUart::?relay` SYMBOL "?relay", initUart
osal_start_timerEx  SYMBOL "osal_start_timerEx"
`??osal_start_timerEx::?relay` SYMBOL "?relay", osal_start_timerEx
zb_AllowBind        SYMBOL "zb_AllowBind"
`??zb_AllowBind::?relay` SYMBOL "?relay", zb_AllowBind
zb_BindDevice       SYMBOL "zb_BindDevice"
`??zb_BindDevice::?relay` SYMBOL "?relay", zb_BindDevice
zb_SendDataRequest  SYMBOL "zb_SendDataRequest"
`??zb_SendDataRequest::?relay` SYMBOL "?relay", zb_SendDataRequest
zb_StartRequest     SYMBOL "zb_StartRequest"
`??zb_StartRequest::?relay` SYMBOL "?relay", zb_StartRequest
uartRxCB            SYMBOL "uartRxCB"
`??uartRxCB::?relay` SYMBOL "?relay", uartRxCB
zb_AllowBindConfirm SYMBOL "zb_AllowBindConfirm"
`??zb_AllowBindConfirm::?relay` SYMBOL "?relay", zb_AllowBindConfirm
zb_BindConfirm      SYMBOL "zb_BindConfirm"
`??zb_BindConfirm::?relay` SYMBOL "?relay", zb_BindConfirm
zb_FindDeviceConfirm SYMBOL "zb_FindDeviceConfirm"
`??zb_FindDeviceConfirm::?relay` SYMBOL "?relay", zb_FindDeviceConfirm
zb_HandleKeys       SYMBOL "zb_HandleKeys"
`??zb_HandleKeys::?relay` SYMBOL "?relay", zb_HandleKeys
zb_HandleOsalEvent  SYMBOL "zb_HandleOsalEvent"
`??zb_HandleOsalEvent::?relay` SYMBOL "?relay", zb_HandleOsalEvent
zb_ReceiveDataIndication SYMBOL "zb_ReceiveDataIndication"
`??zb_ReceiveDataIndication::?relay` SYMBOL "?relay", zb_ReceiveDataIndication
zb_SendDataConfirm  SYMBOL "zb_SendDataConfirm"
`??zb_SendDataConfirm::?relay` SYMBOL "?relay", zb_SendDataConfirm
zb_StartConfirm     SYMBOL "zb_StartConfirm"
`??zb_StartConfirm::?relay` SYMBOL "?relay", zb_StartConfirm

        EXTERN `??HalLedSet::?relay`
        FUNCTION `??HalLedSet::?relay`,00H
        EXTERN `??HalUARTRead::?relay`
        FUNCTION `??HalUARTRead::?relay`,00H
        EXTERN `??HalUARTWrite::?relay`
        FUNCTION `??HalUARTWrite::?relay`,00H
        EXTERN `??initUart::?relay`
        FUNCTION `??initUart::?relay`,00H
        EXTERN `??osal_start_timerEx::?relay`
        FUNCTION `??osal_start_timerEx::?relay`,00H
        EXTERN `??zb_AllowBind::?relay`
        FUNCTION `??zb_AllowBind::?relay`,00H
        EXTERN `??zb_BindDevice::?relay`
        FUNCTION `??zb_BindDevice::?relay`,00H
        EXTERN `??zb_SendDataRequest::?relay`
        FUNCTION `??zb_SendDataRequest::?relay`,00H
        EXTERN `??zb_StartRequest::?relay`
        FUNCTION `??zb_StartRequest::?relay`,00H
        EXTERN HalLedSet
        FUNCTION HalLedSet,0202H
        ARGFRAME ISTACK, 0, STACK
        ARGFRAME PSTACK, 0, STACK
        ARGFRAME XSTACK, 12, STACK
        ARGFRAME IOVERLAY, 0, STATIC
        ARGFRAME DOVERLAY, 0, STATIC
        EXTERN HalUARTRead
        FUNCTION HalUARTRead,0202H
        ARGFRAME ISTACK, 0, STACK
        ARGFRAME PSTACK, 0, STACK
        ARGFRAME XSTACK, 145, STACK
        ARGFRAME IOVERLAY, 0, STATIC
        ARGFRAME DOVERLAY, 0, STATIC
        EXTERN HalUARTWrite
        FUNCTION HalUARTWrite,0202H
        ARGFRAME ISTACK, 0, STACK
        ARGFRAME PSTACK, 0, STACK
        ARGFRAME XSTACK, 145, STACK
        ARGFRAME IOVERLAY, 0, STATIC
        ARGFRAME DOVERLAY, 0, STATIC
        EXTERN initUart
        FUNCTION initUart,0202H
        ARGFRAME ISTACK, 0, STACK
        ARGFRAME PSTACK, 0, STACK
        ARGFRAME XSTACK, 11, STACK
        ARGFRAME IOVERLAY, 0, STATIC
        ARGFRAME DOVERLAY, 0, STATIC
        EXTERN osal_start_timerEx
        FUNCTION osal_start_timerEx,0202H
        ARGFRAME ISTACK, 0, STACK
        ARGFRAME PSTACK, 0, STACK
        ARGFRAME XSTACK, 16, STACK
        ARGFRAME IOVERLAY, 0, STATIC
        ARGFRAME DOVERLAY, 0, STATIC
        EXTERN sapi_TaskID
        EXTERN zb_AllowBind
        FUNCTION zb_AllowBind,0202H
        ARGFRAME ISTACK, 2, STACK
        ARGFRAME PSTACK, 0, STACK
        ARGFRAME XSTACK, 12, STACK
        ARGFRAME IOVERLAY, 0, STATIC
        ARGFRAME DOVERLAY, 0, STATIC
        EXTERN zb_BindDevice
        FUNCTION zb_BindDevice,0202H
        ARGFRAME ISTACK, 2, STACK
        ARGFRAME PSTACK, 0, STACK
        ARGFRAME XSTACK, 0, STACK
        ARGFRAME IOVERLAY, 0, STATIC
        ARGFRAME DOVERLAY, 0, STATIC
        EXTERN zb_SendDataRequest
        FUNCTION zb_SendDataRequest,0202H
        ARGFRAME ISTACK, 0, STACK
        ARGFRAME PSTACK, 0, STACK
        ARGFRAME XSTACK, 16, STACK
        ARGFRAME IOVERLAY, 0, STATIC
        ARGFRAME DOVERLAY, 0, STATIC
        EXTERN zb_StartRequest
        FUNCTION zb_StartRequest,0202H
        ARGFRAME ISTACK, 0, STACK
        ARGFRAME PSTACK, 0, STACK
        ARGFRAME XSTACK, 11, STACK
        ARGFRAME IOVERLAY, 0, STATIC
        ARGFRAME DOVERLAY, 0, STATIC

// C:\Users\Bart\Documents\GitHub\WTSN\Projects\zstack\Project\Eindopdracht\Source\DemoCoordinator.c
//    1 /**************************************************************************************************
//    2   Filename:       DemoCoordinator.c
//    3 
//    4   Description:    Coordinator application for the sensor demo utilizing Simple API.
//    5 
//    6                   The collector node can be set in a state where it accepts
//    7                   incoming reports from the sensor nodes, and can send the reports
//    8                   via the UART to a PC tool. The collector node in this state
//    9                   functions as a gateway. The collector nodes that are not in the
//   10                   gateway node function as routers in the network.
//   11 
//   12 
//   13   Copyright 2009 Texas Instruments Incorporated. All rights reserved.
//   14 
//   15   IMPORTANT: Your use of this Software is limited to those specific rights
//   16   granted under the terms of a software license agreement between the user
//   17   who downloaded the software, his/her employer (which must be your employer)
//   18   and Texas Instruments Incorporated (the "License").  You may not use this
//   19   Software unless you agree to abide by the terms of the License. The License
//   20   limits your use, and you acknowledge, that the Software may not be modified,
//   21   copied or distributed unless embedded on a Texas Instruments microcontroller
//   22   or used solely and exclusively in conjunction with a Texas Instruments radio
//   23   frequency transceiver, which is integrated into your product.  Other than for
//   24   the foregoing purpose, you may not use, reproduce, copy, prepare derivative
//   25   works of, modify, distribute, perform, display or sell this Software and/or
//   26   its documentation for any purpose.
//   27 
//   28   YOU FURTHER ACKNOWLEDGE AND AGREE THAT THE SOFTWARE AND DOCUMENTATION ARE
//   29   PROVIDED “AS IS” WITHOUT WARRANTY OF ANY KIND, EITHER EXPRESS OR IMPLIED,
//   30   INCLUDING WITHOUT LIMITATION, ANY WARRANTY OF MERCHANTABILITY, TITLE,
//   31   NON-INFRINGEMENT AND FITNESS FOR A PARTICULAR PURPOSE. IN NO EVENT SHALL
//   32   TEXAS INSTRUMENTS OR ITS LICENSORS BE LIABLE OR OBLIGATED UNDER CONTRACT,
//   33   NEGLIGENCE, STRICT LIABILITY, CONTRIBUTION, BREACH OF WARRANTY, OR OTHER
//   34   LEGAL EQUITABLE THEORY ANY DIRECT OR INDIRECT DAMAGES OR EXPENSES
//   35   INCLUDING BUT NOT LIMITED TO ANY INCIDENTAL, SPECIAL, INDIRECT, PUNITIVE
//   36   OR CONSEQUENTIAL DAMAGES, LOST PROFITS OR LOST DATA, COST OF PROCUREMENT
//   37   OF SUBSTITUTE GOODS, TECHNOLOGY, SERVICES, OR ANY CLAIMS BY THIRD PARTIES
//   38   (INCLUDING BUT NOT LIMITED TO ANY DEFENSE THEREOF), OR OTHER SIMILAR COSTS.
//   39 
//   40   Should you have any questions regarding your right to use this Software,
//   41   contact Texas Instruments Incorporated at www.TI.com.
//   42 **************************************************************************************************/
//   43 
//   44 /******************************************************************************
//   45  * INCLUDES
//   46  */
//   47 
//   48 #include "ZComDef.h"
//   49 #include "OSAL.h"
//   50 #include "OSAL_Nv.h"
//   51 #include "sapi.h"
//   52 #include "hal_key.h"

        ASEGN SFR_AN:DATA:NOROOT,080H
// union <unnamed> volatile __sfr _A_P0
_A_P0:
        DATA8
        DS 1

        ASEGN SFR_AN:DATA:NOROOT,08fH
// unsigned char volatile __sfr P0INP
P0INP:
        DATA8
        DS 1

        ASEGN SFR_AN:DATA:NOROOT,0f3H
// unsigned char volatile __sfr P0SEL
P0SEL:
        DATA8
        DS 1

        ASEGN SFR_AN:DATA:NOROOT,0f7H
// unsigned char volatile __sfr P2INP
P2INP:
        DATA8
        DS 1

        ASEGN SFR_AN:DATA:NOROOT,0fdH
// unsigned char volatile __sfr P0DIR
P0DIR:
        DATA8
        DS 1
//   53 #include "hal_led.h"
//   54 #include "hal_lcd.h"
//   55 #include "hal_uart.h"
//   56 #include "DemoApp.h"
//   57 
//   58 /******************************************************************************
//   59  * CONSTANTS
//   60  */
//   61 
//   62 // General UART frame offsets
//   63 #define FRAME_SOF_OFFSET                    0
//   64 #define FRAME_LENGTH_OFFSET                 1
//   65 #define FRAME_CMD0_OFFSET                   2
//   66 #define FRAME_CMD1_OFFSET                   3
//   67 #define FRAME_DATA_OFFSET                   4
//   68 
//   69 // ZB_RECEIVE_DATA_INDICATION offsets
//   70 #define ZB_RECV_SRC_OFFSET                  0
//   71 #define ZB_RECV_CMD_OFFSET                  2
//   72 #define ZB_RECV_LEN_OFFSET                  4
//   73 #define ZB_RECV_DATA_OFFSET                 6
//   74 #define ZB_RECV_FCS_OFFSET                  8
//   75 
//   76 // ZB_RECEIVE_DATA_INDICATION frame length
//   77 #define ZB_RECV_LENGTH                      15
//   78 
//   79 // PING response frame length and offset
//   80 #define SYS_PING_RSP_LENGTH                 7
//   81 #define SYS_PING_CMD_OFFSET                 1
//   82 
//   83 // Stack Profile
//   84 #define ZIGBEE_2007                         0x0040
//   85 #define ZIGBEE_PRO_2007                     0x0041
//   86 
//   87 #ifdef ZIGBEEPRO
//   88 #define STACK_PROFILE                       ZIGBEE_PRO_2007
//   89 #else
//   90 #define STACK_PROFILE                       ZIGBEE_2007
//   91 #endif
//   92 
//   93 #define CPT_SOP                             0xFE
//   94 #define SYS_PING_REQUEST                    0x0021
//   95 #define SYS_PING_RESPONSE                   0x0161
//   96 #define ZB_RECEIVE_DATA_INDICATION          0x8746
//   97 
//   98 // Application States
//   99 #define APP_INIT                            0
//  100 #define APP_START                           2
//  101 
//  102 // Application osal event identifiers
//  103 #define MY_START_EVT                        0x0001
//  104 #define LOCK_CHECK_EVT                       0x0002
//  105 
//  106 /******************************************************************************
//  107  * TYPEDEFS
//  108  */
//  109 typedef struct
//  110 {
//  111   uint16              source;
//  112   uint16              parent;
//  113   uint8               temp;
//  114   uint8               voltage;
//  115 } gtwData_t;
//  116 
//  117 /******************************************************************************
//  118  * LOCAL VARIABLES
//  119  */
//  120 

        RSEG XDATA_Z:XDATA:NOROOT(0)
        DATA8
//  121 static uint8 appState =             APP_INIT;
appState:
        DS 1
        REQUIRE __INIT_XDATA_Z

        RSEG XDATA_I:XDATA:NOROOT(0)
//  122 static uint8 myStartRetryDelay =    10;          // milliseconds
myStartRetryDelay:
        DATA8
        DS 1
        REQUIRE `?<Initializer for myStartRetryDelay>`
        REQUIRE __INIT_XDATA_I
//  123 static gtwData_t gtwData;

        RSEG XDATA_I:XDATA:NOROOT(0)
//  124 static uint8 doorState         =        DOOR_OPEN;
doorState:
        DATA8
        DS 1
        REQUIRE `?<Initializer for doorState>`
        REQUIRE __INIT_XDATA_I

        RSEG XDATA_Z:XDATA:NOROOT(0)
        DATA8
//  125 static uint8 buttonState       =        0;
buttonState:
        DS 1
        REQUIRE __INIT_XDATA_Z
//  126 /******************************************************************************
//  127  * LOCAL FUNCTIONS
//  128  */
//  129 
//  130 static uint8 calcFCS(uint8 *pBuf, uint8 len);
//  131 static void sysPingReqRcvd(void);
//  132 static void sysPingRsp(void);
//  133 static void sendGtwReport(gtwData_t *gtwData);
//  134 
//  135 /******************************************************************************
//  136  * GLOBAL VARIABLES
//  137  */
//  138 
//  139 // Inputs and Outputs for Collector device
//  140 #define NUM_OUT_CMD_COLLECTOR           1
//  141 #define NUM_IN_CMD_COLLECTOR            1
//  142 
//  143 // List of output and input commands for Collector device

        RSEG XDATA_ROM_C:CONST:REORDER:NOROOT(0)
        DATA16
//  144 const cId_t zb_InCmdList[NUM_IN_CMD_COLLECTOR] =
zb_InCmdList:
        DW 1
//  145 {
//  146   LOCK_CONTROL_CMD_ID,
//  147 };

        RSEG XDATA_ROM_C:CONST:REORDER:NOROOT(0)
        DATA16
//  148 const cId_t zb_OutCmdList[NUM_OUT_CMD_COLLECTOR] =
zb_OutCmdList:
        DW 3
//  149 {
//  150   LOCK_STATUS_CMD_ID,
//  151 };
//  152 // Define SimpleDescriptor for Collector device

        RSEG XDATA_ROM_C:CONST:REORDER:NOROOT(0)
        DATA8
//  153 const SimpleDescriptionFormat_t zb_SimpleDesc =
zb_SimpleDesc:
        DB 2
        DATA16
        DW 3872
        DW 2
        DATA8
        DB 1
        DB 1
        DATA16
        DW zb_InCmdList
        DATA8
        DB 1
        DATA16
        DW zb_OutCmdList
//  154 {
//  155   MY_ENDPOINT_ID,             //  Endpoint
//  156   MY_PROFILE_ID,              //  Profile ID
//  157   DEV_ID_COLLECTOR,           //  Device ID
//  158   DEVICE_VERSION_COLLECTOR,   //  Device Version
//  159   0,                          //  Reserved
//  160   NUM_IN_CMD_COLLECTOR,       //  Number of Input Commands
//  161   (cId_t *) zb_InCmdList,     //  Input Command List
//  162   NUM_OUT_CMD_COLLECTOR,      //  Number of Output Commands
//  163   (cId_t *) zb_OutCmdList             //  Output Command List
//  164 };
//  165 
//  166 /******************************************************************************
//  167  * FUNCTIONS
//  168  */
//  169 
//  170 /******************************************************************************
//  171  * @fn          zb_HandleOsalEvent
//  172  *
//  173  * @brief       The zb_HandleOsalEvent function is called by the operating
//  174  *              system when a task event is set
//  175  *
//  176  * @param       event - Bitmask containing the events that have been set
//  177  *
//  178  * @return      none
//  179  */

        RSEG BANKED_CODE:CODE:NOROOT(0)
//  180 void zb_HandleOsalEvent( uint16 event )
zb_HandleOsalEvent:
          CFI Block cfiBlock0 Using cfiCommon0
          CFI Function zb_HandleOsalEvent
        CODE
//  181 {
        FUNCALL zb_HandleOsalEvent, initUart
        LOCFRAME ISTACK, 0, STACK
        LOCFRAME PSTACK, 0, STACK
        LOCFRAME XSTACK, 11, STACK
        LOCFRAME IOVERLAY, 0, STATIC
        LOCFRAME DOVERLAY, 0, STATIC
        ARGFRAME ISTACK, 0, STACK
        ARGFRAME PSTACK, 0, STACK
        ARGFRAME XSTACK, 11, STACK
        ARGFRAME IOVERLAY, 0, STATIC
        ARGFRAME DOVERLAY, 0, STATIC
        FUNCALL zb_HandleOsalEvent, osal_start_timerEx
        LOCFRAME ISTACK, 0, STACK
        LOCFRAME PSTACK, 0, STACK
        LOCFRAME XSTACK, 15, STACK
        LOCFRAME IOVERLAY, 0, STATIC
        LOCFRAME DOVERLAY, 0, STATIC
        ARGFRAME ISTACK, 0, STACK
        ARGFRAME PSTACK, 0, STACK
        ARGFRAME XSTACK, 15, STACK
        ARGFRAME IOVERLAY, 0, STATIC
        ARGFRAME DOVERLAY, 0, STATIC
        FUNCALL zb_HandleOsalEvent, zb_StartRequest
        LOCFRAME ISTACK, 0, STACK
        LOCFRAME PSTACK, 0, STACK
        LOCFRAME XSTACK, 11, STACK
        LOCFRAME IOVERLAY, 0, STATIC
        LOCFRAME DOVERLAY, 0, STATIC
        ARGFRAME ISTACK, 0, STACK
        ARGFRAME PSTACK, 0, STACK
        ARGFRAME XSTACK, 11, STACK
        ARGFRAME IOVERLAY, 0, STATIC
        ARGFRAME DOVERLAY, 0, STATIC
        FUNCALL zb_HandleOsalEvent, zb_StartRequest
        LOCFRAME ISTACK, 0, STACK
        LOCFRAME PSTACK, 0, STACK
        LOCFRAME XSTACK, 11, STACK
        LOCFRAME IOVERLAY, 0, STATIC
        LOCFRAME DOVERLAY, 0, STATIC
        ARGFRAME ISTACK, 0, STACK
        ARGFRAME PSTACK, 0, STACK
        ARGFRAME XSTACK, 11, STACK
        ARGFRAME IOVERLAY, 0, STATIC
        ARGFRAME DOVERLAY, 0, STATIC
        FUNCALL zb_HandleOsalEvent, zb_SendDataRequest
        LOCFRAME ISTACK, 0, STACK
        LOCFRAME PSTACK, 0, STACK
        LOCFRAME XSTACK, 16, STACK
        LOCFRAME IOVERLAY, 0, STATIC
        LOCFRAME DOVERLAY, 0, STATIC
        ARGFRAME ISTACK, 0, STACK
        ARGFRAME PSTACK, 0, STACK
        ARGFRAME XSTACK, 16, STACK
        ARGFRAME IOVERLAY, 0, STATIC
        ARGFRAME DOVERLAY, 0, STATIC
        FUNCALL zb_HandleOsalEvent, osal_start_timerEx
        LOCFRAME ISTACK, 0, STACK
        LOCFRAME PSTACK, 0, STACK
        LOCFRAME XSTACK, 15, STACK
        LOCFRAME IOVERLAY, 0, STATIC
        LOCFRAME DOVERLAY, 0, STATIC
        ARGFRAME ISTACK, 0, STACK
        ARGFRAME PSTACK, 0, STACK
        ARGFRAME XSTACK, 15, STACK
        ARGFRAME IOVERLAY, 0, STATIC
        ARGFRAME DOVERLAY, 0, STATIC
        REQUIRE ?V0
        REQUIRE ?V1
        MOV     A,#-0xa
        LCALL   ?BANKED_ENTER_XDATA
          CFI DPH0 load(1, XDATA, add(CFA_XSP16, literal(-1)))
          CFI DPL0 load(1, XDATA, add(CFA_XSP16, literal(-2)))
          CFI ?BRET_EXT load(1, XDATA, add(CFA_XSP16, literal(-3)))
          CFI ?RET_HIGH load(1, XDATA, add(CFA_XSP16, literal(-4)))
          CFI ?RET_LOW load(1, XDATA, add(CFA_XSP16, literal(-5)))
          CFI R7 load(1, XDATA, add(CFA_XSP16, literal(-6)))
          CFI V1 load(1, XDATA, add(CFA_XSP16, literal(-7)))
          CFI V0 load(1, XDATA, add(CFA_XSP16, literal(-8)))
          CFI VB load(1, XDATA, add(CFA_XSP16, literal(-9)))
          CFI R6 load(1, XDATA, add(CFA_XSP16, literal(-10)))
          CFI CFA_SP SP+0
          CFI CFA_XSP16 add(XSP16, 10)
        ; Saved register size: 10
        ; Auto size: 1
        MOV     A,#-0x1
        LCALL   ?ALLOC_XSTACK8
          CFI CFA_XSP16 add(XSP16, 11)
        MOV     A,R2
        MOV     R6,A
        MOV     A,R3
//  182   if( event & SYS_EVENT_MSG )
//  183   {
//  184   }
//  185 
//  186   if( event & ZB_ENTRY_EVENT )
        ANL     A,#0x10
        JZ      ??zb_HandleOsalEvent_0
//  187   {
//  188     // Initialise UART
//  189     initUart(uartRxCB);
        ; Setup parameters for call to function initUart
        MOV     R2,#`??uartRxCB::?relay` & 0xff
        MOV     R3,#(`??uartRxCB::?relay` >> 8) & 0xff
        LCALL   `??initUart::?relay` ; Banked call to: initUart
//  190     osal_start_timerEx( sapi_TaskID, LOCK_CHECK_EVT , 100 );
        ; Setup parameters for call to function osal_start_timerEx
        MOV     DPTR,#__Constant_64
        LCALL   ?PUSH_XSTACK8_X_FOUR
          CFI CFA_XSP16 add(XSP16, 15)
        MOV     R2,#0x2
        MOV     R3,#0x0
        MOV     DPTR,#sapi_TaskID
        MOVX    A,@DPTR
        MOV     R1,A
        LCALL   `??osal_start_timerEx::?relay`; Banked call to: osal_start_timerEx
        MOV     A,#0x4
        LCALL   ?DEALLOC_XSTACK8
          CFI CFA_XSP16 add(XSP16, 11)
//  191 
//  192     
//  193     // Start the device
//  194     zb_StartRequest();
        ; Setup parameters for call to function zb_StartRequest
        LCALL   `??zb_StartRequest::?relay`; Banked call to: zb_StartRequest
//  195   }
//  196 
//  197   if ( event & MY_START_EVT )
??zb_HandleOsalEvent_0:
        MOV     A,R6
        MOV     C,0xE0 /* A   */.0
        JNC     ??zb_HandleOsalEvent_1
//  198   {
//  199     zb_StartRequest();
        ; Setup parameters for call to function zb_StartRequest
        LCALL   `??zb_StartRequest::?relay`; Banked call to: zb_StartRequest
//  200   }
//  201   if (event & LOCK_CHECK_EVT ){
??zb_HandleOsalEvent_1:
        MOV     A,R6
        ANL     A,#0x2
        JZ      ??zb_HandleOsalEvent_2
//  202         int buttonStateNew = (MCU_IO_GET(0,2) == 0);
        MOV     C,0x80.2
        JC      ??zb_HandleOsalEvent_3
        SETB    B.0
        SJMP    ??zb_HandleOsalEvent_4
??zb_HandleOsalEvent_3:
        CLR     B.0
??zb_HandleOsalEvent_4:
        MOV     C,B.0
        CLR     A
        RLC     A
        MOV     R6,A
//  203         if (buttonState != buttonStateNew){
        MOV     DPTR,#buttonState
        MOVX    A,@DPTR
        PUSH    A
          CFI CFA_SP SP+-1
        MOV     A,R6
        MOV     R0,A
        POP     A
          CFI CFA_SP SP+0
        XRL     A,R0
        JZ      ??zb_HandleOsalEvent_5
//  204           uint8 pData[LOCK_CMD_LENGTH];
//  205           pData[LOCK_CMD_OFFSET] = buttonStateNew;
        MOV     A,R6
        MOV     DPL,?XSP + 0
        MOV     DPH,?XSP + 1
        MOVX    @DPTR,A
//  206           uint8 txOptions;
//  207           zb_SendDataRequest( 0xFFFE, LOCK_STATUS_CMD_ID, LOCK_CMD_LENGTH , pData, 0, txOptions, 0 );
        ; Setup parameters for call to function zb_SendDataRequest
        MOV     ?V0,#0x0
        MOV     R0,#?V0
        LCALL   ?PUSH_XSTACK_I_ONE
          CFI CFA_XSP16 add(XSP16, 12)
        MOV     R0,#?V0
        LCALL   ?PUSH_XSTACK_I_ONE
          CFI CFA_XSP16 add(XSP16, 13)
        MOV     R0,#?V0
        LCALL   ?PUSH_XSTACK_I_ONE
          CFI CFA_XSP16 add(XSP16, 14)
        MOV     A,#0x3
        LCALL   ?XSTACK_DISP100_8
        MOV     ?V0,R0
        MOV     ?V1,R1
        MOV     R0,#?V0
        LCALL   ?PUSH_XSTACK_I_TWO
          CFI CFA_XSP16 add(XSP16, 16)
        MOV     R1,#0x1
        MOV     R4,#0x3
        MOV     R5,#0x0
        MOV     R2,#-0x2
        MOV     R3,#-0x1
        LCALL   `??zb_SendDataRequest::?relay`; Banked call to: zb_SendDataRequest
        MOV     A,#0x5
        LCALL   ?DEALLOC_XSTACK8
          CFI CFA_XSP16 add(XSP16, 11)
//  208           buttonState = buttonStateNew;
        MOV     A,R6
        MOV     DPTR,#buttonState
        MOVX    @DPTR,A
//  209         }
//  210         osal_start_timerEx( sapi_TaskID, LOCK_CHECK_EVT , 100 );
??zb_HandleOsalEvent_5:
        ; Setup parameters for call to function osal_start_timerEx
        MOV     DPTR,#__Constant_64
        LCALL   ?PUSH_XSTACK8_X_FOUR
          CFI CFA_XSP16 add(XSP16, 15)
        MOV     R2,#0x2
        MOV     R3,#0x0
        MOV     DPTR,#sapi_TaskID
        MOVX    A,@DPTR
        MOV     R1,A
        LCALL   `??osal_start_timerEx::?relay`; Banked call to: osal_start_timerEx
        MOV     A,#0x4
        LCALL   ?DEALLOC_XSTACK8
          CFI CFA_XSP16 add(XSP16, 11)
//  211   }
//  212 }
??zb_HandleOsalEvent_2:
        MOV     A,#0x1
          CFI EndBlock cfiBlock0
        REQUIRE ?Subroutine0
        REQUIRE _A_P0
        ; // Fall through to label ?Subroutine0

        RSEG BANKED_CODE:CODE:NOROOT(0)
?Subroutine0:
          CFI Block cfiBlock1 Using cfiCommon0
          CFI NoFunction
          CFI CFA_SP SP+0
          CFI CFA_XSP16 add(XSP16, 11)
          CFI VB load(1, XDATA, add(CFA_XSP16, literal(-9)))
          CFI DPL0 load(1, XDATA, add(CFA_XSP16, literal(-2)))
          CFI DPH0 load(1, XDATA, add(CFA_XSP16, literal(-1)))
          CFI R6 load(1, XDATA, add(CFA_XSP16, literal(-10)))
          CFI R7 load(1, XDATA, add(CFA_XSP16, literal(-6)))
          CFI V0 load(1, XDATA, add(CFA_XSP16, literal(-8)))
          CFI V1 load(1, XDATA, add(CFA_XSP16, literal(-7)))
          CFI ?BRET_EXT load(1, XDATA, add(CFA_XSP16, literal(-3)))
          CFI ?RET_HIGH load(1, XDATA, add(CFA_XSP16, literal(-4)))
          CFI ?RET_LOW load(1, XDATA, add(CFA_XSP16, literal(-5)))
          CFI Invalid
        LCALL   ?DEALLOC_XSTACK8
          CFI CFA_XSP16 add(XSP16, 10)
          CFI Valid
        MOV     R7,#0x2
        LJMP    ?BANKED_LEAVE_XDATA
          CFI CFA_SP SP+-3
          CFI CFA_XSP16 XSP16+0
          CFI VB SameValue
          CFI DPL0 SameValue
          CFI DPH0 SameValue
          CFI R6 SameValue
          CFI R7 SameValue
          CFI V0 SameValue
          CFI V1 SameValue
          CFI ?BRET_EXT Frame(CFA_SP, 3)
          CFI ?RET_HIGH Frame(CFA_SP, 2)
          CFI ?RET_LOW Frame(CFA_SP, 1)
          CFI EndBlock cfiBlock1
//  213 
//  214 /******************************************************************************
//  215  * @fn      zb_HandleKeys
//  216  *
//  217  * @brief   Handles all key events for this device.
//  218  *
//  219  * @param   shift - true if in shift/alt.
//  220  * @param   keys - bit field for key events. Valid entries:
//  221  *                 EVAL_SW4
//  222  *                 EVAL_SW3
//  223  *                 EVAL_SW2
//  224  *                 EVAL_SW1
//  225  *
//  226  * @return  none
//  227  */

        RSEG BANKED_CODE:CODE:NOROOT(0)
//  228 void zb_HandleKeys( uint8 shift, uint8 keys )
zb_HandleKeys:
          CFI Block cfiBlock2 Using cfiCommon0
          CFI Function zb_HandleKeys
        CODE
//  229 {
        FUNCALL zb_HandleKeys, zb_AllowBind
        LOCFRAME ISTACK, 0, STACK
        LOCFRAME PSTACK, 0, STACK
        LOCFRAME XSTACK, 9, STACK
        LOCFRAME IOVERLAY, 0, STATIC
        LOCFRAME DOVERLAY, 0, STATIC
        ARGFRAME ISTACK, 0, STACK
        ARGFRAME PSTACK, 0, STACK
        ARGFRAME XSTACK, 9, STACK
        ARGFRAME IOVERLAY, 0, STATIC
        ARGFRAME DOVERLAY, 0, STATIC
        FUNCALL zb_HandleKeys, zb_AllowBind
        LOCFRAME ISTACK, 0, STACK
        LOCFRAME PSTACK, 0, STACK
        LOCFRAME XSTACK, 9, STACK
        LOCFRAME IOVERLAY, 0, STATIC
        LOCFRAME DOVERLAY, 0, STATIC
        ARGFRAME ISTACK, 0, STACK
        ARGFRAME PSTACK, 0, STACK
        ARGFRAME XSTACK, 9, STACK
        ARGFRAME IOVERLAY, 0, STATIC
        ARGFRAME DOVERLAY, 0, STATIC
        MOV     A,#-0x9
        LCALL   ?BANKED_ENTER_XDATA
          CFI DPH0 load(1, XDATA, add(CFA_XSP16, literal(-1)))
          CFI DPL0 load(1, XDATA, add(CFA_XSP16, literal(-2)))
          CFI ?BRET_EXT load(1, XDATA, add(CFA_XSP16, literal(-3)))
          CFI ?RET_HIGH load(1, XDATA, add(CFA_XSP16, literal(-4)))
          CFI ?RET_LOW load(1, XDATA, add(CFA_XSP16, literal(-5)))
          CFI R7 load(1, XDATA, add(CFA_XSP16, literal(-6)))
          CFI V0 load(1, XDATA, add(CFA_XSP16, literal(-7)))
          CFI VB load(1, XDATA, add(CFA_XSP16, literal(-8)))
          CFI R6 load(1, XDATA, add(CFA_XSP16, literal(-9)))
          CFI CFA_SP SP+0
          CFI CFA_XSP16 add(XSP16, 9)
        ; Saved register size: 9
        ; Auto size: 0
        MOV     A,R1
        MOV     R6,A
        MOV     A,R2
        MOV     R7,A
//  230   static uint8 allowBind = FALSE;
//  231 
//  232   // Shift is used to make each button/switch dual purpose.
//  233   if ( shift )
        MOV     A,R6
        JNZ     ??zb_HandleKeys_0
//  234   {
//  235     if ( keys & HAL_KEY_SW_1 )
//  236     {
//  237     }
//  238     if ( keys & HAL_KEY_SW_2 )
//  239     {
//  240     }
//  241     if ( keys & HAL_KEY_SW_3 )
//  242     {
//  243     }
//  244     if ( keys & HAL_KEY_SW_4 )
//  245     {
//  246     }
//  247   }
//  248   else
//  249   {
//  250     if ( keys & HAL_KEY_SW_1 )
        MOV     A,R7
        MOV     C,0xE0 /* A   */.0
        JNC     ??zb_HandleKeys_0
//  251     {
//  252       if ( appState == APP_START )
        MOV     DPTR,#appState
        MOVX    A,@DPTR
        XRL     A,#0x2
        JNZ     ??zb_HandleKeys_0
//  253       {
//  254         allowBind ^= 1;
        MOV     DPTR,#??allowBind
        MOVX    A,@DPTR
        XRL     A,#0x1
        MOVX    @DPTR,A
//  255         if ( allowBind )
        JZ      ??zb_HandleKeys_1
//  256         {
//  257           // Turn ON Allow Bind mode infinitly
//  258           zb_AllowBind( 0xFF );
        ; Setup parameters for call to function zb_AllowBind
        MOV     R1,#-0x1
        SJMP    ??zb_HandleKeys_2
//  259         }
//  260         else
//  261         {
//  262           // Turn OFF Allow Bind mode infinitly
//  263           zb_AllowBind( 0x00 );
??zb_HandleKeys_1:
        ; Setup parameters for call to function zb_AllowBind
        MOV     R1,#0x0
??zb_HandleKeys_2:
        LCALL   `??zb_AllowBind::?relay`; Banked call to: zb_AllowBind
//  264         }
//  265       }
//  266     }
//  267     if ( keys & HAL_KEY_SW_2 )
//  268     {
//  269     }
//  270     if ( keys & HAL_KEY_SW_3 )
//  271     {
//  272     }
//  273     if ( keys & HAL_KEY_SW_4 )
//  274     {
//  275     }
//  276   }
//  277 }
??zb_HandleKeys_0:
          CFI EndBlock cfiBlock2
        REQUIRE ?Subroutine1
        ; // Fall through to label ?Subroutine1

        RSEG BANKED_CODE:CODE:NOROOT(0)
?Subroutine1:
          CFI Block cfiBlock3 Using cfiCommon0
          CFI NoFunction
          CFI CFA_SP SP+0
          CFI CFA_XSP16 add(XSP16, 9)
          CFI VB load(1, XDATA, add(CFA_XSP16, literal(-8)))
          CFI DPL0 load(1, XDATA, add(CFA_XSP16, literal(-2)))
          CFI DPH0 load(1, XDATA, add(CFA_XSP16, literal(-1)))
          CFI R6 load(1, XDATA, add(CFA_XSP16, literal(-9)))
          CFI R7 load(1, XDATA, add(CFA_XSP16, literal(-6)))
          CFI V0 load(1, XDATA, add(CFA_XSP16, literal(-7)))
          CFI ?BRET_EXT load(1, XDATA, add(CFA_XSP16, literal(-3)))
          CFI ?RET_HIGH load(1, XDATA, add(CFA_XSP16, literal(-4)))
          CFI ?RET_LOW load(1, XDATA, add(CFA_XSP16, literal(-5)))
        MOV     R7,#0x1
        LJMP    ?BANKED_LEAVE_XDATA
          CFI CFA_SP SP+-3
          CFI CFA_XSP16 XSP16+0
          CFI VB SameValue
          CFI DPL0 SameValue
          CFI DPH0 SameValue
          CFI R6 SameValue
          CFI R7 SameValue
          CFI V0 SameValue
          CFI ?BRET_EXT Frame(CFA_SP, 3)
          CFI ?RET_HIGH Frame(CFA_SP, 2)
          CFI ?RET_LOW Frame(CFA_SP, 1)
          CFI EndBlock cfiBlock3

        RSEG XDATA_Z:XDATA:NOROOT(0)
        DATA8
??allowBind:
        DS 1
        REQUIRE __INIT_XDATA_Z
//  278 
//  279 /******************************************************************************
//  280  * @fn          zb_StartConfirm
//  281  *
//  282  * @brief       The zb_StartConfirm callback is called by the ZigBee stack
//  283  *              after a start request operation completes
//  284  *
//  285  * @param       status - The status of the start operation.  Status of
//  286  *                       ZB_SUCCESS indicates the start operation completed
//  287  *                       successfully.  Else the status is an error code.
//  288  *
//  289  * @return      none
//  290  */

        RSEG BANKED_CODE:CODE:NOROOT(0)
//  291 void zb_StartConfirm( uint8 status )
zb_StartConfirm:
          CFI Block cfiBlock4 Using cfiCommon0
          CFI Function zb_StartConfirm
        CODE
//  292 {
        FUNCALL zb_StartConfirm, zb_AllowBind
        LOCFRAME ISTACK, 0, STACK
        LOCFRAME PSTACK, 0, STACK
        LOCFRAME XSTACK, 12, STACK
        LOCFRAME IOVERLAY, 0, STATIC
        LOCFRAME DOVERLAY, 0, STATIC
        ARGFRAME ISTACK, 0, STACK
        ARGFRAME PSTACK, 0, STACK
        ARGFRAME XSTACK, 12, STACK
        ARGFRAME IOVERLAY, 0, STATIC
        ARGFRAME DOVERLAY, 0, STATIC
        FUNCALL zb_StartConfirm, HalLedSet
        LOCFRAME ISTACK, 0, STACK
        LOCFRAME PSTACK, 0, STACK
        LOCFRAME XSTACK, 12, STACK
        LOCFRAME IOVERLAY, 0, STATIC
        LOCFRAME DOVERLAY, 0, STATIC
        ARGFRAME ISTACK, 0, STACK
        ARGFRAME PSTACK, 0, STACK
        ARGFRAME XSTACK, 12, STACK
        ARGFRAME IOVERLAY, 0, STATIC
        ARGFRAME DOVERLAY, 0, STATIC
        FUNCALL zb_StartConfirm, HalLedSet
        LOCFRAME ISTACK, 0, STACK
        LOCFRAME PSTACK, 0, STACK
        LOCFRAME XSTACK, 12, STACK
        LOCFRAME IOVERLAY, 0, STATIC
        LOCFRAME DOVERLAY, 0, STATIC
        ARGFRAME ISTACK, 0, STACK
        ARGFRAME PSTACK, 0, STACK
        ARGFRAME XSTACK, 12, STACK
        ARGFRAME IOVERLAY, 0, STATIC
        ARGFRAME DOVERLAY, 0, STATIC
        FUNCALL zb_StartConfirm, HalLedSet
        LOCFRAME ISTACK, 0, STACK
        LOCFRAME PSTACK, 0, STACK
        LOCFRAME XSTACK, 12, STACK
        LOCFRAME IOVERLAY, 0, STATIC
        LOCFRAME DOVERLAY, 0, STATIC
        ARGFRAME ISTACK, 0, STACK
        ARGFRAME PSTACK, 0, STACK
        ARGFRAME XSTACK, 12, STACK
        ARGFRAME IOVERLAY, 0, STATIC
        ARGFRAME DOVERLAY, 0, STATIC
        FUNCALL zb_StartConfirm, osal_start_timerEx
        LOCFRAME ISTACK, 0, STACK
        LOCFRAME PSTACK, 0, STACK
        LOCFRAME XSTACK, 16, STACK
        LOCFRAME IOVERLAY, 0, STATIC
        LOCFRAME DOVERLAY, 0, STATIC
        ARGFRAME ISTACK, 0, STACK
        ARGFRAME PSTACK, 0, STACK
        ARGFRAME XSTACK, 16, STACK
        ARGFRAME IOVERLAY, 0, STATIC
        ARGFRAME DOVERLAY, 0, STATIC
        REQUIRE ?V0
        REQUIRE ?V1
        REQUIRE ?V2
        REQUIRE ?V3
        MOV     A,#-0xc
        LCALL   ?BANKED_ENTER_XDATA
          CFI DPH0 load(1, XDATA, add(CFA_XSP16, literal(-1)))
          CFI DPL0 load(1, XDATA, add(CFA_XSP16, literal(-2)))
          CFI ?BRET_EXT load(1, XDATA, add(CFA_XSP16, literal(-3)))
          CFI ?RET_HIGH load(1, XDATA, add(CFA_XSP16, literal(-4)))
          CFI ?RET_LOW load(1, XDATA, add(CFA_XSP16, literal(-5)))
          CFI R7 load(1, XDATA, add(CFA_XSP16, literal(-6)))
          CFI V3 load(1, XDATA, add(CFA_XSP16, literal(-7)))
          CFI V2 load(1, XDATA, add(CFA_XSP16, literal(-8)))
          CFI V1 load(1, XDATA, add(CFA_XSP16, literal(-9)))
          CFI V0 load(1, XDATA, add(CFA_XSP16, literal(-10)))
          CFI VB load(1, XDATA, add(CFA_XSP16, literal(-11)))
          CFI R6 load(1, XDATA, add(CFA_XSP16, literal(-12)))
          CFI CFA_SP SP+0
          CFI CFA_XSP16 add(XSP16, 12)
        ; Saved register size: 12
        ; Auto size: 0
        MOV     A,R1
//  293   MCU_IO_DIR_OUTPUT_PREP(0, 4);
        ORL     0xfd,#0x10
//  294   MCU_IO_DIR_OUTPUT_PREP(0, 7);
        ORL     0xfd,#0x80
//  295   MCU_IO_DIR_INPUT_PREP(0, 2);
        ANL     0xfd,#0xfb
//  296   MCU_IO_INPUT_PREP(0,2,MCU_IO_PULLDOWN); 
        ANL     0xf3,#0xfb
        ANL     0xfd,#0xfb
        ANL     0x8f,#0xfb
        ORL     0xf7,#0x20
//  297   MCU_IO_OUTPUT_PREP(0, 4, 0);
        LCALL   ?Subroutine3 & 0xFFFF
//  298   MCU_IO_OUTPUT_PREP(0, 7, DOOR_OPEN);
??CrossCallReturnLabel_0:
        ANL     0xf3,#0x7f
        SETB    0x80.7
        ORL     0xfd,#0x80
//  299   
//  300   // If the device sucessfully started, change state to running
//  301   if ( status == ZB_SUCCESS )
        JNZ     ??zb_StartConfirm_0
//  302   {
//  303     // Change application state
//  304     appState = APP_START;
        MOV     DPTR,#appState
        MOV     A,#0x2
        MOVX    @DPTR,A
//  305     
//  306     zb_AllowBind( 0xFF );
        ; Setup parameters for call to function zb_AllowBind
        MOV     R1,#-0x1
        LCALL   `??zb_AllowBind::?relay`; Banked call to: zb_AllowBind
//  307     
//  308     HalLedSet( HAL_LED_1, HAL_LED_MODE_ON );
        ; Setup parameters for call to function HalLedSet
        MOV     R2,#0x1
        MOV     R1,#0x1
        LCALL   `??HalLedSet::?relay`; Banked call to: HalLedSet
//  309     HalLedSet( HAL_LED_2, HAL_LED_MODE_OFF );
        ; Setup parameters for call to function HalLedSet
        MOV     R2,#0x0
        MOV     R1,#0x2
        LCALL   `??HalLedSet::?relay`; Banked call to: HalLedSet
//  310     HalLedSet( HAL_LED_3, HAL_LED_MODE_OFF );
        ; Setup parameters for call to function HalLedSet
        MOV     R2,#0x0
        MOV     R1,#0x4
        LCALL   `??HalLedSet::?relay`; Banked call to: HalLedSet
        SJMP    ??zb_StartConfirm_1
//  311   }
//  312   else
//  313   {
//  314     // Try again later with a delay
//  315     osal_start_timerEx( sapi_TaskID, MY_START_EVT, myStartRetryDelay );
??zb_StartConfirm_0:
        ; Setup parameters for call to function osal_start_timerEx
        MOV     DPTR,#myStartRetryDelay
        MOVX    A,@DPTR
        MOV     ?V0,A
        CLR     A
        MOV     ?V1,A
        MOV     ?V2,A
        MOV     ?V3,A
        MOV     R0,#?V0
        LCALL   ?PUSH_XSTACK_I_FOUR
          CFI CFA_XSP16 add(XSP16, 16)
        MOV     R2,#0x1
        MOV     R3,#0x0
        MOV     DPTR,#sapi_TaskID
        MOVX    A,@DPTR
        MOV     R1,A
        LCALL   `??osal_start_timerEx::?relay`; Banked call to: osal_start_timerEx
        MOV     A,#0x4
        LCALL   ?DEALLOC_XSTACK8
          CFI CFA_XSP16 add(XSP16, 12)
//  316   }
//  317 }
??zb_StartConfirm_1:
        MOV     R7,#0x4
        LJMP    ?BANKED_LEAVE_XDATA
          CFI R6 SameValue
          CFI VB SameValue
          CFI V0 SameValue
          CFI V1 SameValue
          CFI V2 SameValue
          CFI V3 SameValue
          CFI R7 SameValue
          CFI ?RET_LOW Frame(CFA_SP, 1)
          CFI ?RET_HIGH Frame(CFA_SP, 2)
          CFI ?BRET_EXT Frame(CFA_SP, 3)
          CFI DPL0 SameValue
          CFI DPH0 SameValue
          CFI CFA_SP SP+-3
          CFI CFA_XSP16 XSP16+0
          CFI EndBlock cfiBlock4
        REQUIRE P0DIR
        REQUIRE P0SEL
        REQUIRE P0INP
        REQUIRE P2INP
        REQUIRE _A_P0
//  318 
//  319 /******************************************************************************
//  320  * @fn          zb_SendDataConfirm
//  321  *
//  322  * @brief       The zb_SendDataConfirm callback function is called by the
//  323  *              ZigBee stack after a send data operation completes
//  324  *
//  325  * @param       handle - The handle identifying the data transmission.
//  326  *              status - The status of the operation.
//  327  *
//  328  * @return      none
//  329  */

        RSEG BANKED_CODE:CODE:NOROOT(0)
//  330 void zb_SendDataConfirm( uint8 handle, uint8 status )
zb_SendDataConfirm:
          CFI Block cfiBlock5 Using cfiCommon0
          CFI Function zb_SendDataConfirm
        CODE
//  331 {
        ; Saved register size: 0
        ; Auto size: 0
//  332   if (status == ZB_SUCCESS){
//  333     
//  334   //(void)handle;
//  335   //(void)status;
//  336     //HalLedSet( HAL_LED_1, HAL_LED_MODE_OFF );
//  337   }
//  338 }
        LJMP    ?BRET
          CFI EndBlock cfiBlock5
//  339 
//  340 /******************************************************************************
//  341  * @fn          zb_BindConfirm
//  342  *
//  343  * @brief       The zb_BindConfirm callback is called by the ZigBee stack
//  344  *              after a bind operation completes.
//  345  *
//  346  * @param       commandId - The command ID of the binding being confirmed.
//  347  *              status - The status of the bind operation.
//  348  *
//  349  * @return      none
//  350  */

        RSEG BANKED_CODE:CODE:NOROOT(0)
//  351 void zb_BindConfirm( uint16 commandId, uint8 status )
zb_BindConfirm:
          CFI Block cfiBlock6 Using cfiCommon0
          CFI Function zb_BindConfirm
        CODE
//  352 {
        FUNCALL zb_BindConfirm, HalLedSet
        LOCFRAME ISTACK, 0, STACK
        LOCFRAME PSTACK, 0, STACK
        LOCFRAME XSTACK, 9, STACK
        LOCFRAME IOVERLAY, 0, STATIC
        LOCFRAME DOVERLAY, 0, STATIC
        ARGFRAME ISTACK, 0, STACK
        ARGFRAME PSTACK, 0, STACK
        ARGFRAME XSTACK, 9, STACK
        ARGFRAME IOVERLAY, 0, STATIC
        ARGFRAME DOVERLAY, 0, STATIC
        MOV     A,#-0x9
        LCALL   ?BANKED_ENTER_XDATA
          CFI DPH0 load(1, XDATA, add(CFA_XSP16, literal(-1)))
          CFI DPL0 load(1, XDATA, add(CFA_XSP16, literal(-2)))
          CFI ?BRET_EXT load(1, XDATA, add(CFA_XSP16, literal(-3)))
          CFI ?RET_HIGH load(1, XDATA, add(CFA_XSP16, literal(-4)))
          CFI ?RET_LOW load(1, XDATA, add(CFA_XSP16, literal(-5)))
          CFI R7 load(1, XDATA, add(CFA_XSP16, literal(-6)))
          CFI V0 load(1, XDATA, add(CFA_XSP16, literal(-7)))
          CFI VB load(1, XDATA, add(CFA_XSP16, literal(-8)))
          CFI R6 load(1, XDATA, add(CFA_XSP16, literal(-9)))
          CFI CFA_SP SP+0
          CFI CFA_XSP16 add(XSP16, 9)
        ; Saved register size: 9
        ; Auto size: 0
        MOV     A,R1
//  353   
//  354   MCU_IO_OUTPUT_PREP(0, 4, 0);
        LCALL   ?Subroutine3 & 0xFFFF
//  355   if (status == ZB_SUCCESS){
??CrossCallReturnLabel_1:
        JNZ     ??zb_BindConfirm_0
//  356     MCU_IO_OUTPUT_PREP(0, 4, 1);
        ANL     0xf3,#0xef
        SETB    0x80.4
        ORL     0xfd,#0x10
//  357     HalLedSet ( HAL_LED_2, HAL_LED_MODE_ON);
        ; Setup parameters for call to function HalLedSet
        MOV     R2,#0x1
        MOV     R1,#0x2
        LCALL   `??HalLedSet::?relay`; Banked call to: HalLedSet
//  358   }
//  359 }
??zb_BindConfirm_0:
        LJMP    ?Subroutine1 & 0xFFFF
          CFI EndBlock cfiBlock6
        REQUIRE P0SEL
        REQUIRE _A_P0
        REQUIRE P0DIR

        RSEG BANKED_CODE:CODE:NOROOT(0)
?Subroutine3:
          CFI Block cfiCond7 Using cfiCommon0
          CFI Function zb_StartConfirm
          CFI Conditional ??CrossCallReturnLabel_0
          CFI R6 load(1, XDATA, add(CFA_XSP16, literal(-12)))
          CFI VB load(1, XDATA, add(CFA_XSP16, literal(-11)))
          CFI V0 load(1, XDATA, add(CFA_XSP16, literal(-10)))
          CFI V1 load(1, XDATA, add(CFA_XSP16, literal(-9)))
          CFI V2 load(1, XDATA, add(CFA_XSP16, literal(-8)))
          CFI V3 load(1, XDATA, add(CFA_XSP16, literal(-7)))
          CFI R7 load(1, XDATA, add(CFA_XSP16, literal(-6)))
          CFI ?RET_LOW load(1, XDATA, add(CFA_XSP16, literal(-5)))
          CFI ?RET_HIGH load(1, XDATA, add(CFA_XSP16, literal(-4)))
          CFI ?BRET_EXT load(1, XDATA, add(CFA_XSP16, literal(-3)))
          CFI DPL0 load(1, XDATA, add(CFA_XSP16, literal(-2)))
          CFI DPH0 load(1, XDATA, add(CFA_XSP16, literal(-1)))
          CFI CFA_SP SP+-2
          CFI CFA_XSP16 add(XSP16, 12)
          CFI Block cfiCond8 Using cfiCommon0
          CFI (cfiCond8) Function zb_BindConfirm
          CFI (cfiCond8) Conditional ??CrossCallReturnLabel_1
          CFI (cfiCond8) R6 load(1, XDATA, add(CFA_XSP16, literal(-9)))
          CFI (cfiCond8) VB load(1, XDATA, add(CFA_XSP16, literal(-8)))
          CFI (cfiCond8) V0 load(1, XDATA, add(CFA_XSP16, literal(-7)))
          CFI (cfiCond8) R7 load(1, XDATA, add(CFA_XSP16, literal(-6)))
          CFI (cfiCond8) ?RET_LOW load(1, XDATA, add(CFA_XSP16, literal(-5)))
          CFI (cfiCond8) ?RET_HIGH load(1, XDATA, add(CFA_XSP16, literal(-4)))
          CFI (cfiCond8) ?BRET_EXT load(1, XDATA, add(CFA_XSP16, literal(-3)))
          CFI (cfiCond8) DPL0 load(1, XDATA, add(CFA_XSP16, literal(-2)))
          CFI (cfiCond8) DPH0 load(1, XDATA, add(CFA_XSP16, literal(-1)))
          CFI (cfiCond8) CFA_SP SP+-2
          CFI (cfiCond8) CFA_XSP16 add(XSP16, 9)
          CFI Block cfiPicker9 Using cfiCommon1
          CFI (cfiPicker9) NoFunction
          CFI (cfiPicker9) Picker
        ANL     0xf3,#0xef
        CLR     0x80.4
        ORL     0xfd,#0x10
        RET
          CFI (cfiCond7) CFA_SP SP+0
          CFI (cfiCond8) CFA_SP SP+0
          CFI (cfiPicker9) CFA_SP SP+0
          CFI EndBlock cfiCond7
          CFI EndBlock cfiCond8
          CFI EndBlock cfiPicker9
//  360 
//  361 /******************************************************************************
//  362  * @fn          zb_AllowBindConfirm
//  363  *
//  364  * @brief       Indicates when another device attempted to bind to this device
//  365  *
//  366  * @param
//  367  *
//  368  * @return      none
//  369  */

        RSEG BANKED_CODE:CODE:NOROOT(0)
//  370 void zb_AllowBindConfirm( uint16 source )
zb_AllowBindConfirm:
          CFI Block cfiBlock10 Using cfiCommon0
          CFI Function zb_AllowBindConfirm
        CODE
//  371 {
        FUNCALL zb_AllowBindConfirm, zb_AllowBind
        LOCFRAME ISTACK, 2, STACK
        LOCFRAME PSTACK, 0, STACK
        LOCFRAME XSTACK, 0, STACK
        LOCFRAME IOVERLAY, 0, STATIC
        LOCFRAME DOVERLAY, 0, STATIC
        ARGFRAME ISTACK, 2, STACK
        ARGFRAME PSTACK, 0, STACK
        ARGFRAME XSTACK, 0, STACK
        ARGFRAME IOVERLAY, 0, STATIC
        ARGFRAME DOVERLAY, 0, STATIC
        FUNCALL zb_AllowBindConfirm, zb_BindDevice
        LOCFRAME ISTACK, 2, STACK
        LOCFRAME PSTACK, 0, STACK
        LOCFRAME XSTACK, 0, STACK
        LOCFRAME IOVERLAY, 0, STATIC
        LOCFRAME DOVERLAY, 0, STATIC
        ARGFRAME ISTACK, 2, STACK
        ARGFRAME PSTACK, 0, STACK
        ARGFRAME XSTACK, 0, STACK
        ARGFRAME IOVERLAY, 0, STATIC
        ARGFRAME DOVERLAY, 0, STATIC
        PUSH    DPL
          CFI DPL0 Frame(CFA_SP, 4)
          CFI CFA_SP SP+-4
        PUSH    DPH
          CFI DPH0 Frame(CFA_SP, 5)
          CFI CFA_SP SP+-5
        ; Saved register size: 2
        ; Auto size: 0
//  372   zb_AllowBind( 0x00 );
        ; Setup parameters for call to function zb_AllowBind
        MOV     R1,#0x0
        LCALL   `??zb_AllowBind::?relay`; Banked call to: zb_AllowBind
//  373   zb_BindDevice( TRUE, LOCK_STATUS_CMD_ID, (uint8 *)NULL) ;  
        ; Setup parameters for call to function zb_BindDevice
        MOV     R4,#0x0
        MOV     R5,#0x0
        MOV     R2,#0x3
        MOV     R3,#0x0
        MOV     R1,#0x1
        LCALL   `??zb_BindDevice::?relay`; Banked call to: zb_BindDevice
//  374 }
          CFI EndBlock cfiBlock10
        REQUIRE ?Subroutine2
        ; // Fall through to label ?Subroutine2

        RSEG BANKED_CODE:CODE:NOROOT(0)
?Subroutine2:
          CFI Block cfiBlock11 Using cfiCommon0
          CFI NoFunction
          CFI CFA_SP SP+-5
          CFI DPL0 Frame(CFA_SP, 4)
          CFI DPH0 Frame(CFA_SP, 5)
        POP     DPH
          CFI CFA_SP SP+-4
          CFI DPH0 SameValue
        POP     DPL
          CFI CFA_SP SP+-3
          CFI DPL0 SameValue
        LJMP    ?BRET
          CFI EndBlock cfiBlock11
//  375 
//  376 /******************************************************************************
//  377  * @fn          zb_FindDeviceConfirm
//  378  *
//  379  * @brief       The zb_FindDeviceConfirm callback function is called by the
//  380  *              ZigBee stack when a find device operation completes.
//  381  *
//  382  * @param       searchType - The type of search that was performed.
//  383  *              searchKey - Value that the search was executed on.
//  384  *              result - The result of the search.
//  385  *
//  386  * @return      none
//  387  */

        RSEG BANKED_CODE:CODE:NOROOT(0)
//  388 void zb_FindDeviceConfirm( uint8 searchType, uint8 *searchKey, uint8 *result )
zb_FindDeviceConfirm:
          CFI Block cfiBlock12 Using cfiCommon0
          CFI Function zb_FindDeviceConfirm
        CODE
//  389 {
        ; Saved register size: 0
        ; Auto size: 0
//  390   (void)searchType;
//  391   (void)searchKey;
//  392   (void)result;
//  393 }
        LJMP    ?BRET
          CFI EndBlock cfiBlock12
//  394 
//  395 /******************************************************************************
//  396  * @fn          zb_ReceiveDataIndication
//  397  *
//  398  * @brief       The zb_ReceiveDataIndication callback function is called
//  399  *              asynchronously by the ZigBee stack to notify the application
//  400  *              when data is received from a peer device.
//  401  *
//  402  * @param       source - The short address of the peer device that sent the data
//  403  *              command - The commandId associated with the data
//  404  *              len - The number of bytes in the pData parameter
//  405  *              pData - The data sent by the peer device
//  406  *
//  407  * @return      none
//  408  */

        RSEG BANKED_CODE:CODE:NOROOT(0)
//  409 void zb_ReceiveDataIndication( uint16 source, uint16 command, uint16 len, uint8 *pData  )
zb_ReceiveDataIndication:
          CFI Block cfiBlock13 Using cfiCommon0
          CFI Function zb_ReceiveDataIndication
        CODE
//  410 {
        PUSH    DPL
          CFI DPL0 Frame(CFA_SP, 4)
          CFI CFA_SP SP+-4
        PUSH    DPH
          CFI DPH0 Frame(CFA_SP, 5)
          CFI CFA_SP SP+-5
        ; Saved register size: 2
        ; Auto size: 0
//  411   (void)command;
//  412   (void)len;
//  413   
//  414   if( doorState == DOOR_OPEN){
        MOV     DPTR,#doorState
        MOVX    A,@DPTR
        XRL     A,#0x1
        ANL     0xf3,#0x7f
        JNZ     ??zb_ReceiveDataIndication_0
//  415      //MCU_IO_OUTPUT_PREP(0, 4, 1);
//  416      MCU_IO_OUTPUT_PREP(0, 7, 0);
        CLR     0x80.7
        ORL     0xfd,#0x80
//  417      doorState = DOOR_CLOSE;
        CLR     A
        SJMP    ??zb_ReceiveDataIndication_1
//  418   } else {
//  419      //MCU_IO_OUTPUT_PREP(0, 4, 0);
//  420      MCU_IO_OUTPUT_PREP(0, 7, 1);
??zb_ReceiveDataIndication_0:
        SETB    0x80.7
        ORL     0xfd,#0x80
//  421      doorState = DOOR_OPEN;
        MOV     A,#0x1
??zb_ReceiveDataIndication_1:
        MOVX    @DPTR,A
//  422   }
//  423  
//  424   //gtwData.parent = BUILD_UINT16(pData[SENSOR_PARENT_OFFSET+ 1], pData[SENSOR_PARENT_OFFSET]);
//  425   /*gtwData.source = source;
//  426   gtwData.temp = *pData;
//  427   gtwData.voltage = *(pData+1);
//  428 
//  429   // Flash LED 2 once to indicate data reception
//  430   HalLedSet ( HAL_LED_2, HAL_LED_MODE_FLASH );
//  431 
//  432   // Send gateway report
//  433   sendGtwReport(&gtwData);*/
//  434   
//  435 }
        SJMP    ?Subroutine2
          CFI EndBlock cfiBlock13
        REQUIRE P0SEL
        REQUIRE _A_P0
        REQUIRE P0DIR
//  436 
//  437 /******************************************************************************
//  438  * @fn          uartRxCB
//  439  *
//  440  * @brief       Callback function for UART
//  441  *
//  442  * @param       port - UART port
//  443  *              event - UART event that caused callback
//  444  *
//  445  * @return      none
//  446  */

        RSEG BANKED_CODE:CODE:NOROOT(0)
//  447 void uartRxCB( uint8 port, uint8 event )
uartRxCB:
          CFI Block cfiBlock14 Using cfiCommon0
          CFI Function uartRxCB
        CODE
//  448 {
        FUNCALL uartRxCB, HalUARTRead
        LOCFRAME ISTACK, 0, STACK
        LOCFRAME PSTACK, 0, STACK
        LOCFRAME XSTACK, 145, STACK
        LOCFRAME IOVERLAY, 0, STATIC
        LOCFRAME DOVERLAY, 0, STATIC
        ARGFRAME ISTACK, 0, STACK
        ARGFRAME PSTACK, 0, STACK
        ARGFRAME XSTACK, 145, STACK
        ARGFRAME IOVERLAY, 0, STATIC
        ARGFRAME DOVERLAY, 0, STATIC
        FUNCALL uartRxCB, HalUARTWrite
        LOCFRAME ISTACK, 0, STACK
        LOCFRAME PSTACK, 0, STACK
        LOCFRAME XSTACK, 145, STACK
        LOCFRAME IOVERLAY, 0, STATIC
        LOCFRAME DOVERLAY, 0, STATIC
        ARGFRAME ISTACK, 0, STACK
        ARGFRAME PSTACK, 0, STACK
        ARGFRAME XSTACK, 145, STACK
        ARGFRAME IOVERLAY, 0, STATIC
        ARGFRAME DOVERLAY, 0, STATIC
        REQUIRE ?V0
        REQUIRE ?V1
        MOV     A,#-0xa
        LCALL   ?BANKED_ENTER_XDATA
          CFI DPH0 load(1, XDATA, add(CFA_XSP16, literal(-1)))
          CFI DPL0 load(1, XDATA, add(CFA_XSP16, literal(-2)))
          CFI ?BRET_EXT load(1, XDATA, add(CFA_XSP16, literal(-3)))
          CFI ?RET_HIGH load(1, XDATA, add(CFA_XSP16, literal(-4)))
          CFI ?RET_LOW load(1, XDATA, add(CFA_XSP16, literal(-5)))
          CFI R7 load(1, XDATA, add(CFA_XSP16, literal(-6)))
          CFI V1 load(1, XDATA, add(CFA_XSP16, literal(-7)))
          CFI V0 load(1, XDATA, add(CFA_XSP16, literal(-8)))
          CFI VB load(1, XDATA, add(CFA_XSP16, literal(-9)))
          CFI R6 load(1, XDATA, add(CFA_XSP16, literal(-10)))
          CFI CFA_SP SP+0
          CFI CFA_XSP16 add(XSP16, 10)
        ; Saved register size: 10
        ; Auto size: 135
        MOV     A,#0x79
        LCALL   ?ALLOC_XSTACK8
          CFI CFA_XSP16 add(XSP16, 145)
        MOV     A,R2
        MOV     R6,A
//  449   (void)port;
//  450 
//  451   uint8 pBuf[RX_BUF_LEN];
//  452   uint16 cmd;
//  453   uint16 len;
//  454 
//  455   if ( event != HAL_UART_TX_EMPTY )
        MOV     A,#0x10
        XRL     A,R6
        JNZ     $+5
        LJMP    ??uartRxCB_0 & 0xFFFF
//  456   {
//  457     // Read from UART
//  458     len = HalUARTRead( HAL_UART_PORT_0, pBuf, RX_BUF_LEN );
//  459 
//  460     if ( len > 0 )
        ; Setup parameters for call to function HalUARTRead
        MOV     R4,#-0x80
        MOV     R5,#0x0
        MOV     A,#0x7
        LCALL   ?XSTACK_DISP101_8
        MOV     R1,#0x0
        LCALL   `??HalUARTRead::?relay`; Banked call to: HalUARTRead
        MOV     ?V1,R3
        MOV     A,R2
        ORL     A,?V1
        JZ      ??uartRxCB_0
//  461     {
//  462       cmd = BUILD_UINT16(pBuf[SYS_PING_CMD_OFFSET + 1], pBuf[SYS_PING_CMD_OFFSET]);
//  463 
//  464       if( (pBuf[FRAME_SOF_OFFSET] == CPT_SOP) && (cmd == SYS_PING_REQUEST) )
        MOV     A,#0x7
        LCALL   ?XSTACK_DISP0_8
        MOVX    A,@DPTR
        XRL     A,#0xfe
        JNZ     ??uartRxCB_0
        MOV     A,#0x9
        LCALL   ?XSTACK_DISP0_8
        MOVX    A,@DPTR
        MOV     R2,A
        MOV     A,#0x8
        LCALL   ?XSTACK_DISP0_8
        MOVX    A,@DPTR
        MOV     R1,A
        MOV     A,R2
        MOV     R0,A
        MOV     A,#0x21
        XRL     A,R0
        ORL     A,R1
        JNZ     ??uartRxCB_0
//  465       {
//  466         sysPingReqRcvd();
        MOV     DPL,?XSP + 0
        MOV     DPH,?XSP + 1
        MOV     A,#-0x2
        MOVX    @DPTR,A
        MOV     A,#0x1
        LCALL   ?XSTACK_DISP0_8
        MOV     A,#0x2
        MOVX    @DPTR,A
        LCALL   ?XSTACK_DISP0_8
        MOV     A,#0x61
        MOVX    @DPTR,A
        MOV     A,#0x3
        LCALL   ?XSTACK_DISP0_8
        MOV     A,#0x1
        MOVX    @DPTR,A
        MOV     A,#0x4
        LCALL   ?XSTACK_DISP0_8
        MOV     A,#0x41
        MOVX    @DPTR,A
        MOV     A,#0x5
        LCALL   ?XSTACK_DISP0_8
        CLR     A
        MOVX    @DPTR,A
        INC     A
        LCALL   ?XSTACK_DISP0_8
        MOV     R0,#0x0
        MOV     R1,#0x5
??uartRxCB_1:
        MOVX    A,@DPTR
        XCH     A,R0
        XRL     A,R0
        MOV     R0,A
        INC     DPTR
        DJNZ    R1,??uartRxCB_1
        MOV     A,#0x6
        LCALL   ?XSTACK_DISP0_8
        MOV     A,R0
        MOVX    @DPTR,A
        ; Setup parameters for call to function HalUARTWrite
        MOV     R4,#0x7
        MOV     R5,#0x0
        MOV     R2,?XSP + 0
        MOV     R3,?XSP + 1
        MOV     R1,#0x0
        LCALL   `??HalUARTWrite::?relay`; Banked call to: HalUARTWrite
//  467       }
//  468     }
//  469   }
//  470 }
??uartRxCB_0:
        MOV     A,#-0x79
        LJMP    ?Subroutine0 & 0xFFFF
          CFI EndBlock cfiBlock14

        RSEG XDATA_ID:CODE:NOROOT(0)
`?<Initializer for myStartRetryDelay>`:
        DATA8
        DB 10

        RSEG XDATA_ID:CODE:NOROOT(0)
`?<Initializer for doorState>`:
        DATA8
        DB 1

        RSEG XDATA_ROM_C:CONST:REORDER:NOROOT(0)
        DATA32
__Constant_64:
        DD 100

        RSEG BANK_RELAYS:CODE:REORDER:NOROOT(0)
`??zb_HandleOsalEvent::?relay`:
        CODE
        LCALL   ?BDISPATCH
        DATA24
        DC24    zb_HandleOsalEvent

        RSEG BANK_RELAYS:CODE:REORDER:NOROOT(0)
`??zb_HandleKeys::?relay`:
        CODE
        LCALL   ?BDISPATCH
        DATA24
        DC24    zb_HandleKeys

        RSEG BANK_RELAYS:CODE:REORDER:NOROOT(0)
`??zb_StartConfirm::?relay`:
        CODE
        LCALL   ?BDISPATCH
        DATA24
        DC24    zb_StartConfirm

        RSEG BANK_RELAYS:CODE:REORDER:NOROOT(0)
`??zb_SendDataConfirm::?relay`:
        CODE
        LCALL   ?BDISPATCH
        DATA24
        DC24    zb_SendDataConfirm

        RSEG BANK_RELAYS:CODE:REORDER:NOROOT(0)
`??zb_BindConfirm::?relay`:
        CODE
        LCALL   ?BDISPATCH
        DATA24
        DC24    zb_BindConfirm

        RSEG BANK_RELAYS:CODE:REORDER:NOROOT(0)
`??zb_AllowBindConfirm::?relay`:
        CODE
        LCALL   ?BDISPATCH
        DATA24
        DC24    zb_AllowBindConfirm

        RSEG BANK_RELAYS:CODE:REORDER:NOROOT(0)
`??zb_FindDeviceConfirm::?relay`:
        CODE
        LCALL   ?BDISPATCH
        DATA24
        DC24    zb_FindDeviceConfirm

        RSEG BANK_RELAYS:CODE:REORDER:NOROOT(0)
`??zb_ReceiveDataIndication::?relay`:
        CODE
        LCALL   ?BDISPATCH
        DATA24
        DC24    zb_ReceiveDataIndication

        RSEG BANK_RELAYS:CODE:REORDER:NOROOT(0)
`??uartRxCB::?relay`:
        CODE
        LCALL   ?BDISPATCH
        DATA24
        DC24    uartRxCB

        END
//  471 
//  472 /******************************************************************************
//  473  * @fn          sysPingReqRcvd
//  474  *
//  475  * @brief       Ping request received
//  476  *
//  477  * @param       none
//  478  *
//  479  * @return      none
//  480  */
//  481 static void sysPingReqRcvd(void)
//  482 {
//  483    sysPingRsp();
//  484 }
//  485 
//  486 /******************************************************************************
//  487  * @fn          sysPingRsp
//  488  *
//  489  * @brief       Build and send Ping response
//  490  *
//  491  * @param       none
//  492  *
//  493  * @return      none
//  494  */
//  495 static void sysPingRsp(void)
//  496 {
//  497   uint8 pBuf[SYS_PING_RSP_LENGTH];
//  498 
//  499   // Start of Frame Delimiter
//  500   pBuf[FRAME_SOF_OFFSET] = CPT_SOP;
//  501 
//  502   // Length
//  503   pBuf[FRAME_LENGTH_OFFSET] = 2;
//  504 
//  505   // Command type
//  506   pBuf[FRAME_CMD0_OFFSET] = LO_UINT16(SYS_PING_RESPONSE);
//  507   pBuf[FRAME_CMD1_OFFSET] = HI_UINT16(SYS_PING_RESPONSE);
//  508 
//  509   // Stack profile
//  510   pBuf[FRAME_DATA_OFFSET] = LO_UINT16(STACK_PROFILE);
//  511   pBuf[FRAME_DATA_OFFSET + 1] = HI_UINT16(STACK_PROFILE);
//  512 
//  513   // Frame Check Sequence
//  514   pBuf[SYS_PING_RSP_LENGTH - 1] = calcFCS(&pBuf[FRAME_LENGTH_OFFSET], (SYS_PING_RSP_LENGTH - 2));
//  515 
//  516   // Write frame to UART
//  517   HalUARTWrite(HAL_UART_PORT_0,pBuf, SYS_PING_RSP_LENGTH);
//  518 }
//  519 
//  520 /******************************************************************************
//  521  * @fn          sendGtwReport
//  522  *
//  523  * @brief       Build and send gateway report
//  524  *
//  525  * @param       none
//  526  *
//  527  * @return      none
//  528  */
//  529 static void sendGtwReport(gtwData_t *gtwData)
//  530 {
//  531   uint8 pFrame[ZB_RECV_LENGTH];
//  532 
//  533   // Start of Frame Delimiter
//  534   pFrame[FRAME_SOF_OFFSET] = CPT_SOP; // Start of Frame Delimiter
//  535 
//  536   // Length
//  537   pFrame[FRAME_LENGTH_OFFSET] = 10;
//  538 
//  539   // Command type
//  540   pFrame[FRAME_CMD0_OFFSET] = LO_UINT16(ZB_RECEIVE_DATA_INDICATION);
//  541   pFrame[FRAME_CMD1_OFFSET] = HI_UINT16(ZB_RECEIVE_DATA_INDICATION);
//  542 
//  543   // Source address
//  544   pFrame[FRAME_DATA_OFFSET + ZB_RECV_SRC_OFFSET] = LO_UINT16(gtwData->source);
//  545   pFrame[FRAME_DATA_OFFSET + ZB_RECV_SRC_OFFSET+ 1] = HI_UINT16(gtwData->source);
//  546 
//  547   // Command ID
//  548  // pFrame[FRAME_DATA_OFFSET + ZB_RECV_CMD_OFFSET] = LO_UINT16(SENSOR_REPORT_CMD_ID);
//  549  // pFrame[FRAME_DATA_OFFSET + ZB_RECV_CMD_OFFSET+ 1] = HI_UINT16(SENSOR_REPORT_CMD_ID);
//  550 
//  551   // Length
//  552   pFrame[FRAME_DATA_OFFSET + ZB_RECV_LEN_OFFSET] = LO_UINT16(4);
//  553   pFrame[FRAME_DATA_OFFSET + ZB_RECV_LEN_OFFSET+ 1] = HI_UINT16(4);
//  554 
//  555   // Data
//  556   pFrame[FRAME_DATA_OFFSET + ZB_RECV_DATA_OFFSET] = gtwData->temp;
//  557   pFrame[FRAME_DATA_OFFSET + ZB_RECV_DATA_OFFSET+ 1] = gtwData->voltage;
//  558   pFrame[FRAME_DATA_OFFSET + ZB_RECV_DATA_OFFSET+ 2] = LO_UINT16(gtwData->parent);
//  559   pFrame[FRAME_DATA_OFFSET + ZB_RECV_DATA_OFFSET+ 3] = HI_UINT16(gtwData->parent);
//  560 
//  561   // Frame Check Sequence
//  562   pFrame[ZB_RECV_LENGTH - 1] = calcFCS(&pFrame[FRAME_LENGTH_OFFSET], (ZB_RECV_LENGTH - 2) );
//  563 
//  564   // Write report to UART
//  565   HalUARTWrite(HAL_UART_PORT_0,pFrame, ZB_RECV_LENGTH);
//  566 }
//  567 
//  568 /******************************************************************************
//  569  * @fn          calcFCS
//  570  *
//  571  * @brief       This function calculates the FCS checksum for the serial message
//  572  *
//  573  * @param       pBuf - Pointer to the end of a buffer to calculate the FCS.
//  574  *              len - Length of the pBuf.
//  575  *
//  576  * @return      The calculated FCS.
//  577  ******************************************************************************
//  578  */
//  579 static uint8 calcFCS(uint8 *pBuf, uint8 len)
//  580 {
//  581   uint8 rtrn = 0;
//  582 
//  583   while ( len-- )
//  584   {
//  585     rtrn ^= *pBuf++;
//  586   }
//  587 
//  588   return rtrn;
//  589 }
// 
// 614 bytes in segment BANKED_CODE
//  54 bytes in segment BANK_RELAYS
//   5 bytes in segment SFR_AN
//   2 bytes in segment XDATA_I
//   2 bytes in segment XDATA_ID
//  20 bytes in segment XDATA_ROM_C
//   3 bytes in segment XDATA_Z
// 
// 670 bytes of CODE  memory
//  16 bytes of CONST memory (+ 4 bytes shared)
//   0 bytes of DATA  memory (+ 5 bytes shared)
//   5 bytes of XDATA memory
//
//Errors: none
//Warnings: 3
